TMS320C2000 Assembler PC v15.12.3 Sun Oct 30 14:01:37 2016

Tools Copyright (c) 1996-2015 Texas Instruments Incorporated
C:\Users\MaCHaDo\AppData\Local\Temp\0057210                          PAGE    1

       1              ;***************************************************************
       2              ;* TMS320C2000 C/C++ Codegen                   PC v15.12.3.LTS *
       3              ;* Date/Time created: Sun Oct 30 14:01:36 2016                 *
       4              ;***************************************************************
       5                      .compiler_opts --abi=coffabi --float_support=softlib --hll_source=on --mem_model:code=flat --mem_mode
       6        0002  FP      .set    XAR2
       7              
       8              $C$DW$CU        .dwtag  DW_TAG_compile_unit
       9                      .dwattr $C$DW$CU, DW_AT_name("../main.c")
      10                      .dwattr $C$DW$CU, DW_AT_producer("TI TMS320C2000 C/C++ Codegen PC v15.12.3.LTS Copyright (c) 1996-201
      11                      .dwattr $C$DW$CU, DW_AT_TI_version(0x01)
      12                      .dwattr $C$DW$CU, DW_AT_comp_dir("D:\Users\MaCHaDo\Documents\GitHub\LegStrong\Debug")
      13              ;**************************************************************
      14              ;* CINIT RECORDS                                              *
      15              ;**************************************************************
      16 00000000               .sect   ".cinit"
      17                      .align  1
      18 00000000 FFFF          .field          -1,16
      19 00000001 0000-         .field          _gCounter_updateGlobals+0,32
         00000002 0000 
      20 00000003 0000          .bits   0,16                    ; _gCounter_updateGlobals @ 0
      21              
      22 00000004               .sect   ".cinit"
      23                      .align  1
      24 00000004 FFFF          .field          -1,16
      25 00000005 0001-         .field          _Flag_Latch_softwareUpdate+0,32
         00000006 0000 
      26 00000007 0001          .bits   1,16                    ; _Flag_Latch_softwareUpdate @ 0
      27              
      28 00000008               .sect   ".cinit"
      29                      .align  1
      30 00000008 FFFF          .field          -1,16
      31 00000009 0002-         .field          _gLEDcnt+0,32
         0000000a 0000 
      32 0000000b 0000          .bits   0,16                    ; _gLEDcnt @ 0
      33              
      34 0000000c               .sect   ".cinit"
      35                      .align  1
      36 0000000c FFFE          .field          -2,16
      37 0000000d 0006-         .field          _gMaxCurrentSlope+0,32
         0000000e 0000 
      38 0000000f 0000          .bits   0,32                    ; _gMaxCurrentSlope @ 0
         00000010 0000 
      39              
      40 00000011               .sect   ".cinit"
      41                      .align  1
      42 00000011 FFFA          .field          -$C$IR_1,16
      43 00000012 0010-         .field          _gPwmData+0,32
         00000013 0000 
      44 00000014 0000          .bits   0,32                    ; _gPwmData._Tabc._value[0] @ 0
         00000015 0000 
      45 00000016 0000          .bits   0,32                    ; _gPwmData._Tabc._value[1] @ 32
         00000017 0000 
      46 00000018 0000          .bits   0,32                    ; _gPwmData._Tabc._value[2] @ 64
         00000019 0000 
TMS320C2000 Assembler PC v15.12.3 Sun Oct 30 14:01:37 2016

Tools Copyright (c) 1996-2015 Texas Instruments Incorporated
C:\Users\MaCHaDo\AppData\Local\Temp\0057210                          PAGE    2

      47        0006  $C$IR_1:        .set    6
      48              
      49 0000001a               .sect   ".cinit"
      50                      .align  1
      51 0000001a FF96          .field          -$C$IR_2,16
      52 0000001b 0040-         .field          _gMotorVars+0,32
         0000001c 0000 
      53 0000001d 0000          .bits   0,16                    ; _gMotorVars._Flag_enableSys @ 0
      54 0000001e 0000          .bits   0,16                    ; _gMotorVars._Flag_Run_Identify @ 16
      55 0000001f 0000          .bits   0,16                    ; _gMotorVars._Flag_MotorIdentified @ 32
      56 00000020 0001          .bits   1,16                    ; _gMotorVars._Flag_enableForceAngle @ 48
      57 00000021 0000          .bits   0,16                    ; _gMotorVars._Flag_enableFieldWeakening @ 64
      58 00000022 0000          .bits   0,16                    ; _gMotorVars._Flag_enableRsRecalc @ 80
      59 00000023 0001          .bits   1,16                    ; _gMotorVars._Flag_enableUserParams @ 96
      60 00000024 0000          .bits   0,16                    ; _gMotorVars._Flag_enableOffsetcalc @ 112
      61 00000025 0000          .bits   0,16                    ; _gMotorVars._Flag_enablePowerWarp @ 128
      62 00000026 0000          .bits   0,16                    ; _gMotorVars._Flag_enableSpeedCtrl @ 144
      63 00000027 0001          .bits   1,16                    ; _gMotorVars._CtrlState @ 160
      64 00000028 0001          .bits   1,16                    ; _gMotorVars._EstState @ 176
      65 00000029 0000          .bits   0,16                    ; _gMotorVars._UserErrorCode @ 192
      66 0000002a 0000          .bits   0,16                    ; _gMotorVars._CtrlVersion._rsvd @ 208
      67 0000002b 0004          .bits   4,16                    ; _gMotorVars._CtrlVersion._targetProc @ 224
      68 0000002c 0000          .bits   0,16                    ; _gMotorVars._CtrlVersion._major @ 240
      69 0000002d 0000          .bits   0,16                    ; _gMotorVars._CtrlVersion._minor @ 256
      70 0000002e               .space  16
      71 0000002f 0000          .bits   0,32                    ; _gMotorVars._IdRef_A @ 288
         00000030 0000 
      72 00000031 0000          .bits   0,32                    ; _gMotorVars._IqRef_A @ 320
         00000032 0000 
      73 00000033 0000          .bits   0,32                    ; _gMotorVars._SpeedRef_pu @ 352
         00000034 0000 
      74 00000035 9999          .bits   1677721,32                      ; _gMotorVars._SpeedRef_krpm @ 384
         00000036 0019 
      75 00000037 0000          .bits   0,32                    ; _gMotorVars._SpeedTraj_krpm @ 416
         00000038 0000 
      76 00000039 3333          .bits   3355443,32                      ; _gMotorVars._MaxAccel_krpmps @ 448
         0000003a 0033 
      77 0000003b 0000          .bits   0,32                    ; _gMotorVars._Speed_krpm @ 480
         0000003c 0000 
      78 0000003d 0000          .bits   8388608,32                      ; _gMotorVars._OverModulation @ 512
         0000003e 0080 
      79 0000003f 999A          .bits   10066330,32                     ; _gMotorVars._RsOnLineCurrent_A @ 544
         00000040 0099 
      80 00000041 0190          .bits   400,32                  ; _gMotorVars._SvgenMaxModulation_ticks @ 576
         00000042 0000 
      81 00000043 0000          .bits   0,32                    ; _gMotorVars._Flux_Wb @ 608
         00000044 0000 
      82 00000045 0000          .bits   0,32                    ; _gMotorVars._Torque_Nm @ 640
         00000046 0000 
      83 00000047 0000          .xfloat $strtod("0x0p+0")               ; _gMotorVars._MagnCurr_A @ 672
         00000048 0000 
      84 00000049 0000          .xfloat $strtod("0x0p+0")               ; _gMotorVars._Rr_Ohm @ 704
         0000004a 0000 
      85 0000004b 0000          .xfloat $strtod("0x0p+0")               ; _gMotorVars._Rs_Ohm @ 736
         0000004c 0000 
TMS320C2000 Assembler PC v15.12.3 Sun Oct 30 14:01:37 2016

Tools Copyright (c) 1996-2015 Texas Instruments Incorporated
C:\Users\MaCHaDo\AppData\Local\Temp\0057210                          PAGE    3

      86 0000004d 0000          .xfloat $strtod("0x0p+0")               ; _gMotorVars._RsOnLine_Ohm @ 768
         0000004e 0000 
      87 0000004f 0000          .xfloat $strtod("0x0p+0")               ; _gMotorVars._Lsd_H @ 800
         00000050 0000 
      88 00000051 0000          .xfloat $strtod("0x0p+0")               ; _gMotorVars._Lsq_H @ 832
         00000052 0000 
      89 00000053 0000          .xfloat $strtod("0x0p+0")               ; _gMotorVars._Flux_VpHz @ 864
         00000054 0000 
      90 00000055 0000          .xfloat $strtod("0x0p+0")               ; _gMotorVars._ipd_excFreq_Hz @ 896
         00000056 0000 
      91 00000057 0000          .bits   0,32                    ; _gMotorVars._ipd_Kspd @ 928
         00000058 0000 
      92 00000059 0000          .bits   0,32                    ; _gMotorVars._ipd_excMag_coarse_pu @ 960
         0000005a 0000 
      93 0000005b 0000          .bits   0,32                    ; _gMotorVars._ipd_excMag_fine_pu @ 992
         0000005c 0000 
      94 0000005d 0000          .xfloat $strtod("0x0p+0")               ; _gMotorVars._ipd_waitTime_coarse_sec @ 1024
         0000005e 0000 
      95 0000005f 0000          .xfloat $strtod("0x0p+0")               ; _gMotorVars._ipd_waitTime_fine_sec @ 1056
         00000060 0000 
      96 00000061 0000          .bits   0,32                    ; _gMotorVars._Kp_spd @ 1088
         00000062 0000 
      97 00000063 0000          .bits   0,32                    ; _gMotorVars._Ki_spd @ 1120
         00000064 0000 
      98 00000065 0000          .bits   0,32                    ; _gMotorVars._Kp_Idq @ 1152
         00000066 0000 
      99 00000067 0000          .bits   0,32                    ; _gMotorVars._Ki_Idq @ 1184
         00000068 0000 
     100 00000069 0000          .bits   0,32                    ; _gMotorVars._Vd @ 1216
         0000006a 0000 
     101 0000006b 0000          .bits   0,32                    ; _gMotorVars._Vq @ 1248
         0000006c 0000 
     102 0000006d 0000          .bits   0,32                    ; _gMotorVars._Vs @ 1280
         0000006e 0000 
     103 0000006f 6666          .bits   6710886,32                      ; _gMotorVars._VsRef @ 1312
         00000070 0066 
     104 00000071 0000          .bits   0,32                    ; _gMotorVars._VdcBus_kV @ 1344
         00000072 0000 
     105 00000073 0000          .bits   0,32                    ; _gMotorVars._IdcBus @ 1376
         00000074 0000 
     106 00000075 0000          .bits   0,32                    ; _gMotorVars._Id_A @ 1408
         00000076 0000 
     107 00000077 0000          .bits   0,32                    ; _gMotorVars._Iq_A @ 1440
         00000078 0000 
     108 00000079 0000          .bits   0,32                    ; _gMotorVars._Is_A @ 1472
         0000007a 0000 
     109 0000007b 0000          .bits   0,32                    ; _gMotorVars._I_bias._value[0] @ 1504
         0000007c 0000 
     110 0000007d 0000          .bits   0,32                    ; _gMotorVars._I_bias._value[1] @ 1536
         0000007e 0000 
     111 0000007f 0000          .bits   0,32                    ; _gMotorVars._I_bias._value[2] @ 1568
         00000080 0000 
     112 00000081 0000          .bits   0,32                    ; _gMotorVars._V_bias._value[0] @ 1600
         00000082 0000 
     113 00000083 0000          .bits   0,32                    ; _gMotorVars._V_bias._value[1] @ 1632
TMS320C2000 Assembler PC v15.12.3 Sun Oct 30 14:01:37 2016

Tools Copyright (c) 1996-2015 Texas Instruments Incorporated
C:\Users\MaCHaDo\AppData\Local\Temp\0057210                          PAGE    4

         00000084 0000 
     114 00000085 0000          .bits   0,32                    ; _gMotorVars._V_bias._value[2] @ 1664
         00000086 0000 
     115        006A  $C$IR_2:        .set    106
     116              
     117              
     118              $C$DW$1 .dwtag  DW_TAG_subprogram
     119                      .dwattr $C$DW$1, DW_AT_name("CTRL_setup")
     120                      .dwattr $C$DW$1, DW_AT_TI_symbol_name("_CTRL_setup")
     121                      .dwattr $C$DW$1, DW_AT_declaration
     122                      .dwattr $C$DW$1, DW_AT_external
     123              $C$DW$2 .dwtag  DW_TAG_formal_parameter
     124                      .dwattr $C$DW$2, DW_AT_type(*$C$DW$T$201)
     125              
     126                      .dwendtag $C$DW$1
     127              
     128              
     129              $C$DW$3 .dwtag  DW_TAG_subprogram
     130                      .dwattr $C$DW$3, DW_AT_name("CTRL_setParams")
     131                      .dwattr $C$DW$3, DW_AT_TI_symbol_name("_CTRL_setParams")
     132                      .dwattr $C$DW$3, DW_AT_declaration
     133                      .dwattr $C$DW$3, DW_AT_external
     134              $C$DW$4 .dwtag  DW_TAG_formal_parameter
     135                      .dwattr $C$DW$4, DW_AT_type(*$C$DW$T$201)
     136              
     137              $C$DW$5 .dwtag  DW_TAG_formal_parameter
     138                      .dwattr $C$DW$5, DW_AT_type(*$C$DW$T$207)
     139              
     140                      .dwendtag $C$DW$3
     141              
     142              
     143              $C$DW$6 .dwtag  DW_TAG_subprogram
     144                      .dwattr $C$DW$6, DW_AT_name("CTRL_setSpd_ref_krpm")
     145                      .dwattr $C$DW$6, DW_AT_TI_symbol_name("_CTRL_setSpd_ref_krpm")
     146                      .dwattr $C$DW$6, DW_AT_declaration
     147                      .dwattr $C$DW$6, DW_AT_external
     148              $C$DW$7 .dwtag  DW_TAG_formal_parameter
     149                      .dwattr $C$DW$7, DW_AT_type(*$C$DW$T$201)
     150              
     151              $C$DW$8 .dwtag  DW_TAG_formal_parameter
     152                      .dwattr $C$DW$8, DW_AT_type(*$C$DW$T$280)
     153              
     154                      .dwendtag $C$DW$6
     155              
     156              
     157              $C$DW$9 .dwtag  DW_TAG_subprogram
     158                      .dwattr $C$DW$9, DW_AT_name("HAL_enableDebugInt")
     159                      .dwattr $C$DW$9, DW_AT_TI_symbol_name("_HAL_enableDebugInt")
     160                      .dwattr $C$DW$9, DW_AT_declaration
     161                      .dwattr $C$DW$9, DW_AT_external
     162              $C$DW$10        .dwtag  DW_TAG_formal_parameter
     163                      .dwattr $C$DW$10, DW_AT_type(*$C$DW$T$252)
     164              
     165                      .dwendtag $C$DW$9
     166              
TMS320C2000 Assembler PC v15.12.3 Sun Oct 30 14:01:37 2016

Tools Copyright (c) 1996-2015 Texas Instruments Incorporated
C:\Users\MaCHaDo\AppData\Local\Temp\0057210                          PAGE    5

     167              
     168              $C$DW$11        .dwtag  DW_TAG_subprogram
     169                      .dwattr $C$DW$11, DW_AT_name("HAL_enableGlobalInts")
     170                      .dwattr $C$DW$11, DW_AT_TI_symbol_name("_HAL_enableGlobalInts")
     171                      .dwattr $C$DW$11, DW_AT_declaration
     172                      .dwattr $C$DW$11, DW_AT_external
     173              $C$DW$12        .dwtag  DW_TAG_formal_parameter
     174                      .dwattr $C$DW$12, DW_AT_type(*$C$DW$T$252)
     175              
     176                      .dwendtag $C$DW$11
     177              
     178              
     179              $C$DW$13        .dwtag  DW_TAG_subprogram
     180                      .dwattr $C$DW$13, DW_AT_name("HAL_enableAdcInts")
     181                      .dwattr $C$DW$13, DW_AT_TI_symbol_name("_HAL_enableAdcInts")
     182                      .dwattr $C$DW$13, DW_AT_declaration
     183                      .dwattr $C$DW$13, DW_AT_external
     184              $C$DW$14        .dwtag  DW_TAG_formal_parameter
     185                      .dwattr $C$DW$14, DW_AT_type(*$C$DW$T$252)
     186              
     187                      .dwendtag $C$DW$13
     188              
     189              
     190              $C$DW$15        .dwtag  DW_TAG_subprogram
     191                      .dwattr $C$DW$15, DW_AT_name("CTRL_run")
     192                      .dwattr $C$DW$15, DW_AT_TI_symbol_name("_CTRL_run")
     193                      .dwattr $C$DW$15, DW_AT_declaration
     194                      .dwattr $C$DW$15, DW_AT_external
     195              $C$DW$16        .dwtag  DW_TAG_formal_parameter
     196                      .dwattr $C$DW$16, DW_AT_type(*$C$DW$T$201)
     197              
     198              $C$DW$17        .dwtag  DW_TAG_formal_parameter
     199                      .dwattr $C$DW$17, DW_AT_type(*$C$DW$T$252)
     200              
     201              $C$DW$18        .dwtag  DW_TAG_formal_parameter
     202                      .dwattr $C$DW$18, DW_AT_type(*$C$DW$T$246)
     203              
     204              $C$DW$19        .dwtag  DW_TAG_formal_parameter
     205                      .dwattr $C$DW$19, DW_AT_type(*$C$DW$T$257)
     206              
     207                      .dwendtag $C$DW$15
     208              
     209              
     210              $C$DW$20        .dwtag  DW_TAG_subprogram
     211                      .dwattr $C$DW$20, DW_AT_name("CTRL_getVersion")
     212                      .dwattr $C$DW$20, DW_AT_TI_symbol_name("_CTRL_getVersion")
     213                      .dwattr $C$DW$20, DW_AT_declaration
     214                      .dwattr $C$DW$20, DW_AT_external
     215              $C$DW$21        .dwtag  DW_TAG_formal_parameter
     216                      .dwattr $C$DW$21, DW_AT_type(*$C$DW$T$201)
     217              
     218              $C$DW$22        .dwtag  DW_TAG_formal_parameter
     219                      .dwattr $C$DW$22, DW_AT_type(*$C$DW$T$239)
     220              
     221                      .dwendtag $C$DW$20
TMS320C2000 Assembler PC v15.12.3 Sun Oct 30 14:01:37 2016

Tools Copyright (c) 1996-2015 Texas Instruments Incorporated
C:\Users\MaCHaDo\AppData\Local\Temp\0057210                          PAGE    6

     222              
     223              
     224              $C$DW$23        .dwtag  DW_TAG_subprogram
     225                      .dwattr $C$DW$23, DW_AT_name("HAL_setupDrvSpi")
     226                      .dwattr $C$DW$23, DW_AT_TI_symbol_name("_HAL_setupDrvSpi")
     227                      .dwattr $C$DW$23, DW_AT_declaration
     228                      .dwattr $C$DW$23, DW_AT_external
     229              $C$DW$24        .dwtag  DW_TAG_formal_parameter
     230                      .dwattr $C$DW$24, DW_AT_type(*$C$DW$T$252)
     231              
     232              $C$DW$25        .dwtag  DW_TAG_formal_parameter
     233                      .dwattr $C$DW$25, DW_AT_type(*$C$DW$T$243)
     234              
     235                      .dwendtag $C$DW$23
     236              
     237              
     238              $C$DW$26        .dwtag  DW_TAG_subprogram
     239                      .dwattr $C$DW$26, DW_AT_name("HAL_writeDrvData")
     240                      .dwattr $C$DW$26, DW_AT_TI_symbol_name("_HAL_writeDrvData")
     241                      .dwattr $C$DW$26, DW_AT_declaration
     242                      .dwattr $C$DW$26, DW_AT_external
     243              $C$DW$27        .dwtag  DW_TAG_formal_parameter
     244                      .dwattr $C$DW$27, DW_AT_type(*$C$DW$T$252)
     245              
     246              $C$DW$28        .dwtag  DW_TAG_formal_parameter
     247                      .dwattr $C$DW$28, DW_AT_type(*$C$DW$T$243)
     248              
     249                      .dwendtag $C$DW$26
     250              
     251              
     252              $C$DW$29        .dwtag  DW_TAG_subprogram
     253                      .dwattr $C$DW$29, DW_AT_name("HAL_readDrvData")
     254                      .dwattr $C$DW$29, DW_AT_TI_symbol_name("_HAL_readDrvData")
     255                      .dwattr $C$DW$29, DW_AT_declaration
     256                      .dwattr $C$DW$29, DW_AT_external
     257              $C$DW$30        .dwtag  DW_TAG_formal_parameter
     258                      .dwattr $C$DW$30, DW_AT_type(*$C$DW$T$252)
     259              
     260              $C$DW$31        .dwtag  DW_TAG_formal_parameter
     261                      .dwattr $C$DW$31, DW_AT_type(*$C$DW$T$243)
     262              
     263                      .dwendtag $C$DW$29
     264              
     265              
     266              $C$DW$32        .dwtag  DW_TAG_subprogram
     267                      .dwattr $C$DW$32, DW_AT_name("HAL_setupFaults")
     268                      .dwattr $C$DW$32, DW_AT_TI_symbol_name("_HAL_setupFaults")
     269                      .dwattr $C$DW$32, DW_AT_declaration
     270                      .dwattr $C$DW$32, DW_AT_external
     271              $C$DW$33        .dwtag  DW_TAG_formal_parameter
     272                      .dwattr $C$DW$33, DW_AT_type(*$C$DW$T$252)
     273              
     274                      .dwendtag $C$DW$32
     275              
     276              
TMS320C2000 Assembler PC v15.12.3 Sun Oct 30 14:01:37 2016

Tools Copyright (c) 1996-2015 Texas Instruments Incorporated
C:\Users\MaCHaDo\AppData\Local\Temp\0057210                          PAGE    7

     277              $C$DW$34        .dwtag  DW_TAG_subprogram
     278                      .dwattr $C$DW$34, DW_AT_name("HAL_setParams")
     279                      .dwattr $C$DW$34, DW_AT_TI_symbol_name("_HAL_setParams")
     280                      .dwattr $C$DW$34, DW_AT_declaration
     281                      .dwattr $C$DW$34, DW_AT_external
     282              $C$DW$35        .dwtag  DW_TAG_formal_parameter
     283                      .dwattr $C$DW$35, DW_AT_type(*$C$DW$T$252)
     284              
     285              $C$DW$36        .dwtag  DW_TAG_formal_parameter
     286                      .dwattr $C$DW$36, DW_AT_type(*$C$DW$T$271)
     287              
     288                      .dwendtag $C$DW$34
     289              
     290              
     291              $C$DW$37        .dwtag  DW_TAG_subprogram
     292                      .dwattr $C$DW$37, DW_AT_name("HAL_enableDrv")
     293                      .dwattr $C$DW$37, DW_AT_TI_symbol_name("_HAL_enableDrv")
     294                      .dwattr $C$DW$37, DW_AT_declaration
     295                      .dwattr $C$DW$37, DW_AT_external
     296              $C$DW$38        .dwtag  DW_TAG_formal_parameter
     297                      .dwattr $C$DW$38, DW_AT_type(*$C$DW$T$252)
     298              
     299                      .dwendtag $C$DW$37
     300              
     301              
     302              $C$DW$39        .dwtag  DW_TAG_subprogram
     303                      .dwattr $C$DW$39, DW_AT_name("EST_setMaxCurrentSlope_pu")
     304                      .dwattr $C$DW$39, DW_AT_TI_symbol_name("_EST_setMaxCurrentSlope_pu")
     305                      .dwattr $C$DW$39, DW_AT_declaration
     306                      .dwattr $C$DW$39, DW_AT_external
     307              $C$DW$40        .dwtag  DW_TAG_formal_parameter
     308                      .dwattr $C$DW$40, DW_AT_type(*$C$DW$T$46)
     309              
     310              $C$DW$41        .dwtag  DW_TAG_formal_parameter
     311                      .dwattr $C$DW$41, DW_AT_type(*$C$DW$T$280)
     312              
     313                      .dwendtag $C$DW$39
     314              
     315              
     316              $C$DW$42        .dwtag  DW_TAG_subprogram
     317                      .dwattr $C$DW$42, DW_AT_name("USER_setParams")
     318                      .dwattr $C$DW$42, DW_AT_TI_symbol_name("_USER_setParams")
     319                      .dwattr $C$DW$42, DW_AT_declaration
     320                      .dwattr $C$DW$42, DW_AT_external
     321              $C$DW$43        .dwtag  DW_TAG_formal_parameter
     322                      .dwattr $C$DW$43, DW_AT_type(*$C$DW$T$207)
     323              
     324                      .dwendtag $C$DW$42
     325              
     326              
     327              $C$DW$44        .dwtag  DW_TAG_subprogram
     328                      .dwattr $C$DW$44, DW_AT_name("EST_setFlag_enableRsRecalc")
     329                      .dwattr $C$DW$44, DW_AT_TI_symbol_name("_EST_setFlag_enableRsRecalc")
     330                      .dwattr $C$DW$44, DW_AT_declaration
     331                      .dwattr $C$DW$44, DW_AT_external
TMS320C2000 Assembler PC v15.12.3 Sun Oct 30 14:01:37 2016

Tools Copyright (c) 1996-2015 Texas Instruments Incorporated
C:\Users\MaCHaDo\AppData\Local\Temp\0057210                          PAGE    8

     332              $C$DW$45        .dwtag  DW_TAG_formal_parameter
     333                      .dwattr $C$DW$45, DW_AT_type(*$C$DW$T$46)
     334              
     335              $C$DW$46        .dwtag  DW_TAG_formal_parameter
     336                      .dwattr $C$DW$46, DW_AT_type(*$C$DW$T$277)
     337              
     338                      .dwendtag $C$DW$44
     339              
     340              
     341              $C$DW$47        .dwtag  DW_TAG_subprogram
     342                      .dwattr $C$DW$47, DW_AT_name("USER_checkForErrors")
     343                      .dwattr $C$DW$47, DW_AT_TI_symbol_name("_USER_checkForErrors")
     344                      .dwattr $C$DW$47, DW_AT_declaration
     345                      .dwattr $C$DW$47, DW_AT_external
     346              $C$DW$48        .dwtag  DW_TAG_formal_parameter
     347                      .dwattr $C$DW$48, DW_AT_type(*$C$DW$T$207)
     348              
     349                      .dwendtag $C$DW$47
     350              
     351              
     352              $C$DW$49        .dwtag  DW_TAG_subprogram
     353                      .dwattr $C$DW$49, DW_AT_name("USER_softwareUpdate1p6")
     354                      .dwattr $C$DW$49, DW_AT_TI_symbol_name("_USER_softwareUpdate1p6")
     355                      .dwattr $C$DW$49, DW_AT_declaration
     356                      .dwattr $C$DW$49, DW_AT_external
     357              $C$DW$50        .dwtag  DW_TAG_formal_parameter
     358                      .dwattr $C$DW$50, DW_AT_type(*$C$DW$T$201)
     359              
     360                      .dwendtag $C$DW$49
     361              
     362              
     363              $C$DW$51        .dwtag  DW_TAG_subprogram
     364                      .dwattr $C$DW$51, DW_AT_name("SCI_clearRxFifoOvf")
     365                      .dwattr $C$DW$51, DW_AT_TI_symbol_name("_SCI_clearRxFifoOvf")
     366                      .dwattr $C$DW$51, DW_AT_declaration
     367                      .dwattr $C$DW$51, DW_AT_external
     368              $C$DW$52        .dwtag  DW_TAG_formal_parameter
     369                      .dwattr $C$DW$52, DW_AT_type(*$C$DW$T$151)
     370              
     371                      .dwendtag $C$DW$51
     372              
     373              
     374              $C$DW$53        .dwtag  DW_TAG_subprogram
     375                      .dwattr $C$DW$53, DW_AT_name("memCopy")
     376                      .dwattr $C$DW$53, DW_AT_TI_symbol_name("_memCopy")
     377                      .dwattr $C$DW$53, DW_AT_declaration
     378                      .dwattr $C$DW$53, DW_AT_external
     379              $C$DW$54        .dwtag  DW_TAG_formal_parameter
     380                      .dwattr $C$DW$54, DW_AT_type(*$C$DW$T$274)
     381              
     382              $C$DW$55        .dwtag  DW_TAG_formal_parameter
     383                      .dwattr $C$DW$55, DW_AT_type(*$C$DW$T$274)
     384              
     385              $C$DW$56        .dwtag  DW_TAG_formal_parameter
     386                      .dwattr $C$DW$56, DW_AT_type(*$C$DW$T$274)
TMS320C2000 Assembler PC v15.12.3 Sun Oct 30 14:01:37 2016

Tools Copyright (c) 1996-2015 Texas Instruments Incorporated
C:\Users\MaCHaDo\AppData\Local\Temp\0057210                          PAGE    9

     387              
     388                      .dwendtag $C$DW$53
     389              
     390              
     391              $C$DW$57        .dwtag  DW_TAG_subprogram
     392                      .dwattr $C$DW$57, DW_AT_name("EST_setFlag_enableForceAngle")
     393                      .dwattr $C$DW$57, DW_AT_TI_symbol_name("_EST_setFlag_enableForceAngle")
     394                      .dwattr $C$DW$57, DW_AT_declaration
     395                      .dwattr $C$DW$57, DW_AT_external
     396              $C$DW$58        .dwtag  DW_TAG_formal_parameter
     397                      .dwattr $C$DW$58, DW_AT_type(*$C$DW$T$46)
     398              
     399              $C$DW$59        .dwtag  DW_TAG_formal_parameter
     400                      .dwattr $C$DW$59, DW_AT_type(*$C$DW$T$277)
     401              
     402                      .dwendtag $C$DW$57
     403              
     404              
     405              $C$DW$60        .dwtag  DW_TAG_subprogram
     406                      .dwattr $C$DW$60, DW_AT_name("SCI_clearRxFifoInt")
     407                      .dwattr $C$DW$60, DW_AT_TI_symbol_name("_SCI_clearRxFifoInt")
     408                      .dwattr $C$DW$60, DW_AT_declaration
     409                      .dwattr $C$DW$60, DW_AT_external
     410              $C$DW$61        .dwtag  DW_TAG_formal_parameter
     411                      .dwattr $C$DW$61, DW_AT_type(*$C$DW$T$151)
     412              
     413                      .dwendtag $C$DW$60
     414              
     415              
     416              $C$DW$62        .dwtag  DW_TAG_subprogram
     417                      .dwattr $C$DW$62, DW_AT_name("USER_calcPIgains")
     418                      .dwattr $C$DW$62, DW_AT_TI_symbol_name("_USER_calcPIgains")
     419                      .dwattr $C$DW$62, DW_AT_declaration
     420                      .dwattr $C$DW$62, DW_AT_external
     421              $C$DW$63        .dwtag  DW_TAG_formal_parameter
     422                      .dwattr $C$DW$63, DW_AT_type(*$C$DW$T$201)
     423              
     424                      .dwendtag $C$DW$62
     425              
     426                      .global _gCounter_updateGlobals
     427 00000000       _gCounter_updateGlobals:        .usect  ".ebss",1,1,0
     428              $C$DW$64        .dwtag  DW_TAG_variable
     429                      .dwattr $C$DW$64, DW_AT_name("gCounter_updateGlobals")
     430                      .dwattr $C$DW$64, DW_AT_TI_symbol_name("_gCounter_updateGlobals")
     431                      .dwattr $C$DW$64, DW_AT_location[DW_OP_addr _gCounter_updateGlobals]
     432                      .dwattr $C$DW$64, DW_AT_type(*$C$DW$T$66)
     433                      .dwattr $C$DW$64, DW_AT_external
     434              
     435                      .global _Flag_Latch_softwareUpdate
     436 00000001       _Flag_Latch_softwareUpdate:     .usect  ".ebss",1,1,0
     437              $C$DW$65        .dwtag  DW_TAG_variable
     438                      .dwattr $C$DW$65, DW_AT_name("Flag_Latch_softwareUpdate")
     439                      .dwattr $C$DW$65, DW_AT_TI_symbol_name("_Flag_Latch_softwareUpdate")
     440                      .dwattr $C$DW$65, DW_AT_location[DW_OP_addr _Flag_Latch_softwareUpdate]
     441                      .dwattr $C$DW$65, DW_AT_type(*$C$DW$T$69)
TMS320C2000 Assembler PC v15.12.3 Sun Oct 30 14:01:37 2016

Tools Copyright (c) 1996-2015 Texas Instruments Incorporated
C:\Users\MaCHaDo\AppData\Local\Temp\0057210                          PAGE   10

     442                      .dwattr $C$DW$65, DW_AT_external
     443              
     444                      .global _gLEDcnt
     445 00000002       _gLEDcnt:       .usect  ".ebss",1,1,0
     446              $C$DW$66        .dwtag  DW_TAG_variable
     447                      .dwattr $C$DW$66, DW_AT_name("gLEDcnt")
     448                      .dwattr $C$DW$66, DW_AT_TI_symbol_name("_gLEDcnt")
     449                      .dwattr $C$DW$66, DW_AT_location[DW_OP_addr _gLEDcnt]
     450                      .dwattr $C$DW$66, DW_AT_type(*$C$DW$T$22)
     451                      .dwattr $C$DW$66, DW_AT_external
     452              
     453              
     454              $C$DW$67        .dwtag  DW_TAG_subprogram
     455                      .dwattr $C$DW$67, DW_AT_name("EST_isMotorIdentified")
     456                      .dwattr $C$DW$67, DW_AT_TI_symbol_name("_EST_isMotorIdentified")
     457                      .dwattr $C$DW$67, DW_AT_type(*$C$DW$T$69)
     458                      .dwattr $C$DW$67, DW_AT_declaration
     459                      .dwattr $C$DW$67, DW_AT_external
     460              $C$DW$68        .dwtag  DW_TAG_formal_parameter
     461                      .dwattr $C$DW$68, DW_AT_type(*$C$DW$T$46)
     462              
     463                      .dwendtag $C$DW$67
     464              
     465              
     466              $C$DW$69        .dwtag  DW_TAG_subprogram
     467                      .dwattr $C$DW$69, DW_AT_name("EST_getState")
     468                      .dwattr $C$DW$69, DW_AT_TI_symbol_name("_EST_getState")
     469                      .dwattr $C$DW$69, DW_AT_type(*$C$DW$T$164)
     470                      .dwattr $C$DW$69, DW_AT_declaration
     471                      .dwattr $C$DW$69, DW_AT_external
     472              $C$DW$70        .dwtag  DW_TAG_formal_parameter
     473                      .dwattr $C$DW$70, DW_AT_type(*$C$DW$T$46)
     474              
     475                      .dwendtag $C$DW$69
     476              
     477              
     478              $C$DW$71        .dwtag  DW_TAG_subprogram
     479                      .dwattr $C$DW$71, DW_AT_name("USER_getErrorCode")
     480                      .dwattr $C$DW$71, DW_AT_TI_symbol_name("_USER_getErrorCode")
     481                      .dwattr $C$DW$71, DW_AT_type(*$C$DW$T$166)
     482                      .dwattr $C$DW$71, DW_AT_declaration
     483                      .dwattr $C$DW$71, DW_AT_external
     484              $C$DW$72        .dwtag  DW_TAG_formal_parameter
     485                      .dwattr $C$DW$72, DW_AT_type(*$C$DW$T$207)
     486              
     487                      .dwendtag $C$DW$71
     488              
     489              
     490              $C$DW$73        .dwtag  DW_TAG_subprogram
     491                      .dwattr $C$DW$73, DW_AT_name("CTRL_updateState")
     492                      .dwattr $C$DW$73, DW_AT_TI_symbol_name("_CTRL_updateState")
     493                      .dwattr $C$DW$73, DW_AT_type(*$C$DW$T$69)
     494                      .dwattr $C$DW$73, DW_AT_declaration
     495                      .dwattr $C$DW$73, DW_AT_external
     496              $C$DW$74        .dwtag  DW_TAG_formal_parameter
TMS320C2000 Assembler PC v15.12.3 Sun Oct 30 14:01:37 2016

Tools Copyright (c) 1996-2015 Texas Instruments Incorporated
C:\Users\MaCHaDo\AppData\Local\Temp\0057210                          PAGE   11

     497                      .dwattr $C$DW$74, DW_AT_type(*$C$DW$T$201)
     498              
     499                      .dwendtag $C$DW$73
     500              
     501              
     502              $C$DW$75        .dwtag  DW_TAG_subprogram
     503                      .dwattr $C$DW$75, DW_AT_name("SCI_getDataBlocking")
     504                      .dwattr $C$DW$75, DW_AT_TI_symbol_name("_SCI_getDataBlocking")
     505                      .dwattr $C$DW$75, DW_AT_type(*$C$DW$T$22)
     506                      .dwattr $C$DW$75, DW_AT_declaration
     507                      .dwattr $C$DW$75, DW_AT_external
     508              $C$DW$76        .dwtag  DW_TAG_formal_parameter
     509                      .dwattr $C$DW$76, DW_AT_type(*$C$DW$T$151)
     510              
     511                      .dwendtag $C$DW$75
     512              
     513              
     514              $C$DW$77        .dwtag  DW_TAG_subprogram
     515                      .dwattr $C$DW$77, DW_AT_name("SCI_getRxFifoStatus")
     516                      .dwattr $C$DW$77, DW_AT_TI_symbol_name("_SCI_getRxFifoStatus")
     517                      .dwattr $C$DW$77, DW_AT_type(*$C$DW$T$221)
     518                      .dwattr $C$DW$77, DW_AT_declaration
     519                      .dwattr $C$DW$77, DW_AT_external
     520              $C$DW$78        .dwtag  DW_TAG_formal_parameter
     521                      .dwattr $C$DW$78, DW_AT_type(*$C$DW$T$151)
     522              
     523                      .dwendtag $C$DW$77
     524              
     525              $C$DW$79        .dwtag  DW_TAG_variable
     526                      .dwattr $C$DW$79, DW_AT_name("RamfuncsLoadStart")
     527                      .dwattr $C$DW$79, DW_AT_TI_symbol_name("_RamfuncsLoadStart")
     528                      .dwattr $C$DW$79, DW_AT_type(*$C$DW$T$274)
     529                      .dwattr $C$DW$79, DW_AT_declaration
     530                      .dwattr $C$DW$79, DW_AT_external
     531              
     532              $C$DW$80        .dwtag  DW_TAG_variable
     533                      .dwattr $C$DW$80, DW_AT_name("RamfuncsRunStart")
     534                      .dwattr $C$DW$80, DW_AT_TI_symbol_name("_RamfuncsRunStart")
     535                      .dwattr $C$DW$80, DW_AT_type(*$C$DW$T$274)
     536                      .dwattr $C$DW$80, DW_AT_declaration
     537                      .dwattr $C$DW$80, DW_AT_external
     538              
     539              
     540              $C$DW$81        .dwtag  DW_TAG_subprogram
     541                      .dwattr $C$DW$81, DW_AT_name("USER_computeTorque_Flux_Iq_pu_to_Nm_sf")
     542                      .dwattr $C$DW$81, DW_AT_TI_symbol_name("_USER_computeTorque_Flux_Iq_pu_to_Nm_sf")
     543                      .dwattr $C$DW$81, DW_AT_type(*$C$DW$T$31)
     544                      .dwattr $C$DW$81, DW_AT_declaration
     545                      .dwattr $C$DW$81, DW_AT_external
     546                      .dwendtag $C$DW$81
     547              
     548              $C$DW$82        .dwtag  DW_TAG_variable
     549                      .dwattr $C$DW$82, DW_AT_name("RamfuncsLoadEnd")
     550                      .dwattr $C$DW$82, DW_AT_TI_symbol_name("_RamfuncsLoadEnd")
     551                      .dwattr $C$DW$82, DW_AT_type(*$C$DW$T$274)
TMS320C2000 Assembler PC v15.12.3 Sun Oct 30 14:01:37 2016

Tools Copyright (c) 1996-2015 Texas Instruments Incorporated
C:\Users\MaCHaDo\AppData\Local\Temp\0057210                          PAGE   12

     552                      .dwattr $C$DW$82, DW_AT_declaration
     553                      .dwattr $C$DW$82, DW_AT_external
     554              
     555              
     556              $C$DW$83        .dwtag  DW_TAG_subprogram
     557                      .dwattr $C$DW$83, DW_AT_name("USER_computeFlux_pu_to_Wb_sf")
     558                      .dwattr $C$DW$83, DW_AT_TI_symbol_name("_USER_computeFlux_pu_to_Wb_sf")
     559                      .dwattr $C$DW$83, DW_AT_type(*$C$DW$T$31)
     560                      .dwattr $C$DW$83, DW_AT_declaration
     561                      .dwattr $C$DW$83, DW_AT_external
     562                      .dwendtag $C$DW$83
     563              
     564              
     565              $C$DW$84        .dwtag  DW_TAG_subprogram
     566                      .dwattr $C$DW$84, DW_AT_name("USER_computeFlux_pu_to_VpHz_sf")
     567                      .dwattr $C$DW$84, DW_AT_TI_symbol_name("_USER_computeFlux_pu_to_VpHz_sf")
     568                      .dwattr $C$DW$84, DW_AT_type(*$C$DW$T$31)
     569                      .dwattr $C$DW$84, DW_AT_declaration
     570                      .dwattr $C$DW$84, DW_AT_external
     571                      .dwendtag $C$DW$84
     572              
     573                      .global _ctrlHandle
     574 00000004       _ctrlHandle:    .usect  ".ebss",2,1,1
     575              $C$DW$85        .dwtag  DW_TAG_variable
     576                      .dwattr $C$DW$85, DW_AT_name("ctrlHandle")
     577                      .dwattr $C$DW$85, DW_AT_TI_symbol_name("_ctrlHandle")
     578                      .dwattr $C$DW$85, DW_AT_location[DW_OP_addr _ctrlHandle]
     579                      .dwattr $C$DW$85, DW_AT_type(*$C$DW$T$201)
     580                      .dwattr $C$DW$85, DW_AT_external
     581              
     582                      .global _halHandle
     583 00000000       _halHandle:     .usect  "rom_accessed_data",2,1,1
     584              $C$DW$86        .dwtag  DW_TAG_variable
     585                      .dwattr $C$DW$86, DW_AT_name("halHandle")
     586                      .dwattr $C$DW$86, DW_AT_TI_symbol_name("_halHandle")
     587                      .dwattr $C$DW$86, DW_AT_location[DW_OP_addr _halHandle]
     588                      .dwattr $C$DW$86, DW_AT_type(*$C$DW$T$252)
     589                      .dwattr $C$DW$86, DW_AT_external
     590              
     591              
     592              $C$DW$87        .dwtag  DW_TAG_subprogram
     593                      .dwattr $C$DW$87, DW_AT_name("labs")
     594                      .dwattr $C$DW$87, DW_AT_TI_symbol_name("_labs")
     595                      .dwattr $C$DW$87, DW_AT_type(*$C$DW$T$12)
     596                      .dwattr $C$DW$87, DW_AT_declaration
     597                      .dwattr $C$DW$87, DW_AT_external
     598              $C$DW$88        .dwtag  DW_TAG_formal_parameter
     599                      .dwattr $C$DW$88, DW_AT_type(*$C$DW$T$12)
     600              
     601                      .dwendtag $C$DW$87
     602              
     603                      .global _gMaxCurrentSlope
     604 00000006       _gMaxCurrentSlope:      .usect  ".ebss",2,1,1
     605              $C$DW$89        .dwtag  DW_TAG_variable
     606                      .dwattr $C$DW$89, DW_AT_name("gMaxCurrentSlope")
TMS320C2000 Assembler PC v15.12.3 Sun Oct 30 14:01:37 2016

Tools Copyright (c) 1996-2015 Texas Instruments Incorporated
C:\Users\MaCHaDo\AppData\Local\Temp\0057210                          PAGE   13

     607                      .dwattr $C$DW$89, DW_AT_TI_symbol_name("_gMaxCurrentSlope")
     608                      .dwattr $C$DW$89, DW_AT_location[DW_OP_addr _gMaxCurrentSlope]
     609                      .dwattr $C$DW$89, DW_AT_type(*$C$DW$T$31)
     610                      .dwattr $C$DW$89, DW_AT_external
     611              
     612                      .global _gFlux_pu_to_Wb_sf
     613 00000008       _gFlux_pu_to_Wb_sf:     .usect  ".ebss",2,1,1
     614              $C$DW$90        .dwtag  DW_TAG_variable
     615                      .dwattr $C$DW$90, DW_AT_name("gFlux_pu_to_Wb_sf")
     616                      .dwattr $C$DW$90, DW_AT_TI_symbol_name("_gFlux_pu_to_Wb_sf")
     617                      .dwattr $C$DW$90, DW_AT_location[DW_OP_addr _gFlux_pu_to_Wb_sf]
     618                      .dwattr $C$DW$90, DW_AT_type(*$C$DW$T$31)
     619                      .dwattr $C$DW$90, DW_AT_external
     620              
     621              $C$DW$91        .dwtag  DW_TAG_variable
     622                      .dwattr $C$DW$91, DW_AT_name("switch_ram_load")
     623                      .dwattr $C$DW$91, DW_AT_TI_symbol_name("_switch_ram_load")
     624                      .dwattr $C$DW$91, DW_AT_type(*$C$DW$T$274)
     625                      .dwattr $C$DW$91, DW_AT_declaration
     626                      .dwattr $C$DW$91, DW_AT_external
     627              
     628                      .global _gTorque_Ls_Id_Iq_pu_to_Nm_sf
     629 0000000a       _gTorque_Ls_Id_Iq_pu_to_Nm_sf:  .usect  ".ebss",2,1,1
     630              $C$DW$92        .dwtag  DW_TAG_variable
     631                      .dwattr $C$DW$92, DW_AT_name("gTorque_Ls_Id_Iq_pu_to_Nm_sf")
     632                      .dwattr $C$DW$92, DW_AT_TI_symbol_name("_gTorque_Ls_Id_Iq_pu_to_Nm_sf")
     633                      .dwattr $C$DW$92, DW_AT_location[DW_OP_addr _gTorque_Ls_Id_Iq_pu_to_Nm_sf]
     634                      .dwattr $C$DW$92, DW_AT_type(*$C$DW$T$31)
     635                      .dwattr $C$DW$92, DW_AT_external
     636              
     637                      .global _gFlux_pu_to_VpHz_sf
     638 0000000c       _gFlux_pu_to_VpHz_sf:   .usect  ".ebss",2,1,1
     639              $C$DW$93        .dwtag  DW_TAG_variable
     640                      .dwattr $C$DW$93, DW_AT_name("gFlux_pu_to_VpHz_sf")
     641                      .dwattr $C$DW$93, DW_AT_TI_symbol_name("_gFlux_pu_to_VpHz_sf")
     642                      .dwattr $C$DW$93, DW_AT_location[DW_OP_addr _gFlux_pu_to_VpHz_sf]
     643                      .dwattr $C$DW$93, DW_AT_type(*$C$DW$T$31)
     644                      .dwattr $C$DW$93, DW_AT_external
     645              
     646                      .global _gTorque_Flux_Iq_pu_to_Nm_sf
     647 0000000e       _gTorque_Flux_Iq_pu_to_Nm_sf:   .usect  ".ebss",2,1,1
     648              $C$DW$94        .dwtag  DW_TAG_variable
     649                      .dwattr $C$DW$94, DW_AT_name("gTorque_Flux_Iq_pu_to_Nm_sf")
     650                      .dwattr $C$DW$94, DW_AT_TI_symbol_name("_gTorque_Flux_Iq_pu_to_Nm_sf")
     651                      .dwattr $C$DW$94, DW_AT_location[DW_OP_addr _gTorque_Flux_Iq_pu_to_Nm_sf]
     652                      .dwattr $C$DW$94, DW_AT_type(*$C$DW$T$31)
     653                      .dwattr $C$DW$94, DW_AT_external
     654              
     655              $C$DW$95        .dwtag  DW_TAG_variable
     656                      .dwattr $C$DW$95, DW_AT_name("econst_end")
     657                      .dwattr $C$DW$95, DW_AT_TI_symbol_name("_econst_end")
     658                      .dwattr $C$DW$95, DW_AT_type(*$C$DW$T$274)
     659                      .dwattr $C$DW$95, DW_AT_declaration
     660                      .dwattr $C$DW$95, DW_AT_external
     661              
TMS320C2000 Assembler PC v15.12.3 Sun Oct 30 14:01:37 2016

Tools Copyright (c) 1996-2015 Texas Instruments Incorporated
C:\Users\MaCHaDo\AppData\Local\Temp\0057210                          PAGE   14

     662              $C$DW$96        .dwtag  DW_TAG_variable
     663                      .dwattr $C$DW$96, DW_AT_name("econst_start")
     664                      .dwattr $C$DW$96, DW_AT_TI_symbol_name("_econst_start")
     665                      .dwattr $C$DW$96, DW_AT_type(*$C$DW$T$274)
     666                      .dwattr $C$DW$96, DW_AT_declaration
     667                      .dwattr $C$DW$96, DW_AT_external
     668              
     669              $C$DW$97        .dwtag  DW_TAG_variable
     670                      .dwattr $C$DW$97, DW_AT_name("switch_start")
     671                      .dwattr $C$DW$97, DW_AT_TI_symbol_name("_switch_start")
     672                      .dwattr $C$DW$97, DW_AT_type(*$C$DW$T$274)
     673                      .dwattr $C$DW$97, DW_AT_declaration
     674                      .dwattr $C$DW$97, DW_AT_external
     675              
     676              $C$DW$98        .dwtag  DW_TAG_variable
     677                      .dwattr $C$DW$98, DW_AT_name("econst_ram_load")
     678                      .dwattr $C$DW$98, DW_AT_TI_symbol_name("_econst_ram_load")
     679                      .dwattr $C$DW$98, DW_AT_type(*$C$DW$T$274)
     680                      .dwattr $C$DW$98, DW_AT_declaration
     681                      .dwattr $C$DW$98, DW_AT_external
     682              
     683              $C$DW$99        .dwtag  DW_TAG_variable
     684                      .dwattr $C$DW$99, DW_AT_name("switch_end")
     685                      .dwattr $C$DW$99, DW_AT_TI_symbol_name("_switch_end")
     686                      .dwattr $C$DW$99, DW_AT_type(*$C$DW$T$274)
     687                      .dwattr $C$DW$99, DW_AT_declaration
     688                      .dwattr $C$DW$99, DW_AT_external
     689              
     690              
     691              $C$DW$100       .dwtag  DW_TAG_subprogram
     692                      .dwattr $C$DW$100, DW_AT_name("USER_computeTorque_Nm")
     693                      .dwattr $C$DW$100, DW_AT_TI_symbol_name("_USER_computeTorque_Nm")
     694                      .dwattr $C$DW$100, DW_AT_type(*$C$DW$T$31)
     695                      .dwattr $C$DW$100, DW_AT_declaration
     696                      .dwattr $C$DW$100, DW_AT_external
     697              $C$DW$101       .dwtag  DW_TAG_formal_parameter
     698                      .dwattr $C$DW$101, DW_AT_type(*$C$DW$T$201)
     699              
     700              $C$DW$102       .dwtag  DW_TAG_formal_parameter
     701                      .dwattr $C$DW$102, DW_AT_type(*$C$DW$T$280)
     702              
     703              $C$DW$103       .dwtag  DW_TAG_formal_parameter
     704                      .dwattr $C$DW$103, DW_AT_type(*$C$DW$T$280)
     705              
     706                      .dwendtag $C$DW$100
     707              
     708              
     709              $C$DW$104       .dwtag  DW_TAG_subprogram
     710                      .dwattr $C$DW$104, DW_AT_name("EST_getSpeed_krpm")
     711                      .dwattr $C$DW$104, DW_AT_TI_symbol_name("_EST_getSpeed_krpm")
     712                      .dwattr $C$DW$104, DW_AT_type(*$C$DW$T$31)
     713                      .dwattr $C$DW$104, DW_AT_declaration
     714                      .dwattr $C$DW$104, DW_AT_external
     715              $C$DW$105       .dwtag  DW_TAG_formal_parameter
     716                      .dwattr $C$DW$105, DW_AT_type(*$C$DW$T$46)
TMS320C2000 Assembler PC v15.12.3 Sun Oct 30 14:01:37 2016

Tools Copyright (c) 1996-2015 Texas Instruments Incorporated
C:\Users\MaCHaDo\AppData\Local\Temp\0057210                          PAGE   15

     717              
     718                      .dwendtag $C$DW$104
     719              
     720              
     721              $C$DW$106       .dwtag  DW_TAG_subprogram
     722                      .dwattr $C$DW$106, DW_AT_name("EST_getRr_Ohm")
     723                      .dwattr $C$DW$106, DW_AT_TI_symbol_name("_EST_getRr_Ohm")
     724                      .dwattr $C$DW$106, DW_AT_type(*$C$DW$T$67)
     725                      .dwattr $C$DW$106, DW_AT_declaration
     726                      .dwattr $C$DW$106, DW_AT_external
     727              $C$DW$107       .dwtag  DW_TAG_formal_parameter
     728                      .dwattr $C$DW$107, DW_AT_type(*$C$DW$T$46)
     729              
     730                      .dwendtag $C$DW$106
     731              
     732              
     733              $C$DW$108       .dwtag  DW_TAG_subprogram
     734                      .dwattr $C$DW$108, DW_AT_name("EST_getMaxCurrentSlope_pu")
     735                      .dwattr $C$DW$108, DW_AT_TI_symbol_name("_EST_getMaxCurrentSlope_pu")
     736                      .dwattr $C$DW$108, DW_AT_type(*$C$DW$T$31)
     737                      .dwattr $C$DW$108, DW_AT_declaration
     738                      .dwattr $C$DW$108, DW_AT_external
     739              $C$DW$109       .dwtag  DW_TAG_formal_parameter
     740                      .dwattr $C$DW$109, DW_AT_type(*$C$DW$T$46)
     741              
     742                      .dwendtag $C$DW$108
     743              
     744              
     745              $C$DW$110       .dwtag  DW_TAG_subprogram
     746                      .dwattr $C$DW$110, DW_AT_name("HAL_init")
     747                      .dwattr $C$DW$110, DW_AT_TI_symbol_name("_HAL_init")
     748                      .dwattr $C$DW$110, DW_AT_type(*$C$DW$T$252)
     749                      .dwattr $C$DW$110, DW_AT_declaration
     750                      .dwattr $C$DW$110, DW_AT_external
     751              $C$DW$111       .dwtag  DW_TAG_formal_parameter
     752                      .dwattr $C$DW$111, DW_AT_type(*$C$DW$T$3)
     753              
     754              $C$DW$112       .dwtag  DW_TAG_formal_parameter
     755                      .dwattr $C$DW$112, DW_AT_type(*$C$DW$T$234)
     756              
     757                      .dwendtag $C$DW$110
     758              
     759              
     760              $C$DW$113       .dwtag  DW_TAG_subprogram
     761                      .dwattr $C$DW$113, DW_AT_name("USER_computeTorque_Ls_Id_Iq_pu_to_Nm_sf")
     762                      .dwattr $C$DW$113, DW_AT_TI_symbol_name("_USER_computeTorque_Ls_Id_Iq_pu_to_Nm_sf")
     763                      .dwattr $C$DW$113, DW_AT_type(*$C$DW$T$31)
     764                      .dwattr $C$DW$113, DW_AT_declaration
     765                      .dwattr $C$DW$113, DW_AT_external
     766                      .dwendtag $C$DW$113
     767              
     768              
     769              $C$DW$114       .dwtag  DW_TAG_subprogram
     770                      .dwattr $C$DW$114, DW_AT_name("EST_getRs_Ohm")
     771                      .dwattr $C$DW$114, DW_AT_TI_symbol_name("_EST_getRs_Ohm")
TMS320C2000 Assembler PC v15.12.3 Sun Oct 30 14:01:37 2016

Tools Copyright (c) 1996-2015 Texas Instruments Incorporated
C:\Users\MaCHaDo\AppData\Local\Temp\0057210                          PAGE   16

     772                      .dwattr $C$DW$114, DW_AT_type(*$C$DW$T$67)
     773                      .dwattr $C$DW$114, DW_AT_declaration
     774                      .dwattr $C$DW$114, DW_AT_external
     775              $C$DW$115       .dwtag  DW_TAG_formal_parameter
     776                      .dwattr $C$DW$115, DW_AT_type(*$C$DW$T$46)
     777              
     778                      .dwendtag $C$DW$114
     779              
     780              
     781              $C$DW$116       .dwtag  DW_TAG_subprogram
     782                      .dwattr $C$DW$116, DW_AT_name("CTRL_initCtrl")
     783                      .dwattr $C$DW$116, DW_AT_TI_symbol_name("_CTRL_initCtrl")
     784                      .dwattr $C$DW$116, DW_AT_type(*$C$DW$T$201)
     785                      .dwattr $C$DW$116, DW_AT_declaration
     786                      .dwattr $C$DW$116, DW_AT_external
     787              $C$DW$117       .dwtag  DW_TAG_formal_parameter
     788                      .dwattr $C$DW$117, DW_AT_type(*$C$DW$T$232)
     789              
     790              $C$DW$118       .dwtag  DW_TAG_formal_parameter
     791                      .dwattr $C$DW$118, DW_AT_type(*$C$DW$T$3)
     792              
     793              $C$DW$119       .dwtag  DW_TAG_formal_parameter
     794                      .dwattr $C$DW$119, DW_AT_type(*$C$DW$T$234)
     795              
     796                      .dwendtag $C$DW$116
     797              
     798              
     799              $C$DW$120       .dwtag  DW_TAG_subprogram
     800                      .dwattr $C$DW$120, DW_AT_name("EST_getFlux_VpHz")
     801                      .dwattr $C$DW$120, DW_AT_TI_symbol_name("_EST_getFlux_VpHz")
     802                      .dwattr $C$DW$120, DW_AT_type(*$C$DW$T$67)
     803                      .dwattr $C$DW$120, DW_AT_declaration
     804                      .dwattr $C$DW$120, DW_AT_external
     805              $C$DW$121       .dwtag  DW_TAG_formal_parameter
     806                      .dwattr $C$DW$121, DW_AT_type(*$C$DW$T$46)
     807              
     808                      .dwendtag $C$DW$120
     809              
     810              
     811              $C$DW$122       .dwtag  DW_TAG_subprogram
     812                      .dwattr $C$DW$122, DW_AT_name("EST_getIdRated")
     813                      .dwattr $C$DW$122, DW_AT_TI_symbol_name("_EST_getIdRated")
     814                      .dwattr $C$DW$122, DW_AT_type(*$C$DW$T$67)
     815                      .dwattr $C$DW$122, DW_AT_declaration
     816                      .dwattr $C$DW$122, DW_AT_external
     817              $C$DW$123       .dwtag  DW_TAG_formal_parameter
     818                      .dwattr $C$DW$123, DW_AT_type(*$C$DW$T$46)
     819              
     820                      .dwendtag $C$DW$122
     821              
     822              
     823              $C$DW$124       .dwtag  DW_TAG_subprogram
     824                      .dwattr $C$DW$124, DW_AT_name("__IQsat")
     825                      .dwattr $C$DW$124, DW_AT_TI_symbol_name("___IQsat")
     826                      .dwattr $C$DW$124, DW_AT_type(*$C$DW$T$12)
TMS320C2000 Assembler PC v15.12.3 Sun Oct 30 14:01:37 2016

Tools Copyright (c) 1996-2015 Texas Instruments Incorporated
C:\Users\MaCHaDo\AppData\Local\Temp\0057210                          PAGE   17

     827                      .dwattr $C$DW$124, DW_AT_declaration
     828                      .dwattr $C$DW$124, DW_AT_external
     829              $C$DW$125       .dwtag  DW_TAG_formal_parameter
     830                      .dwattr $C$DW$125, DW_AT_type(*$C$DW$T$12)
     831              
     832              $C$DW$126       .dwtag  DW_TAG_formal_parameter
     833                      .dwattr $C$DW$126, DW_AT_type(*$C$DW$T$12)
     834              
     835              $C$DW$127       .dwtag  DW_TAG_formal_parameter
     836                      .dwattr $C$DW$127, DW_AT_type(*$C$DW$T$12)
     837              
     838                      .dwendtag $C$DW$124
     839              
     840              
     841              $C$DW$128       .dwtag  DW_TAG_subprogram
     842                      .dwattr $C$DW$128, DW_AT_name("USER_computeFlux")
     843                      .dwattr $C$DW$128, DW_AT_TI_symbol_name("_USER_computeFlux")
     844                      .dwattr $C$DW$128, DW_AT_type(*$C$DW$T$31)
     845                      .dwattr $C$DW$128, DW_AT_declaration
     846                      .dwattr $C$DW$128, DW_AT_external
     847              $C$DW$129       .dwtag  DW_TAG_formal_parameter
     848                      .dwattr $C$DW$129, DW_AT_type(*$C$DW$T$201)
     849              
     850              $C$DW$130       .dwtag  DW_TAG_formal_parameter
     851                      .dwattr $C$DW$130, DW_AT_type(*$C$DW$T$280)
     852              
     853                      .dwendtag $C$DW$128
     854              
     855              
     856              $C$DW$131       .dwtag  DW_TAG_subprogram
     857                      .dwattr $C$DW$131, DW_AT_name("__IQmpy")
     858                      .dwattr $C$DW$131, DW_AT_TI_symbol_name("___IQmpy")
     859                      .dwattr $C$DW$131, DW_AT_type(*$C$DW$T$12)
     860                      .dwattr $C$DW$131, DW_AT_declaration
     861                      .dwattr $C$DW$131, DW_AT_external
     862              $C$DW$132       .dwtag  DW_TAG_formal_parameter
     863                      .dwattr $C$DW$132, DW_AT_type(*$C$DW$T$12)
     864              
     865              $C$DW$133       .dwtag  DW_TAG_formal_parameter
     866                      .dwattr $C$DW$133, DW_AT_type(*$C$DW$T$12)
     867              
     868              $C$DW$134       .dwtag  DW_TAG_formal_parameter
     869                      .dwattr $C$DW$134, DW_AT_type(*$C$DW$T$10)
     870              
     871                      .dwendtag $C$DW$131
     872              
     873              
     874              $C$DW$135       .dwtag  DW_TAG_subprogram
     875                      .dwattr $C$DW$135, DW_AT_name("EST_getLs_q_H")
     876                      .dwattr $C$DW$135, DW_AT_TI_symbol_name("_EST_getLs_q_H")
     877                      .dwattr $C$DW$135, DW_AT_type(*$C$DW$T$67)
     878                      .dwattr $C$DW$135, DW_AT_declaration
     879                      .dwattr $C$DW$135, DW_AT_external
     880              $C$DW$136       .dwtag  DW_TAG_formal_parameter
     881                      .dwattr $C$DW$136, DW_AT_type(*$C$DW$T$46)
TMS320C2000 Assembler PC v15.12.3 Sun Oct 30 14:01:37 2016

Tools Copyright (c) 1996-2015 Texas Instruments Incorporated
C:\Users\MaCHaDo\AppData\Local\Temp\0057210                          PAGE   18

     882              
     883                      .dwendtag $C$DW$135
     884              
     885              
     886              $C$DW$137       .dwtag  DW_TAG_subprogram
     887                      .dwattr $C$DW$137, DW_AT_name("EST_getLs_d_H")
     888                      .dwattr $C$DW$137, DW_AT_TI_symbol_name("_EST_getLs_d_H")
     889                      .dwattr $C$DW$137, DW_AT_type(*$C$DW$T$67)
     890                      .dwattr $C$DW$137, DW_AT_declaration
     891                      .dwattr $C$DW$137, DW_AT_external
     892              $C$DW$138       .dwtag  DW_TAG_formal_parameter
     893                      .dwattr $C$DW$138, DW_AT_type(*$C$DW$T$46)
     894              
     895                      .dwendtag $C$DW$137
     896              
     897                      .global _gPwmData
     898 00000010       _gPwmData:      .usect  ".ebss",6,1,1
     899              $C$DW$139       .dwtag  DW_TAG_variable
     900                      .dwattr $C$DW$139, DW_AT_name("gPwmData")
     901                      .dwattr $C$DW$139, DW_AT_TI_symbol_name("_gPwmData")
     902                      .dwattr $C$DW$139, DW_AT_location[DW_OP_addr _gPwmData]
     903                      .dwattr $C$DW$139, DW_AT_type(*$C$DW$T$256)
     904                      .dwattr $C$DW$139, DW_AT_external
     905              
     906                      .global _gAdcData
     907 00000016       _gAdcData:      .usect  ".ebss",16,1,1
     908              $C$DW$140       .dwtag  DW_TAG_variable
     909                      .dwattr $C$DW$140, DW_AT_name("gAdcData")
     910                      .dwattr $C$DW$140, DW_AT_TI_symbol_name("_gAdcData")
     911                      .dwattr $C$DW$140, DW_AT_location[DW_OP_addr _gAdcData]
     912                      .dwattr $C$DW$140, DW_AT_type(*$C$DW$T$145)
     913                      .dwattr $C$DW$140, DW_AT_external
     914              
     915                      .global _gDrvSpi8301Vars
     916 00000026       _gDrvSpi8301Vars:       .usect  ".ebss",24,1,0
     917              $C$DW$141       .dwtag  DW_TAG_variable
     918                      .dwattr $C$DW$141, DW_AT_name("gDrvSpi8301Vars")
     919                      .dwattr $C$DW$141, DW_AT_TI_symbol_name("_gDrvSpi8301Vars")
     920                      .dwattr $C$DW$141, DW_AT_location[DW_OP_addr _gDrvSpi8301Vars]
     921                      .dwattr $C$DW$141, DW_AT_type(*$C$DW$T$242)
     922                      .dwattr $C$DW$141, DW_AT_external
     923              
     924                      .global _gMotorVars
     925 00000040       _gMotorVars:    .usect  ".ebss",106,1,1
     926              $C$DW$142       .dwtag  DW_TAG_variable
     927                      .dwattr $C$DW$142, DW_AT_name("gMotorVars")
     928                      .dwattr $C$DW$142, DW_AT_TI_symbol_name("_gMotorVars")
     929                      .dwattr $C$DW$142, DW_AT_location[DW_OP_addr _gMotorVars]
     930                      .dwattr $C$DW$142, DW_AT_type(*$C$DW$T$260)
     931                      .dwattr $C$DW$142, DW_AT_external
     932              
     933                      .global _gUserParams
     934 00000040       _gUserParams:   .usect  "rom_accessed_data",176,1,1
     935              $C$DW$143       .dwtag  DW_TAG_variable
     936                      .dwattr $C$DW$143, DW_AT_name("gUserParams")
TMS320C2000 Assembler PC v15.12.3 Sun Oct 30 14:01:37 2016

Tools Copyright (c) 1996-2015 Texas Instruments Incorporated
C:\Users\MaCHaDo\AppData\Local\Temp\0057210                          PAGE   19

     937                      .dwattr $C$DW$143, DW_AT_TI_symbol_name("_gUserParams")
     938                      .dwattr $C$DW$143, DW_AT_location[DW_OP_addr _gUserParams]
     939                      .dwattr $C$DW$143, DW_AT_type(*$C$DW$T$206)
     940                      .dwattr $C$DW$143, DW_AT_external
     941              
     942              $C$DW$144       .dwtag  DW_TAG_variable
     943                      .dwattr $C$DW$144, DW_AT_name("hal")
     944                      .dwattr $C$DW$144, DW_AT_TI_symbol_name("_hal")
     945                      .dwattr $C$DW$144, DW_AT_type(*$C$DW$T$249)
     946                      .dwattr $C$DW$144, DW_AT_declaration
     947                      .dwattr $C$DW$144, DW_AT_external
     948              
     949                      .global _ctrl
     950 00000100       _ctrl:  .usect  "rom_accessed_data",264,1,1
     951              $C$DW$145       .dwtag  DW_TAG_variable
     952                      .dwattr $C$DW$145, DW_AT_name("ctrl")
     953                      .dwattr $C$DW$145, DW_AT_TI_symbol_name("_ctrl")
     954                      .dwattr $C$DW$145, DW_AT_location[DW_OP_addr _ctrl]
     955                      .dwattr $C$DW$145, DW_AT_type(*$C$DW$T$229)
     956                      .dwattr $C$DW$145, DW_AT_external
     957              
     958              ;       C:\ti\ccsv6\tools\compiler\c2000_15.12.3.LTS\bin\opt2000.exe C:\\Users\\MaCHaDo\\AppData\\Local\\Temp
     959              ;       C:\ti\ccsv6\tools\compiler\c2000_15.12.3.LTS\bin\ac2000.exe -@C:\\Users\\MaCHaDo\\AppData\\Local\\Tem
     960 00000000               .sect   ".text"
     961                      .clink
     962                      .global _updateIqRef
     963              
     964              $C$DW$146       .dwtag  DW_TAG_subprogram
     965                      .dwattr $C$DW$146, DW_AT_name("updateIqRef")
     966                      .dwattr $C$DW$146, DW_AT_low_pc(_updateIqRef)
     967                      .dwattr $C$DW$146, DW_AT_high_pc(0x00)
     968                      .dwattr $C$DW$146, DW_AT_TI_symbol_name("_updateIqRef")
     969                      .dwattr $C$DW$146, DW_AT_external
     970                      .dwattr $C$DW$146, DW_AT_TI_begin_file("../main.c")
     971                      .dwattr $C$DW$146, DW_AT_TI_begin_line(0x22c)
     972                      .dwattr $C$DW$146, DW_AT_TI_begin_column(0x06)
     973                      .dwattr $C$DW$146, DW_AT_TI_max_frame_size(-6)
     974                      .dwpsn  file "../main.c",line 557,column 1,is_stmt,address _updateIqRef,isa 0
     975              
     976                      .dwfde $C$DW$CIE, _updateIqRef
     977              $C$DW$147       .dwtag  DW_TAG_formal_parameter
     978                      .dwattr $C$DW$147, DW_AT_name("handle")
     979                      .dwattr $C$DW$147, DW_AT_TI_symbol_name("_handle")
     980                      .dwattr $C$DW$147, DW_AT_type(*$C$DW$T$201)
     981                      .dwattr $C$DW$147, DW_AT_location[DW_OP_reg12]
     982              
     983              
     984              ;***************************************************************
     985              ;* FNAME: _updateIqRef                  FR SIZE:   4           *
     986              ;*                                                             *
     987              ;* FUNCTION ENVIRONMENT                                        *
     988              ;*                                                             *
     989              ;* FUNCTION PROPERTIES                                         *
     990              ;*                            0 Parameter,  0 Auto,  4 SOE     *
     991              ;***************************************************************
TMS320C2000 Assembler PC v15.12.3 Sun Oct 30 14:01:37 2016

Tools Copyright (c) 1996-2015 Texas Instruments Incorporated
C:\Users\MaCHaDo\AppData\Local\Temp\0057210                          PAGE   20

     992              
     993              _updateIqRef:
     994              ;* AR1   assigned to _iq_ref
     995              $C$DW$148       .dwtag  DW_TAG_variable
     996                      .dwattr $C$DW$148, DW_AT_name("iq_ref")
     997                      .dwattr $C$DW$148, DW_AT_TI_symbol_name("_iq_ref")
     998                      .dwattr $C$DW$148, DW_AT_type(*$C$DW$T$31)
     999                      .dwattr $C$DW$148, DW_AT_location[DW_OP_reg6]
    1000              
    1001              ;* AR2   assigned to _handle
    1002              $C$DW$149       .dwtag  DW_TAG_variable
    1003                      .dwattr $C$DW$149, DW_AT_name("handle")
    1004                      .dwattr $C$DW$149, DW_AT_TI_symbol_name("_handle")
    1005                      .dwattr $C$DW$149, DW_AT_type(*$C$DW$T$231)
    1006                      .dwattr $C$DW$149, DW_AT_location[DW_OP_reg8]
    1007              
    1008                      .dwcfi  cfa_offset, -2
    1009                      .dwcfi  save_reg_to_mem, 26, 0
    1010 00000000 761F-         MOVW      DP,#_gMotorVars+20    ; [CPU_U] 
         00000001 0001 
    1011 00000002 B2BD          MOVL      *SP++,XAR1            ; [CPU_] 
    1012                      .dwcfi  save_reg_to_mem, 7, 2
    1013                      .dwcfi  cfa_offset, -4
    1014                      .dwpsn  file "../main.c",line 558,column 14,is_stmt,isa 0
    1015 00000003 8714-         MOVL      XT,@_gMotorVars+20    ; [CPU_] |558| 
    1016 00000004 AABD          MOVL      *SP++,XAR2            ; [CPU_] 
    1017                      .dwcfi  save_reg_to_mem, 9, 4
    1018                      .dwcfi  cfa_offset, -6
    1019                      .dwpsn  file "../main.c",line 557,column 1,is_stmt,isa 0
    1020 00000005 86A4          MOVL      XAR2,XAR4             ; [CPU_] |557| 
    1021                      .dwpsn  file "../main.c",line 558,column 14,is_stmt,isa 0
    1022 00000006 8F0C          MOVL      XAR4,#838860          ; [CPU_U] |558| 
         00000007 CCCC 
    1023 00000008 5605          IMPYL     P,XT,XAR4             ; [CPU_] |558| 
         00000009 00A4 
    1024 0000000a 5663          QMPYL     ACC,XT,XAR4           ; [CPU_] |558| 
         0000000b 00A4 
    1025                      .dwpsn  file "../main.c",line 561,column 3,is_stmt,isa 0
    1026 0000000c 8F02          MOVL      XAR4,#167772          ; [CPU_U] |561| 
         0000000d 8F5C 
    1027                      .dwpsn  file "../main.c",line 558,column 14,is_stmt,isa 0
    1028 0000000e 56A7          LSL64     ACC:P,#8              ; [CPU_] |558| 
    1029 0000000f 8BA9          MOVL      XAR1,ACC              ; [CPU_] |558| 
    1030                      .dwpsn  file "../main.c",line 561,column 3,is_stmt,isa 0
    1031 00000010 061E-         MOVL      ACC,@_gMotorVars+30   ; [CPU_] |561| 
    1032 00000011 FF56          ABS       ACC                   ; [CPU_] |561| 
    1033 00000012 0FA4          CMPL      ACC,XAR4              ; [CPU_] |561| 
    1034 00000013 6310          B         $C$L3,GEQ             ; [CPU_] |561| 
    1035                      ; branchcc occurs ; [] |561| 
    1036 00000014 B2A9          MOVL      ACC,XAR1              ; [CPU_] 
    1037                      .dwpsn  file "../main.c",line 563,column 7,is_stmt,isa 0
    1038 00000015 6407          B         $C$L1,LT              ; [CPU_] |563| 
    1039                      ; branchcc occurs ; [] |563| 
    1040                      .dwpsn  file "../main.c",line 567,column 12,is_stmt,isa 0
    1041 00000016 FF58          TEST      ACC                   ; [CPU_] |567| 
TMS320C2000 Assembler PC v15.12.3 Sun Oct 30 14:01:37 2016

Tools Copyright (c) 1996-2015 Texas Instruments Incorporated
C:\Users\MaCHaDo\AppData\Local\Temp\0057210                          PAGE   21

    1042 00000017 650C          B         $C$L3,LEQ             ; [CPU_] |567| 
    1043                      ; branchcc occurs ; [] |567| 
    1044                      .dwpsn  file "../main.c",line 569,column 11,is_stmt,isa 0
    1045 00000018 8F42          MOVL      XAR5,#167772          ; [CPU_U] |569| 
         00000019 8F5C 
    1046 0000001a A0A9          MOVL      ACC,XAR5              ; [CPU_] |569| 
    1047 0000001b 6F05          B         $C$L2,UNC             ; [CPU_] |569| 
    1048                      ; branch occurs ; [] |569| 
    1049 0000001c       $C$L1:    
    1050                      .dwpsn  file "../main.c",line 565,column 11,is_stmt,isa 0
    1051 0000001c 28A9          MOV       AL,#28836             ; [CPU_] |565| 
         0000001d 70A4 
    1052 0000001e 28A8          MOV       AH,#65533             ; [CPU_] |565| 
         0000001f FFFD 
    1053 00000020       $C$L2:    
    1054 00000020 8AA2          MOVL      XAR4,XAR2             ; [CPU_] |565| 
    1055              $C$DW$150       .dwtag  DW_TAG_TI_branch
    1056                      .dwattr $C$DW$150, DW_AT_low_pc(0x00)
    1057                      .dwattr $C$DW$150, DW_AT_name("_CTRL_setSpd_ref_krpm")
    1058                      .dwattr $C$DW$150, DW_AT_TI_call
    1059              
    1060 00000021 7640!         LCR       #_CTRL_setSpd_ref_krpm ; [CPU_] |565| 
         00000022 0000 
    1061                      ; call occurs [#_CTRL_setSpd_ref_krpm] ; [] |565| 
    1062 00000023       $C$L3:    
    1063                      .dwpsn  file "D:/Users/MaCHaDo/Documents/GitHub/LegStrong/modules/include/ctrl.h",line 1439,column 3,
    1064 00000023 D0E4          MOVB      XAR0,#228             ; [CPU_] |1439| 
    1065 00000024 B292          MOVL      *+XAR2[AR0],XAR1      ; [CPU_] |1439| 
    1066 00000025 86BE          MOVL      XAR2,*--SP            ; [CPU_] 
    1067                      .dwcfi  cfa_offset, -4
    1068                      .dwcfi  restore_reg, 9
    1069 00000026 8BBE          MOVL      XAR1,*--SP            ; [CPU_] 
    1070                      .dwcfi  cfa_offset, -2
    1071                      .dwcfi  restore_reg, 7
    1072              $C$DW$151       .dwtag  DW_TAG_TI_branch
    1073                      .dwattr $C$DW$151, DW_AT_low_pc(0x00)
    1074                      .dwattr $C$DW$151, DW_AT_TI_return
    1075              
    1076 00000027 0006          LRETR     ; [CPU_] 
    1077                      ; return occurs ; [] 
    1078                      .dwattr $C$DW$146, DW_AT_TI_end_file("../main.c")
    1079                      .dwattr $C$DW$146, DW_AT_TI_end_line(0x241)
    1080                      .dwattr $C$DW$146, DW_AT_TI_end_column(0x01)
    1081                      .dwendentry
    1082                      .dwendtag $C$DW$146
    1083              
    1084 00000028               .sect   ".text"
    1085                      .clink
    1086                      .global _updateGlobalVariables_motor
    1087              
    1088              $C$DW$152       .dwtag  DW_TAG_subprogram
    1089                      .dwattr $C$DW$152, DW_AT_name("updateGlobalVariables_motor")
    1090                      .dwattr $C$DW$152, DW_AT_low_pc(_updateGlobalVariables_motor)
    1091                      .dwattr $C$DW$152, DW_AT_high_pc(0x00)
    1092                      .dwattr $C$DW$152, DW_AT_TI_symbol_name("_updateGlobalVariables_motor")
TMS320C2000 Assembler PC v15.12.3 Sun Oct 30 14:01:37 2016

Tools Copyright (c) 1996-2015 Texas Instruments Incorporated
C:\Users\MaCHaDo\AppData\Local\Temp\0057210                          PAGE   22

    1093                      .dwattr $C$DW$152, DW_AT_external
    1094                      .dwattr $C$DW$152, DW_AT_TI_begin_file("../main.c")
    1095                      .dwattr $C$DW$152, DW_AT_TI_begin_line(0x1fb)
    1096                      .dwattr $C$DW$152, DW_AT_TI_begin_column(0x06)
    1097                      .dwattr $C$DW$152, DW_AT_TI_max_frame_size(-6)
    1098                      .dwpsn  file "../main.c",line 508,column 1,is_stmt,address _updateGlobalVariables_motor,isa 0
    1099              
    1100                      .dwfde $C$DW$CIE, _updateGlobalVariables_motor
    1101              $C$DW$153       .dwtag  DW_TAG_formal_parameter
    1102                      .dwattr $C$DW$153, DW_AT_name("handle")
    1103                      .dwattr $C$DW$153, DW_AT_TI_symbol_name("_handle")
    1104                      .dwattr $C$DW$153, DW_AT_type(*$C$DW$T$201)
    1105                      .dwattr $C$DW$153, DW_AT_location[DW_OP_reg12]
    1106              
    1107              
    1108              ;***************************************************************
    1109              ;* FNAME: _updateGlobalVariables_motor  FR SIZE:   4           *
    1110              ;*                                                             *
    1111              ;* FUNCTION ENVIRONMENT                                        *
    1112              ;*                                                             *
    1113              ;* FUNCTION PROPERTIES                                         *
    1114              ;*                            2 Parameter,  0 Auto,  2 SOE     *
    1115              ;***************************************************************
    1116              
    1117              _updateGlobalVariables_motor:
    1118              ;* AR1   assigned to _handle
    1119              $C$DW$154       .dwtag  DW_TAG_variable
    1120                      .dwattr $C$DW$154, DW_AT_name("handle")
    1121                      .dwattr $C$DW$154, DW_AT_TI_symbol_name("_handle")
    1122                      .dwattr $C$DW$154, DW_AT_type(*$C$DW$T$231)
    1123                      .dwattr $C$DW$154, DW_AT_location[DW_OP_reg6]
    1124              
    1125                      .dwcfi  cfa_offset, -2
    1126                      .dwcfi  save_reg_to_mem, 26, 0
    1127 00000028 B2BD          MOVL      *SP++,XAR1            ; [CPU_] 
    1128                      .dwcfi  save_reg_to_mem, 7, 2
    1129                      .dwcfi  cfa_offset, -4
    1130 00000029 FE02          ADDB      SP,#2                 ; [CPU_U] 
    1131                      .dwcfi  cfa_offset, -6
    1132 0000002a 8BA4          MOVL      XAR1,XAR4             ; [CPU_] |508| 
    1133                      .dwpsn  file "../main.c",line 512,column 3,is_stmt,isa 0
    1134 0000002b D018          MOVB      XAR0,#24              ; [CPU_] |512| 
    1135 0000002c 8A91          MOVL      XAR4,*+XAR1[AR0]      ; [CPU_] |512| 
    1136              $C$DW$155       .dwtag  DW_TAG_TI_branch
    1137                      .dwattr $C$DW$155, DW_AT_low_pc(0x00)
    1138                      .dwattr $C$DW$155, DW_AT_name("_EST_getSpeed_krpm")
    1139                      .dwattr $C$DW$155, DW_AT_TI_call
    1140              
    1141 0000002d 7640!         LCR       #_EST_getSpeed_krpm   ; [CPU_] |512| 
         0000002e 0000 
    1142                      ; call occurs [#_EST_getSpeed_krpm] ; [] |512| 
    1143 0000002f 761F-         MOVW      DP,#_gMotorVars+30    ; [CPU_U] 
         00000030 0001 
    1144 00000031 1E1E-         MOVL      @_gMotorVars+30,ACC   ; [CPU_] |512| 
    1145 00000032 761F-         MOVW      DP,#_gTorque_Ls_Id_Iq_pu_to_Nm_sf ; [CPU_U] 
TMS320C2000 Assembler PC v15.12.3 Sun Oct 30 14:01:37 2016

Tools Copyright (c) 1996-2015 Texas Instruments Incorporated
C:\Users\MaCHaDo\AppData\Local\Temp\0057210                          PAGE   23

         00000033 0000 
    1146                      .dwpsn  file "../main.c",line 515,column 3,is_stmt,isa 0
    1147 00000034 8AA1          MOVL      XAR4,XAR1             ; [CPU_] |515| 
    1148 00000035 060A-         MOVL      ACC,@_gTorque_Ls_Id_Iq_pu_to_Nm_sf ; [CPU_] |515| 
    1149 00000036 1E42          MOVL      *-SP[2],ACC           ; [CPU_] |515| 
    1150 00000037 060E-         MOVL      ACC,@_gTorque_Flux_Iq_pu_to_Nm_sf ; [CPU_] |515| 
    1151              $C$DW$156       .dwtag  DW_TAG_TI_branch
    1152                      .dwattr $C$DW$156, DW_AT_low_pc(0x00)
    1153                      .dwattr $C$DW$156, DW_AT_name("_USER_computeTorque_Nm")
    1154                      .dwattr $C$DW$156, DW_AT_TI_call
    1155              
    1156 00000038 7640!         LCR       #_USER_computeTorque_Nm ; [CPU_] |515| 
         00000039 0000 
    1157                      ; call occurs [#_USER_computeTorque_Nm] ; [] |515| 
    1158 0000003a 761F-         MOVW      DP,#_gMotorVars+40    ; [CPU_U] 
         0000003b 0001 
    1159                      .dwpsn  file "../main.c",line 518,column 3,is_stmt,isa 0
    1160 0000003c D018          MOVB      XAR0,#24              ; [CPU_] |518| 
    1161                      .dwpsn  file "../main.c",line 515,column 3,is_stmt,isa 0
    1162 0000003d 1E28-         MOVL      @_gMotorVars+40,ACC   ; [CPU_] |515| 
    1163                      .dwpsn  file "../main.c",line 518,column 3,is_stmt,isa 0
    1164 0000003e 8A91          MOVL      XAR4,*+XAR1[AR0]      ; [CPU_] |518| 
    1165              $C$DW$157       .dwtag  DW_TAG_TI_branch
    1166                      .dwattr $C$DW$157, DW_AT_low_pc(0x00)
    1167                      .dwattr $C$DW$157, DW_AT_name("_EST_getIdRated")
    1168                      .dwattr $C$DW$157, DW_AT_TI_call
    1169              
    1170 0000003f 7640!         LCR       #_EST_getIdRated      ; [CPU_] |518| 
         00000040 0000 
    1171                      ; call occurs [#_EST_getIdRated] ; [] |518| 
    1172 00000041 761F-         MOVW      DP,#_gMotorVars+42    ; [CPU_U] 
         00000042 0001 
    1173                      .dwpsn  file "../main.c",line 521,column 3,is_stmt,isa 0
    1174 00000043 D018          MOVB      XAR0,#24              ; [CPU_] |521| 
    1175                      .dwpsn  file "../main.c",line 518,column 3,is_stmt,isa 0
    1176 00000044 1E2A-         MOVL      @_gMotorVars+42,ACC   ; [CPU_] |518| 
    1177                      .dwpsn  file "../main.c",line 521,column 3,is_stmt,isa 0
    1178 00000045 8A91          MOVL      XAR4,*+XAR1[AR0]      ; [CPU_] |521| 
    1179              $C$DW$158       .dwtag  DW_TAG_TI_branch
    1180                      .dwattr $C$DW$158, DW_AT_low_pc(0x00)
    1181                      .dwattr $C$DW$158, DW_AT_name("_EST_getRr_Ohm")
    1182                      .dwattr $C$DW$158, DW_AT_TI_call
    1183              
    1184 00000046 7640!         LCR       #_EST_getRr_Ohm       ; [CPU_] |521| 
         00000047 0000 
    1185                      ; call occurs [#_EST_getRr_Ohm] ; [] |521| 
    1186 00000048 761F-         MOVW      DP,#_gMotorVars+44    ; [CPU_U] 
         00000049 0001 
    1187                      .dwpsn  file "../main.c",line 524,column 3,is_stmt,isa 0
    1188 0000004a D018          MOVB      XAR0,#24              ; [CPU_] |524| 
    1189                      .dwpsn  file "../main.c",line 521,column 3,is_stmt,isa 0
    1190 0000004b 1E2C-         MOVL      @_gMotorVars+44,ACC   ; [CPU_] |521| 
    1191                      .dwpsn  file "../main.c",line 524,column 3,is_stmt,isa 0
    1192 0000004c 8A91          MOVL      XAR4,*+XAR1[AR0]      ; [CPU_] |524| 
    1193              $C$DW$159       .dwtag  DW_TAG_TI_branch
TMS320C2000 Assembler PC v15.12.3 Sun Oct 30 14:01:37 2016

Tools Copyright (c) 1996-2015 Texas Instruments Incorporated
C:\Users\MaCHaDo\AppData\Local\Temp\0057210                          PAGE   24

    1194                      .dwattr $C$DW$159, DW_AT_low_pc(0x00)
    1195                      .dwattr $C$DW$159, DW_AT_name("_EST_getRs_Ohm")
    1196                      .dwattr $C$DW$159, DW_AT_TI_call
    1197              
    1198 0000004d 7640!         LCR       #_EST_getRs_Ohm       ; [CPU_] |524| 
         0000004e 0000 
    1199                      ; call occurs [#_EST_getRs_Ohm] ; [] |524| 
    1200 0000004f 761F-         MOVW      DP,#_gMotorVars+46    ; [CPU_U] 
         00000050 0001 
    1201                      .dwpsn  file "../main.c",line 527,column 3,is_stmt,isa 0
    1202 00000051 D018          MOVB      XAR0,#24              ; [CPU_] |527| 
    1203                      .dwpsn  file "../main.c",line 524,column 3,is_stmt,isa 0
    1204 00000052 1E2E-         MOVL      @_gMotorVars+46,ACC   ; [CPU_] |524| 
    1205                      .dwpsn  file "../main.c",line 527,column 3,is_stmt,isa 0
    1206 00000053 8A91          MOVL      XAR4,*+XAR1[AR0]      ; [CPU_] |527| 
    1207              $C$DW$160       .dwtag  DW_TAG_TI_branch
    1208                      .dwattr $C$DW$160, DW_AT_low_pc(0x00)
    1209                      .dwattr $C$DW$160, DW_AT_name("_EST_getLs_d_H")
    1210                      .dwattr $C$DW$160, DW_AT_TI_call
    1211              
    1212 00000054 7640!         LCR       #_EST_getLs_d_H       ; [CPU_] |527| 
         00000055 0000 
    1213                      ; call occurs [#_EST_getLs_d_H] ; [] |527| 
    1214 00000056 761F-         MOVW      DP,#_gMotorVars+50    ; [CPU_U] 
         00000057 0001 
    1215                      .dwpsn  file "../main.c",line 530,column 3,is_stmt,isa 0
    1216 00000058 D018          MOVB      XAR0,#24              ; [CPU_] |530| 
    1217                      .dwpsn  file "../main.c",line 527,column 3,is_stmt,isa 0
    1218 00000059 1E32-         MOVL      @_gMotorVars+50,ACC   ; [CPU_] |527| 
    1219                      .dwpsn  file "../main.c",line 530,column 3,is_stmt,isa 0
    1220 0000005a 8A91          MOVL      XAR4,*+XAR1[AR0]      ; [CPU_] |530| 
    1221              $C$DW$161       .dwtag  DW_TAG_TI_branch
    1222                      .dwattr $C$DW$161, DW_AT_low_pc(0x00)
    1223                      .dwattr $C$DW$161, DW_AT_name("_EST_getLs_q_H")
    1224                      .dwattr $C$DW$161, DW_AT_TI_call
    1225              
    1226 0000005b 7640!         LCR       #_EST_getLs_q_H       ; [CPU_] |530| 
         0000005c 0000 
    1227                      ; call occurs [#_EST_getLs_q_H] ; [] |530| 
    1228 0000005d 761F-         MOVW      DP,#_gMotorVars+52    ; [CPU_U] 
         0000005e 0001 
    1229                      .dwpsn  file "../main.c",line 533,column 3,is_stmt,isa 0
    1230 0000005f D018          MOVB      XAR0,#24              ; [CPU_] |533| 
    1231                      .dwpsn  file "../main.c",line 530,column 3,is_stmt,isa 0
    1232 00000060 1E34-         MOVL      @_gMotorVars+52,ACC   ; [CPU_] |530| 
    1233                      .dwpsn  file "../main.c",line 533,column 3,is_stmt,isa 0
    1234 00000061 8A91          MOVL      XAR4,*+XAR1[AR0]      ; [CPU_] |533| 
    1235              $C$DW$162       .dwtag  DW_TAG_TI_branch
    1236                      .dwattr $C$DW$162, DW_AT_low_pc(0x00)
    1237                      .dwattr $C$DW$162, DW_AT_name("_EST_getFlux_VpHz")
    1238                      .dwattr $C$DW$162, DW_AT_TI_call
    1239              
    1240 00000062 7640!         LCR       #_EST_getFlux_VpHz    ; [CPU_] |533| 
         00000063 0000 
    1241                      ; call occurs [#_EST_getFlux_VpHz] ; [] |533| 
TMS320C2000 Assembler PC v15.12.3 Sun Oct 30 14:01:37 2016

Tools Copyright (c) 1996-2015 Texas Instruments Incorporated
C:\Users\MaCHaDo\AppData\Local\Temp\0057210                          PAGE   25

    1242 00000064 761F-         MOVW      DP,#_gMotorVars+54    ; [CPU_U] 
         00000065 0001 
    1243 00000066 1E36-         MOVL      @_gMotorVars+54,ACC   ; [CPU_] |533| 
    1244                      .dwpsn  file "../main.c",line 536,column 3,is_stmt,isa 0
    1245 00000067 8AA1          MOVL      XAR4,XAR1             ; [CPU_] |536| 
    1246 00000068 761F-         MOVW      DP,#_gFlux_pu_to_Wb_sf ; [CPU_U] 
         00000069 0000 
    1247 0000006a 0608-         MOVL      ACC,@_gFlux_pu_to_Wb_sf ; [CPU_] |536| 
    1248              $C$DW$163       .dwtag  DW_TAG_TI_branch
    1249                      .dwattr $C$DW$163, DW_AT_low_pc(0x00)
    1250                      .dwattr $C$DW$163, DW_AT_name("_USER_computeFlux")
    1251                      .dwattr $C$DW$163, DW_AT_TI_call
    1252              
    1253 0000006b 7640!         LCR       #_USER_computeFlux    ; [CPU_] |536| 
         0000006c 0000 
    1254                      ; call occurs [#_USER_computeFlux] ; [] |536| 
    1255 0000006d 761F-         MOVW      DP,#_gMotorVars+38    ; [CPU_U] 
         0000006e 0001 
    1256                      .dwpsn  file "../main.c",line 542,column 3,is_stmt,isa 0
    1257 0000006f D018          MOVB      XAR0,#24              ; [CPU_] |542| 
    1258                      .dwpsn  file "../main.c",line 536,column 3,is_stmt,isa 0
    1259 00000070 1E26-         MOVL      @_gMotorVars+38,ACC   ; [CPU_] |536| 
    1260                      .dwpsn  file "../main.c",line 539,column 3,is_stmt,isa 0
    1261 00000071 92E1          MOV       AL,*+XAR1[4]          ; [CPU_] |539| 
    1262 00000072 960A-         MOV       @_gMotorVars+10,AL    ; [CPU_] |539| 
    1263                      .dwpsn  file "../main.c",line 542,column 3,is_stmt,isa 0
    1264 00000073 8A91          MOVL      XAR4,*+XAR1[AR0]      ; [CPU_] |542| 
    1265              $C$DW$164       .dwtag  DW_TAG_TI_branch
    1266                      .dwattr $C$DW$164, DW_AT_low_pc(0x00)
    1267                      .dwattr $C$DW$164, DW_AT_name("_EST_getState")
    1268                      .dwattr $C$DW$164, DW_AT_TI_call
    1269              
    1270 00000074 7640!         LCR       #_EST_getState        ; [CPU_] |542| 
         00000075 0000 
    1271                      ; call occurs [#_EST_getState] ; [] |542| 
    1272 00000076 761F-         MOVW      DP,#_gMotorVars+11    ; [CPU_U] 
         00000077 0001 
    1273                      .dwpsn  file "../main.c",line 545,column 3,is_stmt,isa 0
    1274 00000078 8F19          MOVL      XAR4,#1677721         ; [CPU_U] |545| 
         00000079 9999 
    1275                      .dwpsn  file "../main.c",line 542,column 3,is_stmt,isa 0
    1276 0000007a 960B-         MOV       @_gMotorVars+11,AL    ; [CPU_] |542| 
    1277 0000007b 761F-         MOVW      DP,#_gAdcData+12      ; [CPU_U] 
         0000007c 0000 
    1278                      .dwpsn  file "../main.c",line 545,column 3,is_stmt,isa 0
    1279 0000007d 8722-         MOVL      XT,@_gAdcData+12      ; [CPU_] |545| 
    1280 0000007e 761F-         MOVW      DP,#_gMotorVars+84    ; [CPU_U] 
         0000007f 0002 
    1281 00000080 5663          QMPYL     ACC,XT,XAR4           ; [CPU_] |545| 
         00000081 00A4 
    1282 00000082 5605          IMPYL     P,XT,XAR4             ; [CPU_] |545| 
         00000083 00A4 
    1283 00000084 56A7          LSL64     ACC:P,#8              ; [CPU_] |545| 
    1284 00000085 1E14-         MOVL      @_gMotorVars+84,ACC   ; [CPU_] |545| 
    1285 00000086 761F-         MOVW      DP,#_gAdcData+14      ; [CPU_U] 
TMS320C2000 Assembler PC v15.12.3 Sun Oct 30 14:01:37 2016

Tools Copyright (c) 1996-2015 Texas Instruments Incorporated
C:\Users\MaCHaDo\AppData\Local\Temp\0057210                          PAGE   26

         00000087 0000 
    1286                      .dwpsn  file "../main.c",line 549,column 3,is_stmt,isa 0
    1287 00000088 FF2F          MOV       ACC,#14784 << 15      ; [CPU_] |549| 
         00000089 39C0 
    1288 0000008a 8724-         MOVL      XT,@_gAdcData+14      ; [CPU_] |549| 
    1289 0000008b 5605          IMPYL     P,XT,ACC              ; [CPU_] |549| 
         0000008c 00A9 
    1290 0000008d 5663          QMPYL     ACC,XT,ACC            ; [CPU_] |549| 
         0000008e 00A9 
    1291 0000008f FE82          SUBB      SP,#2                 ; [CPU_U] 
    1292                      .dwcfi  cfa_offset, -4
    1293 00000090 56A7          LSL64     ACC:P,#8              ; [CPU_] |549| 
    1294 00000091 8BBE          MOVL      XAR1,*--SP            ; [CPU_] 
    1295                      .dwcfi  cfa_offset, -2
    1296                      .dwcfi  restore_reg, 7
    1297 00000092 761F-         MOVW      DP,#_gMotorVars+86    ; [CPU_U] 
         00000093 0002 
    1298 00000094 1E16-         MOVL      @_gMotorVars+86,ACC   ; [CPU_] |549| 
    1299              $C$DW$165       .dwtag  DW_TAG_TI_branch
    1300                      .dwattr $C$DW$165, DW_AT_low_pc(0x00)
    1301                      .dwattr $C$DW$165, DW_AT_TI_return
    1302              
    1303 00000095 0006          LRETR     ; [CPU_] 
    1304                      ; return occurs ; [] 
    1305                      .dwattr $C$DW$152, DW_AT_TI_end_file("../main.c")
    1306                      .dwattr $C$DW$152, DW_AT_TI_end_line(0x229)
    1307                      .dwattr $C$DW$152, DW_AT_TI_end_column(0x01)
    1308                      .dwendentry
    1309                      .dwendtag $C$DW$152
    1310              
    1311 00000000               .sect   ".text:retain"
    1312                      .retain
    1313                      .retainrefs
    1314                      .global _sciaRxFifoIsr
    1315              
    1316              $C$DW$166       .dwtag  DW_TAG_subprogram
    1317                      .dwattr $C$DW$166, DW_AT_name("sciaRxFifoIsr")
    1318                      .dwattr $C$DW$166, DW_AT_low_pc(_sciaRxFifoIsr)
    1319                      .dwattr $C$DW$166, DW_AT_high_pc(0x00)
    1320                      .dwattr $C$DW$166, DW_AT_TI_symbol_name("_sciaRxFifoIsr")
    1321                      .dwattr $C$DW$166, DW_AT_external
    1322                      .dwattr $C$DW$166, DW_AT_TI_begin_file("../main.c")
    1323                      .dwattr $C$DW$166, DW_AT_TI_begin_line(0x244)
    1324                      .dwattr $C$DW$166, DW_AT_TI_begin_column(0x10)
    1325                      .dwattr $C$DW$166, DW_AT_TI_interrupt
    1326                      .dwattr $C$DW$166, DW_AT_TI_max_frame_size(-14)
    1327                      .dwpsn  file "../main.c",line 581,column 1,is_stmt,address _sciaRxFifoIsr,isa 0
    1328              
    1329                      .dwfde $C$DW$CIE, _sciaRxFifoIsr
    1330              
    1331              ;***************************************************************
    1332              ;* FNAME: _sciaRxFifoIsr                FR SIZE:  12           *
    1333              ;*                                                             *
    1334              ;* FUNCTION ENVIRONMENT                                        *
    1335              ;*                                                             *
TMS320C2000 Assembler PC v15.12.3 Sun Oct 30 14:01:37 2016

Tools Copyright (c) 1996-2015 Texas Instruments Incorporated
C:\Users\MaCHaDo\AppData\Local\Temp\0057210                          PAGE   27

    1336              ;* FUNCTION PROPERTIES                                         *
    1337              ;*                            0 Parameter,  0 Auto, 12 SOE     *
    1338              ;***************************************************************
    1339              
    1340 00000000       _sciaRxFifoIsr:
    1341                      .dwcfi  cfa_offset, -2
    1342                      .dwcfi  save_reg_to_mem, 26, 0
    1343 00000000 761B          ASP       ; [CPU_] 
    1344 00000001 0005          PUSH      AR1H:AR0H             ; [CPU_] 
    1345                      .dwcfi  save_reg_to_mem, 5, 2
    1346                      .dwcfi  save_reg_to_mem, 7, 3
    1347                      .dwcfi  cfa_offset, -4
    1348 00000002 FF69          SPM       0                     ; [CPU_] 
    1349 00000003 ABBD          MOVL      *SP++,XT              ; [CPU_] 
    1350                      .dwcfi  save_reg_to_mem, 21, 4
    1351                      .dwcfi  save_reg_to_mem, 22, 5
    1352                      .dwcfi  cfa_offset, -6
    1353 00000004 A8BD          MOVL      *SP++,XAR4            ; [CPU_] 
    1354                      .dwcfi  save_reg_to_mem, 12, 6
    1355                      .dwcfi  save_reg_to_mem, 13, 7
    1356                      .dwcfi  cfa_offset, -8
    1357 00000005 A0BD          MOVL      *SP++,XAR5            ; [CPU_] 
    1358                      .dwcfi  save_reg_to_mem, 14, 8
    1359                      .dwcfi  save_reg_to_mem, 15, 9
    1360                      .dwcfi  cfa_offset, -10
    1361 00000006 C2BD          MOVL      *SP++,XAR6            ; [CPU_] 
    1362                      .dwcfi  save_reg_to_mem, 16, 10
    1363                      .dwcfi  save_reg_to_mem, 17, 11
    1364                      .dwcfi  cfa_offset, -12
    1365 00000007 C3BD          MOVL      *SP++,XAR7            ; [CPU_] 
    1366                      .dwcfi  save_reg_to_mem, 18, 12
    1367                      .dwcfi  save_reg_to_mem, 19, 13
    1368                      .dwcfi  cfa_offset, -14
    1369 00000008 2942          CLRC      PAGE0,OVM             ; [CPU_] 
    1370 00000009 5616          CLRC      AMODE                 ; [CPU_] 
    1371                      .dwpsn  file "../main.c",line 585,column 5,is_stmt,isa 0
    1372 0000000a 02C8          MOVB      ACC,#200              ; [CPU_] |585| 
    1373 0000000b 761F-         MOVW      DP,#_halHandle        ; [CPU_U] 
         0000000c 0000 
    1374 0000000d 0700-         ADDL      ACC,@_halHandle       ; [CPU_] |585| 
    1375 0000000e 8AA9          MOVL      XAR4,ACC              ; [CPU_] |585| 
    1376 0000000f 8AC4          MOVL      XAR4,*+XAR4[0]        ; [CPU_] |585| 
    1377              $C$DW$167       .dwtag  DW_TAG_TI_branch
    1378                      .dwattr $C$DW$167, DW_AT_low_pc(0x00)
    1379                      .dwattr $C$DW$167, DW_AT_name("_SCI_getRxFifoStatus")
    1380                      .dwattr $C$DW$167, DW_AT_TI_call
    1381              
    1382 00000010 7640!         LCR       #_SCI_getRxFifoStatus ; [CPU_] |585| 
         00000011 0000 
    1383                      ; call occurs [#_SCI_getRxFifoStatus] ; [] |585| 
    1384 00000012 5200          CMPB      AL,#0                 ; [CPU_] |585| 
    1385 00000013 6109          B         $C$L4,EQ              ; [CPU_] |585| 
    1386                      ; branchcc occurs ; [] |585| 
    1387                      .dwpsn  file "../main.c",line 588,column 3,is_stmt,isa 0
    1388 00000014 02C8          MOVB      ACC,#200              ; [CPU_] |588| 
TMS320C2000 Assembler PC v15.12.3 Sun Oct 30 14:01:37 2016

Tools Copyright (c) 1996-2015 Texas Instruments Incorporated
C:\Users\MaCHaDo\AppData\Local\Temp\0057210                          PAGE   28

    1389 00000015 761F-         MOVW      DP,#_halHandle        ; [CPU_U] 
         00000016 0000 
    1390 00000017 0700-         ADDL      ACC,@_halHandle       ; [CPU_] |588| 
    1391 00000018 8AA9          MOVL      XAR4,ACC              ; [CPU_] |588| 
    1392 00000019 8AC4          MOVL      XAR4,*+XAR4[0]        ; [CPU_] |588| 
    1393              $C$DW$168       .dwtag  DW_TAG_TI_branch
    1394                      .dwattr $C$DW$168, DW_AT_low_pc(0x00)
    1395                      .dwattr $C$DW$168, DW_AT_name("_SCI_getDataBlocking")
    1396                      .dwattr $C$DW$168, DW_AT_TI_call
    1397              
    1398 0000001a 7640!         LCR       #_SCI_getDataBlocking ; [CPU_] |588| 
         0000001b 0000 
    1399                      ; call occurs [#_SCI_getDataBlocking] ; [] |588| 
    1400 0000001c       $C$L4:    
    1401                      .dwpsn  file "../main.c",line 593,column 5,is_stmt,isa 0
    1402 0000001c 02C8          MOVB      ACC,#200              ; [CPU_] |593| 
    1403 0000001d 761F-         MOVW      DP,#_halHandle        ; [CPU_U] 
         0000001e 0000 
    1404 0000001f 0700-         ADDL      ACC,@_halHandle       ; [CPU_] |593| 
    1405 00000020 8AA9          MOVL      XAR4,ACC              ; [CPU_] |593| 
    1406 00000021 8AC4          MOVL      XAR4,*+XAR4[0]        ; [CPU_] |593| 
    1407              $C$DW$169       .dwtag  DW_TAG_TI_branch
    1408                      .dwattr $C$DW$169, DW_AT_low_pc(0x00)
    1409                      .dwattr $C$DW$169, DW_AT_name("_SCI_clearRxFifoOvf")
    1410                      .dwattr $C$DW$169, DW_AT_TI_call
    1411              
    1412 00000022 7640!         LCR       #_SCI_clearRxFifoOvf  ; [CPU_] |593| 
         00000023 0000 
    1413                      ; call occurs [#_SCI_clearRxFifoOvf] ; [] |593| 
    1414 00000024 761F-         MOVW      DP,#_halHandle        ; [CPU_U] 
         00000025 0000 
    1415                      .dwpsn  file "../main.c",line 595,column 5,is_stmt,isa 0
    1416 00000026 02C8          MOVB      ACC,#200              ; [CPU_] |595| 
    1417 00000027 0700-         ADDL      ACC,@_halHandle       ; [CPU_] |595| 
    1418 00000028 8AA9          MOVL      XAR4,ACC              ; [CPU_] |595| 
    1419 00000029 8AC4          MOVL      XAR4,*+XAR4[0]        ; [CPU_] |595| 
    1420              $C$DW$170       .dwtag  DW_TAG_TI_branch
    1421                      .dwattr $C$DW$170, DW_AT_low_pc(0x00)
    1422                      .dwattr $C$DW$170, DW_AT_name("_SCI_clearRxFifoInt")
    1423                      .dwattr $C$DW$170, DW_AT_TI_call
    1424              
    1425 0000002a 7640!         LCR       #_SCI_clearRxFifoInt  ; [CPU_] |595| 
         0000002b 0000 
    1426                      ; call occurs [#_SCI_clearRxFifoInt] ; [] |595| 
    1427 0000002c 761F-         MOVW      DP,#_halHandle        ; [CPU_U] 
         0000002d 0000 
    1428                      .dwpsn  file "D:/Users/MaCHaDo/Documents/GitHub/LegStrong/drivers/include/pie.h",line 757,column 5,is
    1429 0000002e 0278          MOVB      ACC,#120              ; [CPU_] |757| 
    1430 0000002f 0700-         ADDL      ACC,@_halHandle       ; [CPU_] |757| 
    1431 00000030 8AA9          MOVL      XAR4,ACC              ; [CPU_] |757| 
    1432 00000031 8AC4          MOVL      XAR4,*+XAR4[0]        ; [CPU_] |757| 
    1433 00000032 28CC          MOV       *+XAR4[1],#256        ; [CPU_] |757| 
         00000033 0100 
    1434 00000034 C5BE          MOVL      XAR7,*--SP            ; [CPU_] 
    1435                      .dwcfi  cfa_offset, -12
TMS320C2000 Assembler PC v15.12.3 Sun Oct 30 14:01:37 2016

Tools Copyright (c) 1996-2015 Texas Instruments Incorporated
C:\Users\MaCHaDo\AppData\Local\Temp\0057210                          PAGE   29

    1436                      .dwcfi  restore_reg, 18
    1437 00000035 C4BE          MOVL      XAR6,*--SP            ; [CPU_] 
    1438                      .dwcfi  cfa_offset, -10
    1439                      .dwcfi  restore_reg, 16
    1440 00000036 83BE          MOVL      XAR5,*--SP            ; [CPU_] 
    1441                      .dwcfi  cfa_offset, -8
    1442                      .dwcfi  restore_reg, 14
    1443 00000037 8ABE          MOVL      XAR4,*--SP            ; [CPU_] 
    1444                      .dwcfi  cfa_offset, -6
    1445                      .dwcfi  restore_reg, 12
    1446 00000038 87BE          MOVL      XT,*--SP              ; [CPU_] 
    1447                      .dwcfi  cfa_offset, -4
    1448                      .dwcfi  restore_reg, 22
    1449                      .dwcfi  restore_reg, 21
    1450 00000039 0003          POP       AR1H:AR0H             ; [CPU_] 
    1451                      .dwcfi  cfa_offset, -2
    1452                      .dwcfi  restore_reg, 5
    1453                      .dwcfi  restore_reg, 7
    1454 0000003a 7617          NASP      ; [CPU_] 
    1455              $C$DW$171       .dwtag  DW_TAG_TI_branch
    1456                      .dwattr $C$DW$171, DW_AT_low_pc(0x00)
    1457                      .dwattr $C$DW$171, DW_AT_TI_return
    1458              
    1459 0000003b 7602          IRET      ; [CPU_] 
    1460                      ; return occurs ; [] 
    1461                      .dwattr $C$DW$166, DW_AT_TI_end_file("../main.c")
    1462                      .dwattr $C$DW$166, DW_AT_TI_end_line(0x258)
    1463                      .dwattr $C$DW$166, DW_AT_TI_end_column(0x01)
    1464                      .dwendentry
    1465                      .dwendtag $C$DW$166
    1466              
    1467 00000000               .sect   "ramfuncs:retain"
    1468                      .retain
    1469                      .retainrefs
    1470                      .global _mainISR
    1471              
    1472              $C$DW$172       .dwtag  DW_TAG_subprogram
    1473                      .dwattr $C$DW$172, DW_AT_name("mainISR")
    1474                      .dwattr $C$DW$172, DW_AT_low_pc(_mainISR)
    1475                      .dwattr $C$DW$172, DW_AT_high_pc(0x00)
    1476                      .dwattr $C$DW$172, DW_AT_TI_symbol_name("_mainISR")
    1477                      .dwattr $C$DW$172, DW_AT_external
    1478                      .dwattr $C$DW$172, DW_AT_TI_begin_file("../main.c")
    1479                      .dwattr $C$DW$172, DW_AT_TI_begin_line(0x1d9)
    1480                      .dwattr $C$DW$172, DW_AT_TI_begin_column(0x10)
    1481                      .dwattr $C$DW$172, DW_AT_TI_interrupt
    1482                      .dwattr $C$DW$172, DW_AT_TI_max_frame_size(-20)
    1483                      .dwpsn  file "../main.c",line 474,column 1,is_stmt,address _mainISR,isa 0
    1484              
    1485                      .dwfde $C$DW$CIE, _mainISR
    1486              
    1487              ;***************************************************************
    1488              ;* FNAME: _mainISR                      FR SIZE:  18           *
    1489              ;*                                                             *
    1490              ;* FUNCTION ENVIRONMENT                                        *
TMS320C2000 Assembler PC v15.12.3 Sun Oct 30 14:01:37 2016

Tools Copyright (c) 1996-2015 Texas Instruments Incorporated
C:\Users\MaCHaDo\AppData\Local\Temp\0057210                          PAGE   30

    1491              ;*                                                             *
    1492              ;* FUNCTION PROPERTIES                                         *
    1493              ;*                            4 Parameter,  0 Auto, 14 SOE     *
    1494              ;***************************************************************
    1495              
    1496              _mainISR:
    1497              ;* AR4   assigned to $O$C1
    1498              ;* AR1   assigned to $O$C2
    1499              ;* AR5   assigned to $O$C3
    1500              ;* AR6   assigned to $O$C4
    1501              ;* AR4   assigned to $O$C5
    1502              ;* AR7   assigned to $O$C6
    1503              ;* AR7   assigned to $O$C7
    1504              ;* AR5   assigned to _obj
    1505              $C$DW$173       .dwtag  DW_TAG_variable
    1506                      .dwattr $C$DW$173, DW_AT_name("obj")
    1507                      .dwattr $C$DW$173, DW_AT_TI_symbol_name("_obj")
    1508                      .dwattr $C$DW$173, DW_AT_type(*$C$DW$T$250)
    1509                      .dwattr $C$DW$173, DW_AT_location[DW_OP_reg14]
    1510              
    1511              ;* AR2   assigned to _bus_current_sf
    1512              $C$DW$174       .dwtag  DW_TAG_variable
    1513                      .dwattr $C$DW$174, DW_AT_name("bus_current_sf")
    1514                      .dwattr $C$DW$174, DW_AT_TI_symbol_name("_bus_current_sf")
    1515                      .dwattr $C$DW$174, DW_AT_type(*$C$DW$T$31)
    1516                      .dwattr $C$DW$174, DW_AT_location[DW_OP_reg8]
    1517              
    1518              ;* AR4   assigned to _obj
    1519              $C$DW$175       .dwtag  DW_TAG_variable
    1520                      .dwattr $C$DW$175, DW_AT_name("obj")
    1521                      .dwattr $C$DW$175, DW_AT_TI_symbol_name("_obj")
    1522                      .dwattr $C$DW$175, DW_AT_type(*$C$DW$T$250)
    1523                      .dwattr $C$DW$175, DW_AT_location[DW_OP_reg12]
    1524              
    1525              ;* AR5   assigned to _pwm
    1526              $C$DW$176       .dwtag  DW_TAG_variable
    1527                      .dwattr $C$DW$176, DW_AT_name("pwm")
    1528                      .dwattr $C$DW$176, DW_AT_TI_symbol_name("_pwm")
    1529                      .dwattr $C$DW$176, DW_AT_type(*$C$DW$T$268)
    1530                      .dwattr $C$DW$176, DW_AT_location[DW_OP_reg14]
    1531              
    1532              ;* AR6   assigned to _period
    1533              $C$DW$177       .dwtag  DW_TAG_variable
    1534                      .dwattr $C$DW$177, DW_AT_name("period")
    1535                      .dwattr $C$DW$177, DW_AT_TI_symbol_name("_period")
    1536                      .dwattr $C$DW$177, DW_AT_type(*$C$DW$T$31)
    1537                      .dwattr $C$DW$177, DW_AT_location[DW_OP_reg16]
    1538              
    1539              ;* XT    assigned to _value
    1540              $C$DW$178       .dwtag  DW_TAG_variable
    1541                      .dwattr $C$DW$178, DW_AT_name("value")
    1542                      .dwattr $C$DW$178, DW_AT_TI_symbol_name("_value")
    1543                      .dwattr $C$DW$178, DW_AT_type(*$C$DW$T$31)
    1544                      .dwattr $C$DW$178, DW_AT_location[DW_OP_reg21]
    1545              
TMS320C2000 Assembler PC v15.12.3 Sun Oct 30 14:01:37 2016

Tools Copyright (c) 1996-2015 Texas Instruments Incorporated
C:\Users\MaCHaDo\AppData\Local\Temp\0057210                          PAGE   31

    1546              ;* XT    assigned to _value
    1547              $C$DW$179       .dwtag  DW_TAG_variable
    1548                      .dwattr $C$DW$179, DW_AT_name("value")
    1549                      .dwattr $C$DW$179, DW_AT_TI_symbol_name("_value")
    1550                      .dwattr $C$DW$179, DW_AT_type(*$C$DW$T$31)
    1551                      .dwattr $C$DW$179, DW_AT_location[DW_OP_reg21]
    1552              
    1553              ;* XT    assigned to _value
    1554              $C$DW$180       .dwtag  DW_TAG_variable
    1555                      .dwattr $C$DW$180, DW_AT_name("value")
    1556                      .dwattr $C$DW$180, DW_AT_TI_symbol_name("_value")
    1557                      .dwattr $C$DW$180, DW_AT_type(*$C$DW$T$31)
    1558                      .dwattr $C$DW$180, DW_AT_location[DW_OP_reg21]
    1559              
    1560              ;* XT    assigned to _value
    1561              $C$DW$181       .dwtag  DW_TAG_variable
    1562                      .dwattr $C$DW$181, DW_AT_name("value")
    1563                      .dwattr $C$DW$181, DW_AT_TI_symbol_name("_value")
    1564                      .dwattr $C$DW$181, DW_AT_type(*$C$DW$T$31)
    1565                      .dwattr $C$DW$181, DW_AT_location[DW_OP_reg21]
    1566              
    1567              ;* XT    assigned to _value
    1568              $C$DW$182       .dwtag  DW_TAG_variable
    1569                      .dwattr $C$DW$182, DW_AT_name("value")
    1570                      .dwattr $C$DW$182, DW_AT_TI_symbol_name("_value")
    1571                      .dwattr $C$DW$182, DW_AT_type(*$C$DW$T$31)
    1572                      .dwattr $C$DW$182, DW_AT_location[DW_OP_reg21]
    1573              
    1574              ;* XT    assigned to _value
    1575              $C$DW$183       .dwtag  DW_TAG_variable
    1576                      .dwattr $C$DW$183, DW_AT_name("value")
    1577                      .dwattr $C$DW$183, DW_AT_TI_symbol_name("_value")
    1578                      .dwattr $C$DW$183, DW_AT_type(*$C$DW$T$31)
    1579                      .dwattr $C$DW$183, DW_AT_location[DW_OP_reg21]
    1580              
    1581              ;* XT    assigned to _value
    1582              $C$DW$184       .dwtag  DW_TAG_variable
    1583                      .dwattr $C$DW$184, DW_AT_name("value")
    1584                      .dwattr $C$DW$184, DW_AT_TI_symbol_name("_value")
    1585                      .dwattr $C$DW$184, DW_AT_type(*$C$DW$T$31)
    1586                      .dwattr $C$DW$184, DW_AT_location[DW_OP_reg21]
    1587              
    1588              ;* XT    assigned to _value
    1589              $C$DW$185       .dwtag  DW_TAG_variable
    1590                      .dwattr $C$DW$185, DW_AT_name("value")
    1591                      .dwattr $C$DW$185, DW_AT_TI_symbol_name("_value")
    1592                      .dwattr $C$DW$185, DW_AT_type(*$C$DW$T$31)
    1593                      .dwattr $C$DW$185, DW_AT_location[DW_OP_reg21]
    1594              
    1595              ;* AR5   assigned to $O$v1
    1596                      .dwcfi  cfa_offset, -2
    1597                      .dwcfi  save_reg_to_mem, 26, 0
    1598 00000000 761B          ASP       ; [CPU_] 
    1599 00000001 0005          PUSH      AR1H:AR0H             ; [CPU_] 
    1600                      .dwcfi  save_reg_to_mem, 5, 2
TMS320C2000 Assembler PC v15.12.3 Sun Oct 30 14:01:37 2016

Tools Copyright (c) 1996-2015 Texas Instruments Incorporated
C:\Users\MaCHaDo\AppData\Local\Temp\0057210                          PAGE   32

    1601                      .dwcfi  save_reg_to_mem, 7, 3
    1602                      .dwcfi  cfa_offset, -4
    1603 00000002 ABBD          MOVL      *SP++,XT              ; [CPU_] 
    1604                      .dwcfi  save_reg_to_mem, 21, 4
    1605                      .dwcfi  save_reg_to_mem, 22, 5
    1606                      .dwcfi  cfa_offset, -6
    1607 00000003 AABD          MOVL      *SP++,XAR2            ; [CPU_] 
    1608                      .dwcfi  save_reg_to_mem, 8, 6
    1609                      .dwcfi  save_reg_to_mem, 9, 7
    1610                      .dwcfi  cfa_offset, -8
    1611 00000004 A8BD          MOVL      *SP++,XAR4            ; [CPU_] 
    1612                      .dwcfi  save_reg_to_mem, 12, 8
    1613                      .dwcfi  save_reg_to_mem, 13, 9
    1614                      .dwcfi  cfa_offset, -10
    1615 00000005 A0BD          MOVL      *SP++,XAR5            ; [CPU_] 
    1616                      .dwcfi  save_reg_to_mem, 14, 10
    1617                      .dwcfi  save_reg_to_mem, 15, 11
    1618                      .dwcfi  cfa_offset, -12
    1619 00000006 C2BD          MOVL      *SP++,XAR6            ; [CPU_] 
    1620                      .dwcfi  save_reg_to_mem, 16, 12
    1621                      .dwcfi  save_reg_to_mem, 17, 13
    1622                      .dwcfi  cfa_offset, -14
    1623 00000007 C3BD          MOVL      *SP++,XAR7            ; [CPU_] 
    1624                      .dwcfi  save_reg_to_mem, 18, 14
    1625                      .dwcfi  save_reg_to_mem, 19, 15
    1626                      .dwcfi  cfa_offset, -16
    1627 00000008 FE04          ADDB      SP,#4                 ; [CPU_U] 
    1628                      .dwcfi  cfa_offset, -20
    1629 00000009 FF69          SPM       0                     ; [CPU_] 
    1630 0000000a 2942          CLRC      PAGE0,OVM             ; [CPU_] 
    1631 0000000b 5616          CLRC      AMODE                 ; [CPU_] 
    1632 0000000c 761F-         MOVW      DP,#_halHandle        ; [CPU_U] 
         0000000d 0000 
    1633                      .dwpsn  file "../main.c",line 484,column 3,is_stmt,isa 0
    1634 0000000e 8300-         MOVL      XAR5,@_halHandle      ; [CPU_] |484| 
    1635                      .dwpsn  file "D:/Users/MaCHaDo/Documents/GitHub/LegStrong/drivers/include/adc.h",line 571,column 3,is
    1636 0000000f 8F00          MOVL      XAR4,#26117           ; [CPU_U] |571| 
         00000010 6605 
    1637 00000011 A8A9          MOVL      ACC,XAR4              ; [CPU_] |571| 
    1638 00000012 07C5          ADDL      ACC,*+XAR5[0]         ; [CPU_] |571| 
    1639 00000013 8AA9          MOVL      XAR4,ACC              ; [CPU_] |571| 
    1640                      .dwpsn  file "D:/Users/MaCHaDo/Documents/GitHub/LegStrong/drivers/include/pie.h",line 757,column 5,is
    1641 00000014 D078          MOVB      XAR0,#120             ; [CPU_] |757| 
    1642                      .dwpsn  file "D:/Users/MaCHaDo/Documents/GitHub/LegStrong/drivers/include/adc.h",line 571,column 3,is
    1643 00000015 56BF          MOVB      *+XAR4[0],#1,UNC      ; [CPU_] |571| 
         00000016 01C4 
    1644                      .dwpsn  file "D:/Users/MaCHaDo/Documents/GitHub/LegStrong/drivers/include/pie.h",line 757,column 5,is
    1645 00000017 8A95          MOVL      XAR4,*+XAR5[AR0]      ; [CPU_] |757| 
    1646                      .dwpsn  file "D:/Users/MaCHaDo/Documents/GitHub/LegStrong/modules/include/hal.h",line 370,column 3,is
    1647 00000018 D0A4          MOVB      XAR0,#164             ; [CPU_] |370| 
    1648                      .dwpsn  file "D:/Users/MaCHaDo/Documents/GitHub/LegStrong/drivers/include/pie.h",line 757,column 5,is
    1649 00000019 28CC          MOV       *+XAR4[1],#512        ; [CPU_] |757| 
         0000001a 0200 
    1650                      .dwpsn  file "D:/Users/MaCHaDo/Documents/GitHub/LegStrong/drivers/include/adc.h",line 684,column 3,is
    1651 0000001b 8AC5          MOVL      XAR4,*+XAR5[0]        ; [CPU_] |684| 
TMS320C2000 Assembler PC v15.12.3 Sun Oct 30 14:01:37 2016

Tools Copyright (c) 1996-2015 Texas Instruments Incorporated
C:\Users\MaCHaDo\AppData\Local\Temp\0057210                          PAGE   33

    1652                      .dwpsn  file "D:/Users/MaCHaDo/Documents/GitHub/LegStrong/modules/include/hal.h",line 370,column 3,is
    1653 0000001c 8695          MOVL      XAR2,*+XAR5[AR0]      ; [CPU_] |370| 
    1654                      .dwpsn  file "D:/Users/MaCHaDo/Documents/GitHub/LegStrong/modules/include/hal.h",line 540,column 3,is
    1655 0000001d 7680-         MOVL      XAR6,#_gAdcData       ; [CPU_U] |540| 
         0000001e 0016 
    1656                      .dwpsn  file "D:/Users/MaCHaDo/Documents/GitHub/LegStrong/modules/include/hal.h",line 539,column 3,is
    1657 0000001f D0A2          MOVB      XAR0,#162             ; [CPU_] |539| 
    1658                      .dwpsn  file "D:/Users/MaCHaDo/Documents/GitHub/LegStrong/drivers/include/adc.h",line 684,column 3,is
    1659 00000020 0ECC          MOVU      ACC,*+XAR4[1]         ; [CPU_] |684| 
    1660                      .dwpsn  file "D:/Users/MaCHaDo/Documents/GitHub/LegStrong/modules/include/hal.h",line 539,column 3,is
    1661 00000021 C595          MOVL      XAR7,*+XAR5[AR0]      ; [CPU_] |539| 
    1662 00000022 761F-         MOVW      DP,#_gAdcData+12      ; [CPU_U] 
         00000023 0000 
    1663                      .dwpsn  file "D:/Users/MaCHaDo/Documents/GitHub/LegStrong/drivers/include/adc.h",line 684,column 3,is
    1664 00000024 1EAC          MOVL      XT,ACC                ; [CPU_] |684| 
    1665                      .dwpsn  file "D:/Users/MaCHaDo/Documents/GitHub/LegStrong/modules/include/hal.h",line 539,column 3,is
    1666 00000025 D092          MOVB      XAR0,#146             ; [CPU_] |539| 
    1667 00000026 5605          IMPYL     P,XT,XAR7             ; [CPU_] |539| 
         00000027 00A7 
    1668 00000028 5663          QMPYL     ACC,XT,XAR7           ; [CPU_] |539| 
         00000029 00A7 
    1669 0000002a 568B          ASR64     ACC:P,#12             ; [CPU_] |539| 
    1670 0000002b A9A9          MOVL      ACC,P                 ; [CPU_] |539| 
    1671 0000002c 0395          SUBL      ACC,*+XAR5[AR0]       ; [CPU_] |539| 
    1672                      .dwpsn  file "D:/Users/MaCHaDo/Documents/GitHub/LegStrong/modules/include/hal.h",line 544,column 3,is
    1673 0000002d D094          MOVB      XAR0,#148             ; [CPU_] |544| 
    1674                      .dwpsn  file "D:/Users/MaCHaDo/Documents/GitHub/LegStrong/modules/include/hal.h",line 540,column 3,is
    1675 0000002e 1EC6          MOVL      *+XAR6[0],ACC         ; [CPU_] |540| 
    1676                      .dwpsn  file "D:/Users/MaCHaDo/Documents/GitHub/LegStrong/drivers/include/adc.h",line 684,column 3,is
    1677 0000002f 0ED4          MOVU      ACC,*+XAR4[2]         ; [CPU_] |684| 
    1678 00000030 1EAC          MOVL      XT,ACC                ; [CPU_] |684| 
    1679                      .dwpsn  file "D:/Users/MaCHaDo/Documents/GitHub/LegStrong/modules/include/hal.h",line 544,column 3,is
    1680 00000031 5663          QMPYL     ACC,XT,XAR7           ; [CPU_] |544| 
         00000032 00A7 
    1681 00000033 5605          IMPYL     P,XT,XAR7             ; [CPU_] |544| 
         00000034 00A7 
    1682 00000035 568B          ASR64     ACC:P,#12             ; [CPU_] |544| 
    1683 00000036 A9A9          MOVL      ACC,P                 ; [CPU_] |544| 
    1684 00000037 0395          SUBL      ACC,*+XAR5[AR0]       ; [CPU_] |544| 
    1685                      .dwpsn  file "D:/Users/MaCHaDo/Documents/GitHub/LegStrong/modules/include/hal.h",line 549,column 3,is
    1686 00000038 D096          MOVB      XAR0,#150             ; [CPU_] |549| 
    1687                      .dwpsn  file "D:/Users/MaCHaDo/Documents/GitHub/LegStrong/modules/include/hal.h",line 545,column 3,is
    1688 00000039 1ED6          MOVL      *+XAR6[2],ACC         ; [CPU_] |545| 
    1689                      .dwpsn  file "D:/Users/MaCHaDo/Documents/GitHub/LegStrong/drivers/include/adc.h",line 684,column 3,is
    1690 0000003a 0EDC          MOVU      ACC,*+XAR4[3]         ; [CPU_] |684| 
    1691 0000003b 1EAC          MOVL      XT,ACC                ; [CPU_] |684| 
    1692                      .dwpsn  file "D:/Users/MaCHaDo/Documents/GitHub/LegStrong/modules/include/hal.h",line 549,column 3,is
    1693 0000003c 5663          QMPYL     ACC,XT,XAR7           ; [CPU_] |549| 
         0000003d 00A7 
    1694 0000003e 5605          IMPYL     P,XT,XAR7             ; [CPU_] |549| 
         0000003f 00A7 
    1695 00000040 568B          ASR64     ACC:P,#12             ; [CPU_] |549| 
    1696 00000041 A9A9          MOVL      ACC,P                 ; [CPU_] |549| 
    1697 00000042 0395          SUBL      ACC,*+XAR5[AR0]       ; [CPU_] |549| 
    1698                      .dwpsn  file "D:/Users/MaCHaDo/Documents/GitHub/LegStrong/modules/include/hal.h",line 554,column 3,is
TMS320C2000 Assembler PC v15.12.3 Sun Oct 30 14:01:37 2016

Tools Copyright (c) 1996-2015 Texas Instruments Incorporated
C:\Users\MaCHaDo\AppData\Local\Temp\0057210                          PAGE   34

    1699 00000043 D0A6          MOVB      XAR0,#166             ; [CPU_] |554| 
    1700                      .dwpsn  file "D:/Users/MaCHaDo/Documents/GitHub/LegStrong/modules/include/hal.h",line 550,column 3,is
    1701 00000044 1EE6          MOVL      *+XAR6[4],ACC         ; [CPU_] |550| 
    1702                      .dwpsn  file "D:/Users/MaCHaDo/Documents/GitHub/LegStrong/drivers/include/adc.h",line 684,column 3,is
    1703 00000045 0EE4          MOVU      ACC,*+XAR4[4]         ; [CPU_] |684| 
    1704                      .dwpsn  file "D:/Users/MaCHaDo/Documents/GitHub/LegStrong/modules/include/hal.h",line 554,column 3,is
    1705 00000046 C595          MOVL      XAR7,*+XAR5[AR0]      ; [CPU_] |554| 
    1706                      .dwpsn  file "../main.c",line 492,column 3,is_stmt,isa 0
    1707 00000047 8D40-         MOVL      XAR1,#_gPwmData       ; [CPU_U] |492| 
         00000048 0010 
    1708                      .dwpsn  file "D:/Users/MaCHaDo/Documents/GitHub/LegStrong/drivers/include/adc.h",line 684,column 3,is
    1709 00000049 1EAC          MOVL      XT,ACC                ; [CPU_] |684| 
    1710                      .dwpsn  file "D:/Users/MaCHaDo/Documents/GitHub/LegStrong/modules/include/hal.h",line 554,column 3,is
    1711 0000004a D098          MOVB      XAR0,#152             ; [CPU_] |554| 
    1712 0000004b 5663          QMPYL     ACC,XT,XAR7           ; [CPU_] |554| 
         0000004c 00A7 
    1713 0000004d 5605          IMPYL     P,XT,XAR7             ; [CPU_] |554| 
         0000004e 00A7 
    1714 0000004f 568B          ASR64     ACC:P,#12             ; [CPU_] |554| 
    1715 00000050 A9A9          MOVL      ACC,P                 ; [CPU_] |554| 
    1716 00000051 0395          SUBL      ACC,*+XAR5[AR0]       ; [CPU_] |554| 
    1717                      .dwpsn  file "D:/Users/MaCHaDo/Documents/GitHub/LegStrong/modules/include/hal.h",line 559,column 3,is
    1718 00000052 D09A          MOVB      XAR0,#154             ; [CPU_] |559| 
    1719                      .dwpsn  file "D:/Users/MaCHaDo/Documents/GitHub/LegStrong/modules/include/hal.h",line 555,column 3,is
    1720 00000053 1EF6          MOVL      *+XAR6[6],ACC         ; [CPU_] |555| 
    1721                      .dwpsn  file "D:/Users/MaCHaDo/Documents/GitHub/LegStrong/drivers/include/adc.h",line 684,column 3,is
    1722 00000054 0EEC          MOVU      ACC,*+XAR4[5]         ; [CPU_] |684| 
    1723 00000055 1EAC          MOVL      XT,ACC                ; [CPU_] |684| 
    1724                      .dwpsn  file "D:/Users/MaCHaDo/Documents/GitHub/LegStrong/modules/include/hal.h",line 559,column 3,is
    1725 00000056 5663          QMPYL     ACC,XT,XAR7           ; [CPU_] |559| 
         00000057 00A7 
    1726 00000058 5605          IMPYL     P,XT,XAR7             ; [CPU_] |559| 
         00000059 00A7 
    1727 0000005a 568B          ASR64     ACC:P,#12             ; [CPU_] |559| 
    1728 0000005b A9A9          MOVL      ACC,P                 ; [CPU_] |559| 
    1729 0000005c 0395          SUBL      ACC,*+XAR5[AR0]       ; [CPU_] |559| 
    1730                      .dwpsn  file "D:/Users/MaCHaDo/Documents/GitHub/LegStrong/modules/include/hal.h",line 560,column 3,is
    1731 0000005d D008          MOVB      XAR0,#8               ; [CPU_] |560| 
    1732 0000005e 1E96          MOVL      *+XAR6[AR0],ACC       ; [CPU_] |560| 
    1733                      .dwpsn  file "D:/Users/MaCHaDo/Documents/GitHub/LegStrong/modules/include/hal.h",line 564,column 3,is
    1734 0000005f D09C          MOVB      XAR0,#156             ; [CPU_] |564| 
    1735                      .dwpsn  file "D:/Users/MaCHaDo/Documents/GitHub/LegStrong/drivers/include/adc.h",line 684,column 3,is
    1736 00000060 0EF4          MOVU      ACC,*+XAR4[6]         ; [CPU_] |684| 
    1737 00000061 1EAC          MOVL      XT,ACC                ; [CPU_] |684| 
    1738                      .dwpsn  file "D:/Users/MaCHaDo/Documents/GitHub/LegStrong/modules/include/hal.h",line 564,column 3,is
    1739 00000062 5663          QMPYL     ACC,XT,XAR7           ; [CPU_] |564| 
         00000063 00A7 
    1740 00000064 5605          IMPYL     P,XT,XAR7             ; [CPU_] |564| 
         00000065 00A7 
    1741 00000066 568B          ASR64     ACC:P,#12             ; [CPU_] |564| 
    1742 00000067 A9A9          MOVL      ACC,P                 ; [CPU_] |564| 
    1743 00000068 0395          SUBL      ACC,*+XAR5[AR0]       ; [CPU_] |564| 
    1744                      .dwpsn  file "D:/Users/MaCHaDo/Documents/GitHub/LegStrong/modules/include/hal.h",line 565,column 3,is
    1745 00000069 D00A          MOVB      XAR0,#10              ; [CPU_] |565| 
    1746 0000006a 1E96          MOVL      *+XAR6[AR0],ACC       ; [CPU_] |565| 
TMS320C2000 Assembler PC v15.12.3 Sun Oct 30 14:01:37 2016

Tools Copyright (c) 1996-2015 Texas Instruments Incorporated
C:\Users\MaCHaDo\AppData\Local\Temp\0057210                          PAGE   35

    1747                      .dwpsn  file "D:/Users/MaCHaDo/Documents/GitHub/LegStrong/drivers/include/adc.h",line 684,column 3,is
    1748 0000006b D008          MOVB      XAR0,#8               ; [CPU_] |684| 
    1749 0000006c 0EFC          MOVU      ACC,*+XAR4[7]         ; [CPU_] |684| 
    1750 0000006d 1EAC          MOVL      XT,ACC                ; [CPU_] |684| 
    1751                      .dwpsn  file "D:/Users/MaCHaDo/Documents/GitHub/LegStrong/modules/include/hal.h",line 569,column 3,is
    1752 0000006e 5663          QMPYL     ACC,XT,XAR7           ; [CPU_] |569| 
         0000006f 00A7 
    1753 00000070 5605          IMPYL     P,XT,XAR7             ; [CPU_] |569| 
         00000071 00A7 
    1754 00000072 568B          ASR64     ACC:P,#12             ; [CPU_] |569| 
    1755                      .dwpsn  file "D:/Users/MaCHaDo/Documents/GitHub/LegStrong/modules/include/hal.h",line 570,column 3,is
    1756 00000073 A922-         MOVL      @_gAdcData+12,P       ; [CPU_] |570| 
    1757                      .dwpsn  file "D:/Users/MaCHaDo/Documents/GitHub/LegStrong/drivers/include/adc.h",line 684,column 3,is
    1758 00000074 0E94          MOVU      ACC,*+XAR4[AR0]       ; [CPU_] |684| 
    1759                      .dwpsn  file "D:/Users/MaCHaDo/Documents/GitHub/LegStrong/modules/include/hal.h",line 574,column 3,is
    1760 00000075 D0A0          MOVB      XAR0,#160             ; [CPU_] |574| 
    1761                      .dwpsn  file "D:/Users/MaCHaDo/Documents/GitHub/LegStrong/drivers/include/adc.h",line 684,column 3,is
    1762 00000076 1EAC          MOVL      XT,ACC                ; [CPU_] |684| 
    1763                      .dwpsn  file "D:/Users/MaCHaDo/Documents/GitHub/LegStrong/modules/include/hal.h",line 574,column 3,is
    1764 00000077 5663          QMPYL     ACC,XT,XAR2           ; [CPU_] |574| 
         00000078 00A2 
    1765 00000079 5605          IMPYL     P,XT,XAR2             ; [CPU_] |574| 
         0000007a 00A2 
    1766                      .dwpsn  file "../main.c",line 492,column 3,is_stmt,isa 0
    1767 0000007b 8A04-         MOVL      XAR4,@_ctrlHandle     ; [CPU_] |492| 
    1768                      .dwpsn  file "D:/Users/MaCHaDo/Documents/GitHub/LegStrong/modules/include/hal.h",line 574,column 3,is
    1769 0000007c 568B          ASR64     ACC:P,#12             ; [CPU_] |574| 
    1770 0000007d 0695          MOVL      ACC,*+XAR5[AR0]       ; [CPU_] |574| 
    1771 0000007e 03AB          SUBL      ACC,P                 ; [CPU_] |574| 
    1772                      .dwpsn  file "../main.c",line 492,column 3,is_stmt,isa 0
    1773 0000007f C242          MOVL      *-SP[2],XAR6          ; [CPU_] |492| 
    1774                      .dwpsn  file "D:/Users/MaCHaDo/Documents/GitHub/LegStrong/modules/include/hal.h",line 575,column 3,is
    1775 00000080 1E24-         MOVL      @_gAdcData+14,ACC     ; [CPU_] |575| 
    1776                      .dwpsn  file "../main.c",line 492,column 3,is_stmt,isa 0
    1777 00000081 B244          MOVL      *-SP[4],XAR1          ; [CPU_] |492| 
    1778              $C$DW$186       .dwtag  DW_TAG_TI_branch
    1779                      .dwattr $C$DW$186, DW_AT_low_pc(0x00)
    1780                      .dwattr $C$DW$186, DW_AT_name("_CTRL_run")
    1781                      .dwattr $C$DW$186, DW_AT_TI_call
    1782              
    1783 00000082 7640!         LCR       #_CTRL_run            ; [CPU_] |492| 
         00000083 0000 
    1784                      ; call occurs [#_CTRL_run] ; [] |492| 
    1785 00000084 761F-         MOVW      DP,#_halHandle        ; [CPU_U] 
         00000085 0000 
    1786 00000086 3B01          SETC      SXM                   ; [CPU_] 
    1787                      .dwpsn  file "D:/Users/MaCHaDo/Documents/GitHub/LegStrong/modules/include/hal.h",line 1136,column 16,
    1788 00000087 8A00-         MOVL      XAR4,@_halHandle      ; [CPU_] |1136| 
    1789                      .dwpsn  file "D:/Users/MaCHaDo/Documents/GitHub/LegStrong/modules/include/hal.h",line 1147,column 7,i
    1790 00000088 D07C          MOVB      XAR0,#124             ; [CPU_] |1147| 
    1791                      .dwpsn  file "D:/Users/MaCHaDo/Documents/GitHub/LegStrong/modules/include/hal.h",line 1149,column 7,i
    1792 00000089 FF2F          MOV       ACC,#-512 << 15       ; [CPU_] |1149| 
         0000008a FE00 
    1793 0000008b 87C1          MOVL      XT,*+XAR1[0]          ; [CPU_] |1149| 
    1794                      .dwpsn  file "D:/Users/MaCHaDo/Documents/GitHub/LegStrong/modules/include/hal.h",line 1147,column 7,i
TMS320C2000 Assembler PC v15.12.3 Sun Oct 30 14:01:37 2016

Tools Copyright (c) 1996-2015 Texas Instruments Incorporated
C:\Users\MaCHaDo\AppData\Local\Temp\0057210                          PAGE   36

    1795 0000008c 8394          MOVL      XAR5,*+XAR4[AR0]      ; [CPU_] |1147| 
    1796                      .dwpsn  file "D:/Users/MaCHaDo/Documents/GitHub/LegStrong/modules/include/hal.h",line 1149,column 7,i
    1797 0000008d 5605          IMPYL     P,XT,ACC              ; [CPU_] |1149| 
         0000008e 00A9 
    1798 0000008f 5663          QMPYL     ACC,XT,ACC            ; [CPU_] |1149| 
         00000090 00A9 
    1799 00000091 56A7          LSL64     ACC:P,#8              ; [CPU_] |1149| 
    1800                      .dwpsn  file "D:/Users/MaCHaDo/Documents/GitHub/LegStrong/modules/include/hal.h",line 1148,column 7,i
    1801 00000092 88ED          MOVZ      AR6,*+XAR5[5]         ; [CPU_] |1148| 
    1802                      .dwpsn  file "D:/Users/MaCHaDo/Documents/GitHub/LegStrong/modules/include/hal.h",line 1149,column 7,i
    1803 00000093 2BAB          MOV       PL,#0                 ; [CPU_] |1149| 
    1804 00000094 28AA          MOV       PH,#128               ; [CPU_] |1149| 
         00000095 0080 
    1805 00000096 A9A7          MOVL      XAR7,P                ; [CPU_] |1149| 
    1806 00000097 D009          MOVB      XAR0,#9               ; [CPU_] |1149| 
    1807 00000098 2BAB          MOV       PL,#0                 ; [CPU_] |1149| 
    1808 00000099 28AA          MOV       PH,#65408             ; [CPU_] |1149| 
         0000009a FF80 
    1809 0000009b 5650          MINL      ACC,XAR7              ; [CPU_] |1149| 
         0000009c 00A7 
    1810 0000009d 5661          MAXL      ACC,P                 ; [CPU_] |1149| 
         0000009e 00AB 
    1811 0000009f B600          MOVB      XAR7,#0               ; [CPU_] |1149| 
    1812 000000a0 FF1F          ADD       ACC,#256 << 15        ; [CPU_] |1149| 
         000000a1 0100 
    1813 000000a2 1EAC          MOVL      XT,ACC                ; [CPU_] |1149| 
    1814 000000a3 5663          QMPYL     ACC,XT,XAR6           ; [CPU_] |1149| 
         000000a4 00A6 
    1815 000000a5 5605          IMPYL     P,XT,XAR6             ; [CPU_] |1149| 
         000000a6 00A6 
    1816 000000a7 56A7          LSL64     ACC:P,#8              ; [CPU_] |1149| 
    1817 000000a8 5650          MINL      ACC,XAR6              ; [CPU_] |1149| 
         000000a9 00A6 
    1818 000000aa 5661          MAXL      ACC,XAR7              ; [CPU_] |1149| 
         000000ab 00A7 
    1819 000000ac 9695          MOV       *+XAR5[AR0],AL        ; [CPU_] |1149| 
    1820                      .dwpsn  file "D:/Users/MaCHaDo/Documents/GitHub/LegStrong/modules/include/hal.h",line 1148,column 7,i
    1821 000000ad D07E          MOVB      XAR0,#126             ; [CPU_] |1148| 
    1822                      .dwpsn  file "D:/Users/MaCHaDo/Documents/GitHub/LegStrong/modules/include/hal.h",line 1149,column 7,i
    1823 000000ae FF2F          MOV       ACC,#-512 << 15       ; [CPU_] |1149| 
         000000af FE00 
    1824 000000b0 87D1          MOVL      XT,*+XAR1[2]          ; [CPU_] |1149| 
    1825                      .dwpsn  file "D:/Users/MaCHaDo/Documents/GitHub/LegStrong/modules/include/hal.h",line 1148,column 7,i
    1826 000000b1 8394          MOVL      XAR5,*+XAR4[AR0]      ; [CPU_] |1148| 
    1827                      .dwpsn  file "D:/Users/MaCHaDo/Documents/GitHub/LegStrong/modules/include/hal.h",line 1149,column 7,i
    1828 000000b2 5605          IMPYL     P,XT,ACC              ; [CPU_] |1149| 
         000000b3 00A9 
    1829 000000b4 5663          QMPYL     ACC,XT,ACC            ; [CPU_] |1149| 
         000000b5 00A9 
    1830 000000b6 56A7          LSL64     ACC:P,#8              ; [CPU_] |1149| 
    1831                      .dwpsn  file "D:/Users/MaCHaDo/Documents/GitHub/LegStrong/modules/include/hal.h",line 1148,column 7,i
    1832 000000b7 88ED          MOVZ      AR6,*+XAR5[5]         ; [CPU_] |1148| 
    1833                      .dwpsn  file "D:/Users/MaCHaDo/Documents/GitHub/LegStrong/modules/include/hal.h",line 1149,column 7,i
    1834 000000b8 2BAB          MOV       PL,#0                 ; [CPU_] |1149| 
    1835 000000b9 28AA          MOV       PH,#128               ; [CPU_] |1149| 
TMS320C2000 Assembler PC v15.12.3 Sun Oct 30 14:01:37 2016

Tools Copyright (c) 1996-2015 Texas Instruments Incorporated
C:\Users\MaCHaDo\AppData\Local\Temp\0057210                          PAGE   37

         000000ba 0080 
    1836 000000bb A9A7          MOVL      XAR7,P                ; [CPU_] |1149| 
    1837 000000bc D009          MOVB      XAR0,#9               ; [CPU_] |1149| 
    1838 000000bd 2BAB          MOV       PL,#0                 ; [CPU_] |1149| 
    1839 000000be 28AA          MOV       PH,#65408             ; [CPU_] |1149| 
         000000bf FF80 
    1840 000000c0 5650          MINL      ACC,XAR7              ; [CPU_] |1149| 
         000000c1 00A7 
    1841 000000c2 5661          MAXL      ACC,P                 ; [CPU_] |1149| 
         000000c3 00AB 
    1842 000000c4 B600          MOVB      XAR7,#0               ; [CPU_] |1149| 
    1843 000000c5 FF1F          ADD       ACC,#256 << 15        ; [CPU_] |1149| 
         000000c6 0100 
    1844 000000c7 1EAC          MOVL      XT,ACC                ; [CPU_] |1149| 
    1845 000000c8 5663          QMPYL     ACC,XT,XAR6           ; [CPU_] |1149| 
         000000c9 00A6 
    1846 000000ca 5605          IMPYL     P,XT,XAR6             ; [CPU_] |1149| 
         000000cb 00A6 
    1847 000000cc 56A7          LSL64     ACC:P,#8              ; [CPU_] |1149| 
    1848 000000cd 5650          MINL      ACC,XAR6              ; [CPU_] |1149| 
         000000ce 00A6 
    1849 000000cf 5661          MAXL      ACC,XAR7              ; [CPU_] |1149| 
         000000d0 00A7 
    1850 000000d1 9695          MOV       *+XAR5[AR0],AL        ; [CPU_] |1149| 
    1851                      .dwpsn  file "D:/Users/MaCHaDo/Documents/GitHub/LegStrong/modules/include/hal.h",line 1148,column 7,i
    1852 000000d2 D080          MOVB      XAR0,#128             ; [CPU_] |1148| 
    1853                      .dwpsn  file "D:\Users\MaCHaDo\Documents\GitHub\LegStrong\drivers\include\pwm.h",line 1717,column 3,i
    1854 000000d3 FF2F          MOV       ACC,#-512 << 15       ; [CPU_] |1717| 
         000000d4 FE00 
    1855 000000d5 87E1          MOVL      XT,*+XAR1[4]          ; [CPU_] |1717| 
    1856                      .dwpsn  file "D:/Users/MaCHaDo/Documents/GitHub/LegStrong/modules/include/hal.h",line 1148,column 7,i
    1857 000000d6 8A94          MOVL      XAR4,*+XAR4[AR0]      ; [CPU_] |1148| 
    1858                      .dwpsn  file "D:\Users\MaCHaDo\Documents\GitHub\LegStrong\drivers\include\pwm.h",line 1717,column 3,i
    1859 000000d7 5605          IMPYL     P,XT,ACC              ; [CPU_] |1717| 
         000000d8 00A9 
    1860 000000d9 5663          QMPYL     ACC,XT,ACC            ; [CPU_] |1717| 
         000000da 00A9 
    1861 000000db D009          MOVB      XAR0,#9               ; [CPU_] |1717| 
    1862 000000dc 56A7          LSL64     ACC:P,#8              ; [CPU_] |1717| 
    1863                      .dwpsn  file "D:/Users/MaCHaDo/Documents/GitHub/LegStrong/modules/include/hal.h",line 1148,column 7,i
    1864 000000dd 88EC          MOVZ      AR6,*+XAR4[5]         ; [CPU_] |1148| 
    1865                      .dwpsn  file "D:\Users\MaCHaDo\Documents\GitHub\LegStrong\drivers\include\pwm.h",line 1717,column 3,i
    1866 000000de 2BAB          MOV       PL,#0                 ; [CPU_] |1717| 
    1867 000000df 28AA          MOV       PH,#128               ; [CPU_] |1717| 
         000000e0 0080 
    1868 000000e1 A9A7          MOVL      XAR7,P                ; [CPU_] |1717| 
    1869 000000e2 761F-         MOVW      DP,#_ctrlHandle       ; [CPU_U] 
         000000e3 0000 
    1870 000000e4 2BAB          MOV       PL,#0                 ; [CPU_] |1717| 
    1871 000000e5 28AA          MOV       PH,#65408             ; [CPU_] |1717| 
         000000e6 FF80 
    1872 000000e7 5650          MINL      ACC,XAR7              ; [CPU_] |1717| 
         000000e8 00A7 
    1873 000000e9 5661          MAXL      ACC,P                 ; [CPU_] |1717| 
         000000ea 00AB 
TMS320C2000 Assembler PC v15.12.3 Sun Oct 30 14:01:37 2016

Tools Copyright (c) 1996-2015 Texas Instruments Incorporated
C:\Users\MaCHaDo\AppData\Local\Temp\0057210                          PAGE   38

    1874 000000eb B600          MOVB      XAR7,#0               ; [CPU_] |1717| 
    1875 000000ec FF1F          ADD       ACC,#256 << 15        ; [CPU_] |1717| 
         000000ed 0100 
    1876 000000ee 1EAC          MOVL      XT,ACC                ; [CPU_] |1717| 
    1877 000000ef 5663          QMPYL     ACC,XT,XAR6           ; [CPU_] |1717| 
         000000f0 00A6 
    1878 000000f1 5605          IMPYL     P,XT,XAR6             ; [CPU_] |1717| 
         000000f2 00A6 
    1879 000000f3 56A7          LSL64     ACC:P,#8              ; [CPU_] |1717| 
    1880 000000f4 5650          MINL      ACC,XAR6              ; [CPU_] |1717| 
         000000f5 00A6 
    1881 000000f6 5661          MAXL      ACC,XAR7              ; [CPU_] |1717| 
         000000f7 00A7 
    1882 000000f8 9694          MOV       *+XAR4[AR0],AL        ; [CPU_] |1717| 
    1883                      .dwpsn  file "../main.c",line 500,column 3,is_stmt,isa 0
    1884 000000f9 8A04-         MOVL      XAR4,@_ctrlHandle     ; [CPU_] |500| 
    1885              $C$DW$187       .dwtag  DW_TAG_TI_branch
    1886                      .dwattr $C$DW$187, DW_AT_low_pc(0x00)
    1887                      .dwattr $C$DW$187, DW_AT_name("_CTRL_setup")
    1888                      .dwattr $C$DW$187, DW_AT_TI_call
    1889              
    1890 000000fa 7640!         LCR       #_CTRL_setup          ; [CPU_] |500| 
         000000fb 0000 
    1891                      ; call occurs [#_CTRL_setup] ; [] |500| 
    1892 000000fc FE84          SUBB      SP,#4                 ; [CPU_U] 
    1893                      .dwcfi  cfa_offset, -16
    1894 000000fd C5BE          MOVL      XAR7,*--SP            ; [CPU_] 
    1895                      .dwcfi  cfa_offset, -14
    1896                      .dwcfi  restore_reg, 18
    1897 000000fe C4BE          MOVL      XAR6,*--SP            ; [CPU_] 
    1898                      .dwcfi  cfa_offset, -12
    1899                      .dwcfi  restore_reg, 16
    1900 000000ff 83BE          MOVL      XAR5,*--SP            ; [CPU_] 
    1901                      .dwcfi  cfa_offset, -10
    1902                      .dwcfi  restore_reg, 14
    1903 00000100 8ABE          MOVL      XAR4,*--SP            ; [CPU_] 
    1904                      .dwcfi  cfa_offset, -8
    1905                      .dwcfi  restore_reg, 12
    1906 00000101 86BE          MOVL      XAR2,*--SP            ; [CPU_] 
    1907                      .dwcfi  cfa_offset, -6
    1908                      .dwcfi  restore_reg, 8
    1909 00000102 87BE          MOVL      XT,*--SP              ; [CPU_] 
    1910                      .dwcfi  cfa_offset, -4
    1911                      .dwcfi  restore_reg, 22
    1912                      .dwcfi  restore_reg, 21
    1913 00000103 0003          POP       AR1H:AR0H             ; [CPU_] 
    1914                      .dwcfi  cfa_offset, -2
    1915                      .dwcfi  restore_reg, 5
    1916                      .dwcfi  restore_reg, 7
    1917 00000104 7617          NASP      ; [CPU_] 
    1918              $C$DW$188       .dwtag  DW_TAG_TI_branch
    1919                      .dwattr $C$DW$188, DW_AT_low_pc(0x00)
    1920                      .dwattr $C$DW$188, DW_AT_TI_return
    1921              
    1922 00000105 7602          IRET      ; [CPU_] 
TMS320C2000 Assembler PC v15.12.3 Sun Oct 30 14:01:37 2016

Tools Copyright (c) 1996-2015 Texas Instruments Incorporated
C:\Users\MaCHaDo\AppData\Local\Temp\0057210                          PAGE   39

    1923                      ; return occurs ; [] 
    1924                      .dwattr $C$DW$172, DW_AT_TI_end_file("../main.c")
    1925                      .dwattr $C$DW$172, DW_AT_TI_end_line(0x1f8)
    1926                      .dwattr $C$DW$172, DW_AT_TI_end_column(0x01)
    1927                      .dwendentry
    1928                      .dwendtag $C$DW$172
    1929              
    1930 00000096               .sect   ".text"
    1931                      .clink
    1932                      .global _main
    1933              
    1934              $C$DW$189       .dwtag  DW_TAG_subprogram
    1935                      .dwattr $C$DW$189, DW_AT_name("main")
    1936                      .dwattr $C$DW$189, DW_AT_low_pc(_main)
    1937                      .dwattr $C$DW$189, DW_AT_high_pc(0x00)
    1938                      .dwattr $C$DW$189, DW_AT_TI_symbol_name("_main")
    1939                      .dwattr $C$DW$189, DW_AT_external
    1940                      .dwattr $C$DW$189, DW_AT_TI_begin_file("../main.c")
    1941                      .dwattr $C$DW$189, DW_AT_TI_begin_line(0x88)
    1942                      .dwattr $C$DW$189, DW_AT_TI_begin_column(0x06)
    1943                      .dwattr $C$DW$189, DW_AT_TI_max_frame_size(-20)
    1944                      .dwpsn  file "../main.c",line 137,column 1,is_stmt,address _main,isa 0
    1945              
    1946                      .dwfde $C$DW$CIE, _main
    1947              
    1948              ;***************************************************************
    1949              ;* FNAME: _main                         FR SIZE:  18           *
    1950              ;*                                                             *
    1951              ;* FUNCTION ENVIRONMENT                                        *
    1952              ;*                                                             *
    1953              ;* FUNCTION PROPERTIES                                         *
    1954              ;*                            2 Parameter, 10 Auto,  6 SOE     *
    1955              ;***************************************************************
    1956              
    1957              _main:
    1958              ;* AR6   assigned to $O$C14
    1959              ;* AR5   assigned to $O$C15
    1960              ;* AR7   assigned to $O$C16
    1961              ;* AR6   assigned to $O$C17
    1962              ;* AR6   assigned to $O$C19
    1963              ;* AR6   assigned to $O$C21
    1964              ;* AL    assigned to $O$U160
    1965              ;* AR3   assigned to $O$K67
    1966              ;* AR5   assigned to _pie
    1967              $C$DW$190       .dwtag  DW_TAG_variable
    1968                      .dwattr $C$DW$190, DW_AT_name("pie")
    1969                      .dwattr $C$DW$190, DW_AT_TI_symbol_name("_pie")
    1970                      .dwattr $C$DW$190, DW_AT_type(*$C$DW$T$266)
    1971                      .dwattr $C$DW$190, DW_AT_location[DW_OP_reg14]
    1972              
    1973              ;* AR5   assigned to _obj
    1974              $C$DW$191       .dwtag  DW_TAG_variable
    1975                      .dwattr $C$DW$191, DW_AT_name("obj")
    1976                      .dwattr $C$DW$191, DW_AT_TI_symbol_name("_obj")
    1977                      .dwattr $C$DW$191, DW_AT_type(*$C$DW$T$250)
TMS320C2000 Assembler PC v15.12.3 Sun Oct 30 14:01:37 2016

Tools Copyright (c) 1996-2015 Texas Instruments Incorporated
C:\Users\MaCHaDo\AppData\Local\Temp\0057210                          PAGE   40

    1978                      .dwattr $C$DW$191, DW_AT_location[DW_OP_reg14]
    1979              
    1980              ;* AL    assigned to _state
    1981              $C$DW$192       .dwtag  DW_TAG_variable
    1982                      .dwattr $C$DW$192, DW_AT_name("state")
    1983                      .dwattr $C$DW$192, DW_AT_TI_symbol_name("_state")
    1984                      .dwattr $C$DW$192, DW_AT_type(*$C$DW$T$69)
    1985                      .dwattr $C$DW$192, DW_AT_location[DW_OP_reg0]
    1986              
    1987              ;* AL    assigned to _state
    1988              $C$DW$193       .dwtag  DW_TAG_variable
    1989                      .dwattr $C$DW$193, DW_AT_name("state")
    1990                      .dwattr $C$DW$193, DW_AT_TI_symbol_name("_state")
    1991                      .dwattr $C$DW$193, DW_AT_type(*$C$DW$T$69)
    1992                      .dwattr $C$DW$193, DW_AT_location[DW_OP_reg0]
    1993              
    1994              ;* AR4   assigned to _obj
    1995              $C$DW$194       .dwtag  DW_TAG_variable
    1996                      .dwattr $C$DW$194, DW_AT_name("obj")
    1997                      .dwattr $C$DW$194, DW_AT_TI_symbol_name("_obj")
    1998                      .dwattr $C$DW$194, DW_AT_type(*$C$DW$T$250)
    1999                      .dwattr $C$DW$194, DW_AT_location[DW_OP_reg12]
    2000              
    2001              ;* AH    assigned to _state
    2002              $C$DW$195       .dwtag  DW_TAG_variable
    2003                      .dwattr $C$DW$195, DW_AT_name("state")
    2004                      .dwattr $C$DW$195, DW_AT_TI_symbol_name("_state")
    2005                      .dwattr $C$DW$195, DW_AT_type(*$C$DW$T$69)
    2006                      .dwattr $C$DW$195, DW_AT_location[DW_OP_reg1]
    2007              
    2008              ;* AR5   assigned to _obj
    2009              $C$DW$196       .dwtag  DW_TAG_variable
    2010                      .dwattr $C$DW$196, DW_AT_name("obj")
    2011                      .dwattr $C$DW$196, DW_AT_TI_symbol_name("_obj")
    2012                      .dwattr $C$DW$196, DW_AT_type(*$C$DW$T$250)
    2013                      .dwattr $C$DW$196, DW_AT_location[DW_OP_reg14]
    2014              
    2015              ;* AR5   assigned to _handle
    2016              $C$DW$197       .dwtag  DW_TAG_variable
    2017                      .dwattr $C$DW$197, DW_AT_name("handle")
    2018                      .dwattr $C$DW$197, DW_AT_TI_symbol_name("_handle")
    2019                      .dwattr $C$DW$197, DW_AT_type(*$C$DW$T$252)
    2020                      .dwattr $C$DW$197, DW_AT_location[DW_OP_reg14]
    2021              
    2022              ;* AR7   assigned to _obj
    2023              $C$DW$198       .dwtag  DW_TAG_variable
    2024                      .dwattr $C$DW$198, DW_AT_name("obj")
    2025                      .dwattr $C$DW$198, DW_AT_TI_symbol_name("_obj")
    2026                      .dwattr $C$DW$198, DW_AT_type(*$C$DW$T$250)
    2027                      .dwattr $C$DW$198, DW_AT_location[DW_OP_reg18]
    2028              
    2029              ;* AR5   assigned to _obj
    2030              $C$DW$199       .dwtag  DW_TAG_variable
    2031                      .dwattr $C$DW$199, DW_AT_name("obj")
    2032                      .dwattr $C$DW$199, DW_AT_TI_symbol_name("_obj")
TMS320C2000 Assembler PC v15.12.3 Sun Oct 30 14:01:37 2016

Tools Copyright (c) 1996-2015 Texas Instruments Incorporated
C:\Users\MaCHaDo\AppData\Local\Temp\0057210                          PAGE   41

    2033                      .dwattr $C$DW$199, DW_AT_type(*$C$DW$T$250)
    2034                      .dwattr $C$DW$199, DW_AT_location[DW_OP_reg14]
    2035              
    2036              ;* AR6   assigned to _state
    2037              $C$DW$200       .dwtag  DW_TAG_variable
    2038                      .dwattr $C$DW$200, DW_AT_name("state")
    2039                      .dwattr $C$DW$200, DW_AT_TI_symbol_name("_state")
    2040                      .dwattr $C$DW$200, DW_AT_type(*$C$DW$T$69)
    2041                      .dwattr $C$DW$200, DW_AT_location[DW_OP_reg16]
    2042              
    2043              ;* AR5   assigned to _obj
    2044              $C$DW$201       .dwtag  DW_TAG_variable
    2045                      .dwattr $C$DW$201, DW_AT_name("obj")
    2046                      .dwattr $C$DW$201, DW_AT_TI_symbol_name("_obj")
    2047                      .dwattr $C$DW$201, DW_AT_type(*$C$DW$T$250)
    2048                      .dwattr $C$DW$201, DW_AT_location[DW_OP_reg14]
    2049              
    2050              $C$DW$202       .dwtag  DW_TAG_variable
    2051                      .dwattr $C$DW$202, DW_AT_name("ctrlState")
    2052                      .dwattr $C$DW$202, DW_AT_TI_symbol_name("_ctrlState")
    2053                      .dwattr $C$DW$202, DW_AT_type(*$C$DW$T$39)
    2054                      .dwattr $C$DW$202, DW_AT_location[DW_OP_breg20 -7]
    2055              
    2056              ;* AL    assigned to _flag_ctrlStateChanged
    2057              $C$DW$203       .dwtag  DW_TAG_variable
    2058                      .dwattr $C$DW$203, DW_AT_name("flag_ctrlStateChanged")
    2059                      .dwattr $C$DW$203, DW_AT_TI_symbol_name("_flag_ctrlStateChanged")
    2060                      .dwattr $C$DW$203, DW_AT_type(*$C$DW$T$69)
    2061                      .dwattr $C$DW$203, DW_AT_location[DW_OP_reg0]
    2062              
    2063              ;* AR1   assigned to _obj
    2064              $C$DW$204       .dwtag  DW_TAG_variable
    2065                      .dwattr $C$DW$204, DW_AT_name("obj")
    2066                      .dwattr $C$DW$204, DW_AT_TI_symbol_name("_obj")
    2067                      .dwattr $C$DW$204, DW_AT_type(*$C$DW$T$230)
    2068                      .dwattr $C$DW$204, DW_AT_location[DW_OP_reg6]
    2069              
    2070              ;* T     assigned to _cnt
    2071              $C$DW$205       .dwtag  DW_TAG_variable
    2072                      .dwattr $C$DW$205, DW_AT_name("cnt")
    2073                      .dwattr $C$DW$205, DW_AT_TI_symbol_name("_cnt")
    2074                      .dwattr $C$DW$205, DW_AT_type(*$C$DW$T$32)
    2075                      .dwattr $C$DW$205, DW_AT_location[DW_OP_reg22]
    2076              
    2077              ;* AH    assigned to _cnt
    2078              $C$DW$206       .dwtag  DW_TAG_variable
    2079                      .dwattr $C$DW$206, DW_AT_name("cnt")
    2080                      .dwattr $C$DW$206, DW_AT_TI_symbol_name("_cnt")
    2081                      .dwattr $C$DW$206, DW_AT_type(*$C$DW$T$32)
    2082                      .dwattr $C$DW$206, DW_AT_location[DW_OP_reg1]
    2083              
    2084              ;* T     assigned to _cnt
    2085              $C$DW$207       .dwtag  DW_TAG_variable
    2086                      .dwattr $C$DW$207, DW_AT_name("cnt")
    2087                      .dwattr $C$DW$207, DW_AT_TI_symbol_name("_cnt")
TMS320C2000 Assembler PC v15.12.3 Sun Oct 30 14:01:37 2016

Tools Copyright (c) 1996-2015 Texas Instruments Incorporated
C:\Users\MaCHaDo\AppData\Local\Temp\0057210                          PAGE   42

    2088                      .dwattr $C$DW$207, DW_AT_type(*$C$DW$T$32)
    2089                      .dwattr $C$DW$207, DW_AT_location[DW_OP_reg22]
    2090              
    2091              ;* AL    assigned to _bias
    2092              $C$DW$208       .dwtag  DW_TAG_variable
    2093                      .dwattr $C$DW$208, DW_AT_name("bias")
    2094                      .dwattr $C$DW$208, DW_AT_TI_symbol_name("_bias")
    2095                      .dwattr $C$DW$208, DW_AT_type(*$C$DW$T$31)
    2096                      .dwattr $C$DW$208, DW_AT_location[DW_OP_reg0]
    2097              
    2098              ;* AL    assigned to _bias
    2099              $C$DW$209       .dwtag  DW_TAG_variable
    2100                      .dwattr $C$DW$209, DW_AT_name("bias")
    2101                      .dwattr $C$DW$209, DW_AT_TI_symbol_name("_bias")
    2102                      .dwattr $C$DW$209, DW_AT_type(*$C$DW$T$31)
    2103                      .dwattr $C$DW$209, DW_AT_location[DW_OP_reg0]
    2104              
    2105              ;* AR1   assigned to $O$K33
    2106              ;* AR5   assigned to $O$K33
    2107              ;* AR2   assigned to $O$K33
    2108              ;* AR6   assigned to $O$K33
    2109              ;* AR1   assigned to $O$K33
    2110              ;* AR4   assigned to $O$v1
    2111              ;* AR4   assigned to $O$v1
    2112              ;* AR4   assigned to $O$v1
    2113              ;* AR4   assigned to $O$v1
    2114              ;* AR4   assigned to $O$v2
    2115              ;* AR4   assigned to $O$v2
    2116              ;* AR4   assigned to $O$v2
    2117              ;* AR5   assigned to $O$v2
    2118              $C$DW$210       .dwtag  DW_TAG_variable
    2119                      .dwattr $C$DW$210, DW_AT_name("version")
    2120                      .dwattr $C$DW$210, DW_AT_TI_symbol_name("_version")
    2121                      .dwattr $C$DW$210, DW_AT_type(*$C$DW$T$37)
    2122                      .dwattr $C$DW$210, DW_AT_location[DW_OP_breg20 -6]
    2123              
    2124                      .dwcfi  cfa_offset, -2
    2125                      .dwcfi  save_reg_to_mem, 26, 0
    2126 00000096 B2BD          MOVL      *SP++,XAR1            ; [CPU_] 
    2127                      .dwcfi  save_reg_to_mem, 7, 2
    2128                      .dwcfi  cfa_offset, -4
    2129 00000097 AABD          MOVL      *SP++,XAR2            ; [CPU_] 
    2130                      .dwcfi  save_reg_to_mem, 9, 4
    2131                      .dwcfi  cfa_offset, -6
    2132 00000098 A2BD          MOVL      *SP++,XAR3            ; [CPU_] 
    2133                      .dwcfi  save_reg_to_mem, 11, 6
    2134                      .dwcfi  cfa_offset, -8
    2135 00000099 FE0C          ADDB      SP,#12                ; [CPU_U] 
    2136                      .dwcfi  cfa_offset, -20
    2137                      .dwpsn  file "../main.c",line 150,column 3,is_stmt,isa 0
    2138 0000009a 8F00!         MOVL      XAR4,#_RamfuncsRunStart ; [CPU_U] |150| 
         0000009b 0000 
    2139 0000009c 8F40!         MOVL      XAR5,#_RamfuncsLoadEnd ; [CPU_U] |150| 
         0000009d 0000 
    2140 0000009e A842          MOVL      *-SP[2],XAR4          ; [CPU_] |150| 
TMS320C2000 Assembler PC v15.12.3 Sun Oct 30 14:01:37 2016

Tools Copyright (c) 1996-2015 Texas Instruments Incorporated
C:\Users\MaCHaDo\AppData\Local\Temp\0057210                          PAGE   43

    2141 0000009f 8F00!         MOVL      XAR4,#_RamfuncsLoadStart ; [CPU_U] |150| 
         000000a0 0000 
    2142              $C$DW$211       .dwtag  DW_TAG_TI_branch
    2143                      .dwattr $C$DW$211, DW_AT_low_pc(0x00)
    2144                      .dwattr $C$DW$211, DW_AT_name("_memCopy")
    2145                      .dwattr $C$DW$211, DW_AT_TI_call
    2146              
    2147 000000a1 7640!         LCR       #_memCopy             ; [CPU_] |150| 
         000000a2 0000 
    2148                      ; call occurs [#_memCopy] ; [] |150| 
    2149 000000a3 761F!         MOVW      DP,#_econst_start     ; [CPU_U] 
         000000a4 0000 
    2150                      .dwpsn  file "../main.c",line 154,column 5,is_stmt,isa 0
    2151 000000a5 8A00!         MOVL      XAR4,@_econst_start   ; [CPU_] |154| 
    2152 000000a6 761F!         MOVW      DP,#_econst_end       ; [CPU_U] 
         000000a7 0000 
    2153 000000a8 0EC4          MOVU      ACC,*+XAR4[0]         ; [CPU_] |154| 
    2154 000000a9 8A00!         MOVL      XAR4,@_econst_end     ; [CPU_] |154| 
    2155 000000aa 88C4          MOVZ      AR6,*+XAR4[0]         ; [CPU_] |154| 
    2156 000000ab 0FA6          CMPL      ACC,XAR6              ; [CPU_] |154| 
    2157 000000ac 610A          B         $C$L5,EQ              ; [CPU_] |154| 
    2158                      ; branchcc occurs ; [] |154| 
    2159                      .dwpsn  file "../main.c",line 156,column 9,is_stmt,isa 0
    2160 000000ad 8F00!         MOVL      XAR4,#_econst_ram_load ; [CPU_U] |156| 
         000000ae 0000 
    2161 000000af 8F40!         MOVL      XAR5,#_econst_end     ; [CPU_U] |156| 
         000000b0 0000 
    2162 000000b1 A842          MOVL      *-SP[2],XAR4          ; [CPU_] |156| 
    2163 000000b2 8F00!         MOVL      XAR4,#_econst_start   ; [CPU_U] |156| 
         000000b3 0000 
    2164              $C$DW$212       .dwtag  DW_TAG_TI_branch
    2165                      .dwattr $C$DW$212, DW_AT_low_pc(0x00)
    2166                      .dwattr $C$DW$212, DW_AT_name("_memCopy")
    2167                      .dwattr $C$DW$212, DW_AT_TI_call
    2168              
    2169 000000b4 7640!         LCR       #_memCopy             ; [CPU_] |156| 
         000000b5 0000 
    2170                      ; call occurs [#_memCopy] ; [] |156| 
    2171 000000b6       $C$L5:    
    2172 000000b6 761F!         MOVW      DP,#_switch_start     ; [CPU_U] 
         000000b7 0000 
    2173                      .dwpsn  file "../main.c",line 160,column 5,is_stmt,isa 0
    2174 000000b8 8A00!         MOVL      XAR4,@_switch_start   ; [CPU_] |160| 
    2175 000000b9 761F!         MOVW      DP,#_switch_end       ; [CPU_U] 
         000000ba 0000 
    2176 000000bb 0EC4          MOVU      ACC,*+XAR4[0]         ; [CPU_] |160| 
    2177 000000bc 8A00!         MOVL      XAR4,@_switch_end     ; [CPU_] |160| 
    2178 000000bd 88C4          MOVZ      AR6,*+XAR4[0]         ; [CPU_] |160| 
    2179 000000be 0FA6          CMPL      ACC,XAR6              ; [CPU_] |160| 
    2180 000000bf 610A          B         $C$L6,EQ              ; [CPU_] |160| 
    2181                      ; branchcc occurs ; [] |160| 
    2182                      .dwpsn  file "../main.c",line 162,column 9,is_stmt,isa 0
    2183 000000c0 8F00!         MOVL      XAR4,#_switch_ram_load ; [CPU_U] |162| 
         000000c1 0000 
    2184 000000c2 8F40!         MOVL      XAR5,#_switch_end     ; [CPU_U] |162| 
TMS320C2000 Assembler PC v15.12.3 Sun Oct 30 14:01:37 2016

Tools Copyright (c) 1996-2015 Texas Instruments Incorporated
C:\Users\MaCHaDo\AppData\Local\Temp\0057210                          PAGE   44

         000000c3 0000 
    2185 000000c4 A842          MOVL      *-SP[2],XAR4          ; [CPU_] |162| 
    2186 000000c5 8F00!         MOVL      XAR4,#_switch_start   ; [CPU_U] |162| 
         000000c6 0000 
    2187              $C$DW$213       .dwtag  DW_TAG_TI_branch
    2188                      .dwattr $C$DW$213, DW_AT_low_pc(0x00)
    2189                      .dwattr $C$DW$213, DW_AT_name("_memCopy")
    2190                      .dwattr $C$DW$213, DW_AT_TI_call
    2191              
    2192 000000c7 7640!         LCR       #_memCopy             ; [CPU_] |162| 
         000000c8 0000 
    2193                      ; call occurs [#_memCopy] ; [] |162| 
    2194 000000c9       $C$L6:    
    2195                      .dwpsn  file "../main.c",line 169,column 3,is_stmt,isa 0
    2196 000000c9 8F00!         MOVL      XAR4,#_hal            ; [CPU_U] |169| 
         000000ca 0000 
    2197 000000cb 02DA          MOVB      ACC,#218              ; [CPU_] |169| 
    2198              $C$DW$214       .dwtag  DW_TAG_TI_branch
    2199                      .dwattr $C$DW$214, DW_AT_low_pc(0x00)
    2200                      .dwattr $C$DW$214, DW_AT_name("_HAL_init")
    2201                      .dwattr $C$DW$214, DW_AT_TI_call
    2202              
    2203 000000cc 7640!         LCR       #_HAL_init            ; [CPU_] |169| 
         000000cd 0000 
    2204                      ; call occurs [#_HAL_init] ; [] |169| 
    2205                      .dwpsn  file "../main.c",line 174,column 3,is_stmt,isa 0
    2206 000000ce 8D40-         MOVL      XAR1,#_gUserParams    ; [CPU_U] |174| 
         000000cf 0040 
    2207 000000d0 761F-         MOVW      DP,#_halHandle        ; [CPU_U] 
         000000d1 0000 
    2208 000000d2 B24C          MOVL      *-SP[12],XAR1         ; [CPU_] |174| 
    2209                      .dwpsn  file "../main.c",line 169,column 3,is_stmt,isa 0
    2210 000000d3 A800-         MOVL      @_halHandle,XAR4      ; [CPU_] |169| 
    2211                      .dwpsn  file "../main.c",line 174,column 3,is_stmt,isa 0
    2212 000000d4 8AA1          MOVL      XAR4,XAR1             ; [CPU_] |174| 
    2213              $C$DW$215       .dwtag  DW_TAG_TI_branch
    2214                      .dwattr $C$DW$215, DW_AT_low_pc(0x00)
    2215                      .dwattr $C$DW$215, DW_AT_name("_USER_checkForErrors")
    2216                      .dwattr $C$DW$215, DW_AT_TI_call
    2217              
    2218 000000d5 7640!         LCR       #_USER_checkForErrors ; [CPU_] |174| 
         000000d6 0000 
    2219                      ; call occurs [#_USER_checkForErrors] ; [] |174| 
    2220                      .dwpsn  file "../main.c",line 179,column 3,is_stmt,isa 0
    2221 000000d7 8AA1          MOVL      XAR4,XAR1             ; [CPU_] |179| 
    2222              $C$DW$216       .dwtag  DW_TAG_TI_branch
    2223                      .dwattr $C$DW$216, DW_AT_low_pc(0x00)
    2224                      .dwattr $C$DW$216, DW_AT_name("_USER_getErrorCode")
    2225                      .dwattr $C$DW$216, DW_AT_TI_call
    2226              
    2227 000000d8 7640!         LCR       #_USER_getErrorCode   ; [CPU_] |179| 
         000000d9 0000 
    2228                      ; call occurs [#_USER_getErrorCode] ; [] |179| 
    2229 000000da 8D40-         MOVL      XAR1,#_gMotorVars     ; [CPU_U] |179| 
         000000db 0040 
TMS320C2000 Assembler PC v15.12.3 Sun Oct 30 14:01:37 2016

Tools Copyright (c) 1996-2015 Texas Instruments Incorporated
C:\Users\MaCHaDo\AppData\Local\Temp\0057210                          PAGE   45

    2230 000000dc D00C          MOVB      XAR0,#12              ; [CPU_] |179| 
    2231 000000dd 9691          MOV       *+XAR1[AR0],AL        ; [CPU_] |179| 
    2232                      .dwpsn  file "../main.c",line 184,column 3,is_stmt,isa 0
    2233 000000de D00C          MOVB      XAR0,#12              ; [CPU_] |184| 
    2234 000000df 9291          MOV       AL,*+XAR1[AR0]        ; [CPU_] |184| 
    2235 000000e0 FFE0          B         $C$L26,NEQ            ; [CPU_] |184| 
         000000e1 0240 
    2236                      ; branchcc occurs ; [] |184| 
    2237 000000e2 864C          MOVL      XAR2,*-SP[12]         ; [CPU_] 
    2238                      .dwpsn  file "../main.c",line 194,column 3,is_stmt,isa 0
    2239 000000e3 8AA2          MOVL      XAR4,XAR2             ; [CPU_] |194| 
    2240              $C$DW$217       .dwtag  DW_TAG_TI_branch
    2241                      .dwattr $C$DW$217, DW_AT_low_pc(0x00)
    2242                      .dwattr $C$DW$217, DW_AT_name("_USER_setParams")
    2243                      .dwattr $C$DW$217, DW_AT_TI_call
    2244              
    2245 000000e4 7640!         LCR       #_USER_setParams      ; [CPU_] |194| 
         000000e5 0000 
    2246                      ; call occurs [#_USER_setParams] ; [] |194| 
    2247 000000e6 761F-         MOVW      DP,#_halHandle        ; [CPU_U] 
         000000e7 0000 
    2248                      .dwpsn  file "../main.c",line 198,column 3,is_stmt,isa 0
    2249 000000e8 8A00-         MOVL      XAR4,@_halHandle      ; [CPU_] |198| 
    2250 000000e9 83A2          MOVL      XAR5,XAR2             ; [CPU_] |198| 
    2251              $C$DW$218       .dwtag  DW_TAG_TI_branch
    2252                      .dwattr $C$DW$218, DW_AT_low_pc(0x00)
    2253                      .dwattr $C$DW$218, DW_AT_name("_HAL_setParams")
    2254                      .dwattr $C$DW$218, DW_AT_TI_call
    2255              
    2256 000000ea 7640!         LCR       #_HAL_setParams       ; [CPU_] |198| 
         000000eb 0000 
    2257                      ; call occurs [#_HAL_setParams] ; [] |198| 
    2258                      .dwpsn  file "../main.c",line 207,column 3,is_stmt,isa 0
    2259 000000ec D500          MOVB      XAR5,#0               ; [CPU_] |207| 
    2260 000000ed 7680          MOVL      XAR6,#264             ; [CPU_U] |207| 
         000000ee 0108 
    2261 000000ef 8F00-         MOVL      XAR4,#_ctrl           ; [CPU_U] |207| 
         000000f0 0100 
    2262 000000f1 06A6          MOVL      ACC,XAR6              ; [CPU_] |207| 
    2263              $C$DW$219       .dwtag  DW_TAG_TI_branch
    2264                      .dwattr $C$DW$219, DW_AT_low_pc(0x00)
    2265                      .dwattr $C$DW$219, DW_AT_name("_CTRL_initCtrl")
    2266                      .dwattr $C$DW$219, DW_AT_TI_call
    2267              
    2268 000000f2 7640!         LCR       #_CTRL_initCtrl       ; [CPU_] |207| 
         000000f3 0000 
    2269                      ; call occurs [#_CTRL_initCtrl] ; [] |207| 
    2270                      .dwpsn  file "../main.c",line 215,column 5,is_stmt,isa 0
    2271 000000f4 5DAD          MOVZ      AR5,SP                ; [CPU_] |215| 
    2272 000000f5 761F-         MOVW      DP,#_ctrlHandle       ; [CPU_U] 
         000000f6 0000 
    2273                      .dwpsn  file "../main.c",line 207,column 3,is_stmt,isa 0
    2274 000000f7 A804-         MOVL      @_ctrlHandle,XAR4     ; [CPU_] |207| 
    2275                      .dwpsn  file "../main.c",line 215,column 5,is_stmt,isa 0
    2276 000000f8 DD86          SUBB      XAR5,#6               ; [CPU_U] |215| 
TMS320C2000 Assembler PC v15.12.3 Sun Oct 30 14:01:37 2016

Tools Copyright (c) 1996-2015 Texas Instruments Incorporated
C:\Users\MaCHaDo\AppData\Local\Temp\0057210                          PAGE   46

    2277 000000f9 5DA5          MOVZ      AR5,AR5               ; [CPU_] |215| 
    2278              $C$DW$220       .dwtag  DW_TAG_TI_branch
    2279                      .dwattr $C$DW$220, DW_AT_low_pc(0x00)
    2280                      .dwattr $C$DW$220, DW_AT_name("_CTRL_getVersion")
    2281                      .dwattr $C$DW$220, DW_AT_TI_call
    2282              
    2283 000000fa 7640!         LCR       #_CTRL_getVersion     ; [CPU_] |215| 
         000000fb 0000 
    2284                      ; call occurs [#_CTRL_getVersion] ; [] |215| 
    2285                      .dwpsn  file "../main.c",line 217,column 5,is_stmt,isa 0
    2286 000000fc 5CAD          MOVZ      AR4,SP                ; [CPU_] |217| 
    2287 000000fd DC86          SUBB      XAR4,#6               ; [CPU_U] |217| 
    2288 000000fe 80A4          MOVZ      AR7,AR4               ; [CPU_] |217| 
    2289 000000ff D90D          ADDB      XAR1,#13              ; [CPU_] |217| 
    2290 00000100 761F-         MOVW      DP,#_ctrlHandle       ; [CPU_U] 
         00000101 0000 
    2291                      .dwpsn  file "../main.c",line 222,column 3,is_stmt,isa 0
    2292 00000102 83A2          MOVL      XAR5,XAR2             ; [CPU_] |222| 
    2293                      .dwpsn  file "../main.c",line 217,column 5,is_stmt,isa 0
    2294 00000103 F603          RPT       #3
    2295 00000104 2481  ||     PREAD     *XAR1++,*XAR7         ; [CPU_] |217| 
    2296                      .dwpsn  file "../main.c",line 222,column 3,is_stmt,isa 0
    2297 00000105 8A04-         MOVL      XAR4,@_ctrlHandle     ; [CPU_] |222| 
    2298              $C$DW$221       .dwtag  DW_TAG_TI_branch
    2299                      .dwattr $C$DW$221, DW_AT_low_pc(0x00)
    2300                      .dwattr $C$DW$221, DW_AT_name("_CTRL_setParams")
    2301                      .dwattr $C$DW$221, DW_AT_TI_call
    2302              
    2303 00000106 7640!         LCR       #_CTRL_setParams      ; [CPU_] |222| 
         00000107 0000 
    2304                      ; call occurs [#_CTRL_setParams] ; [] |222| 
    2305 00000108 761F-         MOVW      DP,#_halHandle        ; [CPU_U] 
         00000109 0000 
    2306                      .dwpsn  file "../main.c",line 226,column 3,is_stmt,isa 0
    2307 0000010a 8A00-         MOVL      XAR4,@_halHandle      ; [CPU_] |226| 
    2308              $C$DW$222       .dwtag  DW_TAG_TI_branch
    2309                      .dwattr $C$DW$222, DW_AT_low_pc(0x00)
    2310                      .dwattr $C$DW$222, DW_AT_name("_HAL_setupFaults")
    2311                      .dwattr $C$DW$222, DW_AT_TI_call
    2312              
    2313 0000010b 7640!         LCR       #_HAL_setupFaults     ; [CPU_] |226| 
         0000010c 0000 
    2314                      ; call occurs [#_HAL_setupFaults] ; [] |226| 
    2315 0000010d 761F-         MOVW      DP,#_halHandle        ; [CPU_U] 
         0000010e 0000 
    2316                      .dwpsn  file "../main.c",line 230,column 3,is_stmt,isa 0
    2317 0000010f 8A00-         MOVL      XAR4,@_halHandle      ; [CPU_] |230| 
    2318                      .dwpsn  file "D:/Users/MaCHaDo/Documents/GitHub/LegStrong/modules/include/hal.h",line 505,column 16,i
    2319 00000110 D078          MOVB      XAR0,#120             ; [CPU_] |505| 
    2320 00000111 8394          MOVL      XAR5,*+XAR4[AR0]      ; [CPU_] |505| 
    2321 00000112 7622   EALLOW
    2322                      .dwpsn  file "D:/Users/MaCHaDo/Documents/GitHub/LegStrong/modules/include/hal.h",line 510,column 3,is
    2323 00000113 D0F0          MOVB      XAR0,#240             ; [CPU_] |510| 
    2324 00000114 7680+         MOVL      XAR6,#_mainISR        ; [CPU_U] |510| 
         00000115 0000 
TMS320C2000 Assembler PC v15.12.3 Sun Oct 30 14:01:37 2016

Tools Copyright (c) 1996-2015 Texas Instruments Incorporated
C:\Users\MaCHaDo\AppData\Local\Temp\0057210                          PAGE   47

    2325 00000116 C295          MOVL      *+XAR5[AR0],XAR6      ; [CPU_] |510| 
    2326                      .dwpsn  file "D:/Users/MaCHaDo/Documents/GitHub/LegStrong/modules/include/hal.h",line 511,column 3,is
    2327 00000117 D0E0          MOVB      XAR0,#224             ; [CPU_] |511| 
    2328 00000118 7680+         MOVL      XAR6,#_sciaRxFifoIsr  ; [CPU_U] |511| 
         00000119 0000 
    2329 0000011a C295          MOVL      *+XAR5[AR0],XAR6      ; [CPU_] |511| 
    2330 0000011b 761A   EDIS
    2331 0000011c FF69          SPM       #0                    ; [CPU_] 
    2332                      .dwpsn  file "../main.c",line 234,column 3,is_stmt,isa 0
    2333              $C$DW$223       .dwtag  DW_TAG_TI_branch
    2334                      .dwattr $C$DW$223, DW_AT_low_pc(0x00)
    2335                      .dwattr $C$DW$223, DW_AT_name("_HAL_enableAdcInts")
    2336                      .dwattr $C$DW$223, DW_AT_TI_call
    2337              
    2338 0000011d 7640!         LCR       #_HAL_enableAdcInts   ; [CPU_] |234| 
         0000011e 0000 
    2339                      ; call occurs [#_HAL_enableAdcInts] ; [] |234| 
    2340 0000011f 761F-         MOVW      DP,#_halHandle        ; [CPU_U] 
         00000120 0000 
    2341                      .dwpsn  file "../main.c",line 238,column 3,is_stmt,isa 0
    2342 00000121 8A00-         MOVL      XAR4,@_halHandle      ; [CPU_] |238| 
    2343              $C$DW$224       .dwtag  DW_TAG_TI_branch
    2344                      .dwattr $C$DW$224, DW_AT_low_pc(0x00)
    2345                      .dwattr $C$DW$224, DW_AT_name("_HAL_enableGlobalInts")
    2346                      .dwattr $C$DW$224, DW_AT_TI_call
    2347              
    2348 00000122 7640!         LCR       #_HAL_enableGlobalInts ; [CPU_] |238| 
         00000123 0000 
    2349                      ; call occurs [#_HAL_enableGlobalInts] ; [] |238| 
    2350 00000124 761F-         MOVW      DP,#_halHandle        ; [CPU_U] 
         00000125 0000 
    2351                      .dwpsn  file "../main.c",line 242,column 3,is_stmt,isa 0
    2352 00000126 8A00-         MOVL      XAR4,@_halHandle      ; [CPU_] |242| 
    2353              $C$DW$225       .dwtag  DW_TAG_TI_branch
    2354                      .dwattr $C$DW$225, DW_AT_low_pc(0x00)
    2355                      .dwattr $C$DW$225, DW_AT_name("_HAL_enableDebugInt")
    2356                      .dwattr $C$DW$225, DW_AT_TI_call
    2357              
    2358 00000127 7640!         LCR       #_HAL_enableDebugInt  ; [CPU_] |242| 
         00000128 0000 
    2359                      ; call occurs [#_HAL_enableDebugInt] ; [] |242| 
    2360 00000129 761F-         MOVW      DP,#_halHandle        ; [CPU_U] 
         0000012a 0000 
    2361                      .dwpsn  file "../main.c",line 246,column 3,is_stmt,isa 0
    2362 0000012b 8A00-         MOVL      XAR4,@_halHandle      ; [CPU_] |246| 
    2363                      .dwpsn  file "D:/Users/MaCHaDo/Documents/GitHub/LegStrong/modules/include/hal.h",line 243,column 16,i
    2364 0000012c 83A4          MOVL      XAR5,XAR4             ; [CPU_] |243| 
    2365 0000012d DD7E          ADDB      XAR5,#126             ; [CPU_] |243| 
    2366 0000012e 7622   EALLOW
    2367                      .dwpsn  file "D:\Users\MaCHaDo\Documents\GitHub\LegStrong\drivers\include\pwm.h",line 1567,column 5,i
    2368 0000012f D07C          MOVB      XAR0,#124             ; [CPU_] |1567| 
    2369 00000130 0218          MOVB      ACC,#24               ; [CPU_] |1567| 
    2370 00000131 0794          ADDL      ACC,*+XAR4[AR0]       ; [CPU_] |1567| 
    2371 00000132 1EA6          MOVL      XAR6,ACC              ; [CPU_] |1567| 
    2372 00000133 1AC6          OR        *+XAR6[0],#0x0004     ; [CPU_] |1567| 
TMS320C2000 Assembler PC v15.12.3 Sun Oct 30 14:01:37 2016

Tools Copyright (c) 1996-2015 Texas Instruments Incorporated
C:\Users\MaCHaDo\AppData\Local\Temp\0057210                          PAGE   48

         00000134 0004 
    2373 00000135 761A   EDIS
    2374 00000136 7622   EALLOW
    2375 00000137 0218          MOVB      ACC,#24               ; [CPU_] |1567| 
    2376 00000138 07C5          ADDL      ACC,*+XAR5[0]         ; [CPU_] |1567| 
    2377 00000139 1EA6          MOVL      XAR6,ACC              ; [CPU_] |1567| 
    2378 0000013a 1AC6          OR        *+XAR6[0],#0x0004     ; [CPU_] |1567| 
         0000013b 0004 
    2379 0000013c 761A   EDIS
    2380 0000013d 7622   EALLOW
    2381 0000013e 0218          MOVB      ACC,#24               ; [CPU_] |1567| 
    2382 0000013f 07D5          ADDL      ACC,*+XAR5[2]         ; [CPU_] |1567| 
    2383 00000140 83A9          MOVL      XAR5,ACC              ; [CPU_] |1567| 
    2384 00000141 1AC5          OR        *+XAR5[0],#0x0004     ; [CPU_] |1567| 
         00000142 0004 
    2385 00000143 761A   EDIS
    2386 00000144 FF69          SPM       #0                    ; [CPU_] 
    2387                      .dwpsn  file "../main.c",line 251,column 3,is_stmt,isa 0
    2388              $C$DW$226       .dwtag  DW_TAG_TI_branch
    2389                      .dwattr $C$DW$226, DW_AT_low_pc(0x00)
    2390                      .dwattr $C$DW$226, DW_AT_name("_HAL_enableDrv")
    2391                      .dwattr $C$DW$226, DW_AT_TI_call
    2392              
    2393 00000145 7640!         LCR       #_HAL_enableDrv       ; [CPU_] |251| 
         00000146 0000 
    2394                      ; call occurs [#_HAL_enableDrv] ; [] |251| 
    2395                      .dwpsn  file "../main.c",line 253,column 3,is_stmt,isa 0
    2396 00000147 8DC0-         MOVL      XAR3,#_gDrvSpi8301Vars ; [CPU_U] |253| 
         00000148 0026 
    2397 00000149 761F-         MOVW      DP,#_halHandle        ; [CPU_U] 
         0000014a 0000 
    2398 0000014b 83A3          MOVL      XAR5,XAR3             ; [CPU_] |253| 
    2399 0000014c 8A00-         MOVL      XAR4,@_halHandle      ; [CPU_] |253| 
    2400              $C$DW$227       .dwtag  DW_TAG_TI_branch
    2401                      .dwattr $C$DW$227, DW_AT_low_pc(0x00)
    2402                      .dwattr $C$DW$227, DW_AT_name("_HAL_setupDrvSpi")
    2403                      .dwattr $C$DW$227, DW_AT_TI_call
    2404              
    2405 0000014d 7640!         LCR       #_HAL_setupDrvSpi     ; [CPU_] |253| 
         0000014e 0000 
    2406                      ; call occurs [#_HAL_setupDrvSpi] ; [] |253| 
    2407 0000014f 761F-         MOVW      DP,#_ctrlHandle       ; [CPU_U] 
         00000150 0000 
    2408                      .dwpsn  file "D:/Users/MaCHaDo/Documents/GitHub/LegStrong/modules/include/ctrl.h",line 1246,column 3,
    2409 00000151 02F1          MOVB      ACC,#241              ; [CPU_] |1246| 
    2410 00000152 0704-         ADDL      ACC,@_ctrlHandle      ; [CPU_] |1246| 
    2411 00000153 8AA9          MOVL      XAR4,ACC              ; [CPU_] |1246| 
    2412 00000154 56BF          MOVB      *+XAR4[0],#1,UNC      ; [CPU_] |1246| 
         00000155 01C4 
    2413                      .dwpsn  file "../main.c",line 273,column 3,is_stmt,isa 0
    2414              $C$DW$228       .dwtag  DW_TAG_TI_branch
    2415                      .dwattr $C$DW$228, DW_AT_low_pc(0x00)
    2416                      .dwattr $C$DW$228, DW_AT_name("_USER_computeFlux_pu_to_Wb_sf")
    2417                      .dwattr $C$DW$228, DW_AT_TI_call
    2418              
TMS320C2000 Assembler PC v15.12.3 Sun Oct 30 14:01:37 2016

Tools Copyright (c) 1996-2015 Texas Instruments Incorporated
C:\Users\MaCHaDo\AppData\Local\Temp\0057210                          PAGE   49

    2419 00000156 7640!         LCR       #_USER_computeFlux_pu_to_Wb_sf ; [CPU_] |273| 
         00000157 0000 
    2420                      ; call occurs [#_USER_computeFlux_pu_to_Wb_sf] ; [] |273| 
    2421 00000158 761F-         MOVW      DP,#_gFlux_pu_to_Wb_sf ; [CPU_U] 
         00000159 0000 
    2422 0000015a 1E08-         MOVL      @_gFlux_pu_to_Wb_sf,ACC ; [CPU_] |273| 
    2423                      .dwpsn  file "../main.c",line 274,column 3,is_stmt,isa 0
    2424              $C$DW$229       .dwtag  DW_TAG_TI_branch
    2425                      .dwattr $C$DW$229, DW_AT_low_pc(0x00)
    2426                      .dwattr $C$DW$229, DW_AT_name("_USER_computeFlux_pu_to_VpHz_sf")
    2427                      .dwattr $C$DW$229, DW_AT_TI_call
    2428              
    2429 0000015b 7640!         LCR       #_USER_computeFlux_pu_to_VpHz_sf ; [CPU_] |274| 
         0000015c 0000 
    2430                      ; call occurs [#_USER_computeFlux_pu_to_VpHz_sf] ; [] |274| 
    2431 0000015d 761F-         MOVW      DP,#_gFlux_pu_to_VpHz_sf ; [CPU_U] 
         0000015e 0000 
    2432 0000015f 1E0C-         MOVL      @_gFlux_pu_to_VpHz_sf,ACC ; [CPU_] |274| 
    2433                      .dwpsn  file "../main.c",line 275,column 3,is_stmt,isa 0
    2434              $C$DW$230       .dwtag  DW_TAG_TI_branch
    2435                      .dwattr $C$DW$230, DW_AT_low_pc(0x00)
    2436                      .dwattr $C$DW$230, DW_AT_name("_USER_computeTorque_Ls_Id_Iq_pu_to_Nm_sf")
    2437                      .dwattr $C$DW$230, DW_AT_TI_call
    2438              
    2439 00000160 7640!         LCR       #_USER_computeTorque_Ls_Id_Iq_pu_to_Nm_sf ; [CPU_] |275| 
         00000161 0000 
    2440                      ; call occurs [#_USER_computeTorque_Ls_Id_Iq_pu_to_Nm_sf] ; [] |275| 
    2441 00000162 761F-         MOVW      DP,#_gTorque_Ls_Id_Iq_pu_to_Nm_sf ; [CPU_U] 
         00000163 0000 
    2442 00000164 1E0A-         MOVL      @_gTorque_Ls_Id_Iq_pu_to_Nm_sf,ACC ; [CPU_] |275| 
    2443                      .dwpsn  file "../main.c",line 276,column 3,is_stmt,isa 0
    2444              $C$DW$231       .dwtag  DW_TAG_TI_branch
    2445                      .dwattr $C$DW$231, DW_AT_low_pc(0x00)
    2446                      .dwattr $C$DW$231, DW_AT_name("_USER_computeTorque_Flux_Iq_pu_to_Nm_sf")
    2447                      .dwattr $C$DW$231, DW_AT_TI_call
    2448              
    2449 00000165 7640!         LCR       #_USER_computeTorque_Flux_Iq_pu_to_Nm_sf ; [CPU_] |276| 
         00000166 0000 
    2450                      ; call occurs [#_USER_computeTorque_Flux_Iq_pu_to_Nm_sf] ; [] |276| 
    2451 00000167 761F-         MOVW      DP,#_gTorque_Flux_Iq_pu_to_Nm_sf ; [CPU_U] 
         00000168 0000 
    2452 00000169 1E0E-         MOVL      @_gTorque_Flux_Iq_pu_to_Nm_sf,ACC ; [CPU_] |276| 
    2453 0000016a       $C$L7:    
    2454                      .dwpsn  file "../main.c",line 282,column 11,is_stmt,isa 0
    2455 0000016a 8F40-         MOVL      XAR5,#_gMotorVars     ; [CPU_U] |282| 
         0000016b 0040 
    2456 0000016c 92C5          MOV       AL,*+XAR5[0]          ; [CPU_] |282| 
    2457 0000016d 61FD          B         $C$L7,EQ              ; [CPU_] |282| 
    2458                      ; branchcc occurs ; [] |282| 
    2459 0000016e 761F-         MOVW      DP,#_ctrlHandle       ; [CPU_U] 
         0000016f 0000 
    2460                      .dwpsn  file "../main.c",line 285,column 5,is_stmt,isa 0
    2461 00000170 8A04-         MOVL      XAR4,@_ctrlHandle     ; [CPU_] |285| 
    2462                      .dwpsn  file "D:/Users/MaCHaDo/Documents/GitHub/LegStrong/modules/include/ctrl.h",line 1288,column 3,
    2463 00000171 D0F4          MOVB      XAR0,#244             ; [CPU_] |1288| 
TMS320C2000 Assembler PC v15.12.3 Sun Oct 30 14:01:37 2016

Tools Copyright (c) 1996-2015 Texas Instruments Incorporated
C:\Users\MaCHaDo\AppData\Local\Temp\0057210                          PAGE   50

    2464 00000172 2B94          MOV       *+XAR4[AR0],#0        ; [CPU_] |1288| 
    2465                      .dwpsn  file "../main.c",line 288,column 5,is_stmt,isa 0
    2466 00000173 92C5          MOV       AL,*+XAR5[0]          ; [CPU_] |288| 
    2467 00000174 FFE1          B         $C$L25,EQ             ; [CPU_] |288| 
         00000175 0188 
    2468                      ; branchcc occurs ; [] |288| 
    2469 00000176       $C$L8:    
    2470 00000176 761F-         MOVW      DP,#_ctrlHandle       ; [CPU_U] 
         00000177 0000 
    2471                      .dwpsn  file "../main.c",line 296,column 9,is_stmt,isa 0
    2472 00000178 8D80-         MOVL      XAR2,#_gMotorVars     ; [CPU_U] |296| 
         00000179 0040 
    2473                      .dwpsn  file "../main.c",line 290,column 23,is_stmt,isa 0
    2474 0000017a 8B04-         MOVL      XAR1,@_ctrlHandle     ; [CPU_] |290| 
    2475                      .dwpsn  file "../main.c",line 293,column 9,is_stmt,isa 0
    2476 0000017b 0A00-         INC       @_gCounter_updateGlobals ; [CPU_] |293| 
    2477                      .dwpsn  file "D:/Users/MaCHaDo/Documents/GitHub/LegStrong/modules/include/ctrl.h",line 1304,column 3,
    2478 0000017c D0F5          MOVB      XAR0,#245             ; [CPU_] |1304| 
    2479                      .dwpsn  file "../main.c",line 296,column 9,is_stmt,isa 0
    2480 0000017d 92F2          MOV       AL,*+XAR2[6]          ; [CPU_] |296| 
    2481                      .dwpsn  file "D:/Users/MaCHaDo/Documents/GitHub/LegStrong/modules/include/ctrl.h",line 1304,column 3,
    2482 0000017e 9691          MOV       *+XAR1[AR0],AL        ; [CPU_] |1304| 
    2483                      .dwpsn  file "../main.c",line 299,column 9,is_stmt,isa 0
    2484 0000017f D018          MOVB      XAR0,#24              ; [CPU_] |299| 
    2485 00000180 92EA          MOV       AL,*+XAR2[5]          ; [CPU_] |299| 
    2486 00000181 8A91          MOVL      XAR4,*+XAR1[AR0]      ; [CPU_] |299| 
    2487              $C$DW$232       .dwtag  DW_TAG_TI_branch
    2488                      .dwattr $C$DW$232, DW_AT_low_pc(0x00)
    2489                      .dwattr $C$DW$232, DW_AT_name("_EST_setFlag_enableRsRecalc")
    2490                      .dwattr $C$DW$232, DW_AT_TI_call
    2491              
    2492 00000182 7640!         LCR       #_EST_setFlag_enableRsRecalc ; [CPU_] |299| 
         00000183 0000 
    2493                      ; call occurs [#_EST_setFlag_enableRsRecalc] ; [] |299| 
    2494 00000184 761F-         MOVW      DP,#_ctrlHandle       ; [CPU_U] 
         00000185 0000 
    2495                      .dwpsn  file "../main.c",line 302,column 9,is_stmt,isa 0
    2496 00000186 8A04-         MOVL      XAR4,@_ctrlHandle     ; [CPU_] |302| 
    2497                      .dwpsn  file "D:/Users/MaCHaDo/Documents/GitHub/LegStrong/modules/include/ctrl.h",line 1275,column 3,
    2498 00000187 D0F3          MOVB      XAR0,#243             ; [CPU_] |1275| 
    2499                      .dwpsn  file "../main.c",line 302,column 9,is_stmt,isa 0
    2500 00000188 92FA          MOV       AL,*+XAR2[7]          ; [CPU_] |302| 
    2501                      .dwpsn  file "D:/Users/MaCHaDo/Documents/GitHub/LegStrong/modules/include/ctrl.h",line 1275,column 3,
    2502 00000189 9694          MOV       *+XAR4[AR0],AL        ; [CPU_] |1275| 
    2503                      .dwpsn  file "D:/Users/MaCHaDo/Documents/GitHub/LegStrong/modules/include/ctrl.h",line 1060,column 3,
    2504 0000018a 92E4          MOV       AL,*+XAR4[4]          ; [CPU_] |1060| 
    2505 0000018b FFE1          B         $C$L20,EQ             ; [CPU_] |1060| 
         0000018c 00FD 
    2506                      ; branchcc occurs ; [] |1060| 
    2507                      .dwpsn  file "../main.c",line 319,column 40,is_stmt,isa 0
    2508              $C$DW$233       .dwtag  DW_TAG_TI_branch
    2509                      .dwattr $C$DW$233, DW_AT_low_pc(0x00)
    2510                      .dwattr $C$DW$233, DW_AT_name("_CTRL_updateState")
    2511                      .dwattr $C$DW$233, DW_AT_TI_call
    2512              
TMS320C2000 Assembler PC v15.12.3 Sun Oct 30 14:01:37 2016

Tools Copyright (c) 1996-2015 Texas Instruments Incorporated
C:\Users\MaCHaDo\AppData\Local\Temp\0057210                          PAGE   51

    2513 0000018d 7640!         LCR       #_CTRL_updateState    ; [CPU_] |319| 
         0000018e 0000 
    2514                      ; call occurs [#_CTRL_updateState] ; [] |319| 
    2515 0000018f 761F-         MOVW      DP,#_ctrlHandle       ; [CPU_U] 
         00000190 0000 
    2516                      .dwpsn  file "../main.c",line 322,column 13,is_stmt,isa 0
    2517 00000191 8A04-         MOVL      XAR4,@_ctrlHandle     ; [CPU_] |322| 
    2518 00000192 93CA          MOV       AH,*+XAR2[1]          ; [CPU_] |322| 
    2519                      .dwpsn  file "D:/Users/MaCHaDo/Documents/GitHub/LegStrong/modules/include/ctrl.h",line 1218,column 3,
    2520 00000193 D0F0          MOVB      XAR0,#240             ; [CPU_] |1218| 
    2521                      .dwpsn  file "../main.c",line 324,column 13,is_stmt,isa 0
    2522 00000194 5200          CMPB      AL,#0                 ; [CPU_] |324| 
    2523                      .dwpsn  file "D:/Users/MaCHaDo/Documents/GitHub/LegStrong/modules/include/ctrl.h",line 1218,column 3,
    2524 00000195 9794          MOV       *+XAR4[AR0],AH        ; [CPU_] |1218| 
    2525                      .dwpsn  file "../main.c",line 324,column 13,is_stmt,isa 0
    2526 00000196 FFE1          B         $C$L21,EQ             ; [CPU_] |324| 
         00000197 0112 
    2527                      ; branchcc occurs ; [] |324| 
    2528                      .dwpsn  file "D:/Users/MaCHaDo/Documents/GitHub/LegStrong/modules/include/ctrl.h",line 771,column 3,i
    2529 00000198 92E4          MOV       AL,*+XAR4[4]          ; [CPU_] |771| 
    2530 00000199 9647          MOV       *-SP[7],AL            ; [CPU_] |771| 
    2531 0000019a 5202          CMPB      AL,#2                 ; [CPU_] |771| 
    2532 0000019b FFE1          B         $C$L17,EQ             ; [CPU_] |771| 
         0000019c 00C2 
    2533                      ; branchcc occurs ; [] |771| 
    2534                      .dwpsn  file "../main.c",line 333,column 22,is_stmt,isa 0
    2535 0000019d 5203          CMPB      AL,#3                 ; [CPU_] |333| 
    2536 0000019e 6122          B         $C$L9,EQ              ; [CPU_] |333| 
    2537                      ; branchcc occurs ; [] |333| 
    2538                      .dwpsn  file "../main.c",line 367,column 22,is_stmt,isa 0
    2539 0000019f 5201          CMPB      AL,#1                 ; [CPU_] |367| 
    2540 000001a0 FFE0          B         $C$L19,NEQ            ; [CPU_] |367| 
         000001a1 00D8 
    2541                      ; branchcc occurs ; [] |367| 
    2542 000001a2 761F-         MOVW      DP,#_halHandle        ; [CPU_U] 
         000001a3 0000 
    2543                      .dwpsn  file "D:/Users/MaCHaDo/Documents/GitHub/LegStrong/modules/include/hal.h",line 243,column 16,i
    2544 000001a4 C400-         MOVL      XAR6,@_halHandle      ; [CPU_] |243| 
    2545 000001a5 83A6          MOVL      XAR5,XAR6             ; [CPU_] |243| 
    2546 000001a6 DD7E          ADDB      XAR5,#126             ; [CPU_] |243| 
    2547 000001a7 7622   EALLOW
    2548                      .dwpsn  file "D:\Users\MaCHaDo\Documents\GitHub\LegStrong\drivers\include\pwm.h",line 1567,column 5,i
    2549 000001a8 D07C          MOVB      XAR0,#124             ; [CPU_] |1567| 
    2550 000001a9 0218          MOVB      ACC,#24               ; [CPU_] |1567| 
    2551 000001aa 0796          ADDL      ACC,*+XAR6[AR0]       ; [CPU_] |1567| 
    2552 000001ab 1EA6          MOVL      XAR6,ACC              ; [CPU_] |1567| 
    2553 000001ac 1AC6          OR        *+XAR6[0],#0x0004     ; [CPU_] |1567| 
         000001ad 0004 
    2554 000001ae 761A   EDIS
    2555 000001af 7622   EALLOW
    2556 000001b0 0218          MOVB      ACC,#24               ; [CPU_] |1567| 
    2557 000001b1 07C5          ADDL      ACC,*+XAR5[0]         ; [CPU_] |1567| 
    2558 000001b2 1EA6          MOVL      XAR6,ACC              ; [CPU_] |1567| 
    2559 000001b3 1AC6          OR        *+XAR6[0],#0x0004     ; [CPU_] |1567| 
         000001b4 0004 
TMS320C2000 Assembler PC v15.12.3 Sun Oct 30 14:01:37 2016

Tools Copyright (c) 1996-2015 Texas Instruments Incorporated
C:\Users\MaCHaDo\AppData\Local\Temp\0057210                          PAGE   52

    2560 000001b5 761A   EDIS
    2561 000001b6 7622   EALLOW
    2562 000001b7 0218          MOVB      ACC,#24               ; [CPU_] |1567| 
    2563 000001b8 07D5          ADDL      ACC,*+XAR5[2]         ; [CPU_] |1567| 
    2564 000001b9 83A9          MOVL      XAR5,ACC              ; [CPU_] |1567| 
    2565 000001ba 1AC5          OR        *+XAR5[0],#0x0004     ; [CPU_] |1567| 
         000001bb 0004 
    2566 000001bc 761A   EDIS
    2567                      .dwpsn  file "../main.c",line 371,column 21,is_stmt,isa 0
    2568 000001bd 2BCA          MOV       *+XAR2[1],#0          ; [CPU_] |371| 
    2569 000001be FFEF          B         $C$L19,UNC            ; [CPU_] |371| 
         000001bf 00BA 
    2570                      ; branch occurs ; [] |371| 
    2571 000001c0       $C$L9:    
    2572 000001c0 761F-         MOVW      DP,#_gMotorVars+7     ; [CPU_U] 
         000001c1 0001 
    2573                      .dwpsn  file "../main.c",line 335,column 21,is_stmt,isa 0
    2574 000001c2 9207-         MOV       AL,@_gMotorVars+7     ; [CPU_] |335| 
    2575 000001c3 5201          CMPB      AL,#1                 ; [CPU_] |335| 
    2576 000001c4 6049          B         $C$L15,NEQ            ; [CPU_] |335| 
    2577                      ; branchcc occurs ; [] |335| 
    2578 000001c5 761F-         MOVW      DP,#_halHandle        ; [CPU_U] 
         000001c6 0000 
    2579                      .dwpsn  file "../main.c",line 338,column 23,is_stmt,isa 0
    2580 000001c7 8300-         MOVL      XAR5,@_halHandle      ; [CPU_] |338| 
    2581                      .dwpsn  file "D:/Users/MaCHaDo/Documents/GitHub/LegStrong/modules/include/hal.h",line 1070,column 16,
    2582 000001c8 C5A5          MOVL      XAR7,XAR5             ; [CPU_] |1070| 
    2583                      .dwpsn  file "D:/Users/MaCHaDo/Documents/GitHub/LegStrong/modules/include/hal.h",line 1075,column 13,
    2584 000001c9 D0A8          MOVB      XAR0,#168             ; [CPU_] |1075| 
    2585 000001ca 9297          MOV       AL,*+XAR7[AR0]        ; [CPU_] |1075| 
    2586 000001cb 611C          B         $C$L11,EQ             ; [CPU_] |1075| 
    2587                      ; branchcc occurs ; [] |1075| 
    2588                      .dwpsn  file "D:/Users/MaCHaDo/Documents/GitHub/LegStrong/modules/include/hal.h",line 1075,column 7,i
    2589 000001cc 2BAC          MOV       T,#0                  ; [CPU_] |1075| 
    2590 000001cd 2901          CLRC      SXM                   ; [CPU_] 
    2591 000001ce       $C$L10:    
    2592 000001ce 92AC          MOV       AL,T                  ; [CPU_] 
    2593                      .dwpsn  file "D:/Users/MaCHaDo/Documents/GitHub/LegStrong/modules/include/hal.h",line 341,column 3,is
    2594 000001cf 5603          MOV       ACC,AL << 1           ; [CPU_] |341| 
         000001d0 01A9 
    2595 000001d1 1E4A          MOVL      *-SP[10],ACC          ; [CPU_] |341| 
    2596 000001d2 C44A          MOVL      XAR6,*-SP[10]         ; [CPU_] |341| 
    2597                      .dwpsn  file "D:/Users/MaCHaDo/Documents/GitHub/LegStrong/modules/include/hal.h",line 1079,column 7,i
    2598 000001d3 86A7          MOVL      XAR2,XAR7             ; [CPU_] |1079| 
    2599                      .dwpsn  file "D:/Users/MaCHaDo/Documents/GitHub/LegStrong/modules/include/hal.h",line 341,column 3,is
    2600 000001d4 A0A9          MOVL      ACC,XAR5              ; [CPU_] |341| 
    2601 000001d5 5601          ADDL      XAR6,ACC              ; [CPU_] |341| 
         000001d6 00A6 
    2602                      .dwpsn  file "D:/Users/MaCHaDo/Documents/GitHub/LegStrong/modules/include/hal.h",line 1079,column 7,i
    2603 000001d7 064A          MOVL      ACC,*-SP[10]          ; [CPU_] |1079| 
    2604 000001d8 5601          ADDL      XAR2,ACC              ; [CPU_] |1079| 
         000001d9 00A2 
    2605                      .dwpsn  file "D:/Users/MaCHaDo/Documents/GitHub/LegStrong/modules/include/hal.h",line 341,column 3,is
    2606 000001da D092          MOVB      XAR0,#146             ; [CPU_] |341| 
    2607 000001db 0696          MOVL      ACC,*+XAR6[AR0]       ; [CPU_] |341| 
TMS320C2000 Assembler PC v15.12.3 Sun Oct 30 14:01:37 2016

Tools Copyright (c) 1996-2015 Texas Instruments Incorporated
C:\Users\MaCHaDo\AppData\Local\Temp\0057210                          PAGE   53

    2608                      .dwpsn  file "D:/Users/MaCHaDo/Documents/GitHub/LegStrong/modules/include/hal.h",line 1079,column 7,i
    2609 000001dc D00A          MOVB      XAR0,#10              ; [CPU_] |1079| 
    2610 000001dd 8E92          MOVL      XAR0,*+XAR2[AR0]      ; [CPU_] |1079| 
    2611 000001de 07C0          ADDL      ACC,*+XAR0[0]         ; [CPU_] |1079| 
    2612                      .dwpsn  file "D:/Users/MaCHaDo/Documents/GitHub/LegStrong/modules/include/hal.h",line 763,column 7,is
    2613 000001df D092          MOVB      XAR0,#146             ; [CPU_] |763| 
    2614 000001e0 1E96          MOVL      *+XAR6[AR0],ACC       ; [CPU_] |763| 
    2615                      .dwpsn  file "D:/Users/MaCHaDo/Documents/GitHub/LegStrong/modules/include/hal.h",line 1075,column 13,
    2616 000001e1 92AC          MOV       AL,T                  ; [CPU_] |1075| 
    2617 000001e2 D0A8          MOVB      XAR0,#168             ; [CPU_] |1075| 
    2618 000001e3 9C01          ADDB      AL,#1                 ; [CPU_] |1075| 
    2619 000001e4 2DA9          MOV       T,AL                  ; [CPU_] |1075| 
    2620 000001e5 5495          CMP       AL,*+XAR5[AR0]        ; [CPU_] |1075| 
    2621 000001e6 68E8          B         $C$L10,LO             ; [CPU_] |1075| 
    2622                      ; branchcc occurs ; [] |1075| 
    2623 000001e7       $C$L11:    
    2624 000001e7 D0A9          MOVB      XAR0,#169             ; [CPU_] 
    2625 000001e8 9295          MOV       AL,*+XAR5[AR0]        ; [CPU_] 
    2626 000001e9 6105          B         $C$L13,EQ             ; [CPU_] 
    2627                      ; branchcc occurs ; [] 
    2628                      .dwpsn  file "D:/Users/MaCHaDo/Documents/GitHub/LegStrong/modules/include/hal.h",line 1085,column 7,i
    2629 000001ea 9B00          MOVB      AH,#0                 ; [CPU_] |1085| 
    2630 000001eb       $C$L12:    
    2631                      .dwpsn  file "D:/Users/MaCHaDo/Documents/GitHub/LegStrong/modules/include/hal.h",line 1085,column 13,
    2632 000001eb 9D01          ADDB      AH,#1                 ; [CPU_] |1085| 
    2633 000001ec 54A8          CMP       AL,AH                 ; [CPU_] |1085| 
    2634 000001ed 66FE          B         $C$L12,HI             ; [CPU_] |1085| 
    2635                      ; branchcc occurs ; [] |1085| 
    2636 000001ee       $C$L13:    
    2637                      .dwpsn  file "D:/Users/MaCHaDo/Documents/GitHub/LegStrong/modules/include/hal.h",line 1094,column 13,
    2638 000001ee D0AA          MOVB      XAR0,#170             ; [CPU_] |1094| 
    2639 000001ef 9295          MOV       AL,*+XAR5[AR0]        ; [CPU_] |1094| 
    2640 000001f0 6142          B         $C$L16,EQ             ; [CPU_] |1094| 
    2641                      ; branchcc occurs ; [] |1094| 
    2642                      .dwpsn  file "D:/Users/MaCHaDo/Documents/GitHub/LegStrong/modules/include/hal.h",line 1094,column 7,i
    2643 000001f1 2BAC          MOV       T,#0                  ; [CPU_] |1094| 
    2644 000001f2 2901          CLRC      SXM                   ; [CPU_] 
    2645 000001f3       $C$L14:    
    2646 000001f3 92AC          MOV       AL,T                  ; [CPU_] 
    2647                      .dwpsn  file "D:/Users/MaCHaDo/Documents/GitHub/LegStrong/modules/include/hal.h",line 341,column 3,is
    2648 000001f4 5603          MOV       ACC,AL << 1           ; [CPU_] |341| 
         000001f5 01A9 
    2649 000001f6 1E4A          MOVL      *-SP[10],ACC          ; [CPU_] |341| 
    2650 000001f7 C44A          MOVL      XAR6,*-SP[10]         ; [CPU_] |341| 
    2651                      .dwpsn  file "D:/Users/MaCHaDo/Documents/GitHub/LegStrong/modules/include/hal.h",line 1098,column 7,i
    2652 000001f8 86A7          MOVL      XAR2,XAR7             ; [CPU_] |1098| 
    2653                      .dwpsn  file "D:/Users/MaCHaDo/Documents/GitHub/LegStrong/modules/include/hal.h",line 341,column 3,is
    2654 000001f9 A0A9          MOVL      ACC,XAR5              ; [CPU_] |341| 
    2655 000001fa 5601          ADDL      XAR6,ACC              ; [CPU_] |341| 
         000001fb 00A6 
    2656                      .dwpsn  file "D:/Users/MaCHaDo/Documents/GitHub/LegStrong/modules/include/hal.h",line 1098,column 7,i
    2657 000001fc 064A          MOVL      ACC,*-SP[10]          ; [CPU_] |1098| 
    2658 000001fd 5601          ADDL      XAR2,ACC              ; [CPU_] |1098| 
         000001fe 00A2 
    2659                      .dwpsn  file "D:/Users/MaCHaDo/Documents/GitHub/LegStrong/modules/include/hal.h",line 341,column 3,is
TMS320C2000 Assembler PC v15.12.3 Sun Oct 30 14:01:37 2016

Tools Copyright (c) 1996-2015 Texas Instruments Incorporated
C:\Users\MaCHaDo\AppData\Local\Temp\0057210                          PAGE   54

    2660 000001ff D098          MOVB      XAR0,#152             ; [CPU_] |341| 
    2661 00000200 0696          MOVL      ACC,*+XAR6[AR0]       ; [CPU_] |341| 
    2662                      .dwpsn  file "D:/Users/MaCHaDo/Documents/GitHub/LegStrong/modules/include/hal.h",line 1098,column 7,i
    2663 00000201 D040          MOVB      XAR0,#64              ; [CPU_] |1098| 
    2664 00000202 8E92          MOVL      XAR0,*+XAR2[AR0]      ; [CPU_] |1098| 
    2665 00000203 07C0          ADDL      ACC,*+XAR0[0]         ; [CPU_] |1098| 
    2666                      .dwpsn  file "D:/Users/MaCHaDo/Documents/GitHub/LegStrong/modules/include/hal.h",line 767,column 7,is
    2667 00000204 D098          MOVB      XAR0,#152             ; [CPU_] |767| 
    2668 00000205 1E96          MOVL      *+XAR6[AR0],ACC       ; [CPU_] |767| 
    2669                      .dwpsn  file "D:/Users/MaCHaDo/Documents/GitHub/LegStrong/modules/include/hal.h",line 1094,column 13,
    2670 00000206 92AC          MOV       AL,T                  ; [CPU_] |1094| 
    2671 00000207 D0AA          MOVB      XAR0,#170             ; [CPU_] |1094| 
    2672 00000208 9C01          ADDB      AL,#1                 ; [CPU_] |1094| 
    2673 00000209 2DA9          MOV       T,AL                  ; [CPU_] |1094| 
    2674 0000020a 5495          CMP       AL,*+XAR5[AR0]        ; [CPU_] |1094| 
    2675 0000020b 68E8          B         $C$L14,LO             ; [CPU_] |1094| 
    2676                      ; branchcc occurs ; [] |1094| 
    2677 0000020c 6F26          B         $C$L16,UNC            ; [CPU_] |1094| 
    2678                      ; branch occurs ; [] |1094| 
    2679 0000020d       $C$L15:    
    2680 0000020d 761F-         MOVW      DP,#_halHandle        ; [CPU_U] 
         0000020e 0000 
    2681                      .dwpsn  file "../main.c",line 343,column 23,is_stmt,isa 0
    2682 0000020f 8300-         MOVL      XAR5,@_halHandle      ; [CPU_] |343| 
    2683                      .dwpsn  file "D:/Users/MaCHaDo/Documents/GitHub/LegStrong/modules/include/hal.h",line 763,column 7,is
    2684 00000210 D092          MOVB      XAR0,#146             ; [CPU_] |763| 
    2685 00000211 28A9          MOV       AL,#44334             ; [CPU_] |763| 
         00000212 AD2E 
    2686 00000213 28A8          MOV       AH,#261               ; [CPU_] |763| 
         00000214 0105 
    2687 00000215 1E95          MOVL      *+XAR5[AR0],ACC       ; [CPU_] |763| 
    2688 00000216 D094          MOVB      XAR0,#148             ; [CPU_] |763| 
    2689 00000217 28A9          MOV       AL,#314               ; [CPU_] |763| 
         00000218 013A 
    2690 00000219 1E95          MOVL      *+XAR5[AR0],ACC       ; [CPU_] |763| 
    2691 0000021a D096          MOVB      XAR0,#150             ; [CPU_] |763| 
    2692 0000021b 28A9          MOV       AL,#59192             ; [CPU_] |763| 
         0000021c E738 
    2693 0000021d 9BF7          MOV       AH,#247               ; [CPU_] |763| 
    2694 0000021e 1E95          MOVL      *+XAR5[AR0],ACC       ; [CPU_] |763| 
    2695                      .dwpsn  file "D:/Users/MaCHaDo/Documents/GitHub/LegStrong/modules/include/hal.h",line 771,column 7,is
    2696 0000021f D0A0          MOVB      XAR0,#160             ; [CPU_] |771| 
    2697 00000220 28A9          MOV       AL,#11019             ; [CPU_] |771| 
         00000221 2B0B 
    2698 00000222 9BFB          MOV       AH,#251               ; [CPU_] |771| 
    2699 00000223 1E95          MOVL      *+XAR5[AR0],ACC       ; [CPU_] |771| 
    2700                      .dwpsn  file "D:/Users/MaCHaDo/Documents/GitHub/LegStrong/modules/include/hal.h",line 767,column 7,is
    2701 00000224 D098          MOVB      XAR0,#152             ; [CPU_] |767| 
    2702 00000225 28A9          MOV       AL,#40146             ; [CPU_] |767| 
         00000226 9CD2 
    2703 00000227 9B4C          MOV       AH,#76                ; [CPU_] |767| 
    2704 00000228 1E95          MOVL      *+XAR5[AR0],ACC       ; [CPU_] |767| 
    2705 00000229 D09A          MOVB      XAR0,#154             ; [CPU_] |767| 
    2706 0000022a 28A9          MOV       AL,#1458              ; [CPU_] |767| 
         0000022b 05B2 
TMS320C2000 Assembler PC v15.12.3 Sun Oct 30 14:01:37 2016

Tools Copyright (c) 1996-2015 Texas Instruments Incorporated
C:\Users\MaCHaDo\AppData\Local\Temp\0057210                          PAGE   55

    2707 0000022c 1E95          MOVL      *+XAR5[AR0],ACC       ; [CPU_] |767| 
    2708 0000022d D09C          MOVB      XAR0,#156             ; [CPU_] |767| 
    2709 0000022e 28A9          MOV       AL,#49868             ; [CPU_] |767| 
         0000022f C2CC 
    2710 00000230 9B4B          MOV       AH,#75                ; [CPU_] |767| 
    2711 00000231 1E95          MOVL      *+XAR5[AR0],ACC       ; [CPU_] |767| 
    2712 00000232       $C$L16:    
    2713                      .dwpsn  file "../main.c",line 355,column 21,is_stmt,isa 0
    2714 00000232 D092          MOVB      XAR0,#146             ; [CPU_] |355| 
    2715 00000233 7680-         MOVL      XAR6,#_gMotorVars+94  ; [CPU_U] |355| 
         00000234 009E 
    2716 00000235 0695          MOVL      ACC,*+XAR5[AR0]       ; [CPU_] |355| 
    2717                      .dwpsn  file "../main.c",line 356,column 21,is_stmt,isa 0
    2718 00000236 D094          MOVB      XAR0,#148             ; [CPU_] |356| 
    2719                      .dwpsn  file "../main.c",line 355,column 21,is_stmt,isa 0
    2720 00000237 1EC6          MOVL      *+XAR6[0],ACC         ; [CPU_] |355| 
    2721                      .dwpsn  file "../main.c",line 356,column 21,is_stmt,isa 0
    2722 00000238 0695          MOVL      ACC,*+XAR5[AR0]       ; [CPU_] |356| 
    2723                      .dwpsn  file "../main.c",line 357,column 21,is_stmt,isa 0
    2724 00000239 D096          MOVB      XAR0,#150             ; [CPU_] |357| 
    2725                      .dwpsn  file "../main.c",line 356,column 21,is_stmt,isa 0
    2726 0000023a 1ED6          MOVL      *+XAR6[2],ACC         ; [CPU_] |356| 
    2727                      .dwpsn  file "../main.c",line 357,column 21,is_stmt,isa 0
    2728 0000023b 0695          MOVL      ACC,*+XAR5[AR0]       ; [CPU_] |357| 
    2729                      .dwpsn  file "../main.c",line 360,column 21,is_stmt,isa 0
    2730 0000023c D098          MOVB      XAR0,#152             ; [CPU_] |360| 
    2731                      .dwpsn  file "../main.c",line 357,column 21,is_stmt,isa 0
    2732 0000023d 1EE6          MOVL      *+XAR6[4],ACC         ; [CPU_] |357| 
    2733                      .dwpsn  file "../main.c",line 360,column 21,is_stmt,isa 0
    2734 0000023e 0695          MOVL      ACC,*+XAR5[AR0]       ; [CPU_] |360| 
    2735                      .dwpsn  file "../main.c",line 361,column 21,is_stmt,isa 0
    2736 0000023f D09A          MOVB      XAR0,#154             ; [CPU_] |361| 
    2737                      .dwpsn  file "../main.c",line 360,column 21,is_stmt,isa 0
    2738 00000240 1EF6          MOVL      *+XAR6[6],ACC         ; [CPU_] |360| 
    2739                      .dwpsn  file "../main.c",line 361,column 21,is_stmt,isa 0
    2740 00000241 0695          MOVL      ACC,*+XAR5[AR0]       ; [CPU_] |361| 
    2741 00000242 D008          MOVB      XAR0,#8               ; [CPU_] |361| 
    2742 00000243 1E96          MOVL      *+XAR6[AR0],ACC       ; [CPU_] |361| 
    2743                      .dwpsn  file "../main.c",line 362,column 21,is_stmt,isa 0
    2744 00000244 D09C          MOVB      XAR0,#156             ; [CPU_] |362| 
    2745 00000245 0695          MOVL      ACC,*+XAR5[AR0]       ; [CPU_] |362| 
    2746 00000246 D00A          MOVB      XAR0,#10              ; [CPU_] |362| 
    2747 00000247 1E96          MOVL      *+XAR6[AR0],ACC       ; [CPU_] |362| 
    2748 00000248 7622   EALLOW
    2749                      .dwpsn  file "D:\Users\MaCHaDo\Documents\GitHub\LegStrong\drivers\include\pwm.h",line 951,column 5,is
    2750 00000249 D07C          MOVB      XAR0,#124             ; [CPU_] |951| 
    2751 0000024a 0217          MOVB      ACC,#23               ; [CPU_] |951| 
    2752 0000024b 0795          ADDL      ACC,*+XAR5[AR0]       ; [CPU_] |951| 
    2753 0000024c 1EA6          MOVL      XAR6,ACC              ; [CPU_] |951| 
    2754 0000024d 56BF          MOVB      *+XAR6[0],#4,UNC      ; [CPU_] |951| 
         0000024e 04C6 
    2755 0000024f 761A   EDIS
    2756 00000250 7622   EALLOW
    2757 00000251 D07E          MOVB      XAR0,#126             ; [CPU_] |951| 
    2758 00000252 0217          MOVB      ACC,#23               ; [CPU_] |951| 
TMS320C2000 Assembler PC v15.12.3 Sun Oct 30 14:01:37 2016

Tools Copyright (c) 1996-2015 Texas Instruments Incorporated
C:\Users\MaCHaDo\AppData\Local\Temp\0057210                          PAGE   56

    2759 00000253 0795          ADDL      ACC,*+XAR5[AR0]       ; [CPU_] |951| 
    2760 00000254 1EA6          MOVL      XAR6,ACC              ; [CPU_] |951| 
    2761 00000255 56BF          MOVB      *+XAR6[0],#4,UNC      ; [CPU_] |951| 
         00000256 04C6 
    2762 00000257 761A   EDIS
    2763 00000258 7622   EALLOW
    2764 00000259 D080          MOVB      XAR0,#128             ; [CPU_] |951| 
    2765 0000025a 0217          MOVB      ACC,#23               ; [CPU_] |951| 
    2766 0000025b 0795          ADDL      ACC,*+XAR5[AR0]       ; [CPU_] |951| 
    2767                      .dwpsn  file "D:\Users\MaCHaDo\Documents\GitHub\LegStrong\drivers\include\pwm.h",line 955,column 5,is
    2768 0000025c 6F18          B         $C$L18,UNC            ; [CPU_] |955| 
    2769                      ; branch occurs ; [] |955| 
    2770 0000025d       $C$L17:    
    2771 0000025d 761F-         MOVW      DP,#_halHandle        ; [CPU_U] 
         0000025e 0000 
    2772                      .dwpsn  file "D:/Users/MaCHaDo/Documents/GitHub/LegStrong/modules/include/hal.h",line 285,column 16,i
    2773 0000025f C500-         MOVL      XAR7,@_halHandle      ; [CPU_] |285| 
    2774 00000260 83A7          MOVL      XAR5,XAR7             ; [CPU_] |285| 
    2775 00000261 DD7E          ADDB      XAR5,#126             ; [CPU_] |285| 
    2776 00000262 7622   EALLOW
    2777                      .dwpsn  file "D:\Users\MaCHaDo\Documents\GitHub\LegStrong\drivers\include\pwm.h",line 951,column 5,is
    2778 00000263 D07C          MOVB      XAR0,#124             ; [CPU_] |951| 
    2779 00000264 0217          MOVB      ACC,#23               ; [CPU_] |951| 
    2780 00000265 0797          ADDL      ACC,*+XAR7[AR0]       ; [CPU_] |951| 
    2781 00000266 1EA6          MOVL      XAR6,ACC              ; [CPU_] |951| 
    2782 00000267 56BF          MOVB      *+XAR6[0],#4,UNC      ; [CPU_] |951| 
         00000268 04C6 
    2783 00000269 761A   EDIS
    2784 0000026a 7622   EALLOW
    2785 0000026b 0217          MOVB      ACC,#23               ; [CPU_] |951| 
    2786 0000026c 07C5          ADDL      ACC,*+XAR5[0]         ; [CPU_] |951| 
    2787 0000026d 1EA6          MOVL      XAR6,ACC              ; [CPU_] |951| 
    2788 0000026e 56BF          MOVB      *+XAR6[0],#4,UNC      ; [CPU_] |951| 
         0000026f 04C6 
    2789 00000270 761A   EDIS
    2790 00000271 7622   EALLOW
    2791 00000272 0217          MOVB      ACC,#23               ; [CPU_] |951| 
    2792 00000273 07D5          ADDL      ACC,*+XAR5[2]         ; [CPU_] |951| 
    2793 00000274       $C$L18:    
    2794 00000274 83A9          MOVL      XAR5,ACC              ; [CPU_] |951| 
    2795 00000275 56BF          MOVB      *+XAR5[0],#4,UNC      ; [CPU_] |951| 
         00000276 04C5 
    2796 00000277 761A   EDIS
    2797 00000278       $C$L19:    
    2798                      .dwpsn  file "../main.c",line 374,column 17,is_stmt,isa 0
    2799 00000278 D0F5          MOVB      XAR0,#245             ; [CPU_] |374| 
    2800 00000279 9294          MOV       AL,*+XAR4[AR0]        ; [CPU_] |374| 
    2801 0000027a 5201          CMPB      AL,#1                 ; [CPU_] |374| 
    2802 0000027b 602D          B         $C$L21,NEQ            ; [CPU_] |374| 
    2803                      ; branchcc occurs ; [] |374| 
    2804 0000027c 9247          MOV       AL,*-SP[7]            ; [CPU_] 
    2805 0000027d 5201          CMPB      AL,#1                 ; [CPU_] |374| 
    2806 0000027e 692A          B         $C$L21,LOS            ; [CPU_] |374| 
    2807                      ; branchcc occurs ; [] |374| 
    2808 0000027f 761F-         MOVW      DP,#_gMotorVars+16    ; [CPU_U] 
TMS320C2000 Assembler PC v15.12.3 Sun Oct 30 14:01:37 2016

Tools Copyright (c) 1996-2015 Texas Instruments Incorporated
C:\Users\MaCHaDo\AppData\Local\Temp\0057210                          PAGE   57

         00000280 0001 
    2809 00000281 9210-         MOV       AL,@_gMotorVars+16    ; [CPU_] |374| 
    2810 00000282 5206          CMPB      AL,#6                 ; [CPU_] |374| 
    2811 00000283 6025          B         $C$L21,NEQ            ; [CPU_] |374| 
    2812                      ; branchcc occurs ; [] |374| 
    2813 00000284 FF69          SPM       #0                    ; [CPU_] 
    2814                      .dwpsn  file "../main.c",line 379,column 21,is_stmt,isa 0
    2815              $C$DW$234       .dwtag  DW_TAG_TI_branch
    2816                      .dwattr $C$DW$234, DW_AT_low_pc(0x00)
    2817                      .dwattr $C$DW$234, DW_AT_name("_USER_softwareUpdate1p6")
    2818                      .dwattr $C$DW$234, DW_AT_TI_call
    2819              
    2820 00000285 7640!         LCR       #_USER_softwareUpdate1p6 ; [CPU_] |379| 
         00000286 0000 
    2821                      ; call occurs [#_USER_softwareUpdate1p6] ; [] |379| 
    2822 00000287 6F21          B         $C$L21,UNC            ; [CPU_] |379| 
    2823                      ; branch occurs ; [] |379| 
    2824 00000288       $C$L20:    
    2825                      .dwpsn  file "D:/Users/MaCHaDo/Documents/GitHub/LegStrong/modules/include/ctrl.h",line 1218,column 3,
    2826 00000288 D0F0          MOVB      XAR0,#240             ; [CPU_] |1218| 
    2827 00000289 761F-         MOVW      DP,#_gMotorVars       ; [CPU_U] 
         0000028a 0001 
    2828 0000028b 2B94          MOV       *+XAR4[AR0],#0        ; [CPU_] |1218| 
    2829                      .dwpsn  file "../main.c",line 311,column 13,is_stmt,isa 0
    2830 0000028c 2B00-         MOV       @_gMotorVars,#0       ; [CPU_] |311| 
    2831 0000028d 761F-         MOVW      DP,#_halHandle        ; [CPU_U] 
         0000028e 0000 
    2832                      .dwpsn  file "D:/Users/MaCHaDo/Documents/GitHub/LegStrong/modules/include/hal.h",line 243,column 16,i
    2833 0000028f 8300-         MOVL      XAR5,@_halHandle      ; [CPU_] |243| 
    2834 00000290 8AA5          MOVL      XAR4,XAR5             ; [CPU_] |243| 
    2835 00000291 DC7E          ADDB      XAR4,#126             ; [CPU_] |243| 
    2836 00000292 7622   EALLOW
    2837                      .dwpsn  file "D:\Users\MaCHaDo\Documents\GitHub\LegStrong\drivers\include\pwm.h",line 1567,column 5,i
    2838 00000293 0218          MOVB      ACC,#24               ; [CPU_] |1567| 
    2839 00000294 D07C          MOVB      XAR0,#124             ; [CPU_] |1567| 
    2840 00000295 0795          ADDL      ACC,*+XAR5[AR0]       ; [CPU_] |1567| 
    2841 00000296 83A9          MOVL      XAR5,ACC              ; [CPU_] |1567| 
    2842 00000297 1AC5          OR        *+XAR5[0],#0x0004     ; [CPU_] |1567| 
         00000298 0004 
    2843 00000299 761A   EDIS
    2844 0000029a 7622   EALLOW
    2845 0000029b 0218          MOVB      ACC,#24               ; [CPU_] |1567| 
    2846 0000029c 07C4          ADDL      ACC,*+XAR4[0]         ; [CPU_] |1567| 
    2847 0000029d 83A9          MOVL      XAR5,ACC              ; [CPU_] |1567| 
    2848 0000029e 1AC5          OR        *+XAR5[0],#0x0004     ; [CPU_] |1567| 
         0000029f 0004 
    2849 000002a0 761A   EDIS
    2850 000002a1 7622   EALLOW
    2851 000002a2 0218          MOVB      ACC,#24               ; [CPU_] |1567| 
    2852 000002a3 07D4          ADDL      ACC,*+XAR4[2]         ; [CPU_] |1567| 
    2853 000002a4 8AA9          MOVL      XAR4,ACC              ; [CPU_] |1567| 
    2854 000002a5 1AC4          OR        *+XAR4[0],#0x0004     ; [CPU_] |1567| 
         000002a6 0004 
    2855 000002a7 761A   EDIS
    2856 000002a8       $C$L21:    
TMS320C2000 Assembler PC v15.12.3 Sun Oct 30 14:01:37 2016

Tools Copyright (c) 1996-2015 Texas Instruments Incorporated
C:\Users\MaCHaDo\AppData\Local\Temp\0057210                          PAGE   58

    2857                      .dwpsn  file "../main.c",line 387,column 9,is_stmt,isa 0
    2858 000002a8 D018          MOVB      XAR0,#24              ; [CPU_] |387| 
    2859 000002a9 FF69          SPM       #0                    ; [CPU_] 
    2860 000002aa 8A91          MOVL      XAR4,*+XAR1[AR0]      ; [CPU_] |387| 
    2861              $C$DW$235       .dwtag  DW_TAG_TI_branch
    2862                      .dwattr $C$DW$235, DW_AT_low_pc(0x00)
    2863                      .dwattr $C$DW$235, DW_AT_name("_EST_isMotorIdentified")
    2864                      .dwattr $C$DW$235, DW_AT_TI_call
    2865              
    2866 000002ab 7640!         LCR       #_EST_isMotorIdentified ; [CPU_] |387| 
         000002ac 0000 
    2867                      ; call occurs [#_EST_isMotorIdentified] ; [] |387| 
    2868 000002ad 5200          CMPB      AL,#0                 ; [CPU_] |387| 
    2869 000002ae 6115          B         $C$L22,EQ             ; [CPU_] |387| 
    2870                      ; branchcc occurs ; [] |387| 
    2871                      .dwpsn  file "../main.c",line 390,column 13,is_stmt,isa 0
    2872 000002af D018          MOVB      XAR0,#24              ; [CPU_] |390| 
    2873 000002b0 761F-         MOVW      DP,#_gMaxCurrentSlope ; [CPU_U] 
         000002b1 0000 
    2874 000002b2 8A91          MOVL      XAR4,*+XAR1[AR0]      ; [CPU_] |390| 
    2875 000002b3 0606-         MOVL      ACC,@_gMaxCurrentSlope ; [CPU_] |390| 
    2876              $C$DW$236       .dwtag  DW_TAG_TI_branch
    2877                      .dwattr $C$DW$236, DW_AT_low_pc(0x00)
    2878                      .dwattr $C$DW$236, DW_AT_name("_EST_setMaxCurrentSlope_pu")
    2879                      .dwattr $C$DW$236, DW_AT_TI_call
    2880              
    2881 000002b4 7640!         LCR       #_EST_setMaxCurrentSlope_pu ; [CPU_] |390| 
         000002b5 0000 
    2882                      ; call occurs [#_EST_setMaxCurrentSlope_pu] ; [] |390| 
    2883 000002b6 761F-         MOVW      DP,#_gMotorVars+2     ; [CPU_U] 
         000002b7 0001 
    2884                      .dwpsn  file "../main.c",line 391,column 13,is_stmt,isa 0
    2885 000002b8 56BF-         MOVB      @_gMotorVars+2,#1,UNC ; [CPU_] |391| 
         000002b9 0102 
    2886 000002ba 761F-         MOVW      DP,#_Flag_Latch_softwareUpdate ; [CPU_U] 
         000002bb 0000 
    2887                      .dwpsn  file "../main.c",line 394,column 13,is_stmt,isa 0
    2888 000002bc 9201-         MOV       AL,@_Flag_Latch_softwareUpdate ; [CPU_] |394| 
    2889 000002bd 6111          B         $C$L23,EQ             ; [CPU_] |394| 
    2890                      ; branchcc occurs ; [] |394| 
    2891                      .dwpsn  file "../main.c",line 396,column 15,is_stmt,isa 0
    2892 000002be 2B01-         MOV       @_Flag_Latch_softwareUpdate,#0 ; [CPU_] |396| 
    2893                      .dwpsn  file "../main.c",line 398,column 15,is_stmt,isa 0
    2894 000002bf 8A04-         MOVL      XAR4,@_ctrlHandle     ; [CPU_] |398| 
    2895              $C$DW$237       .dwtag  DW_TAG_TI_branch
    2896                      .dwattr $C$DW$237, DW_AT_low_pc(0x00)
    2897                      .dwattr $C$DW$237, DW_AT_name("_USER_calcPIgains")
    2898                      .dwattr $C$DW$237, DW_AT_TI_call
    2899              
    2900 000002c0 7640!         LCR       #_USER_calcPIgains    ; [CPU_] |398| 
         000002c1 0000 
    2901                      ; call occurs [#_USER_calcPIgains] ; [] |398| 
    2902                      .dwpsn  file "../main.c",line 412,column 9,is_stmt,isa 0
    2903 000002c2 6F0C          B         $C$L23,UNC            ; [CPU_] |412| 
    2904                      ; branch occurs ; [] |412| 
TMS320C2000 Assembler PC v15.12.3 Sun Oct 30 14:01:37 2016

Tools Copyright (c) 1996-2015 Texas Instruments Incorporated
C:\Users\MaCHaDo\AppData\Local\Temp\0057210                          PAGE   59

    2905 000002c3       $C$L22:    
    2906 000002c3 761F-         MOVW      DP,#_Flag_Latch_softwareUpdate ; [CPU_U] 
         000002c4 0000 
    2907                      .dwpsn  file "../main.c",line 407,column 13,is_stmt,isa 0
    2908 000002c5 D018          MOVB      XAR0,#24              ; [CPU_] |407| 
    2909                      .dwpsn  file "../main.c",line 404,column 13,is_stmt,isa 0
    2910 000002c6 56BF-         MOVB      @_Flag_Latch_softwareUpdate,#1,UNC ; [CPU_] |404| 
         000002c7 0101 
    2911                      .dwpsn  file "../main.c",line 407,column 13,is_stmt,isa 0
    2912 000002c8 8A91          MOVL      XAR4,*+XAR1[AR0]      ; [CPU_] |407| 
    2913              $C$DW$238       .dwtag  DW_TAG_TI_branch
    2914                      .dwattr $C$DW$238, DW_AT_low_pc(0x00)
    2915                      .dwattr $C$DW$238, DW_AT_name("_EST_getMaxCurrentSlope_pu")
    2916                      .dwattr $C$DW$238, DW_AT_TI_call
    2917              
    2918 000002c9 7640!         LCR       #_EST_getMaxCurrentSlope_pu ; [CPU_] |407| 
         000002ca 0000 
    2919                      ; call occurs [#_EST_getMaxCurrentSlope_pu] ; [] |407| 
    2920 000002cb 761F-         MOVW      DP,#_gMaxCurrentSlope ; [CPU_U] 
         000002cc 0000 
    2921 000002cd 1E06-         MOVL      @_gMaxCurrentSlope,ACC ; [CPU_] |407| 
    2922 000002ce       $C$L23:    
    2923 000002ce 761F-         MOVW      DP,#_gCounter_updateGlobals ; [CPU_U] 
         000002cf 0000 
    2924                      .dwpsn  file "../main.c",line 412,column 9,is_stmt,isa 0
    2925 000002d0 9200-         MOV       AL,@_gCounter_updateGlobals ; [CPU_] |412| 
    2926 000002d1 6105          B         $C$L24,EQ             ; [CPU_] |412| 
    2927                      ; branchcc occurs ; [] |412| 
    2928                      .dwpsn  file "../main.c",line 415,column 13,is_stmt,isa 0
    2929 000002d2 2B00-         MOV       @_gCounter_updateGlobals,#0 ; [CPU_] |415| 
    2930                      .dwpsn  file "../main.c",line 417,column 13,is_stmt,isa 0
    2931 000002d3 8A04-         MOVL      XAR4,@_ctrlHandle     ; [CPU_] |417| 
    2932              $C$DW$239       .dwtag  DW_TAG_TI_branch
    2933                      .dwattr $C$DW$239, DW_AT_low_pc(0x00)
    2934                      .dwattr $C$DW$239, DW_AT_name("_updateGlobalVariables_motor")
    2935                      .dwattr $C$DW$239, DW_AT_TI_call
    2936              
    2937 000002d4 7640'         LCR       #_updateGlobalVariables_motor ; [CPU_] |417| 
         000002d5 0028 
    2938                      ; call occurs [#_updateGlobalVariables_motor] ; [] |417| 
    2939 000002d6       $C$L24:    
    2940 000002d6 761F-         MOVW      DP,#_ctrlHandle       ; [CPU_U] 
         000002d7 0000 
    2941                      .dwpsn  file "../main.c",line 421,column 9,is_stmt,isa 0
    2942 000002d8 8A04-         MOVL      XAR4,@_ctrlHandle     ; [CPU_] |421| 
    2943              $C$DW$240       .dwtag  DW_TAG_TI_branch
    2944                      .dwattr $C$DW$240, DW_AT_low_pc(0x00)
    2945                      .dwattr $C$DW$240, DW_AT_name("_updateIqRef")
    2946                      .dwattr $C$DW$240, DW_AT_TI_call
    2947              
    2948 000002d9 7640'         LCR       #_updateIqRef         ; [CPU_] |421| 
         000002da 0000 
    2949                      ; call occurs [#_updateIqRef] ; [] |421| 
    2950                      .dwpsn  file "../main.c",line 424,column 9,is_stmt,isa 0
    2951 000002db D018          MOVB      XAR0,#24              ; [CPU_] |424| 
TMS320C2000 Assembler PC v15.12.3 Sun Oct 30 14:01:37 2016

Tools Copyright (c) 1996-2015 Texas Instruments Incorporated
C:\Users\MaCHaDo\AppData\Local\Temp\0057210                          PAGE   60

    2952 000002dc 8A91          MOVL      XAR4,*+XAR1[AR0]      ; [CPU_] |424| 
    2953 000002dd 8D40-         MOVL      XAR1,#_gMotorVars     ; [CPU_U] |424| 
         000002de 0040 
    2954 000002df 92D9          MOV       AL,*+XAR1[3]          ; [CPU_] |424| 
    2955              $C$DW$241       .dwtag  DW_TAG_TI_branch
    2956                      .dwattr $C$DW$241, DW_AT_low_pc(0x00)
    2957                      .dwattr $C$DW$241, DW_AT_name("_EST_setFlag_enableForceAngle")
    2958                      .dwattr $C$DW$241, DW_AT_TI_call
    2959              
    2960 000002e0 7640!         LCR       #_EST_setFlag_enableForceAngle ; [CPU_] |424| 
         000002e1 0000 
    2961                      ; call occurs [#_EST_setFlag_enableForceAngle] ; [] |424| 
    2962                      .dwpsn  file "../main.c",line 427,column 9,is_stmt,isa 0
    2963 000002e2 D008          MOVB      XAR0,#8               ; [CPU_] |427| 
    2964 000002e3 761F-         MOVW      DP,#_ctrlHandle       ; [CPU_U] 
         000002e4 0000 
    2965                      .dwpsn  file "D:/Users/MaCHaDo/Documents/GitHub/LegStrong/modules/include/ctrl.h",line 1262,column 3,
    2966 000002e5 02F2          MOVB      ACC,#242              ; [CPU_] |1262| 
    2967                      .dwpsn  file "../main.c",line 427,column 9,is_stmt,isa 0
    2968 000002e6 8891          MOVZ      AR6,*+XAR1[AR0]       ; [CPU_] |427| 
    2969                      .dwpsn  file "D:/Users/MaCHaDo/Documents/GitHub/LegStrong/modules/include/ctrl.h",line 1262,column 3,
    2970 000002e7 0704-         ADDL      ACC,@_ctrlHandle      ; [CPU_] |1262| 
    2971 000002e8 8AA9          MOVL      XAR4,ACC              ; [CPU_] |1262| 
    2972 000002e9 761F-         MOVW      DP,#_halHandle        ; [CPU_U] 
         000002ea 0000 
    2973                      .dwpsn  file "../main.c",line 430,column 9,is_stmt,isa 0
    2974 000002eb 83A3          MOVL      XAR5,XAR3             ; [CPU_] |430| 
    2975                      .dwpsn  file "D:/Users/MaCHaDo/Documents/GitHub/LegStrong/modules/include/ctrl.h",line 1262,column 3,
    2976 000002ec 7EC4          MOV       *+XAR4[0],AR6         ; [CPU_] |1262| 
    2977                      .dwpsn  file "../main.c",line 430,column 9,is_stmt,isa 0
    2978 000002ed 8A00-         MOVL      XAR4,@_halHandle      ; [CPU_] |430| 
    2979              $C$DW$242       .dwtag  DW_TAG_TI_branch
    2980                      .dwattr $C$DW$242, DW_AT_low_pc(0x00)
    2981                      .dwattr $C$DW$242, DW_AT_name("_HAL_writeDrvData")
    2982                      .dwattr $C$DW$242, DW_AT_TI_call
    2983              
    2984 000002ee 7640!         LCR       #_HAL_writeDrvData    ; [CPU_] |430| 
         000002ef 0000 
    2985                      ; call occurs [#_HAL_writeDrvData] ; [] |430| 
    2986 000002f0 761F-         MOVW      DP,#_halHandle        ; [CPU_U] 
         000002f1 0000 
    2987                      .dwpsn  file "../main.c",line 432,column 9,is_stmt,isa 0
    2988 000002f2 83A3          MOVL      XAR5,XAR3             ; [CPU_] |432| 
    2989 000002f3 8A00-         MOVL      XAR4,@_halHandle      ; [CPU_] |432| 
    2990              $C$DW$243       .dwtag  DW_TAG_TI_branch
    2991                      .dwattr $C$DW$243, DW_AT_low_pc(0x00)
    2992                      .dwattr $C$DW$243, DW_AT_name("_HAL_readDrvData")
    2993                      .dwattr $C$DW$243, DW_AT_TI_call
    2994              
    2995 000002f4 7640!         LCR       #_HAL_readDrvData     ; [CPU_] |432| 
         000002f5 0000 
    2996                      ; call occurs [#_HAL_readDrvData] ; [] |432| 
    2997                      .dwpsn  file "../main.c",line 288,column 5,is_stmt,isa 0
    2998 000002f6 92C1          MOV       AL,*+XAR1[0]          ; [CPU_] |288| 
    2999 000002f7 FFE0          B         $C$L8,NEQ             ; [CPU_] |288| 
TMS320C2000 Assembler PC v15.12.3 Sun Oct 30 14:01:37 2016

Tools Copyright (c) 1996-2015 Texas Instruments Incorporated
C:\Users\MaCHaDo\AppData\Local\Temp\0057210                          PAGE   61

         000002f8 FE7F 
    3000                      ; branchcc occurs ; [] |288| 
    3001 000002f9 761F-         MOVW      DP,#_ctrlHandle       ; [CPU_U] 
         000002fa 0000 
    3002 000002fb 8A04-         MOVL      XAR4,@_ctrlHandle     ; [CPU_] 
    3003 000002fc       $C$L25:    
    3004 000002fc 761F-         MOVW      DP,#_halHandle        ; [CPU_U] 
         000002fd 0000 
    3005                      .dwpsn  file "D:/Users/MaCHaDo/Documents/GitHub/LegStrong/modules/include/hal.h",line 243,column 16,i
    3006 000002fe C400-         MOVL      XAR6,@_halHandle      ; [CPU_] |243| 
    3007 000002ff 83A6          MOVL      XAR5,XAR6             ; [CPU_] |243| 
    3008 00000300 DD7E          ADDB      XAR5,#126             ; [CPU_] |243| 
    3009 00000301 7622   EALLOW
    3010                      .dwpsn  file "D:\Users\MaCHaDo\Documents\GitHub\LegStrong\drivers\include\pwm.h",line 1567,column 5,i
    3011 00000302 D07C          MOVB      XAR0,#124             ; [CPU_] |1567| 
    3012 00000303 0218          MOVB      ACC,#24               ; [CPU_] |1567| 
    3013 00000304 0796          ADDL      ACC,*+XAR6[AR0]       ; [CPU_] |1567| 
    3014 00000305 1EA6          MOVL      XAR6,ACC              ; [CPU_] |1567| 
    3015 00000306 1AC6          OR        *+XAR6[0],#0x0004     ; [CPU_] |1567| 
         00000307 0004 
    3016 00000308 761A   EDIS
    3017 00000309 7622   EALLOW
    3018 0000030a 0218          MOVB      ACC,#24               ; [CPU_] |1567| 
    3019 0000030b 07C5          ADDL      ACC,*+XAR5[0]         ; [CPU_] |1567| 
    3020 0000030c 1EA6          MOVL      XAR6,ACC              ; [CPU_] |1567| 
    3021 0000030d 1AC6          OR        *+XAR6[0],#0x0004     ; [CPU_] |1567| 
         0000030e 0004 
    3022 0000030f 761A   EDIS
    3023 00000310 7622   EALLOW
    3024 00000311 0218          MOVB      ACC,#24               ; [CPU_] |1567| 
    3025 00000312 07D5          ADDL      ACC,*+XAR5[2]         ; [CPU_] |1567| 
    3026 00000313 83A9          MOVL      XAR5,ACC              ; [CPU_] |1567| 
    3027 00000314 1AC5          OR        *+XAR5[0],#0x0004     ; [CPU_] |1567| 
         00000315 0004 
    3028 00000316 761A   EDIS
    3029 00000317 FF69          SPM       #0                    ; [CPU_] 
    3030                      .dwpsn  file "../main.c",line 465,column 5,is_stmt,isa 0
    3031 00000318 834C          MOVL      XAR5,*-SP[12]         ; [CPU_] |465| 
    3032              $C$DW$244       .dwtag  DW_TAG_TI_branch
    3033                      .dwattr $C$DW$244, DW_AT_low_pc(0x00)
    3034                      .dwattr $C$DW$244, DW_AT_name("_CTRL_setParams")
    3035                      .dwattr $C$DW$244, DW_AT_TI_call
    3036              
    3037 00000319 7640!         LCR       #_CTRL_setParams      ; [CPU_] |465| 
         0000031a 0000 
    3038                      ; call occurs [#_CTRL_setParams] ; [] |465| 
    3039 0000031b 761F-         MOVW      DP,#_gMotorVars+1     ; [CPU_U] 
         0000031c 0001 
    3040                      .dwpsn  file "../main.c",line 466,column 5,is_stmt,isa 0
    3041 0000031d 2B01-         MOV       @_gMotorVars+1,#0     ; [CPU_] |466| 
    3042                      .dwpsn  file "../main.c",line 468,column 3,is_stmt,isa 0
    3043 0000031e FFEF          B         $C$L7,UNC             ; [CPU_] |468| 
         0000031f FE4C 
    3044                      ; branch occurs ; [] |468| 
    3045 00000320       $C$L26:    
TMS320C2000 Assembler PC v15.12.3 Sun Oct 30 14:01:37 2016

Tools Copyright (c) 1996-2015 Texas Instruments Incorporated
C:\Users\MaCHaDo\AppData\Local\Temp\0057210                          PAGE   62

    3046 00000320 761F-         MOVW      DP,#_gMotorVars       ; [CPU_U] 
         00000321 0001 
    3047                      .dwpsn  file "../main.c",line 188,column 11,is_stmt,isa 0
    3048 00000322 2B00-         MOV       @_gMotorVars,#0       ; [CPU_] |188| 
    3049                      .dwpsn  file "../main.c",line 189,column 9,is_stmt,isa 0
    3050 00000323 6FFD          B         $C$L26,UNC            ; [CPU_] |189| 
    3051                      ; branch occurs ; [] |189| 
    3052                      .dwattr $C$DW$189, DW_AT_TI_end_file("../main.c")
    3053                      .dwattr $C$DW$189, DW_AT_TI_end_line(0x1d6)
    3054                      .dwattr $C$DW$189, DW_AT_TI_end_column(0x01)
    3055                      .dwendentry
    3056                      .dwendtag $C$DW$189
    3057              
    3058              ;**************************************************************
    3059              ;* UNDEFINED EXTERNAL REFERENCES                              *
    3060              ;**************************************************************
    3061                      .global _CTRL_setup
    3062                      .global _CTRL_setParams
    3063                      .global _CTRL_setSpd_ref_krpm
    3064                      .global _HAL_enableDebugInt
    3065                      .global _HAL_enableGlobalInts
    3066                      .global _HAL_enableAdcInts
    3067                      .global _CTRL_run
    3068                      .global _CTRL_getVersion
    3069                      .global _HAL_setupDrvSpi
    3070                      .global _HAL_writeDrvData
    3071                      .global _HAL_readDrvData
    3072                      .global _HAL_setupFaults
    3073                      .global _HAL_setParams
    3074                      .global _HAL_enableDrv
    3075                      .global _EST_setMaxCurrentSlope_pu
    3076                      .global _USER_setParams
    3077                      .global _EST_setFlag_enableRsRecalc
    3078                      .global _USER_checkForErrors
    3079                      .global _USER_softwareUpdate1p6
    3080                      .global _SCI_clearRxFifoOvf
    3081                      .global _memCopy
    3082                      .global _EST_setFlag_enableForceAngle
    3083                      .global _SCI_clearRxFifoInt
    3084                      .global _USER_calcPIgains
    3085                      .global _EST_isMotorIdentified
    3086                      .global _EST_getState
    3087                      .global _USER_getErrorCode
    3088                      .global _CTRL_updateState
    3089                      .global _SCI_getDataBlocking
    3090                      .global _SCI_getRxFifoStatus
    3091                      .global _RamfuncsLoadStart
    3092                      .global _RamfuncsRunStart
    3093                      .global _USER_computeTorque_Flux_Iq_pu_to_Nm_sf
    3094                      .global _RamfuncsLoadEnd
    3095                      .global _USER_computeFlux_pu_to_Wb_sf
    3096                      .global _USER_computeFlux_pu_to_VpHz_sf
    3097                      .global _switch_ram_load
    3098                      .global _econst_end
    3099                      .global _econst_start
TMS320C2000 Assembler PC v15.12.3 Sun Oct 30 14:01:37 2016

Tools Copyright (c) 1996-2015 Texas Instruments Incorporated
C:\Users\MaCHaDo\AppData\Local\Temp\0057210                          PAGE   63

    3100                      .global _switch_start
    3101                      .global _econst_ram_load
    3102                      .global _switch_end
    3103                      .global _USER_computeTorque_Nm
    3104                      .global _EST_getSpeed_krpm
    3105                      .global _EST_getRr_Ohm
    3106                      .global _EST_getMaxCurrentSlope_pu
    3107                      .global _HAL_init
    3108                      .global _USER_computeTorque_Ls_Id_Iq_pu_to_Nm_sf
    3109                      .global _EST_getRs_Ohm
    3110                      .global _CTRL_initCtrl
    3111                      .global _EST_getFlux_VpHz
    3112                      .global _EST_getIdRated
    3113                      .global _USER_computeFlux
    3114                      .global _EST_getLs_q_H
    3115                      .global _EST_getLs_d_H
    3116                      .global _hal
    3117              
    3118              ;***************************************************************
    3119              ;* TYPE INFORMATION                                            *
    3120              ;***************************************************************
    3121              
    3122              $C$DW$T$38      .dwtag  DW_TAG_enumeration_type
    3123                      .dwattr $C$DW$T$38, DW_AT_byte_size(0x01)
    3124              $C$DW$245       .dwtag  DW_TAG_enumerator
    3125                      .dwattr $C$DW$245, DW_AT_name("CTRL_State_Error")
    3126                      .dwattr $C$DW$245, DW_AT_const_value(0x00)
    3127              
    3128              $C$DW$246       .dwtag  DW_TAG_enumerator
    3129                      .dwattr $C$DW$246, DW_AT_name("CTRL_State_Idle")
    3130                      .dwattr $C$DW$246, DW_AT_const_value(0x01)
    3131              
    3132              $C$DW$247       .dwtag  DW_TAG_enumerator
    3133                      .dwattr $C$DW$247, DW_AT_name("CTRL_State_OffLine")
    3134                      .dwattr $C$DW$247, DW_AT_const_value(0x02)
    3135              
    3136              $C$DW$248       .dwtag  DW_TAG_enumerator
    3137                      .dwattr $C$DW$248, DW_AT_name("CTRL_State_OnLine")
    3138                      .dwattr $C$DW$248, DW_AT_const_value(0x03)
    3139              
    3140              $C$DW$249       .dwtag  DW_TAG_enumerator
    3141                      .dwattr $C$DW$249, DW_AT_name("CTRL_numStates")
    3142                      .dwattr $C$DW$249, DW_AT_const_value(0x04)
    3143              
    3144                      .dwendtag $C$DW$T$38
    3145              
    3146              $C$DW$T$39      .dwtag  DW_TAG_typedef
    3147                      .dwattr $C$DW$T$39, DW_AT_name("CTRL_State_e")
    3148                      .dwattr $C$DW$T$39, DW_AT_type(*$C$DW$T$38)
    3149                      .dwattr $C$DW$T$39, DW_AT_language(DW_LANG_C)
    3150              
    3151              
    3152              $C$DW$T$40      .dwtag  DW_TAG_enumeration_type
    3153                      .dwattr $C$DW$T$40, DW_AT_byte_size(0x01)
    3154              $C$DW$250       .dwtag  DW_TAG_enumerator
TMS320C2000 Assembler PC v15.12.3 Sun Oct 30 14:01:37 2016

Tools Copyright (c) 1996-2015 Texas Instruments Incorporated
C:\Users\MaCHaDo\AppData\Local\Temp\0057210                          PAGE   64

    3155                      .dwattr $C$DW$250, DW_AT_name("CTRL_ErrorCode_NoError")
    3156                      .dwattr $C$DW$250, DW_AT_const_value(0x00)
    3157              
    3158              $C$DW$251       .dwtag  DW_TAG_enumerator
    3159                      .dwattr $C$DW$251, DW_AT_name("CTRL_ErrorCode_IdClip")
    3160                      .dwattr $C$DW$251, DW_AT_const_value(0x01)
    3161              
    3162              $C$DW$252       .dwtag  DW_TAG_enumerator
    3163                      .dwattr $C$DW$252, DW_AT_name("CTRL_ErrorCode_EstError")
    3164                      .dwattr $C$DW$252, DW_AT_const_value(0x02)
    3165              
    3166              $C$DW$253       .dwtag  DW_TAG_enumerator
    3167                      .dwattr $C$DW$253, DW_AT_name("CTRL_numErrorCodes")
    3168                      .dwattr $C$DW$253, DW_AT_const_value(0x03)
    3169              
    3170                      .dwendtag $C$DW$T$40
    3171              
    3172              $C$DW$T$41      .dwtag  DW_TAG_typedef
    3173                      .dwattr $C$DW$T$41, DW_AT_name("CTRL_ErrorCode_e")
    3174                      .dwattr $C$DW$T$41, DW_AT_type(*$C$DW$T$40)
    3175                      .dwattr $C$DW$T$41, DW_AT_language(DW_LANG_C)
    3176              
    3177              
    3178              $C$DW$T$71      .dwtag  DW_TAG_enumeration_type
    3179                      .dwattr $C$DW$T$71, DW_AT_byte_size(0x01)
    3180              $C$DW$254       .dwtag  DW_TAG_enumerator
    3181                      .dwattr $C$DW$254, DW_AT_name("CTRL_TargetProc_2806x")
    3182                      .dwattr $C$DW$254, DW_AT_const_value(0x00)
    3183              
    3184              $C$DW$255       .dwtag  DW_TAG_enumerator
    3185                      .dwattr $C$DW$255, DW_AT_name("CTRL_TargetProc_2805x")
    3186                      .dwattr $C$DW$255, DW_AT_const_value(0x01)
    3187              
    3188              $C$DW$256       .dwtag  DW_TAG_enumerator
    3189                      .dwattr $C$DW$256, DW_AT_name("CTRL_TargetProc_2803x")
    3190                      .dwattr $C$DW$256, DW_AT_const_value(0x02)
    3191              
    3192              $C$DW$257       .dwtag  DW_TAG_enumerator
    3193                      .dwattr $C$DW$257, DW_AT_name("CTRL_TargetProc_2802x")
    3194                      .dwattr $C$DW$257, DW_AT_const_value(0x03)
    3195              
    3196              $C$DW$258       .dwtag  DW_TAG_enumerator
    3197                      .dwattr $C$DW$258, DW_AT_name("CTRL_TargetProc_Unknown")
    3198                      .dwattr $C$DW$258, DW_AT_const_value(0x04)
    3199              
    3200                      .dwendtag $C$DW$T$71
    3201              
    3202              $C$DW$T$72      .dwtag  DW_TAG_typedef
    3203                      .dwattr $C$DW$T$72, DW_AT_name("CTRL_TargetProc_e")
    3204                      .dwattr $C$DW$T$72, DW_AT_type(*$C$DW$T$71)
    3205                      .dwattr $C$DW$T$72, DW_AT_language(DW_LANG_C)
    3206              
    3207              
    3208              $C$DW$T$78      .dwtag  DW_TAG_enumeration_type
    3209                      .dwattr $C$DW$T$78, DW_AT_byte_size(0x01)
TMS320C2000 Assembler PC v15.12.3 Sun Oct 30 14:01:37 2016

Tools Copyright (c) 1996-2015 Texas Instruments Incorporated
C:\Users\MaCHaDo\AppData\Local\Temp\0057210                          PAGE   65

    3210              $C$DW$259       .dwtag  DW_TAG_enumerator
    3211                      .dwattr $C$DW$259, DW_AT_name("GPIO_Number_0")
    3212                      .dwattr $C$DW$259, DW_AT_const_value(0x00)
    3213              
    3214              $C$DW$260       .dwtag  DW_TAG_enumerator
    3215                      .dwattr $C$DW$260, DW_AT_name("GPIO_Number_1")
    3216                      .dwattr $C$DW$260, DW_AT_const_value(0x01)
    3217              
    3218              $C$DW$261       .dwtag  DW_TAG_enumerator
    3219                      .dwattr $C$DW$261, DW_AT_name("GPIO_Number_2")
    3220                      .dwattr $C$DW$261, DW_AT_const_value(0x02)
    3221              
    3222              $C$DW$262       .dwtag  DW_TAG_enumerator
    3223                      .dwattr $C$DW$262, DW_AT_name("GPIO_Number_3")
    3224                      .dwattr $C$DW$262, DW_AT_const_value(0x03)
    3225              
    3226              $C$DW$263       .dwtag  DW_TAG_enumerator
    3227                      .dwattr $C$DW$263, DW_AT_name("GPIO_Number_4")
    3228                      .dwattr $C$DW$263, DW_AT_const_value(0x04)
    3229              
    3230              $C$DW$264       .dwtag  DW_TAG_enumerator
    3231                      .dwattr $C$DW$264, DW_AT_name("GPIO_Number_5")
    3232                      .dwattr $C$DW$264, DW_AT_const_value(0x05)
    3233              
    3234              $C$DW$265       .dwtag  DW_TAG_enumerator
    3235                      .dwattr $C$DW$265, DW_AT_name("GPIO_Number_6")
    3236                      .dwattr $C$DW$265, DW_AT_const_value(0x06)
    3237              
    3238              $C$DW$266       .dwtag  DW_TAG_enumerator
    3239                      .dwattr $C$DW$266, DW_AT_name("GPIO_Number_7")
    3240                      .dwattr $C$DW$266, DW_AT_const_value(0x07)
    3241              
    3242              $C$DW$267       .dwtag  DW_TAG_enumerator
    3243                      .dwattr $C$DW$267, DW_AT_name("GPIO_Rsvd_8")
    3244                      .dwattr $C$DW$267, DW_AT_const_value(0x08)
    3245              
    3246              $C$DW$268       .dwtag  DW_TAG_enumerator
    3247                      .dwattr $C$DW$268, DW_AT_name("GPIO_Rsvd_9")
    3248                      .dwattr $C$DW$268, DW_AT_const_value(0x09)
    3249              
    3250              $C$DW$269       .dwtag  DW_TAG_enumerator
    3251                      .dwattr $C$DW$269, DW_AT_name("GPIO_Rsvd_10")
    3252                      .dwattr $C$DW$269, DW_AT_const_value(0x0a)
    3253              
    3254              $C$DW$270       .dwtag  DW_TAG_enumerator
    3255                      .dwattr $C$DW$270, DW_AT_name("GPIO_Rsvd_11")
    3256                      .dwattr $C$DW$270, DW_AT_const_value(0x0b)
    3257              
    3258              $C$DW$271       .dwtag  DW_TAG_enumerator
    3259                      .dwattr $C$DW$271, DW_AT_name("GPIO_Number_12")
    3260                      .dwattr $C$DW$271, DW_AT_const_value(0x0c)
    3261              
    3262              $C$DW$272       .dwtag  DW_TAG_enumerator
    3263                      .dwattr $C$DW$272, DW_AT_name("GPIO_Rsvd_13")
    3264                      .dwattr $C$DW$272, DW_AT_const_value(0x0d)
TMS320C2000 Assembler PC v15.12.3 Sun Oct 30 14:01:37 2016

Tools Copyright (c) 1996-2015 Texas Instruments Incorporated
C:\Users\MaCHaDo\AppData\Local\Temp\0057210                          PAGE   66

    3265              
    3266              $C$DW$273       .dwtag  DW_TAG_enumerator
    3267                      .dwattr $C$DW$273, DW_AT_name("GPIO_Rsvd_14")
    3268                      .dwattr $C$DW$273, DW_AT_const_value(0x0e)
    3269              
    3270              $C$DW$274       .dwtag  DW_TAG_enumerator
    3271                      .dwattr $C$DW$274, DW_AT_name("GPIO_Rsvd_15")
    3272                      .dwattr $C$DW$274, DW_AT_const_value(0x0f)
    3273              
    3274              $C$DW$275       .dwtag  DW_TAG_enumerator
    3275                      .dwattr $C$DW$275, DW_AT_name("GPIO_Number_16")
    3276                      .dwattr $C$DW$275, DW_AT_const_value(0x10)
    3277              
    3278              $C$DW$276       .dwtag  DW_TAG_enumerator
    3279                      .dwattr $C$DW$276, DW_AT_name("GPIO_Number_17")
    3280                      .dwattr $C$DW$276, DW_AT_const_value(0x11)
    3281              
    3282              $C$DW$277       .dwtag  DW_TAG_enumerator
    3283                      .dwattr $C$DW$277, DW_AT_name("GPIO_Number_18")
    3284                      .dwattr $C$DW$277, DW_AT_const_value(0x12)
    3285              
    3286              $C$DW$278       .dwtag  DW_TAG_enumerator
    3287                      .dwattr $C$DW$278, DW_AT_name("GPIO_Number_19")
    3288                      .dwattr $C$DW$278, DW_AT_const_value(0x13)
    3289              
    3290              $C$DW$279       .dwtag  DW_TAG_enumerator
    3291                      .dwattr $C$DW$279, DW_AT_name("GPIO_Rsvd_20")
    3292                      .dwattr $C$DW$279, DW_AT_const_value(0x14)
    3293              
    3294              $C$DW$280       .dwtag  DW_TAG_enumerator
    3295                      .dwattr $C$DW$280, DW_AT_name("GPIO_Rsvd_21")
    3296                      .dwattr $C$DW$280, DW_AT_const_value(0x15)
    3297              
    3298              $C$DW$281       .dwtag  DW_TAG_enumerator
    3299                      .dwattr $C$DW$281, DW_AT_name("GPIO_Rsvd_22")
    3300                      .dwattr $C$DW$281, DW_AT_const_value(0x16)
    3301              
    3302              $C$DW$282       .dwtag  DW_TAG_enumerator
    3303                      .dwattr $C$DW$282, DW_AT_name("GPIO_Rsvd_23")
    3304                      .dwattr $C$DW$282, DW_AT_const_value(0x17)
    3305              
    3306              $C$DW$283       .dwtag  DW_TAG_enumerator
    3307                      .dwattr $C$DW$283, DW_AT_name("GPIO_Rsvd_24")
    3308                      .dwattr $C$DW$283, DW_AT_const_value(0x18)
    3309              
    3310              $C$DW$284       .dwtag  DW_TAG_enumerator
    3311                      .dwattr $C$DW$284, DW_AT_name("GPIO_Rsvd_25")
    3312                      .dwattr $C$DW$284, DW_AT_const_value(0x19)
    3313              
    3314              $C$DW$285       .dwtag  DW_TAG_enumerator
    3315                      .dwattr $C$DW$285, DW_AT_name("GPIO_Rsvd_26")
    3316                      .dwattr $C$DW$285, DW_AT_const_value(0x1a)
    3317              
    3318              $C$DW$286       .dwtag  DW_TAG_enumerator
    3319                      .dwattr $C$DW$286, DW_AT_name("GPIO_Rsvd_27")
TMS320C2000 Assembler PC v15.12.3 Sun Oct 30 14:01:37 2016

Tools Copyright (c) 1996-2015 Texas Instruments Incorporated
C:\Users\MaCHaDo\AppData\Local\Temp\0057210                          PAGE   67

    3320                      .dwattr $C$DW$286, DW_AT_const_value(0x1b)
    3321              
    3322              $C$DW$287       .dwtag  DW_TAG_enumerator
    3323                      .dwattr $C$DW$287, DW_AT_name("GPIO_Number_28")
    3324                      .dwattr $C$DW$287, DW_AT_const_value(0x1c)
    3325              
    3326              $C$DW$288       .dwtag  DW_TAG_enumerator
    3327                      .dwattr $C$DW$288, DW_AT_name("GPIO_Number_29")
    3328                      .dwattr $C$DW$288, DW_AT_const_value(0x1d)
    3329              
    3330              $C$DW$289       .dwtag  DW_TAG_enumerator
    3331                      .dwattr $C$DW$289, DW_AT_name("GPIO_Rsvd_30")
    3332                      .dwattr $C$DW$289, DW_AT_const_value(0x1e)
    3333              
    3334              $C$DW$290       .dwtag  DW_TAG_enumerator
    3335                      .dwattr $C$DW$290, DW_AT_name("GPIO_Rsvd_31")
    3336                      .dwattr $C$DW$290, DW_AT_const_value(0x1f)
    3337              
    3338              $C$DW$291       .dwtag  DW_TAG_enumerator
    3339                      .dwattr $C$DW$291, DW_AT_name("GPIO_Number_32")
    3340                      .dwattr $C$DW$291, DW_AT_const_value(0x20)
    3341              
    3342              $C$DW$292       .dwtag  DW_TAG_enumerator
    3343                      .dwattr $C$DW$292, DW_AT_name("GPIO_Number_33")
    3344                      .dwattr $C$DW$292, DW_AT_const_value(0x21)
    3345              
    3346              $C$DW$293       .dwtag  DW_TAG_enumerator
    3347                      .dwattr $C$DW$293, DW_AT_name("GPIO_Number_34")
    3348                      .dwattr $C$DW$293, DW_AT_const_value(0x22)
    3349              
    3350              $C$DW$294       .dwtag  DW_TAG_enumerator
    3351                      .dwattr $C$DW$294, DW_AT_name("GPIO_Number_35")
    3352                      .dwattr $C$DW$294, DW_AT_const_value(0x23)
    3353              
    3354              $C$DW$295       .dwtag  DW_TAG_enumerator
    3355                      .dwattr $C$DW$295, DW_AT_name("GPIO_Number_36")
    3356                      .dwattr $C$DW$295, DW_AT_const_value(0x24)
    3357              
    3358              $C$DW$296       .dwtag  DW_TAG_enumerator
    3359                      .dwattr $C$DW$296, DW_AT_name("GPIO_Number_37")
    3360                      .dwattr $C$DW$296, DW_AT_const_value(0x25)
    3361              
    3362              $C$DW$297       .dwtag  DW_TAG_enumerator
    3363                      .dwattr $C$DW$297, DW_AT_name("GPIO_Number_38")
    3364                      .dwattr $C$DW$297, DW_AT_const_value(0x26)
    3365              
    3366              $C$DW$298       .dwtag  DW_TAG_enumerator
    3367                      .dwattr $C$DW$298, DW_AT_name("GPIO_numGpios")
    3368                      .dwattr $C$DW$298, DW_AT_const_value(0x27)
    3369              
    3370                      .dwendtag $C$DW$T$78
    3371              
    3372              $C$DW$T$79      .dwtag  DW_TAG_typedef
    3373                      .dwattr $C$DW$T$79, DW_AT_name("GPIO_Number_e")
    3374                      .dwattr $C$DW$T$79, DW_AT_type(*$C$DW$T$78)
TMS320C2000 Assembler PC v15.12.3 Sun Oct 30 14:01:37 2016

Tools Copyright (c) 1996-2015 Texas Instruments Incorporated
C:\Users\MaCHaDo\AppData\Local\Temp\0057210                          PAGE   68

    3375                      .dwattr $C$DW$T$79, DW_AT_language(DW_LANG_C)
    3376              
    3377              
    3378              $C$DW$T$81      .dwtag  DW_TAG_enumeration_type
    3379                      .dwattr $C$DW$T$81, DW_AT_byte_size(0x01)
    3380              $C$DW$299       .dwtag  DW_TAG_enumerator
    3381                      .dwattr $C$DW$299, DW_AT_name("DRV8301_PeakCurrent_1p70_A")
    3382                      .dwattr $C$DW$299, DW_AT_const_value(0x00)
    3383              
    3384              $C$DW$300       .dwtag  DW_TAG_enumerator
    3385                      .dwattr $C$DW$300, DW_AT_name("DRV8301_PeakCurrent_0p70_A")
    3386                      .dwattr $C$DW$300, DW_AT_const_value(0x01)
    3387              
    3388              $C$DW$301       .dwtag  DW_TAG_enumerator
    3389                      .dwattr $C$DW$301, DW_AT_name("DRV8301_PeakCurrent_0p25_A")
    3390                      .dwattr $C$DW$301, DW_AT_const_value(0x02)
    3391              
    3392                      .dwendtag $C$DW$T$81
    3393              
    3394              $C$DW$T$82      .dwtag  DW_TAG_typedef
    3395                      .dwattr $C$DW$T$82, DW_AT_name("DRV8301_PeakCurrent_e")
    3396                      .dwattr $C$DW$T$82, DW_AT_type(*$C$DW$T$81)
    3397                      .dwattr $C$DW$T$82, DW_AT_language(DW_LANG_C)
    3398              
    3399              
    3400              $C$DW$T$83      .dwtag  DW_TAG_enumeration_type
    3401                      .dwattr $C$DW$T$83, DW_AT_byte_size(0x01)
    3402              $C$DW$302       .dwtag  DW_TAG_enumerator
    3403                      .dwattr $C$DW$302, DW_AT_name("DRV8301_Reset_Normal")
    3404                      .dwattr $C$DW$302, DW_AT_const_value(0x00)
    3405              
    3406              $C$DW$303       .dwtag  DW_TAG_enumerator
    3407                      .dwattr $C$DW$303, DW_AT_name("DRV8301_Reset_All")
    3408                      .dwattr $C$DW$303, DW_AT_const_value(0x04)
    3409              
    3410                      .dwendtag $C$DW$T$83
    3411              
    3412              $C$DW$T$84      .dwtag  DW_TAG_typedef
    3413                      .dwattr $C$DW$T$84, DW_AT_name("DRV8301_Reset_e")
    3414                      .dwattr $C$DW$T$84, DW_AT_type(*$C$DW$T$83)
    3415                      .dwattr $C$DW$T$84, DW_AT_language(DW_LANG_C)
    3416              
    3417              
    3418              $C$DW$T$85      .dwtag  DW_TAG_enumeration_type
    3419                      .dwattr $C$DW$T$85, DW_AT_byte_size(0x01)
    3420              $C$DW$304       .dwtag  DW_TAG_enumerator
    3421                      .dwattr $C$DW$304, DW_AT_name("DRV8301_PwmMode_Six_Inputs")
    3422                      .dwattr $C$DW$304, DW_AT_const_value(0x00)
    3423              
    3424              $C$DW$305       .dwtag  DW_TAG_enumerator
    3425                      .dwattr $C$DW$305, DW_AT_name("DRV8301_PwmMode_Three_Inputs")
    3426                      .dwattr $C$DW$305, DW_AT_const_value(0x08)
    3427              
    3428                      .dwendtag $C$DW$T$85
    3429              
TMS320C2000 Assembler PC v15.12.3 Sun Oct 30 14:01:37 2016

Tools Copyright (c) 1996-2015 Texas Instruments Incorporated
C:\Users\MaCHaDo\AppData\Local\Temp\0057210                          PAGE   69

    3430              $C$DW$T$86      .dwtag  DW_TAG_typedef
    3431                      .dwattr $C$DW$T$86, DW_AT_name("DRV8301_PwmMode_e")
    3432                      .dwattr $C$DW$T$86, DW_AT_type(*$C$DW$T$85)
    3433                      .dwattr $C$DW$T$86, DW_AT_language(DW_LANG_C)
    3434              
    3435              
    3436              $C$DW$T$87      .dwtag  DW_TAG_enumeration_type
    3437                      .dwattr $C$DW$T$87, DW_AT_byte_size(0x01)
    3438              $C$DW$306       .dwtag  DW_TAG_enumerator
    3439                      .dwattr $C$DW$306, DW_AT_name("DRV8301_OcMode_CurrentLimit")
    3440                      .dwattr $C$DW$306, DW_AT_const_value(0x00)
    3441              
    3442              $C$DW$307       .dwtag  DW_TAG_enumerator
    3443                      .dwattr $C$DW$307, DW_AT_name("DRV8301_OcMode_LatchShutDown")
    3444                      .dwattr $C$DW$307, DW_AT_const_value(0x10)
    3445              
    3446              $C$DW$308       .dwtag  DW_TAG_enumerator
    3447                      .dwattr $C$DW$308, DW_AT_name("DRV8301_OcMode_ReportOnly")
    3448                      .dwattr $C$DW$308, DW_AT_const_value(0x20)
    3449              
    3450              $C$DW$309       .dwtag  DW_TAG_enumerator
    3451                      .dwattr $C$DW$309, DW_AT_name("DRV8301_OcMode_Disabled")
    3452                      .dwattr $C$DW$309, DW_AT_const_value(0x30)
    3453              
    3454                      .dwendtag $C$DW$T$87
    3455              
    3456              $C$DW$T$88      .dwtag  DW_TAG_typedef
    3457                      .dwattr $C$DW$T$88, DW_AT_name("DRV8301_OcMode_e")
    3458                      .dwattr $C$DW$T$88, DW_AT_type(*$C$DW$T$87)
    3459                      .dwattr $C$DW$T$88, DW_AT_language(DW_LANG_C)
    3460              
    3461              
    3462              $C$DW$T$89      .dwtag  DW_TAG_enumeration_type
    3463                      .dwattr $C$DW$T$89, DW_AT_byte_size(0x01)
    3464              $C$DW$310       .dwtag  DW_TAG_enumerator
    3465                      .dwattr $C$DW$310, DW_AT_name("DRV8301_VdsLevel_0p060_V")
    3466                      .dwattr $C$DW$310, DW_AT_const_value(0x00)
    3467              
    3468              $C$DW$311       .dwtag  DW_TAG_enumerator
    3469                      .dwattr $C$DW$311, DW_AT_name("DRV8301_VdsLevel_0p068_V")
    3470                      .dwattr $C$DW$311, DW_AT_const_value(0x40)
    3471              
    3472              $C$DW$312       .dwtag  DW_TAG_enumerator
    3473                      .dwattr $C$DW$312, DW_AT_name("DRV8301_VdsLevel_0p076_V")
    3474                      .dwattr $C$DW$312, DW_AT_const_value(0x80)
    3475              
    3476              $C$DW$313       .dwtag  DW_TAG_enumerator
    3477                      .dwattr $C$DW$313, DW_AT_name("DRV8301_VdsLevel_0p086_V")
    3478                      .dwattr $C$DW$313, DW_AT_const_value(0xc0)
    3479              
    3480              $C$DW$314       .dwtag  DW_TAG_enumerator
    3481                      .dwattr $C$DW$314, DW_AT_name("DRV8301_VdsLevel_0p097_V")
    3482                      .dwattr $C$DW$314, DW_AT_const_value(0x100)
    3483              
    3484              $C$DW$315       .dwtag  DW_TAG_enumerator
TMS320C2000 Assembler PC v15.12.3 Sun Oct 30 14:01:37 2016

Tools Copyright (c) 1996-2015 Texas Instruments Incorporated
C:\Users\MaCHaDo\AppData\Local\Temp\0057210                          PAGE   70

    3485                      .dwattr $C$DW$315, DW_AT_name("DRV8301_VdsLevel_0p109_V")
    3486                      .dwattr $C$DW$315, DW_AT_const_value(0x140)
    3487              
    3488              $C$DW$316       .dwtag  DW_TAG_enumerator
    3489                      .dwattr $C$DW$316, DW_AT_name("DRV8301_VdsLevel_0p123_V")
    3490                      .dwattr $C$DW$316, DW_AT_const_value(0x180)
    3491              
    3492              $C$DW$317       .dwtag  DW_TAG_enumerator
    3493                      .dwattr $C$DW$317, DW_AT_name("DRV8301_VdsLevel_0p138_V")
    3494                      .dwattr $C$DW$317, DW_AT_const_value(0x1c0)
    3495              
    3496              $C$DW$318       .dwtag  DW_TAG_enumerator
    3497                      .dwattr $C$DW$318, DW_AT_name("DRV8301_VdsLevel_0p155_V")
    3498                      .dwattr $C$DW$318, DW_AT_const_value(0x200)
    3499              
    3500              $C$DW$319       .dwtag  DW_TAG_enumerator
    3501                      .dwattr $C$DW$319, DW_AT_name("DRV8301_VdsLevel_0p175_V")
    3502                      .dwattr $C$DW$319, DW_AT_const_value(0x240)
    3503              
    3504              $C$DW$320       .dwtag  DW_TAG_enumerator
    3505                      .dwattr $C$DW$320, DW_AT_name("DRV8301_VdsLevel_0p197_V")
    3506                      .dwattr $C$DW$320, DW_AT_const_value(0x280)
    3507              
    3508              $C$DW$321       .dwtag  DW_TAG_enumerator
    3509                      .dwattr $C$DW$321, DW_AT_name("DRV8301_VdsLevel_0p222_V")
    3510                      .dwattr $C$DW$321, DW_AT_const_value(0x2c0)
    3511              
    3512              $C$DW$322       .dwtag  DW_TAG_enumerator
    3513                      .dwattr $C$DW$322, DW_AT_name("DRV8301_VdsLevel_0p250_V")
    3514                      .dwattr $C$DW$322, DW_AT_const_value(0x300)
    3515              
    3516              $C$DW$323       .dwtag  DW_TAG_enumerator
    3517                      .dwattr $C$DW$323, DW_AT_name("DRV8301_VdsLevel_0p282_V")
    3518                      .dwattr $C$DW$323, DW_AT_const_value(0x340)
    3519              
    3520              $C$DW$324       .dwtag  DW_TAG_enumerator
    3521                      .dwattr $C$DW$324, DW_AT_name("DRV8301_VdsLevel_0p317_V")
    3522                      .dwattr $C$DW$324, DW_AT_const_value(0x380)
    3523              
    3524              $C$DW$325       .dwtag  DW_TAG_enumerator
    3525                      .dwattr $C$DW$325, DW_AT_name("DRV8301_VdsLevel_0p358_V")
    3526                      .dwattr $C$DW$325, DW_AT_const_value(0x3c0)
    3527              
    3528              $C$DW$326       .dwtag  DW_TAG_enumerator
    3529                      .dwattr $C$DW$326, DW_AT_name("DRV8301_VdsLevel_0p403_V")
    3530                      .dwattr $C$DW$326, DW_AT_const_value(0x400)
    3531              
    3532              $C$DW$327       .dwtag  DW_TAG_enumerator
    3533                      .dwattr $C$DW$327, DW_AT_name("DRV8301_VdsLevel_0p454_V")
    3534                      .dwattr $C$DW$327, DW_AT_const_value(0x440)
    3535              
    3536              $C$DW$328       .dwtag  DW_TAG_enumerator
    3537                      .dwattr $C$DW$328, DW_AT_name("DRV8301_VdsLevel_0p511_V")
    3538                      .dwattr $C$DW$328, DW_AT_const_value(0x480)
    3539              
TMS320C2000 Assembler PC v15.12.3 Sun Oct 30 14:01:37 2016

Tools Copyright (c) 1996-2015 Texas Instruments Incorporated
C:\Users\MaCHaDo\AppData\Local\Temp\0057210                          PAGE   71

    3540              $C$DW$329       .dwtag  DW_TAG_enumerator
    3541                      .dwattr $C$DW$329, DW_AT_name("DRV8301_VdsLevel_0p576_V")
    3542                      .dwattr $C$DW$329, DW_AT_const_value(0x4c0)
    3543              
    3544              $C$DW$330       .dwtag  DW_TAG_enumerator
    3545                      .dwattr $C$DW$330, DW_AT_name("DRV8301_VdsLevel_0p648_V")
    3546                      .dwattr $C$DW$330, DW_AT_const_value(0x500)
    3547              
    3548              $C$DW$331       .dwtag  DW_TAG_enumerator
    3549                      .dwattr $C$DW$331, DW_AT_name("DRV8301_VdsLevel_0p730_V")
    3550                      .dwattr $C$DW$331, DW_AT_const_value(0x540)
    3551              
    3552              $C$DW$332       .dwtag  DW_TAG_enumerator
    3553                      .dwattr $C$DW$332, DW_AT_name("DRV8301_VdsLevel_0p822_V")
    3554                      .dwattr $C$DW$332, DW_AT_const_value(0x580)
    3555              
    3556              $C$DW$333       .dwtag  DW_TAG_enumerator
    3557                      .dwattr $C$DW$333, DW_AT_name("DRV8301_VdsLevel_0p926_V")
    3558                      .dwattr $C$DW$333, DW_AT_const_value(0x5c0)
    3559              
    3560              $C$DW$334       .dwtag  DW_TAG_enumerator
    3561                      .dwattr $C$DW$334, DW_AT_name("DRV8301_VdsLevel_1p043_V")
    3562                      .dwattr $C$DW$334, DW_AT_const_value(0x600)
    3563              
    3564              $C$DW$335       .dwtag  DW_TAG_enumerator
    3565                      .dwattr $C$DW$335, DW_AT_name("DRV8301_VdsLevel_1p175_V")
    3566                      .dwattr $C$DW$335, DW_AT_const_value(0x640)
    3567              
    3568              $C$DW$336       .dwtag  DW_TAG_enumerator
    3569                      .dwattr $C$DW$336, DW_AT_name("DRV8301_VdsLevel_1p324_V")
    3570                      .dwattr $C$DW$336, DW_AT_const_value(0x680)
    3571              
    3572              $C$DW$337       .dwtag  DW_TAG_enumerator
    3573                      .dwattr $C$DW$337, DW_AT_name("DRV8301_VdsLevel_1p491_V")
    3574                      .dwattr $C$DW$337, DW_AT_const_value(0x6c0)
    3575              
    3576              $C$DW$338       .dwtag  DW_TAG_enumerator
    3577                      .dwattr $C$DW$338, DW_AT_name("DRV8301_VdsLevel_1p679_V")
    3578                      .dwattr $C$DW$338, DW_AT_const_value(0x700)
    3579              
    3580              $C$DW$339       .dwtag  DW_TAG_enumerator
    3581                      .dwattr $C$DW$339, DW_AT_name("DRV8301_VdsLevel_1p892_V")
    3582                      .dwattr $C$DW$339, DW_AT_const_value(0x740)
    3583              
    3584              $C$DW$340       .dwtag  DW_TAG_enumerator
    3585                      .dwattr $C$DW$340, DW_AT_name("DRV8301_VdsLevel_2p131_V")
    3586                      .dwattr $C$DW$340, DW_AT_const_value(0x780)
    3587              
    3588              $C$DW$341       .dwtag  DW_TAG_enumerator
    3589                      .dwattr $C$DW$341, DW_AT_name("DRV8301_VdsLevel_2p400_V")
    3590                      .dwattr $C$DW$341, DW_AT_const_value(0x7c0)
    3591              
    3592                      .dwendtag $C$DW$T$89
    3593              
    3594              $C$DW$T$90      .dwtag  DW_TAG_typedef
TMS320C2000 Assembler PC v15.12.3 Sun Oct 30 14:01:37 2016

Tools Copyright (c) 1996-2015 Texas Instruments Incorporated
C:\Users\MaCHaDo\AppData\Local\Temp\0057210                          PAGE   72

    3595                      .dwattr $C$DW$T$90, DW_AT_name("DRV8301_VdsLevel_e")
    3596                      .dwattr $C$DW$T$90, DW_AT_type(*$C$DW$T$89)
    3597                      .dwattr $C$DW$T$90, DW_AT_language(DW_LANG_C)
    3598              
    3599              
    3600              $C$DW$T$92      .dwtag  DW_TAG_enumeration_type
    3601                      .dwattr $C$DW$T$92, DW_AT_byte_size(0x01)
    3602              $C$DW$342       .dwtag  DW_TAG_enumerator
    3603                      .dwattr $C$DW$342, DW_AT_name("DRV8301_OcTwMode_Both")
    3604                      .dwattr $C$DW$342, DW_AT_const_value(0x00)
    3605              
    3606              $C$DW$343       .dwtag  DW_TAG_enumerator
    3607                      .dwattr $C$DW$343, DW_AT_name("DRV8301_OcTwMode_OT_Only")
    3608                      .dwattr $C$DW$343, DW_AT_const_value(0x01)
    3609              
    3610              $C$DW$344       .dwtag  DW_TAG_enumerator
    3611                      .dwattr $C$DW$344, DW_AT_name("DRV8301_OcTwMode_OC_Only")
    3612                      .dwattr $C$DW$344, DW_AT_const_value(0x02)
    3613              
    3614                      .dwendtag $C$DW$T$92
    3615              
    3616              $C$DW$T$93      .dwtag  DW_TAG_typedef
    3617                      .dwattr $C$DW$T$93, DW_AT_name("DRV8301_OcTwMode_e")
    3618                      .dwattr $C$DW$T$93, DW_AT_type(*$C$DW$T$92)
    3619                      .dwattr $C$DW$T$93, DW_AT_language(DW_LANG_C)
    3620              
    3621              
    3622              $C$DW$T$94      .dwtag  DW_TAG_enumeration_type
    3623                      .dwattr $C$DW$T$94, DW_AT_byte_size(0x01)
    3624              $C$DW$345       .dwtag  DW_TAG_enumerator
    3625                      .dwattr $C$DW$345, DW_AT_name("DRV8301_ShuntAmpGain_10VpV")
    3626                      .dwattr $C$DW$345, DW_AT_const_value(0x00)
    3627              
    3628              $C$DW$346       .dwtag  DW_TAG_enumerator
    3629                      .dwattr $C$DW$346, DW_AT_name("DRV8301_ShuntAmpGain_20VpV")
    3630                      .dwattr $C$DW$346, DW_AT_const_value(0x04)
    3631              
    3632              $C$DW$347       .dwtag  DW_TAG_enumerator
    3633                      .dwattr $C$DW$347, DW_AT_name("DRV8301_ShuntAmpGain_40VpV")
    3634                      .dwattr $C$DW$347, DW_AT_const_value(0x08)
    3635              
    3636              $C$DW$348       .dwtag  DW_TAG_enumerator
    3637                      .dwattr $C$DW$348, DW_AT_name("DRV8301_ShuntAmpGain_80VpV")
    3638                      .dwattr $C$DW$348, DW_AT_const_value(0x0c)
    3639              
    3640                      .dwendtag $C$DW$T$94
    3641              
    3642              $C$DW$T$95      .dwtag  DW_TAG_typedef
    3643                      .dwattr $C$DW$T$95, DW_AT_name("DRV8301_ShuntAmpGain_e")
    3644                      .dwattr $C$DW$T$95, DW_AT_type(*$C$DW$T$94)
    3645                      .dwattr $C$DW$T$95, DW_AT_language(DW_LANG_C)
    3646              
    3647              
    3648              $C$DW$T$96      .dwtag  DW_TAG_enumeration_type
    3649                      .dwattr $C$DW$T$96, DW_AT_byte_size(0x01)
TMS320C2000 Assembler PC v15.12.3 Sun Oct 30 14:01:37 2016

Tools Copyright (c) 1996-2015 Texas Instruments Incorporated
C:\Users\MaCHaDo\AppData\Local\Temp\0057210                          PAGE   73

    3650              $C$DW$349       .dwtag  DW_TAG_enumerator
    3651                      .dwattr $C$DW$349, DW_AT_name("DRV8301_DcCalMode_Ch1_Load")
    3652                      .dwattr $C$DW$349, DW_AT_const_value(0x00)
    3653              
    3654              $C$DW$350       .dwtag  DW_TAG_enumerator
    3655                      .dwattr $C$DW$350, DW_AT_name("DRV8301_DcCalMode_Ch1_NoLoad")
    3656                      .dwattr $C$DW$350, DW_AT_const_value(0x10)
    3657              
    3658              $C$DW$351       .dwtag  DW_TAG_enumerator
    3659                      .dwattr $C$DW$351, DW_AT_name("DRV8301_DcCalMode_Ch2_Load")
    3660                      .dwattr $C$DW$351, DW_AT_const_value(0x00)
    3661              
    3662              $C$DW$352       .dwtag  DW_TAG_enumerator
    3663                      .dwattr $C$DW$352, DW_AT_name("DRV8301_DcCalMode_Ch2_NoLoad")
    3664                      .dwattr $C$DW$352, DW_AT_const_value(0x20)
    3665              
    3666                      .dwendtag $C$DW$T$96
    3667              
    3668              $C$DW$T$97      .dwtag  DW_TAG_typedef
    3669                      .dwattr $C$DW$T$97, DW_AT_name("DRV8301_DcCalMode_e")
    3670                      .dwattr $C$DW$T$97, DW_AT_type(*$C$DW$T$96)
    3671                      .dwattr $C$DW$T$97, DW_AT_language(DW_LANG_C)
    3672              
    3673              
    3674              $C$DW$T$98      .dwtag  DW_TAG_enumeration_type
    3675                      .dwattr $C$DW$T$98, DW_AT_byte_size(0x01)
    3676              $C$DW$353       .dwtag  DW_TAG_enumerator
    3677                      .dwattr $C$DW$353, DW_AT_name("DRV8301_OcOffTimeMode_Normal")
    3678                      .dwattr $C$DW$353, DW_AT_const_value(0x00)
    3679              
    3680              $C$DW$354       .dwtag  DW_TAG_enumerator
    3681                      .dwattr $C$DW$354, DW_AT_name("DRV8301_OcOffTimeMode_Ctrl")
    3682                      .dwattr $C$DW$354, DW_AT_const_value(0x40)
    3683              
    3684                      .dwendtag $C$DW$T$98
    3685              
    3686              $C$DW$T$99      .dwtag  DW_TAG_typedef
    3687                      .dwattr $C$DW$T$99, DW_AT_name("DRV8301_OcOffTimeMode_e")
    3688                      .dwattr $C$DW$T$99, DW_AT_type(*$C$DW$T$98)
    3689                      .dwattr $C$DW$T$99, DW_AT_language(DW_LANG_C)
    3690              
    3691              
    3692              $C$DW$T$160     .dwtag  DW_TAG_enumeration_type
    3693                      .dwattr $C$DW$T$160, DW_AT_byte_size(0x01)
    3694              $C$DW$355       .dwtag  DW_TAG_enumerator
    3695                      .dwattr $C$DW$355, DW_AT_name("MOTOR_Type_Induction")
    3696                      .dwattr $C$DW$355, DW_AT_const_value(0x00)
    3697              
    3698              $C$DW$356       .dwtag  DW_TAG_enumerator
    3699                      .dwattr $C$DW$356, DW_AT_name("MOTOR_Type_Pm")
    3700                      .dwattr $C$DW$356, DW_AT_const_value(0x01)
    3701              
    3702                      .dwendtag $C$DW$T$160
    3703              
    3704              $C$DW$T$161     .dwtag  DW_TAG_typedef
TMS320C2000 Assembler PC v15.12.3 Sun Oct 30 14:01:37 2016

Tools Copyright (c) 1996-2015 Texas Instruments Incorporated
C:\Users\MaCHaDo\AppData\Local\Temp\0057210                          PAGE   74

    3705                      .dwattr $C$DW$T$161, DW_AT_name("MOTOR_Type_e")
    3706                      .dwattr $C$DW$T$161, DW_AT_type(*$C$DW$T$160)
    3707                      .dwattr $C$DW$T$161, DW_AT_language(DW_LANG_C)
    3708              
    3709              
    3710              $C$DW$T$163     .dwtag  DW_TAG_enumeration_type
    3711                      .dwattr $C$DW$T$163, DW_AT_byte_size(0x01)
    3712              $C$DW$357       .dwtag  DW_TAG_enumerator
    3713                      .dwattr $C$DW$357, DW_AT_name("EST_State_Error")
    3714                      .dwattr $C$DW$357, DW_AT_const_value(0x00)
    3715              
    3716              $C$DW$358       .dwtag  DW_TAG_enumerator
    3717                      .dwattr $C$DW$358, DW_AT_name("EST_State_Idle")
    3718                      .dwattr $C$DW$358, DW_AT_const_value(0x01)
    3719              
    3720              $C$DW$359       .dwtag  DW_TAG_enumerator
    3721                      .dwattr $C$DW$359, DW_AT_name("EST_State_RoverL")
    3722                      .dwattr $C$DW$359, DW_AT_const_value(0x02)
    3723              
    3724              $C$DW$360       .dwtag  DW_TAG_enumerator
    3725                      .dwattr $C$DW$360, DW_AT_name("EST_State_Rs")
    3726                      .dwattr $C$DW$360, DW_AT_const_value(0x03)
    3727              
    3728              $C$DW$361       .dwtag  DW_TAG_enumerator
    3729                      .dwattr $C$DW$361, DW_AT_name("EST_State_RampUp")
    3730                      .dwattr $C$DW$361, DW_AT_const_value(0x04)
    3731              
    3732              $C$DW$362       .dwtag  DW_TAG_enumerator
    3733                      .dwattr $C$DW$362, DW_AT_name("EST_State_IdRated")
    3734                      .dwattr $C$DW$362, DW_AT_const_value(0x05)
    3735              
    3736              $C$DW$363       .dwtag  DW_TAG_enumerator
    3737                      .dwattr $C$DW$363, DW_AT_name("EST_State_RatedFlux_OL")
    3738                      .dwattr $C$DW$363, DW_AT_const_value(0x06)
    3739              
    3740              $C$DW$364       .dwtag  DW_TAG_enumerator
    3741                      .dwattr $C$DW$364, DW_AT_name("EST_State_RatedFlux")
    3742                      .dwattr $C$DW$364, DW_AT_const_value(0x07)
    3743              
    3744              $C$DW$365       .dwtag  DW_TAG_enumerator
    3745                      .dwattr $C$DW$365, DW_AT_name("EST_State_RampDown")
    3746                      .dwattr $C$DW$365, DW_AT_const_value(0x08)
    3747              
    3748              $C$DW$366       .dwtag  DW_TAG_enumerator
    3749                      .dwattr $C$DW$366, DW_AT_name("EST_State_LockRotor")
    3750                      .dwattr $C$DW$366, DW_AT_const_value(0x09)
    3751              
    3752              $C$DW$367       .dwtag  DW_TAG_enumerator
    3753                      .dwattr $C$DW$367, DW_AT_name("EST_State_Ls")
    3754                      .dwattr $C$DW$367, DW_AT_const_value(0x0a)
    3755              
    3756              $C$DW$368       .dwtag  DW_TAG_enumerator
    3757                      .dwattr $C$DW$368, DW_AT_name("EST_State_Rr")
    3758                      .dwattr $C$DW$368, DW_AT_const_value(0x0b)
    3759              
TMS320C2000 Assembler PC v15.12.3 Sun Oct 30 14:01:37 2016

Tools Copyright (c) 1996-2015 Texas Instruments Incorporated
C:\Users\MaCHaDo\AppData\Local\Temp\0057210                          PAGE   75

    3760              $C$DW$369       .dwtag  DW_TAG_enumerator
    3761                      .dwattr $C$DW$369, DW_AT_name("EST_State_MotorIdentified")
    3762                      .dwattr $C$DW$369, DW_AT_const_value(0x0c)
    3763              
    3764              $C$DW$370       .dwtag  DW_TAG_enumerator
    3765                      .dwattr $C$DW$370, DW_AT_name("EST_State_OnLine")
    3766                      .dwattr $C$DW$370, DW_AT_const_value(0x0d)
    3767              
    3768              $C$DW$371       .dwtag  DW_TAG_enumerator
    3769                      .dwattr $C$DW$371, DW_AT_name("EST_numStates")
    3770                      .dwattr $C$DW$371, DW_AT_const_value(0x0e)
    3771              
    3772                      .dwendtag $C$DW$T$163
    3773              
    3774              $C$DW$T$164     .dwtag  DW_TAG_typedef
    3775                      .dwattr $C$DW$T$164, DW_AT_name("EST_State_e")
    3776                      .dwattr $C$DW$T$164, DW_AT_type(*$C$DW$T$163)
    3777                      .dwattr $C$DW$T$164, DW_AT_language(DW_LANG_C)
    3778              
    3779              
    3780              $C$DW$T$165     .dwtag  DW_TAG_enumeration_type
    3781                      .dwattr $C$DW$T$165, DW_AT_byte_size(0x01)
    3782              $C$DW$372       .dwtag  DW_TAG_enumerator
    3783                      .dwattr $C$DW$372, DW_AT_name("USER_ErrorCode_NoError")
    3784                      .dwattr $C$DW$372, DW_AT_const_value(0x00)
    3785              
    3786              $C$DW$373       .dwtag  DW_TAG_enumerator
    3787                      .dwattr $C$DW$373, DW_AT_name("USER_ErrorCode_iqFullScaleCurrent_A_High")
    3788                      .dwattr $C$DW$373, DW_AT_const_value(0x01)
    3789              
    3790              $C$DW$374       .dwtag  DW_TAG_enumerator
    3791                      .dwattr $C$DW$374, DW_AT_name("USER_ErrorCode_iqFullScaleCurrent_A_Low")
    3792                      .dwattr $C$DW$374, DW_AT_const_value(0x02)
    3793              
    3794              $C$DW$375       .dwtag  DW_TAG_enumerator
    3795                      .dwattr $C$DW$375, DW_AT_name("USER_ErrorCode_iqFullScaleVoltage_V_High")
    3796                      .dwattr $C$DW$375, DW_AT_const_value(0x03)
    3797              
    3798              $C$DW$376       .dwtag  DW_TAG_enumerator
    3799                      .dwattr $C$DW$376, DW_AT_name("USER_ErrorCode_iqFullScaleVoltage_V_Low")
    3800                      .dwattr $C$DW$376, DW_AT_const_value(0x04)
    3801              
    3802              $C$DW$377       .dwtag  DW_TAG_enumerator
    3803                      .dwattr $C$DW$377, DW_AT_name("USER_ErrorCode_iqFullScaleFreq_Hz_High")
    3804                      .dwattr $C$DW$377, DW_AT_const_value(0x05)
    3805              
    3806              $C$DW$378       .dwtag  DW_TAG_enumerator
    3807                      .dwattr $C$DW$378, DW_AT_name("USER_ErrorCode_iqFullScaleFreq_Hz_Low")
    3808                      .dwattr $C$DW$378, DW_AT_const_value(0x06)
    3809              
    3810              $C$DW$379       .dwtag  DW_TAG_enumerator
    3811                      .dwattr $C$DW$379, DW_AT_name("USER_ErrorCode_numPwmTicksPerIsrTick_High")
    3812                      .dwattr $C$DW$379, DW_AT_const_value(0x07)
    3813              
    3814              $C$DW$380       .dwtag  DW_TAG_enumerator
TMS320C2000 Assembler PC v15.12.3 Sun Oct 30 14:01:37 2016

Tools Copyright (c) 1996-2015 Texas Instruments Incorporated
C:\Users\MaCHaDo\AppData\Local\Temp\0057210                          PAGE   76

    3815                      .dwattr $C$DW$380, DW_AT_name("USER_ErrorCode_numPwmTicksPerIsrTick_Low")
    3816                      .dwattr $C$DW$380, DW_AT_const_value(0x08)
    3817              
    3818              $C$DW$381       .dwtag  DW_TAG_enumerator
    3819                      .dwattr $C$DW$381, DW_AT_name("USER_ErrorCode_numIsrTicksPerCtrlTick_High")
    3820                      .dwattr $C$DW$381, DW_AT_const_value(0x09)
    3821              
    3822              $C$DW$382       .dwtag  DW_TAG_enumerator
    3823                      .dwattr $C$DW$382, DW_AT_name("USER_ErrorCode_numIsrTicksPerCtrlTick_Low")
    3824                      .dwattr $C$DW$382, DW_AT_const_value(0x0a)
    3825              
    3826              $C$DW$383       .dwtag  DW_TAG_enumerator
    3827                      .dwattr $C$DW$383, DW_AT_name("USER_ErrorCode_numCtrlTicksPerCurrentTick_High")
    3828                      .dwattr $C$DW$383, DW_AT_const_value(0x0b)
    3829              
    3830              $C$DW$384       .dwtag  DW_TAG_enumerator
    3831                      .dwattr $C$DW$384, DW_AT_name("USER_ErrorCode_numCtrlTicksPerCurrentTick_Low")
    3832                      .dwattr $C$DW$384, DW_AT_const_value(0x0c)
    3833              
    3834              $C$DW$385       .dwtag  DW_TAG_enumerator
    3835                      .dwattr $C$DW$385, DW_AT_name("USER_ErrorCode_numCtrlTicksPerEstTick_High")
    3836                      .dwattr $C$DW$385, DW_AT_const_value(0x0d)
    3837              
    3838              $C$DW$386       .dwtag  DW_TAG_enumerator
    3839                      .dwattr $C$DW$386, DW_AT_name("USER_ErrorCode_numCtrlTicksPerEstTick_Low")
    3840                      .dwattr $C$DW$386, DW_AT_const_value(0x0e)
    3841              
    3842              $C$DW$387       .dwtag  DW_TAG_enumerator
    3843                      .dwattr $C$DW$387, DW_AT_name("USER_ErrorCode_numCtrlTicksPerSpeedTick_High")
    3844                      .dwattr $C$DW$387, DW_AT_const_value(0x0f)
    3845              
    3846              $C$DW$388       .dwtag  DW_TAG_enumerator
    3847                      .dwattr $C$DW$388, DW_AT_name("USER_ErrorCode_numCtrlTicksPerSpeedTick_Low")
    3848                      .dwattr $C$DW$388, DW_AT_const_value(0x10)
    3849              
    3850              $C$DW$389       .dwtag  DW_TAG_enumerator
    3851                      .dwattr $C$DW$389, DW_AT_name("USER_ErrorCode_numCtrlTicksPerTrajTick_High")
    3852                      .dwattr $C$DW$389, DW_AT_const_value(0x11)
    3853              
    3854              $C$DW$390       .dwtag  DW_TAG_enumerator
    3855                      .dwattr $C$DW$390, DW_AT_name("USER_ErrorCode_numCtrlTicksPerTrajTick_Low")
    3856                      .dwattr $C$DW$390, DW_AT_const_value(0x12)
    3857              
    3858              $C$DW$391       .dwtag  DW_TAG_enumerator
    3859                      .dwattr $C$DW$391, DW_AT_name("USER_ErrorCode_numCurrentSensors_High")
    3860                      .dwattr $C$DW$391, DW_AT_const_value(0x13)
    3861              
    3862              $C$DW$392       .dwtag  DW_TAG_enumerator
    3863                      .dwattr $C$DW$392, DW_AT_name("USER_ErrorCode_numCurrentSensors_Low")
    3864                      .dwattr $C$DW$392, DW_AT_const_value(0x14)
    3865              
    3866              $C$DW$393       .dwtag  DW_TAG_enumerator
    3867                      .dwattr $C$DW$393, DW_AT_name("USER_ErrorCode_numVoltageSensors_High")
    3868                      .dwattr $C$DW$393, DW_AT_const_value(0x15)
    3869              
TMS320C2000 Assembler PC v15.12.3 Sun Oct 30 14:01:37 2016

Tools Copyright (c) 1996-2015 Texas Instruments Incorporated
C:\Users\MaCHaDo\AppData\Local\Temp\0057210                          PAGE   77

    3870              $C$DW$394       .dwtag  DW_TAG_enumerator
    3871                      .dwattr $C$DW$394, DW_AT_name("USER_ErrorCode_numVoltageSensors_Low")
    3872                      .dwattr $C$DW$394, DW_AT_const_value(0x16)
    3873              
    3874              $C$DW$395       .dwtag  DW_TAG_enumerator
    3875                      .dwattr $C$DW$395, DW_AT_name("USER_ErrorCode_offsetPole_rps_High")
    3876                      .dwattr $C$DW$395, DW_AT_const_value(0x17)
    3877              
    3878              $C$DW$396       .dwtag  DW_TAG_enumerator
    3879                      .dwattr $C$DW$396, DW_AT_name("USER_ErrorCode_offsetPole_rps_Low")
    3880                      .dwattr $C$DW$396, DW_AT_const_value(0x18)
    3881              
    3882              $C$DW$397       .dwtag  DW_TAG_enumerator
    3883                      .dwattr $C$DW$397, DW_AT_name("USER_ErrorCode_fluxPole_rps_High")
    3884                      .dwattr $C$DW$397, DW_AT_const_value(0x19)
    3885              
    3886              $C$DW$398       .dwtag  DW_TAG_enumerator
    3887                      .dwattr $C$DW$398, DW_AT_name("USER_ErrorCode_fluxPole_rps_Low")
    3888                      .dwattr $C$DW$398, DW_AT_const_value(0x1a)
    3889              
    3890              $C$DW$399       .dwtag  DW_TAG_enumerator
    3891                      .dwattr $C$DW$399, DW_AT_name("USER_ErrorCode_zeroSpeedLimit_High")
    3892                      .dwattr $C$DW$399, DW_AT_const_value(0x1b)
    3893              
    3894              $C$DW$400       .dwtag  DW_TAG_enumerator
    3895                      .dwattr $C$DW$400, DW_AT_name("USER_ErrorCode_zeroSpeedLimit_Low")
    3896                      .dwattr $C$DW$400, DW_AT_const_value(0x1c)
    3897              
    3898              $C$DW$401       .dwtag  DW_TAG_enumerator
    3899                      .dwattr $C$DW$401, DW_AT_name("USER_ErrorCode_forceAngleFreq_Hz_High")
    3900                      .dwattr $C$DW$401, DW_AT_const_value(0x1d)
    3901              
    3902              $C$DW$402       .dwtag  DW_TAG_enumerator
    3903                      .dwattr $C$DW$402, DW_AT_name("USER_ErrorCode_forceAngleFreq_Hz_Low")
    3904                      .dwattr $C$DW$402, DW_AT_const_value(0x1e)
    3905              
    3906              $C$DW$403       .dwtag  DW_TAG_enumerator
    3907                      .dwattr $C$DW$403, DW_AT_name("USER_ErrorCode_maxAccel_Hzps_High")
    3908                      .dwattr $C$DW$403, DW_AT_const_value(0x1f)
    3909              
    3910              $C$DW$404       .dwtag  DW_TAG_enumerator
    3911                      .dwattr $C$DW$404, DW_AT_name("USER_ErrorCode_maxAccel_Hzps_Low")
    3912                      .dwattr $C$DW$404, DW_AT_const_value(0x20)
    3913              
    3914              $C$DW$405       .dwtag  DW_TAG_enumerator
    3915                      .dwattr $C$DW$405, DW_AT_name("USER_ErrorCode_maxAccel_est_Hzps_High")
    3916                      .dwattr $C$DW$405, DW_AT_const_value(0x21)
    3917              
    3918              $C$DW$406       .dwtag  DW_TAG_enumerator
    3919                      .dwattr $C$DW$406, DW_AT_name("USER_ErrorCode_maxAccel_est_Hzps_Low")
    3920                      .dwattr $C$DW$406, DW_AT_const_value(0x22)
    3921              
    3922              $C$DW$407       .dwtag  DW_TAG_enumerator
    3923                      .dwattr $C$DW$407, DW_AT_name("USER_ErrorCode_directionPole_rps_High")
    3924                      .dwattr $C$DW$407, DW_AT_const_value(0x23)
TMS320C2000 Assembler PC v15.12.3 Sun Oct 30 14:01:37 2016

Tools Copyright (c) 1996-2015 Texas Instruments Incorporated
C:\Users\MaCHaDo\AppData\Local\Temp\0057210                          PAGE   78

    3925              
    3926              $C$DW$408       .dwtag  DW_TAG_enumerator
    3927                      .dwattr $C$DW$408, DW_AT_name("USER_ErrorCode_directionPole_rps_Low")
    3928                      .dwattr $C$DW$408, DW_AT_const_value(0x24)
    3929              
    3930              $C$DW$409       .dwtag  DW_TAG_enumerator
    3931                      .dwattr $C$DW$409, DW_AT_name("USER_ErrorCode_speedPole_rps_High")
    3932                      .dwattr $C$DW$409, DW_AT_const_value(0x25)
    3933              
    3934              $C$DW$410       .dwtag  DW_TAG_enumerator
    3935                      .dwattr $C$DW$410, DW_AT_name("USER_ErrorCode_speedPole_rps_Low")
    3936                      .dwattr $C$DW$410, DW_AT_const_value(0x26)
    3937              
    3938              $C$DW$411       .dwtag  DW_TAG_enumerator
    3939                      .dwattr $C$DW$411, DW_AT_name("USER_ErrorCode_dcBusPole_rps_High")
    3940                      .dwattr $C$DW$411, DW_AT_const_value(0x27)
    3941              
    3942              $C$DW$412       .dwtag  DW_TAG_enumerator
    3943                      .dwattr $C$DW$412, DW_AT_name("USER_ErrorCode_dcBusPole_rps_Low")
    3944                      .dwattr $C$DW$412, DW_AT_const_value(0x28)
    3945              
    3946              $C$DW$413       .dwtag  DW_TAG_enumerator
    3947                      .dwattr $C$DW$413, DW_AT_name("USER_ErrorCode_fluxFraction_High")
    3948                      .dwattr $C$DW$413, DW_AT_const_value(0x29)
    3949              
    3950              $C$DW$414       .dwtag  DW_TAG_enumerator
    3951                      .dwattr $C$DW$414, DW_AT_name("USER_ErrorCode_fluxFraction_Low")
    3952                      .dwattr $C$DW$414, DW_AT_const_value(0x2a)
    3953              
    3954              $C$DW$415       .dwtag  DW_TAG_enumerator
    3955                      .dwattr $C$DW$415, DW_AT_name("USER_ErrorCode_indEst_speedMaxFraction_High")
    3956                      .dwattr $C$DW$415, DW_AT_const_value(0x2b)
    3957              
    3958              $C$DW$416       .dwtag  DW_TAG_enumerator
    3959                      .dwattr $C$DW$416, DW_AT_name("USER_ErrorCode_indEst_speedMaxFraction_Low")
    3960                      .dwattr $C$DW$416, DW_AT_const_value(0x2c)
    3961              
    3962              $C$DW$417       .dwtag  DW_TAG_enumerator
    3963                      .dwattr $C$DW$417, DW_AT_name("USER_ErrorCode_powerWarpGain_High")
    3964                      .dwattr $C$DW$417, DW_AT_const_value(0x2d)
    3965              
    3966              $C$DW$418       .dwtag  DW_TAG_enumerator
    3967                      .dwattr $C$DW$418, DW_AT_name("USER_ErrorCode_powerWarpGain_Low")
    3968                      .dwattr $C$DW$418, DW_AT_const_value(0x2e)
    3969              
    3970              $C$DW$419       .dwtag  DW_TAG_enumerator
    3971                      .dwattr $C$DW$419, DW_AT_name("USER_ErrorCode_systemFreq_MHz_High")
    3972                      .dwattr $C$DW$419, DW_AT_const_value(0x2f)
    3973              
    3974              $C$DW$420       .dwtag  DW_TAG_enumerator
    3975                      .dwattr $C$DW$420, DW_AT_name("USER_ErrorCode_systemFreq_MHz_Low")
    3976                      .dwattr $C$DW$420, DW_AT_const_value(0x30)
    3977              
    3978              $C$DW$421       .dwtag  DW_TAG_enumerator
    3979                      .dwattr $C$DW$421, DW_AT_name("USER_ErrorCode_pwmFreq_kHz_High")
TMS320C2000 Assembler PC v15.12.3 Sun Oct 30 14:01:37 2016

Tools Copyright (c) 1996-2015 Texas Instruments Incorporated
C:\Users\MaCHaDo\AppData\Local\Temp\0057210                          PAGE   79

    3980                      .dwattr $C$DW$421, DW_AT_const_value(0x31)
    3981              
    3982              $C$DW$422       .dwtag  DW_TAG_enumerator
    3983                      .dwattr $C$DW$422, DW_AT_name("USER_ErrorCode_pwmFreq_kHz_Low")
    3984                      .dwattr $C$DW$422, DW_AT_const_value(0x32)
    3985              
    3986              $C$DW$423       .dwtag  DW_TAG_enumerator
    3987                      .dwattr $C$DW$423, DW_AT_name("USER_ErrorCode_voltage_sf_High")
    3988                      .dwattr $C$DW$423, DW_AT_const_value(0x33)
    3989              
    3990              $C$DW$424       .dwtag  DW_TAG_enumerator
    3991                      .dwattr $C$DW$424, DW_AT_name("USER_ErrorCode_voltage_sf_Low")
    3992                      .dwattr $C$DW$424, DW_AT_const_value(0x34)
    3993              
    3994              $C$DW$425       .dwtag  DW_TAG_enumerator
    3995                      .dwattr $C$DW$425, DW_AT_name("USER_ErrorCode_current_sf_High")
    3996                      .dwattr $C$DW$425, DW_AT_const_value(0x35)
    3997              
    3998              $C$DW$426       .dwtag  DW_TAG_enumerator
    3999                      .dwattr $C$DW$426, DW_AT_name("USER_ErrorCode_current_sf_Low")
    4000                      .dwattr $C$DW$426, DW_AT_const_value(0x36)
    4001              
    4002              $C$DW$427       .dwtag  DW_TAG_enumerator
    4003                      .dwattr $C$DW$427, DW_AT_name("USER_ErrorCode_voltageFilterPole_Hz_High")
    4004                      .dwattr $C$DW$427, DW_AT_const_value(0x37)
    4005              
    4006              $C$DW$428       .dwtag  DW_TAG_enumerator
    4007                      .dwattr $C$DW$428, DW_AT_name("USER_ErrorCode_voltageFilterPole_Hz_Low")
    4008                      .dwattr $C$DW$428, DW_AT_const_value(0x38)
    4009              
    4010              $C$DW$429       .dwtag  DW_TAG_enumerator
    4011                      .dwattr $C$DW$429, DW_AT_name("USER_ErrorCode_maxVsMag_pu_High")
    4012                      .dwattr $C$DW$429, DW_AT_const_value(0x39)
    4013              
    4014              $C$DW$430       .dwtag  DW_TAG_enumerator
    4015                      .dwattr $C$DW$430, DW_AT_name("USER_ErrorCode_maxVsMag_pu_Low")
    4016                      .dwattr $C$DW$430, DW_AT_const_value(0x3a)
    4017              
    4018              $C$DW$431       .dwtag  DW_TAG_enumerator
    4019                      .dwattr $C$DW$431, DW_AT_name("USER_ErrorCode_estKappa_High")
    4020                      .dwattr $C$DW$431, DW_AT_const_value(0x3b)
    4021              
    4022              $C$DW$432       .dwtag  DW_TAG_enumerator
    4023                      .dwattr $C$DW$432, DW_AT_name("USER_ErrorCode_estKappa_Low")
    4024                      .dwattr $C$DW$432, DW_AT_const_value(0x3c)
    4025              
    4026              $C$DW$433       .dwtag  DW_TAG_enumerator
    4027                      .dwattr $C$DW$433, DW_AT_name("USER_ErrorCode_motor_type_Unknown")
    4028                      .dwattr $C$DW$433, DW_AT_const_value(0x3d)
    4029              
    4030              $C$DW$434       .dwtag  DW_TAG_enumerator
    4031                      .dwattr $C$DW$434, DW_AT_name("USER_ErrorCode_motor_numPolePairs_High")
    4032                      .dwattr $C$DW$434, DW_AT_const_value(0x3e)
    4033              
    4034              $C$DW$435       .dwtag  DW_TAG_enumerator
TMS320C2000 Assembler PC v15.12.3 Sun Oct 30 14:01:37 2016

Tools Copyright (c) 1996-2015 Texas Instruments Incorporated
C:\Users\MaCHaDo\AppData\Local\Temp\0057210                          PAGE   80

    4035                      .dwattr $C$DW$435, DW_AT_name("USER_ErrorCode_motor_numPolePairs_Low")
    4036                      .dwattr $C$DW$435, DW_AT_const_value(0x3f)
    4037              
    4038              $C$DW$436       .dwtag  DW_TAG_enumerator
    4039                      .dwattr $C$DW$436, DW_AT_name("USER_ErrorCode_motor_ratedFlux_High")
    4040                      .dwattr $C$DW$436, DW_AT_const_value(0x40)
    4041              
    4042              $C$DW$437       .dwtag  DW_TAG_enumerator
    4043                      .dwattr $C$DW$437, DW_AT_name("USER_ErrorCode_motor_ratedFlux_Low")
    4044                      .dwattr $C$DW$437, DW_AT_const_value(0x41)
    4045              
    4046              $C$DW$438       .dwtag  DW_TAG_enumerator
    4047                      .dwattr $C$DW$438, DW_AT_name("USER_ErrorCode_motor_Rr_High")
    4048                      .dwattr $C$DW$438, DW_AT_const_value(0x42)
    4049              
    4050              $C$DW$439       .dwtag  DW_TAG_enumerator
    4051                      .dwattr $C$DW$439, DW_AT_name("USER_ErrorCode_motor_Rr_Low")
    4052                      .dwattr $C$DW$439, DW_AT_const_value(0x43)
    4053              
    4054              $C$DW$440       .dwtag  DW_TAG_enumerator
    4055                      .dwattr $C$DW$440, DW_AT_name("USER_ErrorCode_motor_Rs_High")
    4056                      .dwattr $C$DW$440, DW_AT_const_value(0x44)
    4057              
    4058              $C$DW$441       .dwtag  DW_TAG_enumerator
    4059                      .dwattr $C$DW$441, DW_AT_name("USER_ErrorCode_motor_Rs_Low")
    4060                      .dwattr $C$DW$441, DW_AT_const_value(0x45)
    4061              
    4062              $C$DW$442       .dwtag  DW_TAG_enumerator
    4063                      .dwattr $C$DW$442, DW_AT_name("USER_ErrorCode_motor_Ls_d_High")
    4064                      .dwattr $C$DW$442, DW_AT_const_value(0x46)
    4065              
    4066              $C$DW$443       .dwtag  DW_TAG_enumerator
    4067                      .dwattr $C$DW$443, DW_AT_name("USER_ErrorCode_motor_Ls_d_Low")
    4068                      .dwattr $C$DW$443, DW_AT_const_value(0x47)
    4069              
    4070              $C$DW$444       .dwtag  DW_TAG_enumerator
    4071                      .dwattr $C$DW$444, DW_AT_name("USER_ErrorCode_motor_Ls_q_High")
    4072                      .dwattr $C$DW$444, DW_AT_const_value(0x48)
    4073              
    4074              $C$DW$445       .dwtag  DW_TAG_enumerator
    4075                      .dwattr $C$DW$445, DW_AT_name("USER_ErrorCode_motor_Ls_q_Low")
    4076                      .dwattr $C$DW$445, DW_AT_const_value(0x49)
    4077              
    4078              $C$DW$446       .dwtag  DW_TAG_enumerator
    4079                      .dwattr $C$DW$446, DW_AT_name("USER_ErrorCode_maxCurrent_High")
    4080                      .dwattr $C$DW$446, DW_AT_const_value(0x4a)
    4081              
    4082              $C$DW$447       .dwtag  DW_TAG_enumerator
    4083                      .dwattr $C$DW$447, DW_AT_name("USER_ErrorCode_maxCurrent_Low")
    4084                      .dwattr $C$DW$447, DW_AT_const_value(0x4b)
    4085              
    4086              $C$DW$448       .dwtag  DW_TAG_enumerator
    4087                      .dwattr $C$DW$448, DW_AT_name("USER_ErrorCode_maxCurrent_resEst_High")
    4088                      .dwattr $C$DW$448, DW_AT_const_value(0x4c)
    4089              
TMS320C2000 Assembler PC v15.12.3 Sun Oct 30 14:01:37 2016

Tools Copyright (c) 1996-2015 Texas Instruments Incorporated
C:\Users\MaCHaDo\AppData\Local\Temp\0057210                          PAGE   81

    4090              $C$DW$449       .dwtag  DW_TAG_enumerator
    4091                      .dwattr $C$DW$449, DW_AT_name("USER_ErrorCode_maxCurrent_resEst_Low")
    4092                      .dwattr $C$DW$449, DW_AT_const_value(0x4d)
    4093              
    4094              $C$DW$450       .dwtag  DW_TAG_enumerator
    4095                      .dwattr $C$DW$450, DW_AT_name("USER_ErrorCode_maxCurrent_indEst_High")
    4096                      .dwattr $C$DW$450, DW_AT_const_value(0x4e)
    4097              
    4098              $C$DW$451       .dwtag  DW_TAG_enumerator
    4099                      .dwattr $C$DW$451, DW_AT_name("USER_ErrorCode_maxCurrent_indEst_Low")
    4100                      .dwattr $C$DW$451, DW_AT_const_value(0x4f)
    4101              
    4102              $C$DW$452       .dwtag  DW_TAG_enumerator
    4103                      .dwattr $C$DW$452, DW_AT_name("USER_ErrorCode_maxCurrentSlope_High")
    4104                      .dwattr $C$DW$452, DW_AT_const_value(0x50)
    4105              
    4106              $C$DW$453       .dwtag  DW_TAG_enumerator
    4107                      .dwattr $C$DW$453, DW_AT_name("USER_ErrorCode_maxCurrentSlope_Low")
    4108                      .dwattr $C$DW$453, DW_AT_const_value(0x51)
    4109              
    4110              $C$DW$454       .dwtag  DW_TAG_enumerator
    4111                      .dwattr $C$DW$454, DW_AT_name("USER_ErrorCode_maxCurrentSlope_powerWarp_High")
    4112                      .dwattr $C$DW$454, DW_AT_const_value(0x52)
    4113              
    4114              $C$DW$455       .dwtag  DW_TAG_enumerator
    4115                      .dwattr $C$DW$455, DW_AT_name("USER_ErrorCode_maxCurrentSlope_powerWarp_Low")
    4116                      .dwattr $C$DW$455, DW_AT_const_value(0x53)
    4117              
    4118              $C$DW$456       .dwtag  DW_TAG_enumerator
    4119                      .dwattr $C$DW$456, DW_AT_name("USER_ErrorCode_IdRated_High")
    4120                      .dwattr $C$DW$456, DW_AT_const_value(0x54)
    4121              
    4122              $C$DW$457       .dwtag  DW_TAG_enumerator
    4123                      .dwattr $C$DW$457, DW_AT_name("USER_ErrorCode_IdRated_Low")
    4124                      .dwattr $C$DW$457, DW_AT_const_value(0x55)
    4125              
    4126              $C$DW$458       .dwtag  DW_TAG_enumerator
    4127                      .dwattr $C$DW$458, DW_AT_name("USER_ErrorCode_IdRatedFraction_indEst_High")
    4128                      .dwattr $C$DW$458, DW_AT_const_value(0x56)
    4129              
    4130              $C$DW$459       .dwtag  DW_TAG_enumerator
    4131                      .dwattr $C$DW$459, DW_AT_name("USER_ErrorCode_IdRatedFraction_indEst_Low")
    4132                      .dwattr $C$DW$459, DW_AT_const_value(0x57)
    4133              
    4134              $C$DW$460       .dwtag  DW_TAG_enumerator
    4135                      .dwattr $C$DW$460, DW_AT_name("USER_ErrorCode_IdRatedFraction_ratedFlux_High")
    4136                      .dwattr $C$DW$460, DW_AT_const_value(0x58)
    4137              
    4138              $C$DW$461       .dwtag  DW_TAG_enumerator
    4139                      .dwattr $C$DW$461, DW_AT_name("USER_ErrorCode_IdRatedFraction_ratedFlux_Low")
    4140                      .dwattr $C$DW$461, DW_AT_const_value(0x59)
    4141              
    4142              $C$DW$462       .dwtag  DW_TAG_enumerator
    4143                      .dwattr $C$DW$462, DW_AT_name("USER_ErrorCode_IdRated_delta_High")
    4144                      .dwattr $C$DW$462, DW_AT_const_value(0x5a)
TMS320C2000 Assembler PC v15.12.3 Sun Oct 30 14:01:37 2016

Tools Copyright (c) 1996-2015 Texas Instruments Incorporated
C:\Users\MaCHaDo\AppData\Local\Temp\0057210                          PAGE   82

    4145              
    4146              $C$DW$463       .dwtag  DW_TAG_enumerator
    4147                      .dwattr $C$DW$463, DW_AT_name("USER_ErrorCode_IdRated_delta_Low")
    4148                      .dwattr $C$DW$463, DW_AT_const_value(0x5b)
    4149              
    4150              $C$DW$464       .dwtag  DW_TAG_enumerator
    4151                      .dwattr $C$DW$464, DW_AT_name("USER_ErrorCode_fluxEstFreq_Hz_High")
    4152                      .dwattr $C$DW$464, DW_AT_const_value(0x5c)
    4153              
    4154              $C$DW$465       .dwtag  DW_TAG_enumerator
    4155                      .dwattr $C$DW$465, DW_AT_name("USER_ErrorCode_fluxEstFreq_Hz_Low")
    4156                      .dwattr $C$DW$465, DW_AT_const_value(0x5d)
    4157              
    4158              $C$DW$466       .dwtag  DW_TAG_enumerator
    4159                      .dwattr $C$DW$466, DW_AT_name("USER_ErrorCode_ctrlFreq_Hz_High")
    4160                      .dwattr $C$DW$466, DW_AT_const_value(0x5e)
    4161              
    4162              $C$DW$467       .dwtag  DW_TAG_enumerator
    4163                      .dwattr $C$DW$467, DW_AT_name("USER_ErrorCode_ctrlFreq_Hz_Low")
    4164                      .dwattr $C$DW$467, DW_AT_const_value(0x5f)
    4165              
    4166              $C$DW$468       .dwtag  DW_TAG_enumerator
    4167                      .dwattr $C$DW$468, DW_AT_name("USER_ErrorCode_estFreq_Hz_High")
    4168                      .dwattr $C$DW$468, DW_AT_const_value(0x60)
    4169              
    4170              $C$DW$469       .dwtag  DW_TAG_enumerator
    4171                      .dwattr $C$DW$469, DW_AT_name("USER_ErrorCode_estFreq_Hz_Low")
    4172                      .dwattr $C$DW$469, DW_AT_const_value(0x61)
    4173              
    4174              $C$DW$470       .dwtag  DW_TAG_enumerator
    4175                      .dwattr $C$DW$470, DW_AT_name("USER_ErrorCode_RoverL_estFreq_Hz_High")
    4176                      .dwattr $C$DW$470, DW_AT_const_value(0x62)
    4177              
    4178              $C$DW$471       .dwtag  DW_TAG_enumerator
    4179                      .dwattr $C$DW$471, DW_AT_name("USER_ErrorCode_RoverL_estFreq_Hz_Low")
    4180                      .dwattr $C$DW$471, DW_AT_const_value(0x63)
    4181              
    4182              $C$DW$472       .dwtag  DW_TAG_enumerator
    4183                      .dwattr $C$DW$472, DW_AT_name("USER_ErrorCode_trajFreq_Hz_High")
    4184                      .dwattr $C$DW$472, DW_AT_const_value(0x64)
    4185              
    4186              $C$DW$473       .dwtag  DW_TAG_enumerator
    4187                      .dwattr $C$DW$473, DW_AT_name("USER_ErrorCode_trajFreq_Hz_Low")
    4188                      .dwattr $C$DW$473, DW_AT_const_value(0x65)
    4189              
    4190              $C$DW$474       .dwtag  DW_TAG_enumerator
    4191                      .dwattr $C$DW$474, DW_AT_name("USER_ErrorCode_ctrlPeriod_sec_High")
    4192                      .dwattr $C$DW$474, DW_AT_const_value(0x66)
    4193              
    4194              $C$DW$475       .dwtag  DW_TAG_enumerator
    4195                      .dwattr $C$DW$475, DW_AT_name("USER_ErrorCode_ctrlPeriod_sec_Low")
    4196                      .dwattr $C$DW$475, DW_AT_const_value(0x67)
    4197              
    4198              $C$DW$476       .dwtag  DW_TAG_enumerator
    4199                      .dwattr $C$DW$476, DW_AT_name("USER_ErrorCode_maxNegativeIdCurrent_a_High")
TMS320C2000 Assembler PC v15.12.3 Sun Oct 30 14:01:37 2016

Tools Copyright (c) 1996-2015 Texas Instruments Incorporated
C:\Users\MaCHaDo\AppData\Local\Temp\0057210                          PAGE   83

    4200                      .dwattr $C$DW$476, DW_AT_const_value(0x68)
    4201              
    4202              $C$DW$477       .dwtag  DW_TAG_enumerator
    4203                      .dwattr $C$DW$477, DW_AT_name("USER_ErrorCode_maxNegativeIdCurrent_a_Low")
    4204                      .dwattr $C$DW$477, DW_AT_const_value(0x69)
    4205              
    4206              $C$DW$478       .dwtag  DW_TAG_enumerator
    4207                      .dwattr $C$DW$478, DW_AT_name("USER_numErrorCodes")
    4208                      .dwattr $C$DW$478, DW_AT_const_value(0x6a)
    4209              
    4210                      .dwendtag $C$DW$T$165
    4211              
    4212              $C$DW$T$166     .dwtag  DW_TAG_typedef
    4213                      .dwattr $C$DW$T$166, DW_AT_name("USER_ErrorCode_e")
    4214                      .dwattr $C$DW$T$166, DW_AT_type(*$C$DW$T$165)
    4215                      .dwattr $C$DW$T$166, DW_AT_language(DW_LANG_C)
    4216              
    4217              
    4218              $C$DW$T$211     .dwtag  DW_TAG_enumeration_type
    4219                      .dwattr $C$DW$T$211, DW_AT_byte_size(0x01)
    4220              $C$DW$479       .dwtag  DW_TAG_enumerator
    4221                      .dwattr $C$DW$479, DW_AT_name("ADC_IntNumber_1")
    4222                      .dwattr $C$DW$479, DW_AT_const_value(0x00)
    4223              
    4224              $C$DW$480       .dwtag  DW_TAG_enumerator
    4225                      .dwattr $C$DW$480, DW_AT_name("ADC_IntNumber_2")
    4226                      .dwattr $C$DW$480, DW_AT_const_value(0x01)
    4227              
    4228              $C$DW$481       .dwtag  DW_TAG_enumerator
    4229                      .dwattr $C$DW$481, DW_AT_name("ADC_IntNumber_3")
    4230                      .dwattr $C$DW$481, DW_AT_const_value(0x02)
    4231              
    4232              $C$DW$482       .dwtag  DW_TAG_enumerator
    4233                      .dwattr $C$DW$482, DW_AT_name("ADC_IntNumber_4")
    4234                      .dwattr $C$DW$482, DW_AT_const_value(0x03)
    4235              
    4236              $C$DW$483       .dwtag  DW_TAG_enumerator
    4237                      .dwattr $C$DW$483, DW_AT_name("ADC_IntNumber_5")
    4238                      .dwattr $C$DW$483, DW_AT_const_value(0x04)
    4239              
    4240              $C$DW$484       .dwtag  DW_TAG_enumerator
    4241                      .dwattr $C$DW$484, DW_AT_name("ADC_IntNumber_6")
    4242                      .dwattr $C$DW$484, DW_AT_const_value(0x05)
    4243              
    4244              $C$DW$485       .dwtag  DW_TAG_enumerator
    4245                      .dwattr $C$DW$485, DW_AT_name("ADC_IntNumber_7")
    4246                      .dwattr $C$DW$485, DW_AT_const_value(0x06)
    4247              
    4248              $C$DW$486       .dwtag  DW_TAG_enumerator
    4249                      .dwattr $C$DW$486, DW_AT_name("ADC_IntNumber_8")
    4250                      .dwattr $C$DW$486, DW_AT_const_value(0x07)
    4251              
    4252              $C$DW$487       .dwtag  DW_TAG_enumerator
    4253                      .dwattr $C$DW$487, DW_AT_name("ADC_IntNumber_9")
    4254                      .dwattr $C$DW$487, DW_AT_const_value(0x08)
TMS320C2000 Assembler PC v15.12.3 Sun Oct 30 14:01:37 2016

Tools Copyright (c) 1996-2015 Texas Instruments Incorporated
C:\Users\MaCHaDo\AppData\Local\Temp\0057210                          PAGE   84

    4255              
    4256              $C$DW$488       .dwtag  DW_TAG_enumerator
    4257                      .dwattr $C$DW$488, DW_AT_name("ADC_IntNumber_1HP")
    4258                      .dwattr $C$DW$488, DW_AT_const_value(0x09)
    4259              
    4260              $C$DW$489       .dwtag  DW_TAG_enumerator
    4261                      .dwattr $C$DW$489, DW_AT_name("ADC_IntNumber_2HP")
    4262                      .dwattr $C$DW$489, DW_AT_const_value(0x0a)
    4263              
    4264              $C$DW$490       .dwtag  DW_TAG_enumerator
    4265                      .dwattr $C$DW$490, DW_AT_name("ADC_IntNumber_9HP")
    4266                      .dwattr $C$DW$490, DW_AT_const_value(0x0e)
    4267              
    4268                      .dwendtag $C$DW$T$211
    4269              
    4270              $C$DW$T$212     .dwtag  DW_TAG_typedef
    4271                      .dwattr $C$DW$T$212, DW_AT_name("ADC_IntNumber_e")
    4272                      .dwattr $C$DW$T$212, DW_AT_type(*$C$DW$T$211)
    4273                      .dwattr $C$DW$T$212, DW_AT_language(DW_LANG_C)
    4274              
    4275              
    4276              $C$DW$T$214     .dwtag  DW_TAG_enumeration_type
    4277                      .dwattr $C$DW$T$214, DW_AT_byte_size(0x01)
    4278              $C$DW$491       .dwtag  DW_TAG_enumerator
    4279                      .dwattr $C$DW$491, DW_AT_name("ADC_ResultNumber_0")
    4280                      .dwattr $C$DW$491, DW_AT_const_value(0x00)
    4281              
    4282              $C$DW$492       .dwtag  DW_TAG_enumerator
    4283                      .dwattr $C$DW$492, DW_AT_name("ADC_ResultNumber_1")
    4284                      .dwattr $C$DW$492, DW_AT_const_value(0x01)
    4285              
    4286              $C$DW$493       .dwtag  DW_TAG_enumerator
    4287                      .dwattr $C$DW$493, DW_AT_name("ADC_ResultNumber_2")
    4288                      .dwattr $C$DW$493, DW_AT_const_value(0x02)
    4289              
    4290              $C$DW$494       .dwtag  DW_TAG_enumerator
    4291                      .dwattr $C$DW$494, DW_AT_name("ADC_ResultNumber_3")
    4292                      .dwattr $C$DW$494, DW_AT_const_value(0x03)
    4293              
    4294              $C$DW$495       .dwtag  DW_TAG_enumerator
    4295                      .dwattr $C$DW$495, DW_AT_name("ADC_ResultNumber_4")
    4296                      .dwattr $C$DW$495, DW_AT_const_value(0x04)
    4297              
    4298              $C$DW$496       .dwtag  DW_TAG_enumerator
    4299                      .dwattr $C$DW$496, DW_AT_name("ADC_ResultNumber_5")
    4300                      .dwattr $C$DW$496, DW_AT_const_value(0x05)
    4301              
    4302              $C$DW$497       .dwtag  DW_TAG_enumerator
    4303                      .dwattr $C$DW$497, DW_AT_name("ADC_ResultNumber_6")
    4304                      .dwattr $C$DW$497, DW_AT_const_value(0x06)
    4305              
    4306              $C$DW$498       .dwtag  DW_TAG_enumerator
    4307                      .dwattr $C$DW$498, DW_AT_name("ADC_ResultNumber_7")
    4308                      .dwattr $C$DW$498, DW_AT_const_value(0x07)
    4309              
TMS320C2000 Assembler PC v15.12.3 Sun Oct 30 14:01:37 2016

Tools Copyright (c) 1996-2015 Texas Instruments Incorporated
C:\Users\MaCHaDo\AppData\Local\Temp\0057210                          PAGE   85

    4310              $C$DW$499       .dwtag  DW_TAG_enumerator
    4311                      .dwattr $C$DW$499, DW_AT_name("ADC_ResultNumber_8")
    4312                      .dwattr $C$DW$499, DW_AT_const_value(0x08)
    4313              
    4314              $C$DW$500       .dwtag  DW_TAG_enumerator
    4315                      .dwattr $C$DW$500, DW_AT_name("ADC_ResultNumber_9")
    4316                      .dwattr $C$DW$500, DW_AT_const_value(0x09)
    4317              
    4318              $C$DW$501       .dwtag  DW_TAG_enumerator
    4319                      .dwattr $C$DW$501, DW_AT_name("ADC_ResultNumber_10")
    4320                      .dwattr $C$DW$501, DW_AT_const_value(0x0a)
    4321              
    4322              $C$DW$502       .dwtag  DW_TAG_enumerator
    4323                      .dwattr $C$DW$502, DW_AT_name("ADC_ResultNumber_11")
    4324                      .dwattr $C$DW$502, DW_AT_const_value(0x0b)
    4325              
    4326              $C$DW$503       .dwtag  DW_TAG_enumerator
    4327                      .dwattr $C$DW$503, DW_AT_name("ADC_ResultNumber_12")
    4328                      .dwattr $C$DW$503, DW_AT_const_value(0x0c)
    4329              
    4330              $C$DW$504       .dwtag  DW_TAG_enumerator
    4331                      .dwattr $C$DW$504, DW_AT_name("ADC_ResultNumber_13")
    4332                      .dwattr $C$DW$504, DW_AT_const_value(0x0d)
    4333              
    4334              $C$DW$505       .dwtag  DW_TAG_enumerator
    4335                      .dwattr $C$DW$505, DW_AT_name("ADC_ResultNumber_14")
    4336                      .dwattr $C$DW$505, DW_AT_const_value(0x0e)
    4337              
    4338              $C$DW$506       .dwtag  DW_TAG_enumerator
    4339                      .dwattr $C$DW$506, DW_AT_name("ADC_ResultNumber_15")
    4340                      .dwattr $C$DW$506, DW_AT_const_value(0x0f)
    4341              
    4342                      .dwendtag $C$DW$T$214
    4343              
    4344              $C$DW$T$215     .dwtag  DW_TAG_typedef
    4345                      .dwattr $C$DW$T$215, DW_AT_name("ADC_ResultNumber_e")
    4346                      .dwattr $C$DW$T$215, DW_AT_type(*$C$DW$T$214)
    4347                      .dwattr $C$DW$T$215, DW_AT_language(DW_LANG_C)
    4348              
    4349              
    4350              $C$DW$T$217     .dwtag  DW_TAG_enumeration_type
    4351                      .dwattr $C$DW$T$217, DW_AT_byte_size(0x01)
    4352              $C$DW$507       .dwtag  DW_TAG_enumerator
    4353                      .dwattr $C$DW$507, DW_AT_name("PIE_GroupNumber_1")
    4354                      .dwattr $C$DW$507, DW_AT_const_value(0x00)
    4355              
    4356              $C$DW$508       .dwtag  DW_TAG_enumerator
    4357                      .dwattr $C$DW$508, DW_AT_name("PIE_GroupNumber_2")
    4358                      .dwattr $C$DW$508, DW_AT_const_value(0x01)
    4359              
    4360              $C$DW$509       .dwtag  DW_TAG_enumerator
    4361                      .dwattr $C$DW$509, DW_AT_name("PIE_GroupNumber_3")
    4362                      .dwattr $C$DW$509, DW_AT_const_value(0x02)
    4363              
    4364              $C$DW$510       .dwtag  DW_TAG_enumerator
TMS320C2000 Assembler PC v15.12.3 Sun Oct 30 14:01:37 2016

Tools Copyright (c) 1996-2015 Texas Instruments Incorporated
C:\Users\MaCHaDo\AppData\Local\Temp\0057210                          PAGE   86

    4365                      .dwattr $C$DW$510, DW_AT_name("PIE_GroupNumber_4")
    4366                      .dwattr $C$DW$510, DW_AT_const_value(0x03)
    4367              
    4368              $C$DW$511       .dwtag  DW_TAG_enumerator
    4369                      .dwattr $C$DW$511, DW_AT_name("PIE_GroupNumber_5")
    4370                      .dwattr $C$DW$511, DW_AT_const_value(0x04)
    4371              
    4372              $C$DW$512       .dwtag  DW_TAG_enumerator
    4373                      .dwattr $C$DW$512, DW_AT_name("PIE_GroupNumber_6")
    4374                      .dwattr $C$DW$512, DW_AT_const_value(0x05)
    4375              
    4376              $C$DW$513       .dwtag  DW_TAG_enumerator
    4377                      .dwattr $C$DW$513, DW_AT_name("PIE_GroupNumber_7")
    4378                      .dwattr $C$DW$513, DW_AT_const_value(0x06)
    4379              
    4380              $C$DW$514       .dwtag  DW_TAG_enumerator
    4381                      .dwattr $C$DW$514, DW_AT_name("PIE_GroupNumber_8")
    4382                      .dwattr $C$DW$514, DW_AT_const_value(0x07)
    4383              
    4384              $C$DW$515       .dwtag  DW_TAG_enumerator
    4385                      .dwattr $C$DW$515, DW_AT_name("PIE_GroupNumber_9")
    4386                      .dwattr $C$DW$515, DW_AT_const_value(0x08)
    4387              
    4388              $C$DW$516       .dwtag  DW_TAG_enumerator
    4389                      .dwattr $C$DW$516, DW_AT_name("PIE_GroupNumber_10")
    4390                      .dwattr $C$DW$516, DW_AT_const_value(0x09)
    4391              
    4392              $C$DW$517       .dwtag  DW_TAG_enumerator
    4393                      .dwattr $C$DW$517, DW_AT_name("PIE_GroupNumber_11")
    4394                      .dwattr $C$DW$517, DW_AT_const_value(0x0a)
    4395              
    4396              $C$DW$518       .dwtag  DW_TAG_enumerator
    4397                      .dwattr $C$DW$518, DW_AT_name("PIE_GroupNumber_12")
    4398                      .dwattr $C$DW$518, DW_AT_const_value(0x0b)
    4399              
    4400                      .dwendtag $C$DW$T$217
    4401              
    4402              $C$DW$T$218     .dwtag  DW_TAG_typedef
    4403                      .dwattr $C$DW$T$218, DW_AT_name("PIE_GroupNumber_e")
    4404                      .dwattr $C$DW$T$218, DW_AT_type(*$C$DW$T$217)
    4405                      .dwattr $C$DW$T$218, DW_AT_language(DW_LANG_C)
    4406              
    4407              
    4408              $C$DW$T$220     .dwtag  DW_TAG_enumeration_type
    4409                      .dwattr $C$DW$T$220, DW_AT_byte_size(0x01)
    4410              $C$DW$519       .dwtag  DW_TAG_enumerator
    4411                      .dwattr $C$DW$519, DW_AT_name("SCI_FifoStatus_Empty")
    4412                      .dwattr $C$DW$519, DW_AT_const_value(0x00)
    4413              
    4414              $C$DW$520       .dwtag  DW_TAG_enumerator
    4415                      .dwattr $C$DW$520, DW_AT_name("SCI_FifoStatus_1_Word")
    4416                      .dwattr $C$DW$520, DW_AT_const_value(0x100)
    4417              
    4418              $C$DW$521       .dwtag  DW_TAG_enumerator
    4419                      .dwattr $C$DW$521, DW_AT_name("SCI_FifoStatus_2_Words")
TMS320C2000 Assembler PC v15.12.3 Sun Oct 30 14:01:37 2016

Tools Copyright (c) 1996-2015 Texas Instruments Incorporated
C:\Users\MaCHaDo\AppData\Local\Temp\0057210                          PAGE   87

    4420                      .dwattr $C$DW$521, DW_AT_const_value(0x200)
    4421              
    4422              $C$DW$522       .dwtag  DW_TAG_enumerator
    4423                      .dwattr $C$DW$522, DW_AT_name("SCI_FifoStatus_3_Words")
    4424                      .dwattr $C$DW$522, DW_AT_const_value(0x300)
    4425              
    4426              $C$DW$523       .dwtag  DW_TAG_enumerator
    4427                      .dwattr $C$DW$523, DW_AT_name("SCI_FifoStatus_4_Words")
    4428                      .dwattr $C$DW$523, DW_AT_const_value(0x400)
    4429              
    4430                      .dwendtag $C$DW$T$220
    4431              
    4432              $C$DW$T$221     .dwtag  DW_TAG_typedef
    4433                      .dwattr $C$DW$T$221, DW_AT_name("SCI_FifoStatus_e")
    4434                      .dwattr $C$DW$T$221, DW_AT_type(*$C$DW$T$220)
    4435                      .dwattr $C$DW$T$221, DW_AT_language(DW_LANG_C)
    4436              
    4437              
    4438              $C$DW$T$225     .dwtag  DW_TAG_enumeration_type
    4439                      .dwattr $C$DW$T$225, DW_AT_byte_size(0x01)
    4440              $C$DW$524       .dwtag  DW_TAG_enumerator
    4441                      .dwattr $C$DW$524, DW_AT_name("HAL_SensorType_Current")
    4442                      .dwattr $C$DW$524, DW_AT_const_value(0x00)
    4443              
    4444              $C$DW$525       .dwtag  DW_TAG_enumerator
    4445                      .dwattr $C$DW$525, DW_AT_name("HAL_SensorType_Voltage")
    4446                      .dwattr $C$DW$525, DW_AT_const_value(0x01)
    4447              
    4448              $C$DW$526       .dwtag  DW_TAG_enumerator
    4449                      .dwattr $C$DW$526, DW_AT_name("HAL_SensorType_BusCurrent")
    4450                      .dwattr $C$DW$526, DW_AT_const_value(0x02)
    4451              
    4452                      .dwendtag $C$DW$T$225
    4453              
    4454              $C$DW$T$226     .dwtag  DW_TAG_typedef
    4455                      .dwattr $C$DW$T$226, DW_AT_name("HAL_SensorType_e")
    4456                      .dwattr $C$DW$T$226, DW_AT_type(*$C$DW$T$225)
    4457                      .dwattr $C$DW$T$226, DW_AT_language(DW_LANG_C)
    4458              
    4459              
    4460              $C$DW$T$30      .dwtag  DW_TAG_structure_type
    4461                      .dwattr $C$DW$T$30, DW_AT_name("_ADC_Obj_")
    4462                      .dwattr $C$DW$T$30, DW_AT_byte_size(0x6650)
    4463              $C$DW$527       .dwtag  DW_TAG_member
    4464                      .dwattr $C$DW$527, DW_AT_type(*$C$DW$T$24)
    4465                      .dwattr $C$DW$527, DW_AT_name("ADCRESULT")
    4466                      .dwattr $C$DW$527, DW_AT_TI_symbol_name("_ADCRESULT")
    4467                      .dwattr $C$DW$527, DW_AT_data_member_location[DW_OP_plus_uconst 0x0]
    4468                      .dwattr $C$DW$527, DW_AT_accessibility(DW_ACCESS_public)
    4469              
    4470              $C$DW$528       .dwtag  DW_TAG_member
    4471                      .dwattr $C$DW$528, DW_AT_type(*$C$DW$T$25)
    4472                      .dwattr $C$DW$528, DW_AT_name("resvd_1")
    4473                      .dwattr $C$DW$528, DW_AT_TI_symbol_name("_resvd_1")
    4474                      .dwattr $C$DW$528, DW_AT_data_member_location[DW_OP_plus_uconst 0x10]
TMS320C2000 Assembler PC v15.12.3 Sun Oct 30 14:01:37 2016

Tools Copyright (c) 1996-2015 Texas Instruments Incorporated
C:\Users\MaCHaDo\AppData\Local\Temp\0057210                          PAGE   88

    4475                      .dwattr $C$DW$528, DW_AT_accessibility(DW_ACCESS_public)
    4476              
    4477              $C$DW$529       .dwtag  DW_TAG_member
    4478                      .dwattr $C$DW$529, DW_AT_type(*$C$DW$T$23)
    4479                      .dwattr $C$DW$529, DW_AT_name("ADCCTL1")
    4480                      .dwattr $C$DW$529, DW_AT_TI_symbol_name("_ADCCTL1")
    4481                      .dwattr $C$DW$529, DW_AT_data_member_location[DW_OP_plus_uconst 0x6600]
    4482                      .dwattr $C$DW$529, DW_AT_accessibility(DW_ACCESS_public)
    4483              
    4484              $C$DW$530       .dwtag  DW_TAG_member
    4485                      .dwattr $C$DW$530, DW_AT_type(*$C$DW$T$23)
    4486                      .dwattr $C$DW$530, DW_AT_name("ADCCTL2")
    4487                      .dwattr $C$DW$530, DW_AT_TI_symbol_name("_ADCCTL2")
    4488                      .dwattr $C$DW$530, DW_AT_data_member_location[DW_OP_plus_uconst 0x6601]
    4489                      .dwattr $C$DW$530, DW_AT_accessibility(DW_ACCESS_public)
    4490              
    4491              $C$DW$531       .dwtag  DW_TAG_member
    4492                      .dwattr $C$DW$531, DW_AT_type(*$C$DW$T$26)
    4493                      .dwattr $C$DW$531, DW_AT_name("rsvd_2")
    4494                      .dwattr $C$DW$531, DW_AT_TI_symbol_name("_rsvd_2")
    4495                      .dwattr $C$DW$531, DW_AT_data_member_location[DW_OP_plus_uconst 0x6602]
    4496                      .dwattr $C$DW$531, DW_AT_accessibility(DW_ACCESS_public)
    4497              
    4498              $C$DW$532       .dwtag  DW_TAG_member
    4499                      .dwattr $C$DW$532, DW_AT_type(*$C$DW$T$23)
    4500                      .dwattr $C$DW$532, DW_AT_name("ADCINTFLG")
    4501                      .dwattr $C$DW$532, DW_AT_TI_symbol_name("_ADCINTFLG")
    4502                      .dwattr $C$DW$532, DW_AT_data_member_location[DW_OP_plus_uconst 0x6604]
    4503                      .dwattr $C$DW$532, DW_AT_accessibility(DW_ACCESS_public)
    4504              
    4505              $C$DW$533       .dwtag  DW_TAG_member
    4506                      .dwattr $C$DW$533, DW_AT_type(*$C$DW$T$23)
    4507                      .dwattr $C$DW$533, DW_AT_name("ADCINTFLGCLR")
    4508                      .dwattr $C$DW$533, DW_AT_TI_symbol_name("_ADCINTFLGCLR")
    4509                      .dwattr $C$DW$533, DW_AT_data_member_location[DW_OP_plus_uconst 0x6605]
    4510                      .dwattr $C$DW$533, DW_AT_accessibility(DW_ACCESS_public)
    4511              
    4512              $C$DW$534       .dwtag  DW_TAG_member
    4513                      .dwattr $C$DW$534, DW_AT_type(*$C$DW$T$23)
    4514                      .dwattr $C$DW$534, DW_AT_name("ADCINTOVF")
    4515                      .dwattr $C$DW$534, DW_AT_TI_symbol_name("_ADCINTOVF")
    4516                      .dwattr $C$DW$534, DW_AT_data_member_location[DW_OP_plus_uconst 0x6606]
    4517                      .dwattr $C$DW$534, DW_AT_accessibility(DW_ACCESS_public)
    4518              
    4519              $C$DW$535       .dwtag  DW_TAG_member
    4520                      .dwattr $C$DW$535, DW_AT_type(*$C$DW$T$23)
    4521                      .dwattr $C$DW$535, DW_AT_name("ADCINTOVFCLR")
    4522                      .dwattr $C$DW$535, DW_AT_TI_symbol_name("_ADCINTOVFCLR")
    4523                      .dwattr $C$DW$535, DW_AT_data_member_location[DW_OP_plus_uconst 0x6607]
    4524                      .dwattr $C$DW$535, DW_AT_accessibility(DW_ACCESS_public)
    4525              
    4526              $C$DW$536       .dwtag  DW_TAG_member
    4527                      .dwattr $C$DW$536, DW_AT_type(*$C$DW$T$27)
    4528                      .dwattr $C$DW$536, DW_AT_name("INTSELxNy")
    4529                      .dwattr $C$DW$536, DW_AT_TI_symbol_name("_INTSELxNy")
TMS320C2000 Assembler PC v15.12.3 Sun Oct 30 14:01:37 2016

Tools Copyright (c) 1996-2015 Texas Instruments Incorporated
C:\Users\MaCHaDo\AppData\Local\Temp\0057210                          PAGE   89

    4530                      .dwattr $C$DW$536, DW_AT_data_member_location[DW_OP_plus_uconst 0x6608]
    4531                      .dwattr $C$DW$536, DW_AT_accessibility(DW_ACCESS_public)
    4532              
    4533              $C$DW$537       .dwtag  DW_TAG_member
    4534                      .dwattr $C$DW$537, DW_AT_type(*$C$DW$T$28)
    4535                      .dwattr $C$DW$537, DW_AT_name("rsvd_3")
    4536                      .dwattr $C$DW$537, DW_AT_TI_symbol_name("_rsvd_3")
    4537                      .dwattr $C$DW$537, DW_AT_data_member_location[DW_OP_plus_uconst 0x660d]
    4538                      .dwattr $C$DW$537, DW_AT_accessibility(DW_ACCESS_public)
    4539              
    4540              $C$DW$538       .dwtag  DW_TAG_member
    4541                      .dwattr $C$DW$538, DW_AT_type(*$C$DW$T$23)
    4542                      .dwattr $C$DW$538, DW_AT_name("SOCPRICTRL")
    4543                      .dwattr $C$DW$538, DW_AT_TI_symbol_name("_SOCPRICTRL")
    4544                      .dwattr $C$DW$538, DW_AT_data_member_location[DW_OP_plus_uconst 0x6610]
    4545                      .dwattr $C$DW$538, DW_AT_accessibility(DW_ACCESS_public)
    4546              
    4547              $C$DW$539       .dwtag  DW_TAG_member
    4548                      .dwattr $C$DW$539, DW_AT_type(*$C$DW$T$23)
    4549                      .dwattr $C$DW$539, DW_AT_name("rsvd_4")
    4550                      .dwattr $C$DW$539, DW_AT_TI_symbol_name("_rsvd_4")
    4551                      .dwattr $C$DW$539, DW_AT_data_member_location[DW_OP_plus_uconst 0x6611]
    4552                      .dwattr $C$DW$539, DW_AT_accessibility(DW_ACCESS_public)
    4553              
    4554              $C$DW$540       .dwtag  DW_TAG_member
    4555                      .dwattr $C$DW$540, DW_AT_type(*$C$DW$T$23)
    4556                      .dwattr $C$DW$540, DW_AT_name("ADCSAMPLEMODE")
    4557                      .dwattr $C$DW$540, DW_AT_TI_symbol_name("_ADCSAMPLEMODE")
    4558                      .dwattr $C$DW$540, DW_AT_data_member_location[DW_OP_plus_uconst 0x6612]
    4559                      .dwattr $C$DW$540, DW_AT_accessibility(DW_ACCESS_public)
    4560              
    4561              $C$DW$541       .dwtag  DW_TAG_member
    4562                      .dwattr $C$DW$541, DW_AT_type(*$C$DW$T$23)
    4563                      .dwattr $C$DW$541, DW_AT_name("rsvd_5")
    4564                      .dwattr $C$DW$541, DW_AT_TI_symbol_name("_rsvd_5")
    4565                      .dwattr $C$DW$541, DW_AT_data_member_location[DW_OP_plus_uconst 0x6613]
    4566                      .dwattr $C$DW$541, DW_AT_accessibility(DW_ACCESS_public)
    4567              
    4568              $C$DW$542       .dwtag  DW_TAG_member
    4569                      .dwattr $C$DW$542, DW_AT_type(*$C$DW$T$23)
    4570                      .dwattr $C$DW$542, DW_AT_name("ADCINTSOCSEL1")
    4571                      .dwattr $C$DW$542, DW_AT_TI_symbol_name("_ADCINTSOCSEL1")
    4572                      .dwattr $C$DW$542, DW_AT_data_member_location[DW_OP_plus_uconst 0x6614]
    4573                      .dwattr $C$DW$542, DW_AT_accessibility(DW_ACCESS_public)
    4574              
    4575              $C$DW$543       .dwtag  DW_TAG_member
    4576                      .dwattr $C$DW$543, DW_AT_type(*$C$DW$T$23)
    4577                      .dwattr $C$DW$543, DW_AT_name("ADCINTSOCSEL2")
    4578                      .dwattr $C$DW$543, DW_AT_TI_symbol_name("_ADCINTSOCSEL2")
    4579                      .dwattr $C$DW$543, DW_AT_data_member_location[DW_OP_plus_uconst 0x6615]
    4580                      .dwattr $C$DW$543, DW_AT_accessibility(DW_ACCESS_public)
    4581              
    4582              $C$DW$544       .dwtag  DW_TAG_member
    4583                      .dwattr $C$DW$544, DW_AT_type(*$C$DW$T$26)
    4584                      .dwattr $C$DW$544, DW_AT_name("rsvd_6")
TMS320C2000 Assembler PC v15.12.3 Sun Oct 30 14:01:37 2016

Tools Copyright (c) 1996-2015 Texas Instruments Incorporated
C:\Users\MaCHaDo\AppData\Local\Temp\0057210                          PAGE   90

    4585                      .dwattr $C$DW$544, DW_AT_TI_symbol_name("_rsvd_6")
    4586                      .dwattr $C$DW$544, DW_AT_data_member_location[DW_OP_plus_uconst 0x6616]
    4587                      .dwattr $C$DW$544, DW_AT_accessibility(DW_ACCESS_public)
    4588              
    4589              $C$DW$545       .dwtag  DW_TAG_member
    4590                      .dwattr $C$DW$545, DW_AT_type(*$C$DW$T$23)
    4591                      .dwattr $C$DW$545, DW_AT_name("ADCSOCFLG1")
    4592                      .dwattr $C$DW$545, DW_AT_TI_symbol_name("_ADCSOCFLG1")
    4593                      .dwattr $C$DW$545, DW_AT_data_member_location[DW_OP_plus_uconst 0x6618]
    4594                      .dwattr $C$DW$545, DW_AT_accessibility(DW_ACCESS_public)
    4595              
    4596              $C$DW$546       .dwtag  DW_TAG_member
    4597                      .dwattr $C$DW$546, DW_AT_type(*$C$DW$T$23)
    4598                      .dwattr $C$DW$546, DW_AT_name("rsvd_7")
    4599                      .dwattr $C$DW$546, DW_AT_TI_symbol_name("_rsvd_7")
    4600                      .dwattr $C$DW$546, DW_AT_data_member_location[DW_OP_plus_uconst 0x6619]
    4601                      .dwattr $C$DW$546, DW_AT_accessibility(DW_ACCESS_public)
    4602              
    4603              $C$DW$547       .dwtag  DW_TAG_member
    4604                      .dwattr $C$DW$547, DW_AT_type(*$C$DW$T$23)
    4605                      .dwattr $C$DW$547, DW_AT_name("ADCSOCFRC1")
    4606                      .dwattr $C$DW$547, DW_AT_TI_symbol_name("_ADCSOCFRC1")
    4607                      .dwattr $C$DW$547, DW_AT_data_member_location[DW_OP_plus_uconst 0x661a]
    4608                      .dwattr $C$DW$547, DW_AT_accessibility(DW_ACCESS_public)
    4609              
    4610              $C$DW$548       .dwtag  DW_TAG_member
    4611                      .dwattr $C$DW$548, DW_AT_type(*$C$DW$T$23)
    4612                      .dwattr $C$DW$548, DW_AT_name("rsvd_8")
    4613                      .dwattr $C$DW$548, DW_AT_TI_symbol_name("_rsvd_8")
    4614                      .dwattr $C$DW$548, DW_AT_data_member_location[DW_OP_plus_uconst 0x661b]
    4615                      .dwattr $C$DW$548, DW_AT_accessibility(DW_ACCESS_public)
    4616              
    4617              $C$DW$549       .dwtag  DW_TAG_member
    4618                      .dwattr $C$DW$549, DW_AT_type(*$C$DW$T$23)
    4619                      .dwattr $C$DW$549, DW_AT_name("ADCSOCOVF1")
    4620                      .dwattr $C$DW$549, DW_AT_TI_symbol_name("_ADCSOCOVF1")
    4621                      .dwattr $C$DW$549, DW_AT_data_member_location[DW_OP_plus_uconst 0x661c]
    4622                      .dwattr $C$DW$549, DW_AT_accessibility(DW_ACCESS_public)
    4623              
    4624              $C$DW$550       .dwtag  DW_TAG_member
    4625                      .dwattr $C$DW$550, DW_AT_type(*$C$DW$T$23)
    4626                      .dwattr $C$DW$550, DW_AT_name("rsvd_9")
    4627                      .dwattr $C$DW$550, DW_AT_TI_symbol_name("_rsvd_9")
    4628                      .dwattr $C$DW$550, DW_AT_data_member_location[DW_OP_plus_uconst 0x661d]
    4629                      .dwattr $C$DW$550, DW_AT_accessibility(DW_ACCESS_public)
    4630              
    4631              $C$DW$551       .dwtag  DW_TAG_member
    4632                      .dwattr $C$DW$551, DW_AT_type(*$C$DW$T$23)
    4633                      .dwattr $C$DW$551, DW_AT_name("ADCSOCOVFCLR1")
    4634                      .dwattr $C$DW$551, DW_AT_TI_symbol_name("_ADCSOCOVFCLR1")
    4635                      .dwattr $C$DW$551, DW_AT_data_member_location[DW_OP_plus_uconst 0x661e]
    4636                      .dwattr $C$DW$551, DW_AT_accessibility(DW_ACCESS_public)
    4637              
    4638              $C$DW$552       .dwtag  DW_TAG_member
    4639                      .dwattr $C$DW$552, DW_AT_type(*$C$DW$T$23)
TMS320C2000 Assembler PC v15.12.3 Sun Oct 30 14:01:37 2016

Tools Copyright (c) 1996-2015 Texas Instruments Incorporated
C:\Users\MaCHaDo\AppData\Local\Temp\0057210                          PAGE   91

    4640                      .dwattr $C$DW$552, DW_AT_name("rsvd_10")
    4641                      .dwattr $C$DW$552, DW_AT_TI_symbol_name("_rsvd_10")
    4642                      .dwattr $C$DW$552, DW_AT_data_member_location[DW_OP_plus_uconst 0x661f]
    4643                      .dwattr $C$DW$552, DW_AT_accessibility(DW_ACCESS_public)
    4644              
    4645              $C$DW$553       .dwtag  DW_TAG_member
    4646                      .dwattr $C$DW$553, DW_AT_type(*$C$DW$T$24)
    4647                      .dwattr $C$DW$553, DW_AT_name("ADCSOCxCTL")
    4648                      .dwattr $C$DW$553, DW_AT_TI_symbol_name("_ADCSOCxCTL")
    4649                      .dwattr $C$DW$553, DW_AT_data_member_location[DW_OP_plus_uconst 0x6620]
    4650                      .dwattr $C$DW$553, DW_AT_accessibility(DW_ACCESS_public)
    4651              
    4652              $C$DW$554       .dwtag  DW_TAG_member
    4653                      .dwattr $C$DW$554, DW_AT_type(*$C$DW$T$24)
    4654                      .dwattr $C$DW$554, DW_AT_name("rsvd_11")
    4655                      .dwattr $C$DW$554, DW_AT_TI_symbol_name("_rsvd_11")
    4656                      .dwattr $C$DW$554, DW_AT_data_member_location[DW_OP_plus_uconst 0x6630]
    4657                      .dwattr $C$DW$554, DW_AT_accessibility(DW_ACCESS_public)
    4658              
    4659              $C$DW$555       .dwtag  DW_TAG_member
    4660                      .dwattr $C$DW$555, DW_AT_type(*$C$DW$T$23)
    4661                      .dwattr $C$DW$555, DW_AT_name("ADCREFTRIM")
    4662                      .dwattr $C$DW$555, DW_AT_TI_symbol_name("_ADCREFTRIM")
    4663                      .dwattr $C$DW$555, DW_AT_data_member_location[DW_OP_plus_uconst 0x6640]
    4664                      .dwattr $C$DW$555, DW_AT_accessibility(DW_ACCESS_public)
    4665              
    4666              $C$DW$556       .dwtag  DW_TAG_member
    4667                      .dwattr $C$DW$556, DW_AT_type(*$C$DW$T$23)
    4668                      .dwattr $C$DW$556, DW_AT_name("ADCOFFTRIM")
    4669                      .dwattr $C$DW$556, DW_AT_TI_symbol_name("_ADCOFFTRIM")
    4670                      .dwattr $C$DW$556, DW_AT_data_member_location[DW_OP_plus_uconst 0x6641]
    4671                      .dwattr $C$DW$556, DW_AT_accessibility(DW_ACCESS_public)
    4672              
    4673              $C$DW$557       .dwtag  DW_TAG_member
    4674                      .dwattr $C$DW$557, DW_AT_type(*$C$DW$T$29)
    4675                      .dwattr $C$DW$557, DW_AT_name("resvd_12")
    4676                      .dwattr $C$DW$557, DW_AT_TI_symbol_name("_resvd_12")
    4677                      .dwattr $C$DW$557, DW_AT_data_member_location[DW_OP_plus_uconst 0x6642]
    4678                      .dwattr $C$DW$557, DW_AT_accessibility(DW_ACCESS_public)
    4679              
    4680              $C$DW$558       .dwtag  DW_TAG_member
    4681                      .dwattr $C$DW$558, DW_AT_type(*$C$DW$T$23)
    4682                      .dwattr $C$DW$558, DW_AT_name("ADCREV")
    4683                      .dwattr $C$DW$558, DW_AT_TI_symbol_name("_ADCREV")
    4684                      .dwattr $C$DW$558, DW_AT_data_member_location[DW_OP_plus_uconst 0x664f]
    4685                      .dwattr $C$DW$558, DW_AT_accessibility(DW_ACCESS_public)
    4686              
    4687                      .dwendtag $C$DW$T$30
    4688              
    4689              $C$DW$T$228     .dwtag  DW_TAG_typedef
    4690                      .dwattr $C$DW$T$228, DW_AT_name("ADC_Obj")
    4691                      .dwattr $C$DW$T$228, DW_AT_type(*$C$DW$T$30)
    4692                      .dwattr $C$DW$T$228, DW_AT_language(DW_LANG_C)
    4693              
    4694              $C$DW$T$116     .dwtag  DW_TAG_pointer_type
TMS320C2000 Assembler PC v15.12.3 Sun Oct 30 14:01:37 2016

Tools Copyright (c) 1996-2015 Texas Instruments Incorporated
C:\Users\MaCHaDo\AppData\Local\Temp\0057210                          PAGE   92

    4695                      .dwattr $C$DW$T$116, DW_AT_type(*$C$DW$T$30)
    4696                      .dwattr $C$DW$T$116, DW_AT_address_class(0x20)
    4697              
    4698              $C$DW$T$117     .dwtag  DW_TAG_typedef
    4699                      .dwattr $C$DW$T$117, DW_AT_name("ADC_Handle")
    4700                      .dwattr $C$DW$T$117, DW_AT_type(*$C$DW$T$116)
    4701                      .dwattr $C$DW$T$117, DW_AT_language(DW_LANG_C)
    4702              
    4703              
    4704              $C$DW$T$33      .dwtag  DW_TAG_structure_type
    4705                      .dwattr $C$DW$T$33, DW_AT_name("_CLARKE_Obj_")
    4706                      .dwattr $C$DW$T$33, DW_AT_byte_size(0x06)
    4707              $C$DW$559       .dwtag  DW_TAG_member
    4708                      .dwattr $C$DW$559, DW_AT_type(*$C$DW$T$31)
    4709                      .dwattr $C$DW$559, DW_AT_name("alpha_sf")
    4710                      .dwattr $C$DW$559, DW_AT_TI_symbol_name("_alpha_sf")
    4711                      .dwattr $C$DW$559, DW_AT_data_member_location[DW_OP_plus_uconst 0x0]
    4712                      .dwattr $C$DW$559, DW_AT_accessibility(DW_ACCESS_public)
    4713              
    4714              $C$DW$560       .dwtag  DW_TAG_member
    4715                      .dwattr $C$DW$560, DW_AT_type(*$C$DW$T$31)
    4716                      .dwattr $C$DW$560, DW_AT_name("beta_sf")
    4717                      .dwattr $C$DW$560, DW_AT_TI_symbol_name("_beta_sf")
    4718                      .dwattr $C$DW$560, DW_AT_data_member_location[DW_OP_plus_uconst 0x2]
    4719                      .dwattr $C$DW$560, DW_AT_accessibility(DW_ACCESS_public)
    4720              
    4721              $C$DW$561       .dwtag  DW_TAG_member
    4722                      .dwattr $C$DW$561, DW_AT_type(*$C$DW$T$32)
    4723                      .dwattr $C$DW$561, DW_AT_name("numSensors")
    4724                      .dwattr $C$DW$561, DW_AT_TI_symbol_name("_numSensors")
    4725                      .dwattr $C$DW$561, DW_AT_data_member_location[DW_OP_plus_uconst 0x4]
    4726                      .dwattr $C$DW$561, DW_AT_accessibility(DW_ACCESS_public)
    4727              
    4728                      .dwendtag $C$DW$T$33
    4729              
    4730              $C$DW$T$44      .dwtag  DW_TAG_typedef
    4731                      .dwattr $C$DW$T$44, DW_AT_name("CLARKE_Obj")
    4732                      .dwattr $C$DW$T$44, DW_AT_type(*$C$DW$T$33)
    4733                      .dwattr $C$DW$T$44, DW_AT_language(DW_LANG_C)
    4734              
    4735              $C$DW$T$42      .dwtag  DW_TAG_pointer_type
    4736                      .dwattr $C$DW$T$42, DW_AT_type(*$C$DW$T$33)
    4737                      .dwattr $C$DW$T$42, DW_AT_address_class(0x20)
    4738              
    4739              $C$DW$T$43      .dwtag  DW_TAG_typedef
    4740                      .dwattr $C$DW$T$43, DW_AT_name("CLARKE_Handle")
    4741                      .dwattr $C$DW$T$43, DW_AT_type(*$C$DW$T$42)
    4742                      .dwattr $C$DW$T$43, DW_AT_language(DW_LANG_C)
    4743              
    4744              
    4745              $C$DW$T$35      .dwtag  DW_TAG_structure_type
    4746                      .dwattr $C$DW$T$35, DW_AT_name("_CLK_Obj_")
    4747                      .dwattr $C$DW$T$35, DW_AT_byte_size(0x11)
    4748              $C$DW$562       .dwtag  DW_TAG_member
    4749                      .dwattr $C$DW$562, DW_AT_type(*$C$DW$T$23)
TMS320C2000 Assembler PC v15.12.3 Sun Oct 30 14:01:37 2016

Tools Copyright (c) 1996-2015 Texas Instruments Incorporated
C:\Users\MaCHaDo\AppData\Local\Temp\0057210                          PAGE   93

    4750                      .dwattr $C$DW$562, DW_AT_name("XCLK")
    4751                      .dwattr $C$DW$562, DW_AT_TI_symbol_name("_XCLK")
    4752                      .dwattr $C$DW$562, DW_AT_data_member_location[DW_OP_plus_uconst 0x0]
    4753                      .dwattr $C$DW$562, DW_AT_accessibility(DW_ACCESS_public)
    4754              
    4755              $C$DW$563       .dwtag  DW_TAG_member
    4756                      .dwattr $C$DW$563, DW_AT_type(*$C$DW$T$23)
    4757                      .dwattr $C$DW$563, DW_AT_name("rsvd_1")
    4758                      .dwattr $C$DW$563, DW_AT_TI_symbol_name("_rsvd_1")
    4759                      .dwattr $C$DW$563, DW_AT_data_member_location[DW_OP_plus_uconst 0x1]
    4760                      .dwattr $C$DW$563, DW_AT_accessibility(DW_ACCESS_public)
    4761              
    4762              $C$DW$564       .dwtag  DW_TAG_member
    4763                      .dwattr $C$DW$564, DW_AT_type(*$C$DW$T$23)
    4764                      .dwattr $C$DW$564, DW_AT_name("CLKCTL")
    4765                      .dwattr $C$DW$564, DW_AT_TI_symbol_name("_CLKCTL")
    4766                      .dwattr $C$DW$564, DW_AT_data_member_location[DW_OP_plus_uconst 0x2]
    4767                      .dwattr $C$DW$564, DW_AT_accessibility(DW_ACCESS_public)
    4768              
    4769              $C$DW$565       .dwtag  DW_TAG_member
    4770                      .dwattr $C$DW$565, DW_AT_type(*$C$DW$T$34)
    4771                      .dwattr $C$DW$565, DW_AT_name("rsvd_2")
    4772                      .dwattr $C$DW$565, DW_AT_TI_symbol_name("_rsvd_2")
    4773                      .dwattr $C$DW$565, DW_AT_data_member_location[DW_OP_plus_uconst 0x3]
    4774                      .dwattr $C$DW$565, DW_AT_accessibility(DW_ACCESS_public)
    4775              
    4776              $C$DW$566       .dwtag  DW_TAG_member
    4777                      .dwattr $C$DW$566, DW_AT_type(*$C$DW$T$23)
    4778                      .dwattr $C$DW$566, DW_AT_name("LOSPCP")
    4779                      .dwattr $C$DW$566, DW_AT_TI_symbol_name("_LOSPCP")
    4780                      .dwattr $C$DW$566, DW_AT_data_member_location[DW_OP_plus_uconst 0xb]
    4781                      .dwattr $C$DW$566, DW_AT_accessibility(DW_ACCESS_public)
    4782              
    4783              $C$DW$567       .dwtag  DW_TAG_member
    4784                      .dwattr $C$DW$567, DW_AT_type(*$C$DW$T$23)
    4785                      .dwattr $C$DW$567, DW_AT_name("PCLKCR0")
    4786                      .dwattr $C$DW$567, DW_AT_TI_symbol_name("_PCLKCR0")
    4787                      .dwattr $C$DW$567, DW_AT_data_member_location[DW_OP_plus_uconst 0xc]
    4788                      .dwattr $C$DW$567, DW_AT_accessibility(DW_ACCESS_public)
    4789              
    4790              $C$DW$568       .dwtag  DW_TAG_member
    4791                      .dwattr $C$DW$568, DW_AT_type(*$C$DW$T$23)
    4792                      .dwattr $C$DW$568, DW_AT_name("PCLKCR1")
    4793                      .dwattr $C$DW$568, DW_AT_TI_symbol_name("_PCLKCR1")
    4794                      .dwattr $C$DW$568, DW_AT_data_member_location[DW_OP_plus_uconst 0xd]
    4795                      .dwattr $C$DW$568, DW_AT_accessibility(DW_ACCESS_public)
    4796              
    4797              $C$DW$569       .dwtag  DW_TAG_member
    4798                      .dwattr $C$DW$569, DW_AT_type(*$C$DW$T$26)
    4799                      .dwattr $C$DW$569, DW_AT_name("rsvd_3")
    4800                      .dwattr $C$DW$569, DW_AT_TI_symbol_name("_rsvd_3")
    4801                      .dwattr $C$DW$569, DW_AT_data_member_location[DW_OP_plus_uconst 0xe]
    4802                      .dwattr $C$DW$569, DW_AT_accessibility(DW_ACCESS_public)
    4803              
    4804              $C$DW$570       .dwtag  DW_TAG_member
TMS320C2000 Assembler PC v15.12.3 Sun Oct 30 14:01:37 2016

Tools Copyright (c) 1996-2015 Texas Instruments Incorporated
C:\Users\MaCHaDo\AppData\Local\Temp\0057210                          PAGE   94

    4805                      .dwattr $C$DW$570, DW_AT_type(*$C$DW$T$23)
    4806                      .dwattr $C$DW$570, DW_AT_name("PCLKCR3")
    4807                      .dwattr $C$DW$570, DW_AT_TI_symbol_name("_PCLKCR3")
    4808                      .dwattr $C$DW$570, DW_AT_data_member_location[DW_OP_plus_uconst 0x10]
    4809                      .dwattr $C$DW$570, DW_AT_accessibility(DW_ACCESS_public)
    4810              
    4811                      .dwendtag $C$DW$T$35
    4812              
    4813              $C$DW$T$118     .dwtag  DW_TAG_pointer_type
    4814                      .dwattr $C$DW$T$118, DW_AT_type(*$C$DW$T$35)
    4815                      .dwattr $C$DW$T$118, DW_AT_address_class(0x20)
    4816              
    4817              $C$DW$T$119     .dwtag  DW_TAG_typedef
    4818                      .dwattr $C$DW$T$119, DW_AT_name("CLK_Handle")
    4819                      .dwattr $C$DW$T$119, DW_AT_type(*$C$DW$T$118)
    4820                      .dwattr $C$DW$T$119, DW_AT_language(DW_LANG_C)
    4821              
    4822              
    4823              $C$DW$T$36      .dwtag  DW_TAG_structure_type
    4824                      .dwattr $C$DW$T$36, DW_AT_name("_CPU_Obj_")
    4825                      .dwattr $C$DW$T$36, DW_AT_byte_size(0x01)
    4826              $C$DW$571       .dwtag  DW_TAG_member
    4827                      .dwattr $C$DW$571, DW_AT_type(*$C$DW$T$32)
    4828                      .dwattr $C$DW$571, DW_AT_name("tmp")
    4829                      .dwattr $C$DW$571, DW_AT_TI_symbol_name("_tmp")
    4830                      .dwattr $C$DW$571, DW_AT_data_member_location[DW_OP_plus_uconst 0x0]
    4831                      .dwattr $C$DW$571, DW_AT_accessibility(DW_ACCESS_public)
    4832              
    4833                      .dwendtag $C$DW$T$36
    4834              
    4835              $C$DW$T$120     .dwtag  DW_TAG_pointer_type
    4836                      .dwattr $C$DW$T$120, DW_AT_type(*$C$DW$T$36)
    4837                      .dwattr $C$DW$T$120, DW_AT_address_class(0x20)
    4838              
    4839              $C$DW$T$121     .dwtag  DW_TAG_typedef
    4840                      .dwattr $C$DW$T$121, DW_AT_name("CPU_Handle")
    4841                      .dwattr $C$DW$T$121, DW_AT_type(*$C$DW$T$120)
    4842                      .dwattr $C$DW$T$121, DW_AT_language(DW_LANG_C)
    4843              
    4844              
    4845              $C$DW$T$70      .dwtag  DW_TAG_structure_type
    4846                      .dwattr $C$DW$T$70, DW_AT_name("_CTRL_Obj_")
    4847                      .dwattr $C$DW$T$70, DW_AT_byte_size(0x108)
    4848              $C$DW$572       .dwtag  DW_TAG_member
    4849                      .dwattr $C$DW$572, DW_AT_type(*$C$DW$T$37)
    4850                      .dwattr $C$DW$572, DW_AT_name("version")
    4851                      .dwattr $C$DW$572, DW_AT_TI_symbol_name("_version")
    4852                      .dwattr $C$DW$572, DW_AT_data_member_location[DW_OP_plus_uconst 0x0]
    4853                      .dwattr $C$DW$572, DW_AT_accessibility(DW_ACCESS_public)
    4854              
    4855              $C$DW$573       .dwtag  DW_TAG_member
    4856                      .dwattr $C$DW$573, DW_AT_type(*$C$DW$T$39)
    4857                      .dwattr $C$DW$573, DW_AT_name("state")
    4858                      .dwattr $C$DW$573, DW_AT_TI_symbol_name("_state")
    4859                      .dwattr $C$DW$573, DW_AT_data_member_location[DW_OP_plus_uconst 0x4]
TMS320C2000 Assembler PC v15.12.3 Sun Oct 30 14:01:37 2016

Tools Copyright (c) 1996-2015 Texas Instruments Incorporated
C:\Users\MaCHaDo\AppData\Local\Temp\0057210                          PAGE   95

    4860                      .dwattr $C$DW$573, DW_AT_accessibility(DW_ACCESS_public)
    4861              
    4862              $C$DW$574       .dwtag  DW_TAG_member
    4863                      .dwattr $C$DW$574, DW_AT_type(*$C$DW$T$39)
    4864                      .dwattr $C$DW$574, DW_AT_name("prevState")
    4865                      .dwattr $C$DW$574, DW_AT_TI_symbol_name("_prevState")
    4866                      .dwattr $C$DW$574, DW_AT_data_member_location[DW_OP_plus_uconst 0x5]
    4867                      .dwattr $C$DW$574, DW_AT_accessibility(DW_ACCESS_public)
    4868              
    4869              $C$DW$575       .dwtag  DW_TAG_member
    4870                      .dwattr $C$DW$575, DW_AT_type(*$C$DW$T$41)
    4871                      .dwattr $C$DW$575, DW_AT_name("errorCode")
    4872                      .dwattr $C$DW$575, DW_AT_TI_symbol_name("_errorCode")
    4873                      .dwattr $C$DW$575, DW_AT_data_member_location[DW_OP_plus_uconst 0x6]
    4874                      .dwattr $C$DW$575, DW_AT_accessibility(DW_ACCESS_public)
    4875              
    4876              $C$DW$576       .dwtag  DW_TAG_member
    4877                      .dwattr $C$DW$576, DW_AT_type(*$C$DW$T$43)
    4878                      .dwattr $C$DW$576, DW_AT_name("clarkeHandle_I")
    4879                      .dwattr $C$DW$576, DW_AT_TI_symbol_name("_clarkeHandle_I")
    4880                      .dwattr $C$DW$576, DW_AT_data_member_location[DW_OP_plus_uconst 0x8]
    4881                      .dwattr $C$DW$576, DW_AT_accessibility(DW_ACCESS_public)
    4882              
    4883              $C$DW$577       .dwtag  DW_TAG_member
    4884                      .dwattr $C$DW$577, DW_AT_type(*$C$DW$T$44)
    4885                      .dwattr $C$DW$577, DW_AT_name("clarke_I")
    4886                      .dwattr $C$DW$577, DW_AT_TI_symbol_name("_clarke_I")
    4887                      .dwattr $C$DW$577, DW_AT_data_member_location[DW_OP_plus_uconst 0xa]
    4888                      .dwattr $C$DW$577, DW_AT_accessibility(DW_ACCESS_public)
    4889              
    4890              $C$DW$578       .dwtag  DW_TAG_member
    4891                      .dwattr $C$DW$578, DW_AT_type(*$C$DW$T$43)
    4892                      .dwattr $C$DW$578, DW_AT_name("clarkeHandle_V")
    4893                      .dwattr $C$DW$578, DW_AT_TI_symbol_name("_clarkeHandle_V")
    4894                      .dwattr $C$DW$578, DW_AT_data_member_location[DW_OP_plus_uconst 0x10]
    4895                      .dwattr $C$DW$578, DW_AT_accessibility(DW_ACCESS_public)
    4896              
    4897              $C$DW$579       .dwtag  DW_TAG_member
    4898                      .dwattr $C$DW$579, DW_AT_type(*$C$DW$T$44)
    4899                      .dwattr $C$DW$579, DW_AT_name("clarke_V")
    4900                      .dwattr $C$DW$579, DW_AT_TI_symbol_name("_clarke_V")
    4901                      .dwattr $C$DW$579, DW_AT_data_member_location[DW_OP_plus_uconst 0x12]
    4902                      .dwattr $C$DW$579, DW_AT_accessibility(DW_ACCESS_public)
    4903              
    4904              $C$DW$580       .dwtag  DW_TAG_member
    4905                      .dwattr $C$DW$580, DW_AT_type(*$C$DW$T$46)
    4906                      .dwattr $C$DW$580, DW_AT_name("estHandle")
    4907                      .dwattr $C$DW$580, DW_AT_TI_symbol_name("_estHandle")
    4908                      .dwattr $C$DW$580, DW_AT_data_member_location[DW_OP_plus_uconst 0x18]
    4909                      .dwattr $C$DW$580, DW_AT_accessibility(DW_ACCESS_public)
    4910              
    4911              $C$DW$581       .dwtag  DW_TAG_member
    4912                      .dwattr $C$DW$581, DW_AT_type(*$C$DW$T$48)
    4913                      .dwattr $C$DW$581, DW_AT_name("parkHandle")
    4914                      .dwattr $C$DW$581, DW_AT_TI_symbol_name("_parkHandle")
TMS320C2000 Assembler PC v15.12.3 Sun Oct 30 14:01:37 2016

Tools Copyright (c) 1996-2015 Texas Instruments Incorporated
C:\Users\MaCHaDo\AppData\Local\Temp\0057210                          PAGE   96

    4915                      .dwattr $C$DW$581, DW_AT_data_member_location[DW_OP_plus_uconst 0x1a]
    4916                      .dwattr $C$DW$581, DW_AT_accessibility(DW_ACCESS_public)
    4917              
    4918              $C$DW$582       .dwtag  DW_TAG_member
    4919                      .dwattr $C$DW$582, DW_AT_type(*$C$DW$T$49)
    4920                      .dwattr $C$DW$582, DW_AT_name("park")
    4921                      .dwattr $C$DW$582, DW_AT_TI_symbol_name("_park")
    4922                      .dwattr $C$DW$582, DW_AT_data_member_location[DW_OP_plus_uconst 0x1c]
    4923                      .dwattr $C$DW$582, DW_AT_accessibility(DW_ACCESS_public)
    4924              
    4925              $C$DW$583       .dwtag  DW_TAG_member
    4926                      .dwattr $C$DW$583, DW_AT_type(*$C$DW$T$51)
    4927                      .dwattr $C$DW$583, DW_AT_name("pidHandle_Id")
    4928                      .dwattr $C$DW$583, DW_AT_TI_symbol_name("_pidHandle_Id")
    4929                      .dwattr $C$DW$583, DW_AT_data_member_location[DW_OP_plus_uconst 0x20]
    4930                      .dwattr $C$DW$583, DW_AT_accessibility(DW_ACCESS_public)
    4931              
    4932              $C$DW$584       .dwtag  DW_TAG_member
    4933                      .dwattr $C$DW$584, DW_AT_type(*$C$DW$T$52)
    4934                      .dwattr $C$DW$584, DW_AT_name("pid_Id")
    4935                      .dwattr $C$DW$584, DW_AT_TI_symbol_name("_pid_Id")
    4936                      .dwattr $C$DW$584, DW_AT_data_member_location[DW_OP_plus_uconst 0x22]
    4937                      .dwattr $C$DW$584, DW_AT_accessibility(DW_ACCESS_public)
    4938              
    4939              $C$DW$585       .dwtag  DW_TAG_member
    4940                      .dwattr $C$DW$585, DW_AT_type(*$C$DW$T$51)
    4941                      .dwattr $C$DW$585, DW_AT_name("pidHandle_Iq")
    4942                      .dwattr $C$DW$585, DW_AT_TI_symbol_name("_pidHandle_Iq")
    4943                      .dwattr $C$DW$585, DW_AT_data_member_location[DW_OP_plus_uconst 0x32]
    4944                      .dwattr $C$DW$585, DW_AT_accessibility(DW_ACCESS_public)
    4945              
    4946              $C$DW$586       .dwtag  DW_TAG_member
    4947                      .dwattr $C$DW$586, DW_AT_type(*$C$DW$T$52)
    4948                      .dwattr $C$DW$586, DW_AT_name("pid_Iq")
    4949                      .dwattr $C$DW$586, DW_AT_TI_symbol_name("_pid_Iq")
    4950                      .dwattr $C$DW$586, DW_AT_data_member_location[DW_OP_plus_uconst 0x34]
    4951                      .dwattr $C$DW$586, DW_AT_accessibility(DW_ACCESS_public)
    4952              
    4953              $C$DW$587       .dwtag  DW_TAG_member
    4954                      .dwattr $C$DW$587, DW_AT_type(*$C$DW$T$51)
    4955                      .dwattr $C$DW$587, DW_AT_name("pidHandle_spd")
    4956                      .dwattr $C$DW$587, DW_AT_TI_symbol_name("_pidHandle_spd")
    4957                      .dwattr $C$DW$587, DW_AT_data_member_location[DW_OP_plus_uconst 0x44]
    4958                      .dwattr $C$DW$587, DW_AT_accessibility(DW_ACCESS_public)
    4959              
    4960              $C$DW$588       .dwtag  DW_TAG_member
    4961                      .dwattr $C$DW$588, DW_AT_type(*$C$DW$T$52)
    4962                      .dwattr $C$DW$588, DW_AT_name("pid_spd")
    4963                      .dwattr $C$DW$588, DW_AT_TI_symbol_name("_pid_spd")
    4964                      .dwattr $C$DW$588, DW_AT_data_member_location[DW_OP_plus_uconst 0x46]
    4965                      .dwattr $C$DW$588, DW_AT_accessibility(DW_ACCESS_public)
    4966              
    4967              $C$DW$589       .dwtag  DW_TAG_member
    4968                      .dwattr $C$DW$589, DW_AT_type(*$C$DW$T$54)
    4969                      .dwattr $C$DW$589, DW_AT_name("iparkHandle")
TMS320C2000 Assembler PC v15.12.3 Sun Oct 30 14:01:37 2016

Tools Copyright (c) 1996-2015 Texas Instruments Incorporated
C:\Users\MaCHaDo\AppData\Local\Temp\0057210                          PAGE   97

    4970                      .dwattr $C$DW$589, DW_AT_TI_symbol_name("_iparkHandle")
    4971                      .dwattr $C$DW$589, DW_AT_data_member_location[DW_OP_plus_uconst 0x56]
    4972                      .dwattr $C$DW$589, DW_AT_accessibility(DW_ACCESS_public)
    4973              
    4974              $C$DW$590       .dwtag  DW_TAG_member
    4975                      .dwattr $C$DW$590, DW_AT_type(*$C$DW$T$55)
    4976                      .dwattr $C$DW$590, DW_AT_name("ipark")
    4977                      .dwattr $C$DW$590, DW_AT_TI_symbol_name("_ipark")
    4978                      .dwattr $C$DW$590, DW_AT_data_member_location[DW_OP_plus_uconst 0x58]
    4979                      .dwattr $C$DW$590, DW_AT_accessibility(DW_ACCESS_public)
    4980              
    4981              $C$DW$591       .dwtag  DW_TAG_member
    4982                      .dwattr $C$DW$591, DW_AT_type(*$C$DW$T$57)
    4983                      .dwattr $C$DW$591, DW_AT_name("svgenHandle")
    4984                      .dwattr $C$DW$591, DW_AT_TI_symbol_name("_svgenHandle")
    4985                      .dwattr $C$DW$591, DW_AT_data_member_location[DW_OP_plus_uconst 0x5c]
    4986                      .dwattr $C$DW$591, DW_AT_accessibility(DW_ACCESS_public)
    4987              
    4988              $C$DW$592       .dwtag  DW_TAG_member
    4989                      .dwattr $C$DW$592, DW_AT_type(*$C$DW$T$58)
    4990                      .dwattr $C$DW$592, DW_AT_name("svgen")
    4991                      .dwattr $C$DW$592, DW_AT_TI_symbol_name("_svgen")
    4992                      .dwattr $C$DW$592, DW_AT_data_member_location[DW_OP_plus_uconst 0x5e]
    4993                      .dwattr $C$DW$592, DW_AT_accessibility(DW_ACCESS_public)
    4994              
    4995              $C$DW$593       .dwtag  DW_TAG_member
    4996                      .dwattr $C$DW$593, DW_AT_type(*$C$DW$T$60)
    4997                      .dwattr $C$DW$593, DW_AT_name("trajHandle_Id")
    4998                      .dwattr $C$DW$593, DW_AT_TI_symbol_name("_trajHandle_Id")
    4999                      .dwattr $C$DW$593, DW_AT_data_member_location[DW_OP_plus_uconst 0x60]
    5000                      .dwattr $C$DW$593, DW_AT_accessibility(DW_ACCESS_public)
    5001              
    5002              $C$DW$594       .dwtag  DW_TAG_member
    5003                      .dwattr $C$DW$594, DW_AT_type(*$C$DW$T$61)
    5004                      .dwattr $C$DW$594, DW_AT_name("traj_Id")
    5005                      .dwattr $C$DW$594, DW_AT_TI_symbol_name("_traj_Id")
    5006                      .dwattr $C$DW$594, DW_AT_data_member_location[DW_OP_plus_uconst 0x62]
    5007                      .dwattr $C$DW$594, DW_AT_accessibility(DW_ACCESS_public)
    5008              
    5009              $C$DW$595       .dwtag  DW_TAG_member
    5010                      .dwattr $C$DW$595, DW_AT_type(*$C$DW$T$60)
    5011                      .dwattr $C$DW$595, DW_AT_name("trajHandle_spd")
    5012                      .dwattr $C$DW$595, DW_AT_TI_symbol_name("_trajHandle_spd")
    5013                      .dwattr $C$DW$595, DW_AT_data_member_location[DW_OP_plus_uconst 0x6c]
    5014                      .dwattr $C$DW$595, DW_AT_accessibility(DW_ACCESS_public)
    5015              
    5016              $C$DW$596       .dwtag  DW_TAG_member
    5017                      .dwattr $C$DW$596, DW_AT_type(*$C$DW$T$61)
    5018                      .dwattr $C$DW$596, DW_AT_name("traj_spd")
    5019                      .dwattr $C$DW$596, DW_AT_TI_symbol_name("_traj_spd")
    5020                      .dwattr $C$DW$596, DW_AT_data_member_location[DW_OP_plus_uconst 0x6e]
    5021                      .dwattr $C$DW$596, DW_AT_accessibility(DW_ACCESS_public)
    5022              
    5023              $C$DW$597       .dwtag  DW_TAG_member
    5024                      .dwattr $C$DW$597, DW_AT_type(*$C$DW$T$60)
TMS320C2000 Assembler PC v15.12.3 Sun Oct 30 14:01:37 2016

Tools Copyright (c) 1996-2015 Texas Instruments Incorporated
C:\Users\MaCHaDo\AppData\Local\Temp\0057210                          PAGE   98

    5025                      .dwattr $C$DW$597, DW_AT_name("trajHandle_spdMax")
    5026                      .dwattr $C$DW$597, DW_AT_TI_symbol_name("_trajHandle_spdMax")
    5027                      .dwattr $C$DW$597, DW_AT_data_member_location[DW_OP_plus_uconst 0x78]
    5028                      .dwattr $C$DW$597, DW_AT_accessibility(DW_ACCESS_public)
    5029              
    5030              $C$DW$598       .dwtag  DW_TAG_member
    5031                      .dwattr $C$DW$598, DW_AT_type(*$C$DW$T$61)
    5032                      .dwattr $C$DW$598, DW_AT_name("traj_spdMax")
    5033                      .dwattr $C$DW$598, DW_AT_TI_symbol_name("_traj_spdMax")
    5034                      .dwattr $C$DW$598, DW_AT_data_member_location[DW_OP_plus_uconst 0x7a]
    5035                      .dwattr $C$DW$598, DW_AT_accessibility(DW_ACCESS_public)
    5036              
    5037              $C$DW$599       .dwtag  DW_TAG_member
    5038                      .dwattr $C$DW$599, DW_AT_type(*$C$DW$T$62)
    5039                      .dwattr $C$DW$599, DW_AT_name("motorParams")
    5040                      .dwattr $C$DW$599, DW_AT_TI_symbol_name("_motorParams")
    5041                      .dwattr $C$DW$599, DW_AT_data_member_location[DW_OP_plus_uconst 0x84]
    5042                      .dwattr $C$DW$599, DW_AT_accessibility(DW_ACCESS_public)
    5043              
    5044              $C$DW$600       .dwtag  DW_TAG_member
    5045                      .dwattr $C$DW$600, DW_AT_type(*$C$DW$T$65)
    5046                      .dwattr $C$DW$600, DW_AT_name("waitTimes")
    5047                      .dwattr $C$DW$600, DW_AT_TI_symbol_name("_waitTimes")
    5048                      .dwattr $C$DW$600, DW_AT_data_member_location[DW_OP_plus_uconst 0x92]
    5049                      .dwattr $C$DW$600, DW_AT_accessibility(DW_ACCESS_public)
    5050              
    5051              $C$DW$601       .dwtag  DW_TAG_member
    5052                      .dwattr $C$DW$601, DW_AT_type(*$C$DW$T$64)
    5053                      .dwattr $C$DW$601, DW_AT_name("counter_state")
    5054                      .dwattr $C$DW$601, DW_AT_TI_symbol_name("_counter_state")
    5055                      .dwattr $C$DW$601, DW_AT_data_member_location[DW_OP_plus_uconst 0x9a]
    5056                      .dwattr $C$DW$601, DW_AT_accessibility(DW_ACCESS_public)
    5057              
    5058              $C$DW$602       .dwtag  DW_TAG_member
    5059                      .dwattr $C$DW$602, DW_AT_type(*$C$DW$T$66)
    5060                      .dwattr $C$DW$602, DW_AT_name("numIsrTicksPerCtrlTick")
    5061                      .dwattr $C$DW$602, DW_AT_TI_symbol_name("_numIsrTicksPerCtrlTick")
    5062                      .dwattr $C$DW$602, DW_AT_data_member_location[DW_OP_plus_uconst 0x9c]
    5063                      .dwattr $C$DW$602, DW_AT_accessibility(DW_ACCESS_public)
    5064              
    5065              $C$DW$603       .dwtag  DW_TAG_member
    5066                      .dwattr $C$DW$603, DW_AT_type(*$C$DW$T$66)
    5067                      .dwattr $C$DW$603, DW_AT_name("numCtrlTicksPerCurrentTick")
    5068                      .dwattr $C$DW$603, DW_AT_TI_symbol_name("_numCtrlTicksPerCurrentTick")
    5069                      .dwattr $C$DW$603, DW_AT_data_member_location[DW_OP_plus_uconst 0x9d]
    5070                      .dwattr $C$DW$603, DW_AT_accessibility(DW_ACCESS_public)
    5071              
    5072              $C$DW$604       .dwtag  DW_TAG_member
    5073                      .dwattr $C$DW$604, DW_AT_type(*$C$DW$T$66)
    5074                      .dwattr $C$DW$604, DW_AT_name("numCtrlTicksPerSpeedTick")
    5075                      .dwattr $C$DW$604, DW_AT_TI_symbol_name("_numCtrlTicksPerSpeedTick")
    5076                      .dwattr $C$DW$604, DW_AT_data_member_location[DW_OP_plus_uconst 0x9e]
    5077                      .dwattr $C$DW$604, DW_AT_accessibility(DW_ACCESS_public)
    5078              
    5079              $C$DW$605       .dwtag  DW_TAG_member
TMS320C2000 Assembler PC v15.12.3 Sun Oct 30 14:01:37 2016

Tools Copyright (c) 1996-2015 Texas Instruments Incorporated
C:\Users\MaCHaDo\AppData\Local\Temp\0057210                          PAGE   99

    5080                      .dwattr $C$DW$605, DW_AT_type(*$C$DW$T$66)
    5081                      .dwattr $C$DW$605, DW_AT_name("numCtrlTicksPerTrajTick")
    5082                      .dwattr $C$DW$605, DW_AT_TI_symbol_name("_numCtrlTicksPerTrajTick")
    5083                      .dwattr $C$DW$605, DW_AT_data_member_location[DW_OP_plus_uconst 0x9f]
    5084                      .dwattr $C$DW$605, DW_AT_accessibility(DW_ACCESS_public)
    5085              
    5086              $C$DW$606       .dwtag  DW_TAG_member
    5087                      .dwattr $C$DW$606, DW_AT_type(*$C$DW$T$64)
    5088                      .dwattr $C$DW$606, DW_AT_name("ctrlFreq_Hz")
    5089                      .dwattr $C$DW$606, DW_AT_TI_symbol_name("_ctrlFreq_Hz")
    5090                      .dwattr $C$DW$606, DW_AT_data_member_location[DW_OP_plus_uconst 0xa0]
    5091                      .dwattr $C$DW$606, DW_AT_accessibility(DW_ACCESS_public)
    5092              
    5093              $C$DW$607       .dwtag  DW_TAG_member
    5094                      .dwattr $C$DW$607, DW_AT_type(*$C$DW$T$64)
    5095                      .dwattr $C$DW$607, DW_AT_name("trajFreq_Hz")
    5096                      .dwattr $C$DW$607, DW_AT_TI_symbol_name("_trajFreq_Hz")
    5097                      .dwattr $C$DW$607, DW_AT_data_member_location[DW_OP_plus_uconst 0xa2]
    5098                      .dwattr $C$DW$607, DW_AT_accessibility(DW_ACCESS_public)
    5099              
    5100              $C$DW$608       .dwtag  DW_TAG_member
    5101                      .dwattr $C$DW$608, DW_AT_type(*$C$DW$T$31)
    5102                      .dwattr $C$DW$608, DW_AT_name("trajPeriod_sec")
    5103                      .dwattr $C$DW$608, DW_AT_TI_symbol_name("_trajPeriod_sec")
    5104                      .dwattr $C$DW$608, DW_AT_data_member_location[DW_OP_plus_uconst 0xa4]
    5105                      .dwattr $C$DW$608, DW_AT_accessibility(DW_ACCESS_public)
    5106              
    5107              $C$DW$609       .dwtag  DW_TAG_member
    5108                      .dwattr $C$DW$609, DW_AT_type(*$C$DW$T$67)
    5109                      .dwattr $C$DW$609, DW_AT_name("ctrlPeriod_sec")
    5110                      .dwattr $C$DW$609, DW_AT_TI_symbol_name("_ctrlPeriod_sec")
    5111                      .dwattr $C$DW$609, DW_AT_data_member_location[DW_OP_plus_uconst 0xa6]
    5112                      .dwattr $C$DW$609, DW_AT_accessibility(DW_ACCESS_public)
    5113              
    5114              $C$DW$610       .dwtag  DW_TAG_member
    5115                      .dwattr $C$DW$610, DW_AT_type(*$C$DW$T$31)
    5116                      .dwattr $C$DW$610, DW_AT_name("maxVsMag_pu")
    5117                      .dwattr $C$DW$610, DW_AT_TI_symbol_name("_maxVsMag_pu")
    5118                      .dwattr $C$DW$610, DW_AT_data_member_location[DW_OP_plus_uconst 0xa8]
    5119                      .dwattr $C$DW$610, DW_AT_accessibility(DW_ACCESS_public)
    5120              
    5121              $C$DW$611       .dwtag  DW_TAG_member
    5122                      .dwattr $C$DW$611, DW_AT_type(*$C$DW$T$68)
    5123                      .dwattr $C$DW$611, DW_AT_name("Iab_in")
    5124                      .dwattr $C$DW$611, DW_AT_TI_symbol_name("_Iab_in")
    5125                      .dwattr $C$DW$611, DW_AT_data_member_location[DW_OP_plus_uconst 0xaa]
    5126                      .dwattr $C$DW$611, DW_AT_accessibility(DW_ACCESS_public)
    5127              
    5128              $C$DW$612       .dwtag  DW_TAG_member
    5129                      .dwattr $C$DW$612, DW_AT_type(*$C$DW$T$68)
    5130                      .dwattr $C$DW$612, DW_AT_name("Iab_filt")
    5131                      .dwattr $C$DW$612, DW_AT_TI_symbol_name("_Iab_filt")
    5132                      .dwattr $C$DW$612, DW_AT_data_member_location[DW_OP_plus_uconst 0xae]
    5133                      .dwattr $C$DW$612, DW_AT_accessibility(DW_ACCESS_public)
    5134              
TMS320C2000 Assembler PC v15.12.3 Sun Oct 30 14:01:37 2016

Tools Copyright (c) 1996-2015 Texas Instruments Incorporated
C:\Users\MaCHaDo\AppData\Local\Temp\0057210                          PAGE  100

    5135              $C$DW$613       .dwtag  DW_TAG_member
    5136                      .dwattr $C$DW$613, DW_AT_type(*$C$DW$T$68)
    5137                      .dwattr $C$DW$613, DW_AT_name("Idq_in")
    5138                      .dwattr $C$DW$613, DW_AT_TI_symbol_name("_Idq_in")
    5139                      .dwattr $C$DW$613, DW_AT_data_member_location[DW_OP_plus_uconst 0xb2]
    5140                      .dwattr $C$DW$613, DW_AT_accessibility(DW_ACCESS_public)
    5141              
    5142              $C$DW$614       .dwtag  DW_TAG_member
    5143                      .dwattr $C$DW$614, DW_AT_type(*$C$DW$T$68)
    5144                      .dwattr $C$DW$614, DW_AT_name("Vab_in")
    5145                      .dwattr $C$DW$614, DW_AT_TI_symbol_name("_Vab_in")
    5146                      .dwattr $C$DW$614, DW_AT_data_member_location[DW_OP_plus_uconst 0xb6]
    5147                      .dwattr $C$DW$614, DW_AT_accessibility(DW_ACCESS_public)
    5148              
    5149              $C$DW$615       .dwtag  DW_TAG_member
    5150                      .dwattr $C$DW$615, DW_AT_type(*$C$DW$T$31)
    5151                      .dwattr $C$DW$615, DW_AT_name("spd_out")
    5152                      .dwattr $C$DW$615, DW_AT_TI_symbol_name("_spd_out")
    5153                      .dwattr $C$DW$615, DW_AT_data_member_location[DW_OP_plus_uconst 0xba]
    5154                      .dwattr $C$DW$615, DW_AT_accessibility(DW_ACCESS_public)
    5155              
    5156              $C$DW$616       .dwtag  DW_TAG_member
    5157                      .dwattr $C$DW$616, DW_AT_type(*$C$DW$T$68)
    5158                      .dwattr $C$DW$616, DW_AT_name("Vab_out")
    5159                      .dwattr $C$DW$616, DW_AT_TI_symbol_name("_Vab_out")
    5160                      .dwattr $C$DW$616, DW_AT_data_member_location[DW_OP_plus_uconst 0xbc]
    5161                      .dwattr $C$DW$616, DW_AT_accessibility(DW_ACCESS_public)
    5162              
    5163              $C$DW$617       .dwtag  DW_TAG_member
    5164                      .dwattr $C$DW$617, DW_AT_type(*$C$DW$T$68)
    5165                      .dwattr $C$DW$617, DW_AT_name("Vdq_out")
    5166                      .dwattr $C$DW$617, DW_AT_TI_symbol_name("_Vdq_out")
    5167                      .dwattr $C$DW$617, DW_AT_data_member_location[DW_OP_plus_uconst 0xc0]
    5168                      .dwattr $C$DW$617, DW_AT_accessibility(DW_ACCESS_public)
    5169              
    5170              $C$DW$618       .dwtag  DW_TAG_member
    5171                      .dwattr $C$DW$618, DW_AT_type(*$C$DW$T$67)
    5172                      .dwattr $C$DW$618, DW_AT_name("Rhf")
    5173                      .dwattr $C$DW$618, DW_AT_TI_symbol_name("_Rhf")
    5174                      .dwattr $C$DW$618, DW_AT_data_member_location[DW_OP_plus_uconst 0xc4]
    5175                      .dwattr $C$DW$618, DW_AT_accessibility(DW_ACCESS_public)
    5176              
    5177              $C$DW$619       .dwtag  DW_TAG_member
    5178                      .dwattr $C$DW$619, DW_AT_type(*$C$DW$T$67)
    5179                      .dwattr $C$DW$619, DW_AT_name("Lhf")
    5180                      .dwattr $C$DW$619, DW_AT_TI_symbol_name("_Lhf")
    5181                      .dwattr $C$DW$619, DW_AT_data_member_location[DW_OP_plus_uconst 0xc6]
    5182                      .dwattr $C$DW$619, DW_AT_accessibility(DW_ACCESS_public)
    5183              
    5184              $C$DW$620       .dwtag  DW_TAG_member
    5185                      .dwattr $C$DW$620, DW_AT_type(*$C$DW$T$67)
    5186                      .dwattr $C$DW$620, DW_AT_name("RoverL")
    5187                      .dwattr $C$DW$620, DW_AT_TI_symbol_name("_RoverL")
    5188                      .dwattr $C$DW$620, DW_AT_data_member_location[DW_OP_plus_uconst 0xc8]
    5189                      .dwattr $C$DW$620, DW_AT_accessibility(DW_ACCESS_public)
TMS320C2000 Assembler PC v15.12.3 Sun Oct 30 14:01:37 2016

Tools Copyright (c) 1996-2015 Texas Instruments Incorporated
C:\Users\MaCHaDo\AppData\Local\Temp\0057210                          PAGE  101

    5190              
    5191              $C$DW$621       .dwtag  DW_TAG_member
    5192                      .dwattr $C$DW$621, DW_AT_type(*$C$DW$T$31)
    5193                      .dwattr $C$DW$621, DW_AT_name("Kp_Id")
    5194                      .dwattr $C$DW$621, DW_AT_TI_symbol_name("_Kp_Id")
    5195                      .dwattr $C$DW$621, DW_AT_data_member_location[DW_OP_plus_uconst 0xca]
    5196                      .dwattr $C$DW$621, DW_AT_accessibility(DW_ACCESS_public)
    5197              
    5198              $C$DW$622       .dwtag  DW_TAG_member
    5199                      .dwattr $C$DW$622, DW_AT_type(*$C$DW$T$31)
    5200                      .dwattr $C$DW$622, DW_AT_name("Kp_Iq")
    5201                      .dwattr $C$DW$622, DW_AT_TI_symbol_name("_Kp_Iq")
    5202                      .dwattr $C$DW$622, DW_AT_data_member_location[DW_OP_plus_uconst 0xcc]
    5203                      .dwattr $C$DW$622, DW_AT_accessibility(DW_ACCESS_public)
    5204              
    5205              $C$DW$623       .dwtag  DW_TAG_member
    5206                      .dwattr $C$DW$623, DW_AT_type(*$C$DW$T$31)
    5207                      .dwattr $C$DW$623, DW_AT_name("Kp_spd")
    5208                      .dwattr $C$DW$623, DW_AT_TI_symbol_name("_Kp_spd")
    5209                      .dwattr $C$DW$623, DW_AT_data_member_location[DW_OP_plus_uconst 0xce]
    5210                      .dwattr $C$DW$623, DW_AT_accessibility(DW_ACCESS_public)
    5211              
    5212              $C$DW$624       .dwtag  DW_TAG_member
    5213                      .dwattr $C$DW$624, DW_AT_type(*$C$DW$T$31)
    5214                      .dwattr $C$DW$624, DW_AT_name("Ki_Id")
    5215                      .dwattr $C$DW$624, DW_AT_TI_symbol_name("_Ki_Id")
    5216                      .dwattr $C$DW$624, DW_AT_data_member_location[DW_OP_plus_uconst 0xd0]
    5217                      .dwattr $C$DW$624, DW_AT_accessibility(DW_ACCESS_public)
    5218              
    5219              $C$DW$625       .dwtag  DW_TAG_member
    5220                      .dwattr $C$DW$625, DW_AT_type(*$C$DW$T$31)
    5221                      .dwattr $C$DW$625, DW_AT_name("Ki_Iq")
    5222                      .dwattr $C$DW$625, DW_AT_TI_symbol_name("_Ki_Iq")
    5223                      .dwattr $C$DW$625, DW_AT_data_member_location[DW_OP_plus_uconst 0xd2]
    5224                      .dwattr $C$DW$625, DW_AT_accessibility(DW_ACCESS_public)
    5225              
    5226              $C$DW$626       .dwtag  DW_TAG_member
    5227                      .dwattr $C$DW$626, DW_AT_type(*$C$DW$T$31)
    5228                      .dwattr $C$DW$626, DW_AT_name("Ki_spd")
    5229                      .dwattr $C$DW$626, DW_AT_TI_symbol_name("_Ki_spd")
    5230                      .dwattr $C$DW$626, DW_AT_data_member_location[DW_OP_plus_uconst 0xd4]
    5231                      .dwattr $C$DW$626, DW_AT_accessibility(DW_ACCESS_public)
    5232              
    5233              $C$DW$627       .dwtag  DW_TAG_member
    5234                      .dwattr $C$DW$627, DW_AT_type(*$C$DW$T$31)
    5235                      .dwattr $C$DW$627, DW_AT_name("Kd_Id")
    5236                      .dwattr $C$DW$627, DW_AT_TI_symbol_name("_Kd_Id")
    5237                      .dwattr $C$DW$627, DW_AT_data_member_location[DW_OP_plus_uconst 0xd6]
    5238                      .dwattr $C$DW$627, DW_AT_accessibility(DW_ACCESS_public)
    5239              
    5240              $C$DW$628       .dwtag  DW_TAG_member
    5241                      .dwattr $C$DW$628, DW_AT_type(*$C$DW$T$31)
    5242                      .dwattr $C$DW$628, DW_AT_name("Kd_Iq")
    5243                      .dwattr $C$DW$628, DW_AT_TI_symbol_name("_Kd_Iq")
    5244                      .dwattr $C$DW$628, DW_AT_data_member_location[DW_OP_plus_uconst 0xd8]
TMS320C2000 Assembler PC v15.12.3 Sun Oct 30 14:01:37 2016

Tools Copyright (c) 1996-2015 Texas Instruments Incorporated
C:\Users\MaCHaDo\AppData\Local\Temp\0057210                          PAGE  102

    5245                      .dwattr $C$DW$628, DW_AT_accessibility(DW_ACCESS_public)
    5246              
    5247              $C$DW$629       .dwtag  DW_TAG_member
    5248                      .dwattr $C$DW$629, DW_AT_type(*$C$DW$T$31)
    5249                      .dwattr $C$DW$629, DW_AT_name("Kd_spd")
    5250                      .dwattr $C$DW$629, DW_AT_TI_symbol_name("_Kd_spd")
    5251                      .dwattr $C$DW$629, DW_AT_data_member_location[DW_OP_plus_uconst 0xda]
    5252                      .dwattr $C$DW$629, DW_AT_accessibility(DW_ACCESS_public)
    5253              
    5254              $C$DW$630       .dwtag  DW_TAG_member
    5255                      .dwattr $C$DW$630, DW_AT_type(*$C$DW$T$31)
    5256                      .dwattr $C$DW$630, DW_AT_name("Ui_Id")
    5257                      .dwattr $C$DW$630, DW_AT_TI_symbol_name("_Ui_Id")
    5258                      .dwattr $C$DW$630, DW_AT_data_member_location[DW_OP_plus_uconst 0xdc]
    5259                      .dwattr $C$DW$630, DW_AT_accessibility(DW_ACCESS_public)
    5260              
    5261              $C$DW$631       .dwtag  DW_TAG_member
    5262                      .dwattr $C$DW$631, DW_AT_type(*$C$DW$T$31)
    5263                      .dwattr $C$DW$631, DW_AT_name("Ui_Iq")
    5264                      .dwattr $C$DW$631, DW_AT_TI_symbol_name("_Ui_Iq")
    5265                      .dwattr $C$DW$631, DW_AT_data_member_location[DW_OP_plus_uconst 0xde]
    5266                      .dwattr $C$DW$631, DW_AT_accessibility(DW_ACCESS_public)
    5267              
    5268              $C$DW$632       .dwtag  DW_TAG_member
    5269                      .dwattr $C$DW$632, DW_AT_type(*$C$DW$T$31)
    5270                      .dwattr $C$DW$632, DW_AT_name("Ui_spd")
    5271                      .dwattr $C$DW$632, DW_AT_TI_symbol_name("_Ui_spd")
    5272                      .dwattr $C$DW$632, DW_AT_data_member_location[DW_OP_plus_uconst 0xe0]
    5273                      .dwattr $C$DW$632, DW_AT_accessibility(DW_ACCESS_public)
    5274              
    5275              $C$DW$633       .dwtag  DW_TAG_member
    5276                      .dwattr $C$DW$633, DW_AT_type(*$C$DW$T$68)
    5277                      .dwattr $C$DW$633, DW_AT_name("Idq_ref")
    5278                      .dwattr $C$DW$633, DW_AT_TI_symbol_name("_Idq_ref")
    5279                      .dwattr $C$DW$633, DW_AT_data_member_location[DW_OP_plus_uconst 0xe2]
    5280                      .dwattr $C$DW$633, DW_AT_accessibility(DW_ACCESS_public)
    5281              
    5282              $C$DW$634       .dwtag  DW_TAG_member
    5283                      .dwattr $C$DW$634, DW_AT_type(*$C$DW$T$31)
    5284                      .dwattr $C$DW$634, DW_AT_name("IdRated")
    5285                      .dwattr $C$DW$634, DW_AT_TI_symbol_name("_IdRated")
    5286                      .dwattr $C$DW$634, DW_AT_data_member_location[DW_OP_plus_uconst 0xe6]
    5287                      .dwattr $C$DW$634, DW_AT_accessibility(DW_ACCESS_public)
    5288              
    5289              $C$DW$635       .dwtag  DW_TAG_member
    5290                      .dwattr $C$DW$635, DW_AT_type(*$C$DW$T$31)
    5291                      .dwattr $C$DW$635, DW_AT_name("spd_ref")
    5292                      .dwattr $C$DW$635, DW_AT_TI_symbol_name("_spd_ref")
    5293                      .dwattr $C$DW$635, DW_AT_data_member_location[DW_OP_plus_uconst 0xe8]
    5294                      .dwattr $C$DW$635, DW_AT_accessibility(DW_ACCESS_public)
    5295              
    5296              $C$DW$636       .dwtag  DW_TAG_member
    5297                      .dwattr $C$DW$636, DW_AT_type(*$C$DW$T$31)
    5298                      .dwattr $C$DW$636, DW_AT_name("spd_max")
    5299                      .dwattr $C$DW$636, DW_AT_TI_symbol_name("_spd_max")
TMS320C2000 Assembler PC v15.12.3 Sun Oct 30 14:01:37 2016

Tools Copyright (c) 1996-2015 Texas Instruments Incorporated
C:\Users\MaCHaDo\AppData\Local\Temp\0057210                          PAGE  103

    5300                      .dwattr $C$DW$636, DW_AT_data_member_location[DW_OP_plus_uconst 0xea]
    5301                      .dwattr $C$DW$636, DW_AT_accessibility(DW_ACCESS_public)
    5302              
    5303              $C$DW$637       .dwtag  DW_TAG_member
    5304                      .dwattr $C$DW$637, DW_AT_type(*$C$DW$T$66)
    5305                      .dwattr $C$DW$637, DW_AT_name("counter_current")
    5306                      .dwattr $C$DW$637, DW_AT_TI_symbol_name("_counter_current")
    5307                      .dwattr $C$DW$637, DW_AT_data_member_location[DW_OP_plus_uconst 0xec]
    5308                      .dwattr $C$DW$637, DW_AT_accessibility(DW_ACCESS_public)
    5309              
    5310              $C$DW$638       .dwtag  DW_TAG_member
    5311                      .dwattr $C$DW$638, DW_AT_type(*$C$DW$T$66)
    5312                      .dwattr $C$DW$638, DW_AT_name("counter_isr")
    5313                      .dwattr $C$DW$638, DW_AT_TI_symbol_name("_counter_isr")
    5314                      .dwattr $C$DW$638, DW_AT_data_member_location[DW_OP_plus_uconst 0xed]
    5315                      .dwattr $C$DW$638, DW_AT_accessibility(DW_ACCESS_public)
    5316              
    5317              $C$DW$639       .dwtag  DW_TAG_member
    5318                      .dwattr $C$DW$639, DW_AT_type(*$C$DW$T$66)
    5319                      .dwattr $C$DW$639, DW_AT_name("counter_speed")
    5320                      .dwattr $C$DW$639, DW_AT_TI_symbol_name("_counter_speed")
    5321                      .dwattr $C$DW$639, DW_AT_data_member_location[DW_OP_plus_uconst 0xee]
    5322                      .dwattr $C$DW$639, DW_AT_accessibility(DW_ACCESS_public)
    5323              
    5324              $C$DW$640       .dwtag  DW_TAG_member
    5325                      .dwattr $C$DW$640, DW_AT_type(*$C$DW$T$66)
    5326                      .dwattr $C$DW$640, DW_AT_name("counter_traj")
    5327                      .dwattr $C$DW$640, DW_AT_TI_symbol_name("_counter_traj")
    5328                      .dwattr $C$DW$640, DW_AT_data_member_location[DW_OP_plus_uconst 0xef]
    5329                      .dwattr $C$DW$640, DW_AT_accessibility(DW_ACCESS_public)
    5330              
    5331              $C$DW$641       .dwtag  DW_TAG_member
    5332                      .dwattr $C$DW$641, DW_AT_type(*$C$DW$T$69)
    5333                      .dwattr $C$DW$641, DW_AT_name("flag_enableCtrl")
    5334                      .dwattr $C$DW$641, DW_AT_TI_symbol_name("_flag_enableCtrl")
    5335                      .dwattr $C$DW$641, DW_AT_data_member_location[DW_OP_plus_uconst 0xf0]
    5336                      .dwattr $C$DW$641, DW_AT_accessibility(DW_ACCESS_public)
    5337              
    5338              $C$DW$642       .dwtag  DW_TAG_member
    5339                      .dwattr $C$DW$642, DW_AT_type(*$C$DW$T$69)
    5340                      .dwattr $C$DW$642, DW_AT_name("flag_enableDcBusComp")
    5341                      .dwattr $C$DW$642, DW_AT_TI_symbol_name("_flag_enableDcBusComp")
    5342                      .dwattr $C$DW$642, DW_AT_data_member_location[DW_OP_plus_uconst 0xf1]
    5343                      .dwattr $C$DW$642, DW_AT_accessibility(DW_ACCESS_public)
    5344              
    5345              $C$DW$643       .dwtag  DW_TAG_member
    5346                      .dwattr $C$DW$643, DW_AT_type(*$C$DW$T$69)
    5347                      .dwattr $C$DW$643, DW_AT_name("flag_enablePowerWarp")
    5348                      .dwattr $C$DW$643, DW_AT_TI_symbol_name("_flag_enablePowerWarp")
    5349                      .dwattr $C$DW$643, DW_AT_data_member_location[DW_OP_plus_uconst 0xf2]
    5350                      .dwattr $C$DW$643, DW_AT_accessibility(DW_ACCESS_public)
    5351              
    5352              $C$DW$644       .dwtag  DW_TAG_member
    5353                      .dwattr $C$DW$644, DW_AT_type(*$C$DW$T$69)
    5354                      .dwattr $C$DW$644, DW_AT_name("flag_enableOffset")
TMS320C2000 Assembler PC v15.12.3 Sun Oct 30 14:01:37 2016

Tools Copyright (c) 1996-2015 Texas Instruments Incorporated
C:\Users\MaCHaDo\AppData\Local\Temp\0057210                          PAGE  104

    5355                      .dwattr $C$DW$644, DW_AT_TI_symbol_name("_flag_enableOffset")
    5356                      .dwattr $C$DW$644, DW_AT_data_member_location[DW_OP_plus_uconst 0xf3]
    5357                      .dwattr $C$DW$644, DW_AT_accessibility(DW_ACCESS_public)
    5358              
    5359              $C$DW$645       .dwtag  DW_TAG_member
    5360                      .dwattr $C$DW$645, DW_AT_type(*$C$DW$T$69)
    5361                      .dwattr $C$DW$645, DW_AT_name("flag_enableSpeedCtrl")
    5362                      .dwattr $C$DW$645, DW_AT_TI_symbol_name("_flag_enableSpeedCtrl")
    5363                      .dwattr $C$DW$645, DW_AT_data_member_location[DW_OP_plus_uconst 0xf4]
    5364                      .dwattr $C$DW$645, DW_AT_accessibility(DW_ACCESS_public)
    5365              
    5366              $C$DW$646       .dwtag  DW_TAG_member
    5367                      .dwattr $C$DW$646, DW_AT_type(*$C$DW$T$69)
    5368                      .dwattr $C$DW$646, DW_AT_name("flag_enableUserMotorParams")
    5369                      .dwattr $C$DW$646, DW_AT_TI_symbol_name("_flag_enableUserMotorParams")
    5370                      .dwattr $C$DW$646, DW_AT_data_member_location[DW_OP_plus_uconst 0xf5]
    5371                      .dwattr $C$DW$646, DW_AT_accessibility(DW_ACCESS_public)
    5372              
    5373              $C$DW$647       .dwtag  DW_TAG_member
    5374                      .dwattr $C$DW$647, DW_AT_type(*$C$DW$T$68)
    5375                      .dwattr $C$DW$647, DW_AT_name("Idq_offset_pu")
    5376                      .dwattr $C$DW$647, DW_AT_TI_symbol_name("_Idq_offset_pu")
    5377                      .dwattr $C$DW$647, DW_AT_data_member_location[DW_OP_plus_uconst 0xf6]
    5378                      .dwattr $C$DW$647, DW_AT_accessibility(DW_ACCESS_public)
    5379              
    5380              $C$DW$648       .dwtag  DW_TAG_member
    5381                      .dwattr $C$DW$648, DW_AT_type(*$C$DW$T$68)
    5382                      .dwattr $C$DW$648, DW_AT_name("Vdq_offset_pu")
    5383                      .dwattr $C$DW$648, DW_AT_TI_symbol_name("_Vdq_offset_pu")
    5384                      .dwattr $C$DW$648, DW_AT_data_member_location[DW_OP_plus_uconst 0xfa]
    5385                      .dwattr $C$DW$648, DW_AT_accessibility(DW_ACCESS_public)
    5386              
    5387              $C$DW$649       .dwtag  DW_TAG_member
    5388                      .dwattr $C$DW$649, DW_AT_type(*$C$DW$T$31)
    5389                      .dwattr $C$DW$649, DW_AT_name("angle_pu")
    5390                      .dwattr $C$DW$649, DW_AT_TI_symbol_name("_angle_pu")
    5391                      .dwattr $C$DW$649, DW_AT_data_member_location[DW_OP_plus_uconst 0xfe]
    5392                      .dwattr $C$DW$649, DW_AT_accessibility(DW_ACCESS_public)
    5393              
    5394              $C$DW$650       .dwtag  DW_TAG_member
    5395                      .dwattr $C$DW$650, DW_AT_type(*$C$DW$T$31)
    5396                      .dwattr $C$DW$650, DW_AT_name("speed_ref_pu")
    5397                      .dwattr $C$DW$650, DW_AT_TI_symbol_name("_speed_ref_pu")
    5398                      .dwattr $C$DW$650, DW_AT_data_member_location[DW_OP_plus_uconst 0x100]
    5399                      .dwattr $C$DW$650, DW_AT_accessibility(DW_ACCESS_public)
    5400              
    5401              $C$DW$651       .dwtag  DW_TAG_member
    5402                      .dwattr $C$DW$651, DW_AT_type(*$C$DW$T$31)
    5403                      .dwattr $C$DW$651, DW_AT_name("speed_fb_pu")
    5404                      .dwattr $C$DW$651, DW_AT_TI_symbol_name("_speed_fb_pu")
    5405                      .dwattr $C$DW$651, DW_AT_data_member_location[DW_OP_plus_uconst 0x102]
    5406                      .dwattr $C$DW$651, DW_AT_accessibility(DW_ACCESS_public)
    5407              
    5408              $C$DW$652       .dwtag  DW_TAG_member
    5409                      .dwattr $C$DW$652, DW_AT_type(*$C$DW$T$31)
TMS320C2000 Assembler PC v15.12.3 Sun Oct 30 14:01:37 2016

Tools Copyright (c) 1996-2015 Texas Instruments Incorporated
C:\Users\MaCHaDo\AppData\Local\Temp\0057210                          PAGE  105

    5410                      .dwattr $C$DW$652, DW_AT_name("speed_outMax_pu")
    5411                      .dwattr $C$DW$652, DW_AT_TI_symbol_name("_speed_outMax_pu")
    5412                      .dwattr $C$DW$652, DW_AT_data_member_location[DW_OP_plus_uconst 0x104]
    5413                      .dwattr $C$DW$652, DW_AT_accessibility(DW_ACCESS_public)
    5414              
    5415              $C$DW$653       .dwtag  DW_TAG_member
    5416                      .dwattr $C$DW$653, DW_AT_type(*$C$DW$T$69)
    5417                      .dwattr $C$DW$653, DW_AT_name("flag_enableCurrentCtrl")
    5418                      .dwattr $C$DW$653, DW_AT_TI_symbol_name("_flag_enableCurrentCtrl")
    5419                      .dwattr $C$DW$653, DW_AT_data_member_location[DW_OP_plus_uconst 0x106]
    5420                      .dwattr $C$DW$653, DW_AT_accessibility(DW_ACCESS_public)
    5421              
    5422                      .dwendtag $C$DW$T$70
    5423              
    5424              $C$DW$T$229     .dwtag  DW_TAG_typedef
    5425                      .dwattr $C$DW$T$229, DW_AT_name("CTRL_Obj")
    5426                      .dwattr $C$DW$T$229, DW_AT_type(*$C$DW$T$70)
    5427                      .dwattr $C$DW$T$229, DW_AT_language(DW_LANG_C)
    5428              
    5429              $C$DW$T$230     .dwtag  DW_TAG_pointer_type
    5430                      .dwattr $C$DW$T$230, DW_AT_type(*$C$DW$T$229)
    5431                      .dwattr $C$DW$T$230, DW_AT_address_class(0x20)
    5432              
    5433              $C$DW$T$200     .dwtag  DW_TAG_pointer_type
    5434                      .dwattr $C$DW$T$200, DW_AT_type(*$C$DW$T$70)
    5435                      .dwattr $C$DW$T$200, DW_AT_address_class(0x20)
    5436              
    5437              $C$DW$T$201     .dwtag  DW_TAG_typedef
    5438                      .dwattr $C$DW$T$201, DW_AT_name("CTRL_Handle")
    5439                      .dwattr $C$DW$T$201, DW_AT_type(*$C$DW$T$200)
    5440                      .dwattr $C$DW$T$201, DW_AT_language(DW_LANG_C)
    5441              
    5442              $C$DW$654       .dwtag  DW_TAG_TI_far_type
    5443                      .dwattr $C$DW$654, DW_AT_type(*$C$DW$T$201)
    5444              
    5445              $C$DW$T$231     .dwtag  DW_TAG_const_type
    5446                      .dwattr $C$DW$T$231, DW_AT_type(*$C$DW$654)
    5447              
    5448              
    5449              $C$DW$T$73      .dwtag  DW_TAG_structure_type
    5450                      .dwattr $C$DW$T$73, DW_AT_name("_CTRL_Version_")
    5451                      .dwattr $C$DW$T$73, DW_AT_byte_size(0x04)
    5452              $C$DW$655       .dwtag  DW_TAG_member
    5453                      .dwattr $C$DW$655, DW_AT_type(*$C$DW$T$22)
    5454                      .dwattr $C$DW$655, DW_AT_name("rsvd")
    5455                      .dwattr $C$DW$655, DW_AT_TI_symbol_name("_rsvd")
    5456                      .dwattr $C$DW$655, DW_AT_data_member_location[DW_OP_plus_uconst 0x0]
    5457                      .dwattr $C$DW$655, DW_AT_accessibility(DW_ACCESS_public)
    5458              
    5459              $C$DW$656       .dwtag  DW_TAG_member
    5460                      .dwattr $C$DW$656, DW_AT_type(*$C$DW$T$72)
    5461                      .dwattr $C$DW$656, DW_AT_name("targetProc")
    5462                      .dwattr $C$DW$656, DW_AT_TI_symbol_name("_targetProc")
    5463                      .dwattr $C$DW$656, DW_AT_data_member_location[DW_OP_plus_uconst 0x1]
    5464                      .dwattr $C$DW$656, DW_AT_accessibility(DW_ACCESS_public)
TMS320C2000 Assembler PC v15.12.3 Sun Oct 30 14:01:37 2016

Tools Copyright (c) 1996-2015 Texas Instruments Incorporated
C:\Users\MaCHaDo\AppData\Local\Temp\0057210                          PAGE  106

    5465              
    5466              $C$DW$657       .dwtag  DW_TAG_member
    5467                      .dwattr $C$DW$657, DW_AT_type(*$C$DW$T$22)
    5468                      .dwattr $C$DW$657, DW_AT_name("major")
    5469                      .dwattr $C$DW$657, DW_AT_TI_symbol_name("_major")
    5470                      .dwattr $C$DW$657, DW_AT_data_member_location[DW_OP_plus_uconst 0x2]
    5471                      .dwattr $C$DW$657, DW_AT_accessibility(DW_ACCESS_public)
    5472              
    5473              $C$DW$658       .dwtag  DW_TAG_member
    5474                      .dwattr $C$DW$658, DW_AT_type(*$C$DW$T$22)
    5475                      .dwattr $C$DW$658, DW_AT_name("minor")
    5476                      .dwattr $C$DW$658, DW_AT_TI_symbol_name("_minor")
    5477                      .dwattr $C$DW$658, DW_AT_data_member_location[DW_OP_plus_uconst 0x3]
    5478                      .dwattr $C$DW$658, DW_AT_accessibility(DW_ACCESS_public)
    5479              
    5480                      .dwendtag $C$DW$T$73
    5481              
    5482              $C$DW$T$37      .dwtag  DW_TAG_typedef
    5483                      .dwattr $C$DW$T$37, DW_AT_name("CTRL_Version")
    5484                      .dwattr $C$DW$T$37, DW_AT_type(*$C$DW$T$73)
    5485                      .dwattr $C$DW$T$37, DW_AT_language(DW_LANG_C)
    5486              
    5487              $C$DW$T$239     .dwtag  DW_TAG_pointer_type
    5488                      .dwattr $C$DW$T$239, DW_AT_type(*$C$DW$T$37)
    5489                      .dwattr $C$DW$T$239, DW_AT_address_class(0x20)
    5490              
    5491              
    5492              $C$DW$T$80      .dwtag  DW_TAG_structure_type
    5493                      .dwattr $C$DW$T$80, DW_AT_name("_DRV8301_Obj_")
    5494                      .dwattr $C$DW$T$80, DW_AT_byte_size(0x08)
    5495              $C$DW$659       .dwtag  DW_TAG_member
    5496                      .dwattr $C$DW$659, DW_AT_type(*$C$DW$T$75)
    5497                      .dwattr $C$DW$659, DW_AT_name("spiHandle")
    5498                      .dwattr $C$DW$659, DW_AT_TI_symbol_name("_spiHandle")
    5499                      .dwattr $C$DW$659, DW_AT_data_member_location[DW_OP_plus_uconst 0x0]
    5500                      .dwattr $C$DW$659, DW_AT_accessibility(DW_ACCESS_public)
    5501              
    5502              $C$DW$660       .dwtag  DW_TAG_member
    5503                      .dwattr $C$DW$660, DW_AT_type(*$C$DW$T$77)
    5504                      .dwattr $C$DW$660, DW_AT_name("gpioHandle")
    5505                      .dwattr $C$DW$660, DW_AT_TI_symbol_name("_gpioHandle")
    5506                      .dwattr $C$DW$660, DW_AT_data_member_location[DW_OP_plus_uconst 0x2]
    5507                      .dwattr $C$DW$660, DW_AT_accessibility(DW_ACCESS_public)
    5508              
    5509              $C$DW$661       .dwtag  DW_TAG_member
    5510                      .dwattr $C$DW$661, DW_AT_type(*$C$DW$T$79)
    5511                      .dwattr $C$DW$661, DW_AT_name("gpioNumber")
    5512                      .dwattr $C$DW$661, DW_AT_TI_symbol_name("_gpioNumber")
    5513                      .dwattr $C$DW$661, DW_AT_data_member_location[DW_OP_plus_uconst 0x4]
    5514                      .dwattr $C$DW$661, DW_AT_accessibility(DW_ACCESS_public)
    5515              
    5516              $C$DW$662       .dwtag  DW_TAG_member
    5517                      .dwattr $C$DW$662, DW_AT_type(*$C$DW$T$69)
    5518                      .dwattr $C$DW$662, DW_AT_name("RxTimeOut")
    5519                      .dwattr $C$DW$662, DW_AT_TI_symbol_name("_RxTimeOut")
TMS320C2000 Assembler PC v15.12.3 Sun Oct 30 14:01:37 2016

Tools Copyright (c) 1996-2015 Texas Instruments Incorporated
C:\Users\MaCHaDo\AppData\Local\Temp\0057210                          PAGE  107

    5520                      .dwattr $C$DW$662, DW_AT_data_member_location[DW_OP_plus_uconst 0x5]
    5521                      .dwattr $C$DW$662, DW_AT_accessibility(DW_ACCESS_public)
    5522              
    5523              $C$DW$663       .dwtag  DW_TAG_member
    5524                      .dwattr $C$DW$663, DW_AT_type(*$C$DW$T$69)
    5525                      .dwattr $C$DW$663, DW_AT_name("enableTimeOut")
    5526                      .dwattr $C$DW$663, DW_AT_TI_symbol_name("_enableTimeOut")
    5527                      .dwattr $C$DW$663, DW_AT_data_member_location[DW_OP_plus_uconst 0x6]
    5528                      .dwattr $C$DW$663, DW_AT_accessibility(DW_ACCESS_public)
    5529              
    5530                      .dwendtag $C$DW$T$80
    5531              
    5532              $C$DW$T$149     .dwtag  DW_TAG_typedef
    5533                      .dwattr $C$DW$T$149, DW_AT_name("DRV8301_Obj")
    5534                      .dwattr $C$DW$T$149, DW_AT_type(*$C$DW$T$80)
    5535                      .dwattr $C$DW$T$149, DW_AT_language(DW_LANG_C)
    5536              
    5537              $C$DW$T$147     .dwtag  DW_TAG_pointer_type
    5538                      .dwattr $C$DW$T$147, DW_AT_type(*$C$DW$T$80)
    5539                      .dwattr $C$DW$T$147, DW_AT_address_class(0x20)
    5540              
    5541              $C$DW$T$148     .dwtag  DW_TAG_typedef
    5542                      .dwattr $C$DW$T$148, DW_AT_name("DRV8301_Handle")
    5543                      .dwattr $C$DW$T$148, DW_AT_type(*$C$DW$T$147)
    5544                      .dwattr $C$DW$T$148, DW_AT_language(DW_LANG_C)
    5545              
    5546              
    5547              $C$DW$T$91      .dwtag  DW_TAG_structure_type
    5548                      .dwattr $C$DW$T$91, DW_AT_name("_DRV_SPI_8301_CTRL1_t_")
    5549                      .dwattr $C$DW$T$91, DW_AT_byte_size(0x05)
    5550              $C$DW$664       .dwtag  DW_TAG_member
    5551                      .dwattr $C$DW$664, DW_AT_type(*$C$DW$T$82)
    5552                      .dwattr $C$DW$664, DW_AT_name("DRV8301_CURRENT")
    5553                      .dwattr $C$DW$664, DW_AT_TI_symbol_name("_DRV8301_CURRENT")
    5554                      .dwattr $C$DW$664, DW_AT_data_member_location[DW_OP_plus_uconst 0x0]
    5555                      .dwattr $C$DW$664, DW_AT_accessibility(DW_ACCESS_public)
    5556              
    5557              $C$DW$665       .dwtag  DW_TAG_member
    5558                      .dwattr $C$DW$665, DW_AT_type(*$C$DW$T$84)
    5559                      .dwattr $C$DW$665, DW_AT_name("DRV8301_RESET")
    5560                      .dwattr $C$DW$665, DW_AT_TI_symbol_name("_DRV8301_RESET")
    5561                      .dwattr $C$DW$665, DW_AT_data_member_location[DW_OP_plus_uconst 0x1]
    5562                      .dwattr $C$DW$665, DW_AT_accessibility(DW_ACCESS_public)
    5563              
    5564              $C$DW$666       .dwtag  DW_TAG_member
    5565                      .dwattr $C$DW$666, DW_AT_type(*$C$DW$T$86)
    5566                      .dwattr $C$DW$666, DW_AT_name("PWM_MODE")
    5567                      .dwattr $C$DW$666, DW_AT_TI_symbol_name("_PWM_MODE")
    5568                      .dwattr $C$DW$666, DW_AT_data_member_location[DW_OP_plus_uconst 0x2]
    5569                      .dwattr $C$DW$666, DW_AT_accessibility(DW_ACCESS_public)
    5570              
    5571              $C$DW$667       .dwtag  DW_TAG_member
    5572                      .dwattr $C$DW$667, DW_AT_type(*$C$DW$T$88)
    5573                      .dwattr $C$DW$667, DW_AT_name("OC_MODE")
    5574                      .dwattr $C$DW$667, DW_AT_TI_symbol_name("_OC_MODE")
TMS320C2000 Assembler PC v15.12.3 Sun Oct 30 14:01:37 2016

Tools Copyright (c) 1996-2015 Texas Instruments Incorporated
C:\Users\MaCHaDo\AppData\Local\Temp\0057210                          PAGE  108

    5575                      .dwattr $C$DW$667, DW_AT_data_member_location[DW_OP_plus_uconst 0x3]
    5576                      .dwattr $C$DW$667, DW_AT_accessibility(DW_ACCESS_public)
    5577              
    5578              $C$DW$668       .dwtag  DW_TAG_member
    5579                      .dwattr $C$DW$668, DW_AT_type(*$C$DW$T$90)
    5580                      .dwattr $C$DW$668, DW_AT_name("OC_ADJ_SET")
    5581                      .dwattr $C$DW$668, DW_AT_TI_symbol_name("_OC_ADJ_SET")
    5582                      .dwattr $C$DW$668, DW_AT_data_member_location[DW_OP_plus_uconst 0x4]
    5583                      .dwattr $C$DW$668, DW_AT_accessibility(DW_ACCESS_public)
    5584              
    5585                      .dwendtag $C$DW$T$91
    5586              
    5587              $C$DW$T$105     .dwtag  DW_TAG_typedef
    5588                      .dwattr $C$DW$T$105, DW_AT_name("DRV_SPI_8301_CTRL1_t_")
    5589                      .dwattr $C$DW$T$105, DW_AT_type(*$C$DW$T$91)
    5590                      .dwattr $C$DW$T$105, DW_AT_language(DW_LANG_C)
    5591              
    5592              
    5593              $C$DW$T$100     .dwtag  DW_TAG_structure_type
    5594                      .dwattr $C$DW$T$100, DW_AT_name("_DRV_SPI_8301_CTRL2_t_")
    5595                      .dwattr $C$DW$T$100, DW_AT_byte_size(0x04)
    5596              $C$DW$669       .dwtag  DW_TAG_member
    5597                      .dwattr $C$DW$669, DW_AT_type(*$C$DW$T$93)
    5598                      .dwattr $C$DW$669, DW_AT_name("OCTW_SET")
    5599                      .dwattr $C$DW$669, DW_AT_TI_symbol_name("_OCTW_SET")
    5600                      .dwattr $C$DW$669, DW_AT_data_member_location[DW_OP_plus_uconst 0x0]
    5601                      .dwattr $C$DW$669, DW_AT_accessibility(DW_ACCESS_public)
    5602              
    5603              $C$DW$670       .dwtag  DW_TAG_member
    5604                      .dwattr $C$DW$670, DW_AT_type(*$C$DW$T$95)
    5605                      .dwattr $C$DW$670, DW_AT_name("GAIN")
    5606                      .dwattr $C$DW$670, DW_AT_TI_symbol_name("_GAIN")
    5607                      .dwattr $C$DW$670, DW_AT_data_member_location[DW_OP_plus_uconst 0x1]
    5608                      .dwattr $C$DW$670, DW_AT_accessibility(DW_ACCESS_public)
    5609              
    5610              $C$DW$671       .dwtag  DW_TAG_member
    5611                      .dwattr $C$DW$671, DW_AT_type(*$C$DW$T$97)
    5612                      .dwattr $C$DW$671, DW_AT_name("DC_CAL_CH1p2")
    5613                      .dwattr $C$DW$671, DW_AT_TI_symbol_name("_DC_CAL_CH1p2")
    5614                      .dwattr $C$DW$671, DW_AT_data_member_location[DW_OP_plus_uconst 0x2]
    5615                      .dwattr $C$DW$671, DW_AT_accessibility(DW_ACCESS_public)
    5616              
    5617              $C$DW$672       .dwtag  DW_TAG_member
    5618                      .dwattr $C$DW$672, DW_AT_type(*$C$DW$T$99)
    5619                      .dwattr $C$DW$672, DW_AT_name("OC_TOFF")
    5620                      .dwattr $C$DW$672, DW_AT_TI_symbol_name("_OC_TOFF")
    5621                      .dwattr $C$DW$672, DW_AT_data_member_location[DW_OP_plus_uconst 0x3]
    5622                      .dwattr $C$DW$672, DW_AT_accessibility(DW_ACCESS_public)
    5623              
    5624                      .dwendtag $C$DW$T$100
    5625              
    5626              $C$DW$T$106     .dwtag  DW_TAG_typedef
    5627                      .dwattr $C$DW$T$106, DW_AT_name("DRV_SPI_8301_CTRL2_t_")
    5628                      .dwattr $C$DW$T$106, DW_AT_type(*$C$DW$T$100)
    5629                      .dwattr $C$DW$T$106, DW_AT_language(DW_LANG_C)
TMS320C2000 Assembler PC v15.12.3 Sun Oct 30 14:01:37 2016

Tools Copyright (c) 1996-2015 Texas Instruments Incorporated
C:\Users\MaCHaDo\AppData\Local\Temp\0057210                          PAGE  109

    5630              
    5631              
    5632              $C$DW$T$101     .dwtag  DW_TAG_structure_type
    5633                      .dwattr $C$DW$T$101, DW_AT_name("_DRV_SPI_8301_Stat1_t_")
    5634                      .dwattr $C$DW$T$101, DW_AT_byte_size(0x0b)
    5635              $C$DW$673       .dwtag  DW_TAG_member
    5636                      .dwattr $C$DW$673, DW_AT_type(*$C$DW$T$69)
    5637                      .dwattr $C$DW$673, DW_AT_name("FAULT")
    5638                      .dwattr $C$DW$673, DW_AT_TI_symbol_name("_FAULT")
    5639                      .dwattr $C$DW$673, DW_AT_data_member_location[DW_OP_plus_uconst 0x0]
    5640                      .dwattr $C$DW$673, DW_AT_accessibility(DW_ACCESS_public)
    5641              
    5642              $C$DW$674       .dwtag  DW_TAG_member
    5643                      .dwattr $C$DW$674, DW_AT_type(*$C$DW$T$69)
    5644                      .dwattr $C$DW$674, DW_AT_name("GVDD_UV")
    5645                      .dwattr $C$DW$674, DW_AT_TI_symbol_name("_GVDD_UV")
    5646                      .dwattr $C$DW$674, DW_AT_data_member_location[DW_OP_plus_uconst 0x1]
    5647                      .dwattr $C$DW$674, DW_AT_accessibility(DW_ACCESS_public)
    5648              
    5649              $C$DW$675       .dwtag  DW_TAG_member
    5650                      .dwattr $C$DW$675, DW_AT_type(*$C$DW$T$69)
    5651                      .dwattr $C$DW$675, DW_AT_name("PVDD_UV")
    5652                      .dwattr $C$DW$675, DW_AT_TI_symbol_name("_PVDD_UV")
    5653                      .dwattr $C$DW$675, DW_AT_data_member_location[DW_OP_plus_uconst 0x2]
    5654                      .dwattr $C$DW$675, DW_AT_accessibility(DW_ACCESS_public)
    5655              
    5656              $C$DW$676       .dwtag  DW_TAG_member
    5657                      .dwattr $C$DW$676, DW_AT_type(*$C$DW$T$69)
    5658                      .dwattr $C$DW$676, DW_AT_name("OTSD")
    5659                      .dwattr $C$DW$676, DW_AT_TI_symbol_name("_OTSD")
    5660                      .dwattr $C$DW$676, DW_AT_data_member_location[DW_OP_plus_uconst 0x3]
    5661                      .dwattr $C$DW$676, DW_AT_accessibility(DW_ACCESS_public)
    5662              
    5663              $C$DW$677       .dwtag  DW_TAG_member
    5664                      .dwattr $C$DW$677, DW_AT_type(*$C$DW$T$69)
    5665                      .dwattr $C$DW$677, DW_AT_name("OTW")
    5666                      .dwattr $C$DW$677, DW_AT_TI_symbol_name("_OTW")
    5667                      .dwattr $C$DW$677, DW_AT_data_member_location[DW_OP_plus_uconst 0x4]
    5668                      .dwattr $C$DW$677, DW_AT_accessibility(DW_ACCESS_public)
    5669              
    5670              $C$DW$678       .dwtag  DW_TAG_member
    5671                      .dwattr $C$DW$678, DW_AT_type(*$C$DW$T$69)
    5672                      .dwattr $C$DW$678, DW_AT_name("FETHA_OC")
    5673                      .dwattr $C$DW$678, DW_AT_TI_symbol_name("_FETHA_OC")
    5674                      .dwattr $C$DW$678, DW_AT_data_member_location[DW_OP_plus_uconst 0x5]
    5675                      .dwattr $C$DW$678, DW_AT_accessibility(DW_ACCESS_public)
    5676              
    5677              $C$DW$679       .dwtag  DW_TAG_member
    5678                      .dwattr $C$DW$679, DW_AT_type(*$C$DW$T$69)
    5679                      .dwattr $C$DW$679, DW_AT_name("FETLA_OC")
    5680                      .dwattr $C$DW$679, DW_AT_TI_symbol_name("_FETLA_OC")
    5681                      .dwattr $C$DW$679, DW_AT_data_member_location[DW_OP_plus_uconst 0x6]
    5682                      .dwattr $C$DW$679, DW_AT_accessibility(DW_ACCESS_public)
    5683              
    5684              $C$DW$680       .dwtag  DW_TAG_member
TMS320C2000 Assembler PC v15.12.3 Sun Oct 30 14:01:37 2016

Tools Copyright (c) 1996-2015 Texas Instruments Incorporated
C:\Users\MaCHaDo\AppData\Local\Temp\0057210                          PAGE  110

    5685                      .dwattr $C$DW$680, DW_AT_type(*$C$DW$T$69)
    5686                      .dwattr $C$DW$680, DW_AT_name("FETHB_OC")
    5687                      .dwattr $C$DW$680, DW_AT_TI_symbol_name("_FETHB_OC")
    5688                      .dwattr $C$DW$680, DW_AT_data_member_location[DW_OP_plus_uconst 0x7]
    5689                      .dwattr $C$DW$680, DW_AT_accessibility(DW_ACCESS_public)
    5690              
    5691              $C$DW$681       .dwtag  DW_TAG_member
    5692                      .dwattr $C$DW$681, DW_AT_type(*$C$DW$T$69)
    5693                      .dwattr $C$DW$681, DW_AT_name("FETLB_OC")
    5694                      .dwattr $C$DW$681, DW_AT_TI_symbol_name("_FETLB_OC")
    5695                      .dwattr $C$DW$681, DW_AT_data_member_location[DW_OP_plus_uconst 0x8]
    5696                      .dwattr $C$DW$681, DW_AT_accessibility(DW_ACCESS_public)
    5697              
    5698              $C$DW$682       .dwtag  DW_TAG_member
    5699                      .dwattr $C$DW$682, DW_AT_type(*$C$DW$T$69)
    5700                      .dwattr $C$DW$682, DW_AT_name("FETHC_OC")
    5701                      .dwattr $C$DW$682, DW_AT_TI_symbol_name("_FETHC_OC")
    5702                      .dwattr $C$DW$682, DW_AT_data_member_location[DW_OP_plus_uconst 0x9]
    5703                      .dwattr $C$DW$682, DW_AT_accessibility(DW_ACCESS_public)
    5704              
    5705              $C$DW$683       .dwtag  DW_TAG_member
    5706                      .dwattr $C$DW$683, DW_AT_type(*$C$DW$T$69)
    5707                      .dwattr $C$DW$683, DW_AT_name("FETLC_OC")
    5708                      .dwattr $C$DW$683, DW_AT_TI_symbol_name("_FETLC_OC")
    5709                      .dwattr $C$DW$683, DW_AT_data_member_location[DW_OP_plus_uconst 0xa]
    5710                      .dwattr $C$DW$683, DW_AT_accessibility(DW_ACCESS_public)
    5711              
    5712                      .dwendtag $C$DW$T$101
    5713              
    5714              $C$DW$T$103     .dwtag  DW_TAG_typedef
    5715                      .dwattr $C$DW$T$103, DW_AT_name("DRV_SPI_8301_Stat1_t_")
    5716                      .dwattr $C$DW$T$103, DW_AT_type(*$C$DW$T$101)
    5717                      .dwattr $C$DW$T$103, DW_AT_language(DW_LANG_C)
    5718              
    5719              
    5720              $C$DW$T$102     .dwtag  DW_TAG_structure_type
    5721                      .dwattr $C$DW$T$102, DW_AT_name("_DRV_SPI_8301_Stat2_t_")
    5722                      .dwattr $C$DW$T$102, DW_AT_byte_size(0x02)
    5723              $C$DW$684       .dwtag  DW_TAG_member
    5724                      .dwattr $C$DW$684, DW_AT_type(*$C$DW$T$69)
    5725                      .dwattr $C$DW$684, DW_AT_name("GVDD_OV")
    5726                      .dwattr $C$DW$684, DW_AT_TI_symbol_name("_GVDD_OV")
    5727                      .dwattr $C$DW$684, DW_AT_data_member_location[DW_OP_plus_uconst 0x0]
    5728                      .dwattr $C$DW$684, DW_AT_accessibility(DW_ACCESS_public)
    5729              
    5730              $C$DW$685       .dwtag  DW_TAG_member
    5731                      .dwattr $C$DW$685, DW_AT_type(*$C$DW$T$22)
    5732                      .dwattr $C$DW$685, DW_AT_name("DeviceID")
    5733                      .dwattr $C$DW$685, DW_AT_TI_symbol_name("_DeviceID")
    5734                      .dwattr $C$DW$685, DW_AT_data_member_location[DW_OP_plus_uconst 0x1]
    5735                      .dwattr $C$DW$685, DW_AT_accessibility(DW_ACCESS_public)
    5736              
    5737                      .dwendtag $C$DW$T$102
    5738              
    5739              $C$DW$T$104     .dwtag  DW_TAG_typedef
TMS320C2000 Assembler PC v15.12.3 Sun Oct 30 14:01:37 2016

Tools Copyright (c) 1996-2015 Texas Instruments Incorporated
C:\Users\MaCHaDo\AppData\Local\Temp\0057210                          PAGE  111

    5740                      .dwattr $C$DW$T$104, DW_AT_name("DRV_SPI_8301_Stat2_t_")
    5741                      .dwattr $C$DW$T$104, DW_AT_type(*$C$DW$T$102)
    5742                      .dwattr $C$DW$T$104, DW_AT_language(DW_LANG_C)
    5743              
    5744              
    5745              $C$DW$T$107     .dwtag  DW_TAG_structure_type
    5746                      .dwattr $C$DW$T$107, DW_AT_name("_DRV_SPI_8301_Vars_t_")
    5747                      .dwattr $C$DW$T$107, DW_AT_byte_size(0x18)
    5748              $C$DW$686       .dwtag  DW_TAG_member
    5749                      .dwattr $C$DW$686, DW_AT_type(*$C$DW$T$103)
    5750                      .dwattr $C$DW$686, DW_AT_name("Stat_Reg_1")
    5751                      .dwattr $C$DW$686, DW_AT_TI_symbol_name("_Stat_Reg_1")
    5752                      .dwattr $C$DW$686, DW_AT_data_member_location[DW_OP_plus_uconst 0x0]
    5753                      .dwattr $C$DW$686, DW_AT_accessibility(DW_ACCESS_public)
    5754              
    5755              $C$DW$687       .dwtag  DW_TAG_member
    5756                      .dwattr $C$DW$687, DW_AT_type(*$C$DW$T$104)
    5757                      .dwattr $C$DW$687, DW_AT_name("Stat_Reg_2")
    5758                      .dwattr $C$DW$687, DW_AT_TI_symbol_name("_Stat_Reg_2")
    5759                      .dwattr $C$DW$687, DW_AT_data_member_location[DW_OP_plus_uconst 0xb]
    5760                      .dwattr $C$DW$687, DW_AT_accessibility(DW_ACCESS_public)
    5761              
    5762              $C$DW$688       .dwtag  DW_TAG_member
    5763                      .dwattr $C$DW$688, DW_AT_type(*$C$DW$T$105)
    5764                      .dwattr $C$DW$688, DW_AT_name("Ctrl_Reg_1")
    5765                      .dwattr $C$DW$688, DW_AT_TI_symbol_name("_Ctrl_Reg_1")
    5766                      .dwattr $C$DW$688, DW_AT_data_member_location[DW_OP_plus_uconst 0xd]
    5767                      .dwattr $C$DW$688, DW_AT_accessibility(DW_ACCESS_public)
    5768              
    5769              $C$DW$689       .dwtag  DW_TAG_member
    5770                      .dwattr $C$DW$689, DW_AT_type(*$C$DW$T$106)
    5771                      .dwattr $C$DW$689, DW_AT_name("Ctrl_Reg_2")
    5772                      .dwattr $C$DW$689, DW_AT_TI_symbol_name("_Ctrl_Reg_2")
    5773                      .dwattr $C$DW$689, DW_AT_data_member_location[DW_OP_plus_uconst 0x12]
    5774                      .dwattr $C$DW$689, DW_AT_accessibility(DW_ACCESS_public)
    5775              
    5776              $C$DW$690       .dwtag  DW_TAG_member
    5777                      .dwattr $C$DW$690, DW_AT_type(*$C$DW$T$69)
    5778                      .dwattr $C$DW$690, DW_AT_name("SndCmd")
    5779                      .dwattr $C$DW$690, DW_AT_TI_symbol_name("_SndCmd")
    5780                      .dwattr $C$DW$690, DW_AT_data_member_location[DW_OP_plus_uconst 0x16]
    5781                      .dwattr $C$DW$690, DW_AT_accessibility(DW_ACCESS_public)
    5782              
    5783              $C$DW$691       .dwtag  DW_TAG_member
    5784                      .dwattr $C$DW$691, DW_AT_type(*$C$DW$T$69)
    5785                      .dwattr $C$DW$691, DW_AT_name("RcvCmd")
    5786                      .dwattr $C$DW$691, DW_AT_TI_symbol_name("_RcvCmd")
    5787                      .dwattr $C$DW$691, DW_AT_data_member_location[DW_OP_plus_uconst 0x17]
    5788                      .dwattr $C$DW$691, DW_AT_accessibility(DW_ACCESS_public)
    5789              
    5790                      .dwendtag $C$DW$T$107
    5791              
    5792              $C$DW$T$242     .dwtag  DW_TAG_typedef
    5793                      .dwattr $C$DW$T$242, DW_AT_name("DRV_SPI_8301_Vars_t")
    5794                      .dwattr $C$DW$T$242, DW_AT_type(*$C$DW$T$107)
TMS320C2000 Assembler PC v15.12.3 Sun Oct 30 14:01:37 2016

Tools Copyright (c) 1996-2015 Texas Instruments Incorporated
C:\Users\MaCHaDo\AppData\Local\Temp\0057210                          PAGE  112

    5795                      .dwattr $C$DW$T$242, DW_AT_language(DW_LANG_C)
    5796              
    5797              $C$DW$T$243     .dwtag  DW_TAG_pointer_type
    5798                      .dwattr $C$DW$T$243, DW_AT_type(*$C$DW$T$242)
    5799                      .dwattr $C$DW$T$243, DW_AT_address_class(0x20)
    5800              
    5801              
    5802              $C$DW$T$19      .dwtag  DW_TAG_structure_type
    5803                      .dwattr $C$DW$T$19, DW_AT_name("_EST_Obj_")
    5804                      .dwattr $C$DW$T$19, DW_AT_declaration
    5805                      .dwendtag $C$DW$T$19
    5806              
    5807              $C$DW$T$45      .dwtag  DW_TAG_pointer_type
    5808                      .dwattr $C$DW$T$45, DW_AT_type(*$C$DW$T$19)
    5809                      .dwattr $C$DW$T$45, DW_AT_address_class(0x20)
    5810              
    5811              $C$DW$T$46      .dwtag  DW_TAG_typedef
    5812                      .dwattr $C$DW$T$46, DW_AT_name("EST_Handle")
    5813                      .dwattr $C$DW$T$46, DW_AT_type(*$C$DW$T$45)
    5814                      .dwattr $C$DW$T$46, DW_AT_language(DW_LANG_C)
    5815              
    5816              
    5817              $C$DW$T$108     .dwtag  DW_TAG_structure_type
    5818                      .dwattr $C$DW$T$108, DW_AT_name("_FILTER_FO_")
    5819                      .dwattr $C$DW$T$108, DW_AT_byte_size(0x0a)
    5820              $C$DW$692       .dwtag  DW_TAG_member
    5821                      .dwattr $C$DW$692, DW_AT_type(*$C$DW$T$31)
    5822                      .dwattr $C$DW$692, DW_AT_name("a1")
    5823                      .dwattr $C$DW$692, DW_AT_TI_symbol_name("_a1")
    5824                      .dwattr $C$DW$692, DW_AT_data_member_location[DW_OP_plus_uconst 0x0]
    5825                      .dwattr $C$DW$692, DW_AT_accessibility(DW_ACCESS_public)
    5826              
    5827              $C$DW$693       .dwtag  DW_TAG_member
    5828                      .dwattr $C$DW$693, DW_AT_type(*$C$DW$T$31)
    5829                      .dwattr $C$DW$693, DW_AT_name("b0")
    5830                      .dwattr $C$DW$693, DW_AT_TI_symbol_name("_b0")
    5831                      .dwattr $C$DW$693, DW_AT_data_member_location[DW_OP_plus_uconst 0x2]
    5832                      .dwattr $C$DW$693, DW_AT_accessibility(DW_ACCESS_public)
    5833              
    5834              $C$DW$694       .dwtag  DW_TAG_member
    5835                      .dwattr $C$DW$694, DW_AT_type(*$C$DW$T$31)
    5836                      .dwattr $C$DW$694, DW_AT_name("b1")
    5837                      .dwattr $C$DW$694, DW_AT_TI_symbol_name("_b1")
    5838                      .dwattr $C$DW$694, DW_AT_data_member_location[DW_OP_plus_uconst 0x4]
    5839                      .dwattr $C$DW$694, DW_AT_accessibility(DW_ACCESS_public)
    5840              
    5841              $C$DW$695       .dwtag  DW_TAG_member
    5842                      .dwattr $C$DW$695, DW_AT_type(*$C$DW$T$31)
    5843                      .dwattr $C$DW$695, DW_AT_name("x1")
    5844                      .dwattr $C$DW$695, DW_AT_TI_symbol_name("_x1")
    5845                      .dwattr $C$DW$695, DW_AT_data_member_location[DW_OP_plus_uconst 0x6]
    5846                      .dwattr $C$DW$695, DW_AT_accessibility(DW_ACCESS_public)
    5847              
    5848              $C$DW$696       .dwtag  DW_TAG_member
    5849                      .dwattr $C$DW$696, DW_AT_type(*$C$DW$T$31)
TMS320C2000 Assembler PC v15.12.3 Sun Oct 30 14:01:37 2016

Tools Copyright (c) 1996-2015 Texas Instruments Incorporated
C:\Users\MaCHaDo\AppData\Local\Temp\0057210                          PAGE  113

    5850                      .dwattr $C$DW$696, DW_AT_name("y1")
    5851                      .dwattr $C$DW$696, DW_AT_TI_symbol_name("_y1")
    5852                      .dwattr $C$DW$696, DW_AT_data_member_location[DW_OP_plus_uconst 0x8]
    5853                      .dwattr $C$DW$696, DW_AT_accessibility(DW_ACCESS_public)
    5854              
    5855                      .dwendtag $C$DW$T$108
    5856              
    5857              $C$DW$T$168     .dwtag  DW_TAG_typedef
    5858                      .dwattr $C$DW$T$168, DW_AT_name("FILTER_FO_Obj")
    5859                      .dwattr $C$DW$T$168, DW_AT_type(*$C$DW$T$108)
    5860                      .dwattr $C$DW$T$168, DW_AT_language(DW_LANG_C)
    5861              
    5862              
    5863              $C$DW$T$20      .dwtag  DW_TAG_structure_type
    5864                      .dwattr $C$DW$T$20, DW_AT_name("_FILTER_FO_Obj_")
    5865                      .dwattr $C$DW$T$20, DW_AT_declaration
    5866                      .dwendtag $C$DW$T$20
    5867              
    5868              $C$DW$T$169     .dwtag  DW_TAG_pointer_type
    5869                      .dwattr $C$DW$T$169, DW_AT_type(*$C$DW$T$20)
    5870                      .dwattr $C$DW$T$169, DW_AT_address_class(0x20)
    5871              
    5872              $C$DW$T$170     .dwtag  DW_TAG_typedef
    5873                      .dwattr $C$DW$T$170, DW_AT_name("FILTER_FO_Handle")
    5874                      .dwattr $C$DW$T$170, DW_AT_type(*$C$DW$T$169)
    5875                      .dwattr $C$DW$T$170, DW_AT_language(DW_LANG_C)
    5876              
    5877              
    5878              $C$DW$T$109     .dwtag  DW_TAG_structure_type
    5879                      .dwattr $C$DW$T$109, DW_AT_name("_FLASH_Obj_")
    5880                      .dwattr $C$DW$T$109, DW_AT_byte_size(0x08)
    5881              $C$DW$697       .dwtag  DW_TAG_member
    5882                      .dwattr $C$DW$697, DW_AT_type(*$C$DW$T$23)
    5883                      .dwattr $C$DW$697, DW_AT_name("FOPT")
    5884                      .dwattr $C$DW$697, DW_AT_TI_symbol_name("_FOPT")
    5885                      .dwattr $C$DW$697, DW_AT_data_member_location[DW_OP_plus_uconst 0x0]
    5886                      .dwattr $C$DW$697, DW_AT_accessibility(DW_ACCESS_public)
    5887              
    5888              $C$DW$698       .dwtag  DW_TAG_member
    5889                      .dwattr $C$DW$698, DW_AT_type(*$C$DW$T$23)
    5890                      .dwattr $C$DW$698, DW_AT_name("rsvd_1")
    5891                      .dwattr $C$DW$698, DW_AT_TI_symbol_name("_rsvd_1")
    5892                      .dwattr $C$DW$698, DW_AT_data_member_location[DW_OP_plus_uconst 0x1]
    5893                      .dwattr $C$DW$698, DW_AT_accessibility(DW_ACCESS_public)
    5894              
    5895              $C$DW$699       .dwtag  DW_TAG_member
    5896                      .dwattr $C$DW$699, DW_AT_type(*$C$DW$T$23)
    5897                      .dwattr $C$DW$699, DW_AT_name("FPWR")
    5898                      .dwattr $C$DW$699, DW_AT_TI_symbol_name("_FPWR")
    5899                      .dwattr $C$DW$699, DW_AT_data_member_location[DW_OP_plus_uconst 0x2]
    5900                      .dwattr $C$DW$699, DW_AT_accessibility(DW_ACCESS_public)
    5901              
    5902              $C$DW$700       .dwtag  DW_TAG_member
    5903                      .dwattr $C$DW$700, DW_AT_type(*$C$DW$T$23)
    5904                      .dwattr $C$DW$700, DW_AT_name("FSTATUS")
TMS320C2000 Assembler PC v15.12.3 Sun Oct 30 14:01:37 2016

Tools Copyright (c) 1996-2015 Texas Instruments Incorporated
C:\Users\MaCHaDo\AppData\Local\Temp\0057210                          PAGE  114

    5905                      .dwattr $C$DW$700, DW_AT_TI_symbol_name("_FSTATUS")
    5906                      .dwattr $C$DW$700, DW_AT_data_member_location[DW_OP_plus_uconst 0x3]
    5907                      .dwattr $C$DW$700, DW_AT_accessibility(DW_ACCESS_public)
    5908              
    5909              $C$DW$701       .dwtag  DW_TAG_member
    5910                      .dwattr $C$DW$701, DW_AT_type(*$C$DW$T$23)
    5911                      .dwattr $C$DW$701, DW_AT_name("FSTDBYWAIT")
    5912                      .dwattr $C$DW$701, DW_AT_TI_symbol_name("_FSTDBYWAIT")
    5913                      .dwattr $C$DW$701, DW_AT_data_member_location[DW_OP_plus_uconst 0x4]
    5914                      .dwattr $C$DW$701, DW_AT_accessibility(DW_ACCESS_public)
    5915              
    5916              $C$DW$702       .dwtag  DW_TAG_member
    5917                      .dwattr $C$DW$702, DW_AT_type(*$C$DW$T$23)
    5918                      .dwattr $C$DW$702, DW_AT_name("FACTIVEWAIT")
    5919                      .dwattr $C$DW$702, DW_AT_TI_symbol_name("_FACTIVEWAIT")
    5920                      .dwattr $C$DW$702, DW_AT_data_member_location[DW_OP_plus_uconst 0x5]
    5921                      .dwattr $C$DW$702, DW_AT_accessibility(DW_ACCESS_public)
    5922              
    5923              $C$DW$703       .dwtag  DW_TAG_member
    5924                      .dwattr $C$DW$703, DW_AT_type(*$C$DW$T$23)
    5925                      .dwattr $C$DW$703, DW_AT_name("FBANKWAIT")
    5926                      .dwattr $C$DW$703, DW_AT_TI_symbol_name("_FBANKWAIT")
    5927                      .dwattr $C$DW$703, DW_AT_data_member_location[DW_OP_plus_uconst 0x6]
    5928                      .dwattr $C$DW$703, DW_AT_accessibility(DW_ACCESS_public)
    5929              
    5930              $C$DW$704       .dwtag  DW_TAG_member
    5931                      .dwattr $C$DW$704, DW_AT_type(*$C$DW$T$23)
    5932                      .dwattr $C$DW$704, DW_AT_name("FOTPWAIT")
    5933                      .dwattr $C$DW$704, DW_AT_TI_symbol_name("_FOTPWAIT")
    5934                      .dwattr $C$DW$704, DW_AT_data_member_location[DW_OP_plus_uconst 0x7]
    5935                      .dwattr $C$DW$704, DW_AT_accessibility(DW_ACCESS_public)
    5936              
    5937                      .dwendtag $C$DW$T$109
    5938              
    5939              $C$DW$T$122     .dwtag  DW_TAG_pointer_type
    5940                      .dwattr $C$DW$T$122, DW_AT_type(*$C$DW$T$109)
    5941                      .dwattr $C$DW$T$122, DW_AT_address_class(0x20)
    5942              
    5943              $C$DW$T$123     .dwtag  DW_TAG_typedef
    5944                      .dwattr $C$DW$T$123, DW_AT_name("FLASH_Handle")
    5945                      .dwattr $C$DW$T$123, DW_AT_type(*$C$DW$T$122)
    5946                      .dwattr $C$DW$T$123, DW_AT_language(DW_LANG_C)
    5947              
    5948              
    5949              $C$DW$T$113     .dwtag  DW_TAG_structure_type
    5950                      .dwattr $C$DW$T$113, DW_AT_name("_GPIO_Obj_")
    5951                      .dwattr $C$DW$T$113, DW_AT_byte_size(0x6a)
    5952              $C$DW$705       .dwtag  DW_TAG_member
    5953                      .dwattr $C$DW$705, DW_AT_type(*$C$DW$T$110)
    5954                      .dwattr $C$DW$705, DW_AT_name("GPACTRL")
    5955                      .dwattr $C$DW$705, DW_AT_TI_symbol_name("_GPACTRL")
    5956                      .dwattr $C$DW$705, DW_AT_data_member_location[DW_OP_plus_uconst 0x0]
    5957                      .dwattr $C$DW$705, DW_AT_accessibility(DW_ACCESS_public)
    5958              
    5959              $C$DW$706       .dwtag  DW_TAG_member
TMS320C2000 Assembler PC v15.12.3 Sun Oct 30 14:01:37 2016

Tools Copyright (c) 1996-2015 Texas Instruments Incorporated
C:\Users\MaCHaDo\AppData\Local\Temp\0057210                          PAGE  115

    5960                      .dwattr $C$DW$706, DW_AT_type(*$C$DW$T$110)
    5961                      .dwattr $C$DW$706, DW_AT_name("GPAQSEL1")
    5962                      .dwattr $C$DW$706, DW_AT_TI_symbol_name("_GPAQSEL1")
    5963                      .dwattr $C$DW$706, DW_AT_data_member_location[DW_OP_plus_uconst 0x2]
    5964                      .dwattr $C$DW$706, DW_AT_accessibility(DW_ACCESS_public)
    5965              
    5966              $C$DW$707       .dwtag  DW_TAG_member
    5967                      .dwattr $C$DW$707, DW_AT_type(*$C$DW$T$110)
    5968                      .dwattr $C$DW$707, DW_AT_name("GPAQSEL2")
    5969                      .dwattr $C$DW$707, DW_AT_TI_symbol_name("_GPAQSEL2")
    5970                      .dwattr $C$DW$707, DW_AT_data_member_location[DW_OP_plus_uconst 0x4]
    5971                      .dwattr $C$DW$707, DW_AT_accessibility(DW_ACCESS_public)
    5972              
    5973              $C$DW$708       .dwtag  DW_TAG_member
    5974                      .dwattr $C$DW$708, DW_AT_type(*$C$DW$T$110)
    5975                      .dwattr $C$DW$708, DW_AT_name("GPAMUX1")
    5976                      .dwattr $C$DW$708, DW_AT_TI_symbol_name("_GPAMUX1")
    5977                      .dwattr $C$DW$708, DW_AT_data_member_location[DW_OP_plus_uconst 0x6]
    5978                      .dwattr $C$DW$708, DW_AT_accessibility(DW_ACCESS_public)
    5979              
    5980              $C$DW$709       .dwtag  DW_TAG_member
    5981                      .dwattr $C$DW$709, DW_AT_type(*$C$DW$T$110)
    5982                      .dwattr $C$DW$709, DW_AT_name("GPAMUX2")
    5983                      .dwattr $C$DW$709, DW_AT_TI_symbol_name("_GPAMUX2")
    5984                      .dwattr $C$DW$709, DW_AT_data_member_location[DW_OP_plus_uconst 0x8]
    5985                      .dwattr $C$DW$709, DW_AT_accessibility(DW_ACCESS_public)
    5986              
    5987              $C$DW$710       .dwtag  DW_TAG_member
    5988                      .dwattr $C$DW$710, DW_AT_type(*$C$DW$T$110)
    5989                      .dwattr $C$DW$710, DW_AT_name("GPADIR")
    5990                      .dwattr $C$DW$710, DW_AT_TI_symbol_name("_GPADIR")
    5991                      .dwattr $C$DW$710, DW_AT_data_member_location[DW_OP_plus_uconst 0xa]
    5992                      .dwattr $C$DW$710, DW_AT_accessibility(DW_ACCESS_public)
    5993              
    5994              $C$DW$711       .dwtag  DW_TAG_member
    5995                      .dwattr $C$DW$711, DW_AT_type(*$C$DW$T$110)
    5996                      .dwattr $C$DW$711, DW_AT_name("GPAPUD")
    5997                      .dwattr $C$DW$711, DW_AT_TI_symbol_name("_GPAPUD")
    5998                      .dwattr $C$DW$711, DW_AT_data_member_location[DW_OP_plus_uconst 0xc]
    5999                      .dwattr $C$DW$711, DW_AT_accessibility(DW_ACCESS_public)
    6000              
    6001              $C$DW$712       .dwtag  DW_TAG_member
    6002                      .dwattr $C$DW$712, DW_AT_type(*$C$DW$T$26)
    6003                      .dwattr $C$DW$712, DW_AT_name("rsvd_1")
    6004                      .dwattr $C$DW$712, DW_AT_TI_symbol_name("_rsvd_1")
    6005                      .dwattr $C$DW$712, DW_AT_data_member_location[DW_OP_plus_uconst 0xe]
    6006                      .dwattr $C$DW$712, DW_AT_accessibility(DW_ACCESS_public)
    6007              
    6008              $C$DW$713       .dwtag  DW_TAG_member
    6009                      .dwattr $C$DW$713, DW_AT_type(*$C$DW$T$110)
    6010                      .dwattr $C$DW$713, DW_AT_name("GPBCTRL")
    6011                      .dwattr $C$DW$713, DW_AT_TI_symbol_name("_GPBCTRL")
    6012                      .dwattr $C$DW$713, DW_AT_data_member_location[DW_OP_plus_uconst 0x10]
    6013                      .dwattr $C$DW$713, DW_AT_accessibility(DW_ACCESS_public)
    6014              
TMS320C2000 Assembler PC v15.12.3 Sun Oct 30 14:01:37 2016

Tools Copyright (c) 1996-2015 Texas Instruments Incorporated
C:\Users\MaCHaDo\AppData\Local\Temp\0057210                          PAGE  116

    6015              $C$DW$714       .dwtag  DW_TAG_member
    6016                      .dwattr $C$DW$714, DW_AT_type(*$C$DW$T$110)
    6017                      .dwattr $C$DW$714, DW_AT_name("GPBQSEL1")
    6018                      .dwattr $C$DW$714, DW_AT_TI_symbol_name("_GPBQSEL1")
    6019                      .dwattr $C$DW$714, DW_AT_data_member_location[DW_OP_plus_uconst 0x12]
    6020                      .dwattr $C$DW$714, DW_AT_accessibility(DW_ACCESS_public)
    6021              
    6022              $C$DW$715       .dwtag  DW_TAG_member
    6023                      .dwattr $C$DW$715, DW_AT_type(*$C$DW$T$26)
    6024                      .dwattr $C$DW$715, DW_AT_name("rsvd_2")
    6025                      .dwattr $C$DW$715, DW_AT_TI_symbol_name("_rsvd_2")
    6026                      .dwattr $C$DW$715, DW_AT_data_member_location[DW_OP_plus_uconst 0x14]
    6027                      .dwattr $C$DW$715, DW_AT_accessibility(DW_ACCESS_public)
    6028              
    6029              $C$DW$716       .dwtag  DW_TAG_member
    6030                      .dwattr $C$DW$716, DW_AT_type(*$C$DW$T$110)
    6031                      .dwattr $C$DW$716, DW_AT_name("GPBMUX1")
    6032                      .dwattr $C$DW$716, DW_AT_TI_symbol_name("_GPBMUX1")
    6033                      .dwattr $C$DW$716, DW_AT_data_member_location[DW_OP_plus_uconst 0x16]
    6034                      .dwattr $C$DW$716, DW_AT_accessibility(DW_ACCESS_public)
    6035              
    6036              $C$DW$717       .dwtag  DW_TAG_member
    6037                      .dwattr $C$DW$717, DW_AT_type(*$C$DW$T$26)
    6038                      .dwattr $C$DW$717, DW_AT_name("rsvd_3")
    6039                      .dwattr $C$DW$717, DW_AT_TI_symbol_name("_rsvd_3")
    6040                      .dwattr $C$DW$717, DW_AT_data_member_location[DW_OP_plus_uconst 0x18]
    6041                      .dwattr $C$DW$717, DW_AT_accessibility(DW_ACCESS_public)
    6042              
    6043              $C$DW$718       .dwtag  DW_TAG_member
    6044                      .dwattr $C$DW$718, DW_AT_type(*$C$DW$T$110)
    6045                      .dwattr $C$DW$718, DW_AT_name("GPBDIR")
    6046                      .dwattr $C$DW$718, DW_AT_TI_symbol_name("_GPBDIR")
    6047                      .dwattr $C$DW$718, DW_AT_data_member_location[DW_OP_plus_uconst 0x1a]
    6048                      .dwattr $C$DW$718, DW_AT_accessibility(DW_ACCESS_public)
    6049              
    6050              $C$DW$719       .dwtag  DW_TAG_member
    6051                      .dwattr $C$DW$719, DW_AT_type(*$C$DW$T$110)
    6052                      .dwattr $C$DW$719, DW_AT_name("GPBPUD")
    6053                      .dwattr $C$DW$719, DW_AT_TI_symbol_name("_GPBPUD")
    6054                      .dwattr $C$DW$719, DW_AT_data_member_location[DW_OP_plus_uconst 0x1c]
    6055                      .dwattr $C$DW$719, DW_AT_accessibility(DW_ACCESS_public)
    6056              
    6057              $C$DW$720       .dwtag  DW_TAG_member
    6058                      .dwattr $C$DW$720, DW_AT_type(*$C$DW$T$111)
    6059                      .dwattr $C$DW$720, DW_AT_name("rsvd_4")
    6060                      .dwattr $C$DW$720, DW_AT_TI_symbol_name("_rsvd_4")
    6061                      .dwattr $C$DW$720, DW_AT_data_member_location[DW_OP_plus_uconst 0x1e]
    6062                      .dwattr $C$DW$720, DW_AT_accessibility(DW_ACCESS_public)
    6063              
    6064              $C$DW$721       .dwtag  DW_TAG_member
    6065                      .dwattr $C$DW$721, DW_AT_type(*$C$DW$T$110)
    6066                      .dwattr $C$DW$721, DW_AT_name("AIOMUX1")
    6067                      .dwattr $C$DW$721, DW_AT_TI_symbol_name("_AIOMUX1")
    6068                      .dwattr $C$DW$721, DW_AT_data_member_location[DW_OP_plus_uconst 0x36]
    6069                      .dwattr $C$DW$721, DW_AT_accessibility(DW_ACCESS_public)
TMS320C2000 Assembler PC v15.12.3 Sun Oct 30 14:01:37 2016

Tools Copyright (c) 1996-2015 Texas Instruments Incorporated
C:\Users\MaCHaDo\AppData\Local\Temp\0057210                          PAGE  117

    6070              
    6071              $C$DW$722       .dwtag  DW_TAG_member
    6072                      .dwattr $C$DW$722, DW_AT_type(*$C$DW$T$26)
    6073                      .dwattr $C$DW$722, DW_AT_name("rsvd_5")
    6074                      .dwattr $C$DW$722, DW_AT_TI_symbol_name("_rsvd_5")
    6075                      .dwattr $C$DW$722, DW_AT_data_member_location[DW_OP_plus_uconst 0x38]
    6076                      .dwattr $C$DW$722, DW_AT_accessibility(DW_ACCESS_public)
    6077              
    6078              $C$DW$723       .dwtag  DW_TAG_member
    6079                      .dwattr $C$DW$723, DW_AT_type(*$C$DW$T$110)
    6080                      .dwattr $C$DW$723, DW_AT_name("AIODIR")
    6081                      .dwattr $C$DW$723, DW_AT_TI_symbol_name("_AIODIR")
    6082                      .dwattr $C$DW$723, DW_AT_data_member_location[DW_OP_plus_uconst 0x3a]
    6083                      .dwattr $C$DW$723, DW_AT_accessibility(DW_ACCESS_public)
    6084              
    6085              $C$DW$724       .dwtag  DW_TAG_member
    6086                      .dwattr $C$DW$724, DW_AT_type(*$C$DW$T$112)
    6087                      .dwattr $C$DW$724, DW_AT_name("rsvd_6")
    6088                      .dwattr $C$DW$724, DW_AT_TI_symbol_name("_rsvd_6")
    6089                      .dwattr $C$DW$724, DW_AT_data_member_location[DW_OP_plus_uconst 0x3c]
    6090                      .dwattr $C$DW$724, DW_AT_accessibility(DW_ACCESS_public)
    6091              
    6092              $C$DW$725       .dwtag  DW_TAG_member
    6093                      .dwattr $C$DW$725, DW_AT_type(*$C$DW$T$110)
    6094                      .dwattr $C$DW$725, DW_AT_name("GPADAT")
    6095                      .dwattr $C$DW$725, DW_AT_TI_symbol_name("_GPADAT")
    6096                      .dwattr $C$DW$725, DW_AT_data_member_location[DW_OP_plus_uconst 0x40]
    6097                      .dwattr $C$DW$725, DW_AT_accessibility(DW_ACCESS_public)
    6098              
    6099              $C$DW$726       .dwtag  DW_TAG_member
    6100                      .dwattr $C$DW$726, DW_AT_type(*$C$DW$T$110)
    6101                      .dwattr $C$DW$726, DW_AT_name("GPASET")
    6102                      .dwattr $C$DW$726, DW_AT_TI_symbol_name("_GPASET")
    6103                      .dwattr $C$DW$726, DW_AT_data_member_location[DW_OP_plus_uconst 0x42]
    6104                      .dwattr $C$DW$726, DW_AT_accessibility(DW_ACCESS_public)
    6105              
    6106              $C$DW$727       .dwtag  DW_TAG_member
    6107                      .dwattr $C$DW$727, DW_AT_type(*$C$DW$T$110)
    6108                      .dwattr $C$DW$727, DW_AT_name("GPACLEAR")
    6109                      .dwattr $C$DW$727, DW_AT_TI_symbol_name("_GPACLEAR")
    6110                      .dwattr $C$DW$727, DW_AT_data_member_location[DW_OP_plus_uconst 0x44]
    6111                      .dwattr $C$DW$727, DW_AT_accessibility(DW_ACCESS_public)
    6112              
    6113              $C$DW$728       .dwtag  DW_TAG_member
    6114                      .dwattr $C$DW$728, DW_AT_type(*$C$DW$T$110)
    6115                      .dwattr $C$DW$728, DW_AT_name("GPATOGGLE")
    6116                      .dwattr $C$DW$728, DW_AT_TI_symbol_name("_GPATOGGLE")
    6117                      .dwattr $C$DW$728, DW_AT_data_member_location[DW_OP_plus_uconst 0x46]
    6118                      .dwattr $C$DW$728, DW_AT_accessibility(DW_ACCESS_public)
    6119              
    6120              $C$DW$729       .dwtag  DW_TAG_member
    6121                      .dwattr $C$DW$729, DW_AT_type(*$C$DW$T$110)
    6122                      .dwattr $C$DW$729, DW_AT_name("GPBDAT")
    6123                      .dwattr $C$DW$729, DW_AT_TI_symbol_name("_GPBDAT")
    6124                      .dwattr $C$DW$729, DW_AT_data_member_location[DW_OP_plus_uconst 0x48]
TMS320C2000 Assembler PC v15.12.3 Sun Oct 30 14:01:37 2016

Tools Copyright (c) 1996-2015 Texas Instruments Incorporated
C:\Users\MaCHaDo\AppData\Local\Temp\0057210                          PAGE  118

    6125                      .dwattr $C$DW$729, DW_AT_accessibility(DW_ACCESS_public)
    6126              
    6127              $C$DW$730       .dwtag  DW_TAG_member
    6128                      .dwattr $C$DW$730, DW_AT_type(*$C$DW$T$110)
    6129                      .dwattr $C$DW$730, DW_AT_name("GPBSET")
    6130                      .dwattr $C$DW$730, DW_AT_TI_symbol_name("_GPBSET")
    6131                      .dwattr $C$DW$730, DW_AT_data_member_location[DW_OP_plus_uconst 0x4a]
    6132                      .dwattr $C$DW$730, DW_AT_accessibility(DW_ACCESS_public)
    6133              
    6134              $C$DW$731       .dwtag  DW_TAG_member
    6135                      .dwattr $C$DW$731, DW_AT_type(*$C$DW$T$110)
    6136                      .dwattr $C$DW$731, DW_AT_name("GPBCLEAR")
    6137                      .dwattr $C$DW$731, DW_AT_TI_symbol_name("_GPBCLEAR")
    6138                      .dwattr $C$DW$731, DW_AT_data_member_location[DW_OP_plus_uconst 0x4c]
    6139                      .dwattr $C$DW$731, DW_AT_accessibility(DW_ACCESS_public)
    6140              
    6141              $C$DW$732       .dwtag  DW_TAG_member
    6142                      .dwattr $C$DW$732, DW_AT_type(*$C$DW$T$110)
    6143                      .dwattr $C$DW$732, DW_AT_name("GPBTOGGLE")
    6144                      .dwattr $C$DW$732, DW_AT_TI_symbol_name("_GPBTOGGLE")
    6145                      .dwattr $C$DW$732, DW_AT_data_member_location[DW_OP_plus_uconst 0x4e]
    6146                      .dwattr $C$DW$732, DW_AT_accessibility(DW_ACCESS_public)
    6147              
    6148              $C$DW$733       .dwtag  DW_TAG_member
    6149                      .dwattr $C$DW$733, DW_AT_type(*$C$DW$T$34)
    6150                      .dwattr $C$DW$733, DW_AT_name("rsvd_7")
    6151                      .dwattr $C$DW$733, DW_AT_TI_symbol_name("_rsvd_7")
    6152                      .dwattr $C$DW$733, DW_AT_data_member_location[DW_OP_plus_uconst 0x50]
    6153                      .dwattr $C$DW$733, DW_AT_accessibility(DW_ACCESS_public)
    6154              
    6155              $C$DW$734       .dwtag  DW_TAG_member
    6156                      .dwattr $C$DW$734, DW_AT_type(*$C$DW$T$110)
    6157                      .dwattr $C$DW$734, DW_AT_name("AIODAT")
    6158                      .dwattr $C$DW$734, DW_AT_TI_symbol_name("_AIODAT")
    6159                      .dwattr $C$DW$734, DW_AT_data_member_location[DW_OP_plus_uconst 0x58]
    6160                      .dwattr $C$DW$734, DW_AT_accessibility(DW_ACCESS_public)
    6161              
    6162              $C$DW$735       .dwtag  DW_TAG_member
    6163                      .dwattr $C$DW$735, DW_AT_type(*$C$DW$T$110)
    6164                      .dwattr $C$DW$735, DW_AT_name("AIOSET")
    6165                      .dwattr $C$DW$735, DW_AT_TI_symbol_name("_AIOSET")
    6166                      .dwattr $C$DW$735, DW_AT_data_member_location[DW_OP_plus_uconst 0x5a]
    6167                      .dwattr $C$DW$735, DW_AT_accessibility(DW_ACCESS_public)
    6168              
    6169              $C$DW$736       .dwtag  DW_TAG_member
    6170                      .dwattr $C$DW$736, DW_AT_type(*$C$DW$T$110)
    6171                      .dwattr $C$DW$736, DW_AT_name("AIOCLEAR")
    6172                      .dwattr $C$DW$736, DW_AT_TI_symbol_name("_AIOCLEAR")
    6173                      .dwattr $C$DW$736, DW_AT_data_member_location[DW_OP_plus_uconst 0x5c]
    6174                      .dwattr $C$DW$736, DW_AT_accessibility(DW_ACCESS_public)
    6175              
    6176              $C$DW$737       .dwtag  DW_TAG_member
    6177                      .dwattr $C$DW$737, DW_AT_type(*$C$DW$T$110)
    6178                      .dwattr $C$DW$737, DW_AT_name("AIOTOGGLE")
    6179                      .dwattr $C$DW$737, DW_AT_TI_symbol_name("_AIOTOGGLE")
TMS320C2000 Assembler PC v15.12.3 Sun Oct 30 14:01:37 2016

Tools Copyright (c) 1996-2015 Texas Instruments Incorporated
C:\Users\MaCHaDo\AppData\Local\Temp\0057210                          PAGE  119

    6180                      .dwattr $C$DW$737, DW_AT_data_member_location[DW_OP_plus_uconst 0x5e]
    6181                      .dwattr $C$DW$737, DW_AT_accessibility(DW_ACCESS_public)
    6182              
    6183              $C$DW$738       .dwtag  DW_TAG_member
    6184                      .dwattr $C$DW$738, DW_AT_type(*$C$DW$T$28)
    6185                      .dwattr $C$DW$738, DW_AT_name("GPIOXINTnSEL")
    6186                      .dwattr $C$DW$738, DW_AT_TI_symbol_name("_GPIOXINTnSEL")
    6187                      .dwattr $C$DW$738, DW_AT_data_member_location[DW_OP_plus_uconst 0x60]
    6188                      .dwattr $C$DW$738, DW_AT_accessibility(DW_ACCESS_public)
    6189              
    6190              $C$DW$739       .dwtag  DW_TAG_member
    6191                      .dwattr $C$DW$739, DW_AT_type(*$C$DW$T$27)
    6192                      .dwattr $C$DW$739, DW_AT_name("rsvd_8")
    6193                      .dwattr $C$DW$739, DW_AT_TI_symbol_name("_rsvd_8")
    6194                      .dwattr $C$DW$739, DW_AT_data_member_location[DW_OP_plus_uconst 0x63]
    6195                      .dwattr $C$DW$739, DW_AT_accessibility(DW_ACCESS_public)
    6196              
    6197              $C$DW$740       .dwtag  DW_TAG_member
    6198                      .dwattr $C$DW$740, DW_AT_type(*$C$DW$T$110)
    6199                      .dwattr $C$DW$740, DW_AT_name("GPIOLPMSEL")
    6200                      .dwattr $C$DW$740, DW_AT_TI_symbol_name("_GPIOLPMSEL")
    6201                      .dwattr $C$DW$740, DW_AT_data_member_location[DW_OP_plus_uconst 0x68]
    6202                      .dwattr $C$DW$740, DW_AT_accessibility(DW_ACCESS_public)
    6203              
    6204                      .dwendtag $C$DW$T$113
    6205              
    6206              $C$DW$T$76      .dwtag  DW_TAG_pointer_type
    6207                      .dwattr $C$DW$T$76, DW_AT_type(*$C$DW$T$113)
    6208                      .dwattr $C$DW$T$76, DW_AT_address_class(0x20)
    6209              
    6210              $C$DW$T$77      .dwtag  DW_TAG_typedef
    6211                      .dwattr $C$DW$T$77, DW_AT_name("GPIO_Handle")
    6212                      .dwattr $C$DW$T$77, DW_AT_type(*$C$DW$T$76)
    6213                      .dwattr $C$DW$T$77, DW_AT_language(DW_LANG_C)
    6214              
    6215              
    6216              $C$DW$T$115     .dwtag  DW_TAG_structure_type
    6217                      .dwattr $C$DW$T$115, DW_AT_name("_HAL_AdcData_t_")
    6218                      .dwattr $C$DW$T$115, DW_AT_byte_size(0x10)
    6219              $C$DW$741       .dwtag  DW_TAG_member
    6220                      .dwattr $C$DW$741, DW_AT_type(*$C$DW$T$114)
    6221                      .dwattr $C$DW$741, DW_AT_name("I")
    6222                      .dwattr $C$DW$741, DW_AT_TI_symbol_name("_I")
    6223                      .dwattr $C$DW$741, DW_AT_data_member_location[DW_OP_plus_uconst 0x0]
    6224                      .dwattr $C$DW$741, DW_AT_accessibility(DW_ACCESS_public)
    6225              
    6226              $C$DW$742       .dwtag  DW_TAG_member
    6227                      .dwattr $C$DW$742, DW_AT_type(*$C$DW$T$114)
    6228                      .dwattr $C$DW$742, DW_AT_name("V")
    6229                      .dwattr $C$DW$742, DW_AT_TI_symbol_name("_V")
    6230                      .dwattr $C$DW$742, DW_AT_data_member_location[DW_OP_plus_uconst 0x6]
    6231                      .dwattr $C$DW$742, DW_AT_accessibility(DW_ACCESS_public)
    6232              
    6233              $C$DW$743       .dwtag  DW_TAG_member
    6234                      .dwattr $C$DW$743, DW_AT_type(*$C$DW$T$31)
TMS320C2000 Assembler PC v15.12.3 Sun Oct 30 14:01:37 2016

Tools Copyright (c) 1996-2015 Texas Instruments Incorporated
C:\Users\MaCHaDo\AppData\Local\Temp\0057210                          PAGE  120

    6235                      .dwattr $C$DW$743, DW_AT_name("dcBus")
    6236                      .dwattr $C$DW$743, DW_AT_TI_symbol_name("_dcBus")
    6237                      .dwattr $C$DW$743, DW_AT_data_member_location[DW_OP_plus_uconst 0xc]
    6238                      .dwattr $C$DW$743, DW_AT_accessibility(DW_ACCESS_public)
    6239              
    6240              $C$DW$744       .dwtag  DW_TAG_member
    6241                      .dwattr $C$DW$744, DW_AT_type(*$C$DW$T$31)
    6242                      .dwattr $C$DW$744, DW_AT_name("iBus")
    6243                      .dwattr $C$DW$744, DW_AT_TI_symbol_name("_iBus")
    6244                      .dwattr $C$DW$744, DW_AT_data_member_location[DW_OP_plus_uconst 0xe]
    6245                      .dwattr $C$DW$744, DW_AT_accessibility(DW_ACCESS_public)
    6246              
    6247                      .dwendtag $C$DW$T$115
    6248              
    6249              $C$DW$T$145     .dwtag  DW_TAG_typedef
    6250                      .dwattr $C$DW$T$145, DW_AT_name("HAL_AdcData_t")
    6251                      .dwattr $C$DW$T$145, DW_AT_type(*$C$DW$T$115)
    6252                      .dwattr $C$DW$T$145, DW_AT_language(DW_LANG_C)
    6253              
    6254              $C$DW$745       .dwtag  DW_TAG_TI_far_type
    6255                      .dwattr $C$DW$745, DW_AT_type(*$C$DW$T$145)
    6256              
    6257              $C$DW$T$245     .dwtag  DW_TAG_const_type
    6258                      .dwattr $C$DW$T$245, DW_AT_type(*$C$DW$745)
    6259              
    6260              $C$DW$T$246     .dwtag  DW_TAG_pointer_type
    6261                      .dwattr $C$DW$T$246, DW_AT_type(*$C$DW$T$245)
    6262                      .dwattr $C$DW$T$246, DW_AT_address_class(0x20)
    6263              
    6264              
    6265              $C$DW$T$153     .dwtag  DW_TAG_structure_type
    6266                      .dwattr $C$DW$T$153, DW_AT_name("_HAL_Obj_")
    6267                      .dwattr $C$DW$T$153, DW_AT_byte_size(0xda)
    6268              $C$DW$746       .dwtag  DW_TAG_member
    6269                      .dwattr $C$DW$746, DW_AT_type(*$C$DW$T$117)
    6270                      .dwattr $C$DW$746, DW_AT_name("adcHandle")
    6271                      .dwattr $C$DW$746, DW_AT_TI_symbol_name("_adcHandle")
    6272                      .dwattr $C$DW$746, DW_AT_data_member_location[DW_OP_plus_uconst 0x0]
    6273                      .dwattr $C$DW$746, DW_AT_accessibility(DW_ACCESS_public)
    6274              
    6275              $C$DW$747       .dwtag  DW_TAG_member
    6276                      .dwattr $C$DW$747, DW_AT_type(*$C$DW$T$119)
    6277                      .dwattr $C$DW$747, DW_AT_name("clkHandle")
    6278                      .dwattr $C$DW$747, DW_AT_TI_symbol_name("_clkHandle")
    6279                      .dwattr $C$DW$747, DW_AT_data_member_location[DW_OP_plus_uconst 0x2]
    6280                      .dwattr $C$DW$747, DW_AT_accessibility(DW_ACCESS_public)
    6281              
    6282              $C$DW$748       .dwtag  DW_TAG_member
    6283                      .dwattr $C$DW$748, DW_AT_type(*$C$DW$T$121)
    6284                      .dwattr $C$DW$748, DW_AT_name("cpuHandle")
    6285                      .dwattr $C$DW$748, DW_AT_TI_symbol_name("_cpuHandle")
    6286                      .dwattr $C$DW$748, DW_AT_data_member_location[DW_OP_plus_uconst 0x4]
    6287                      .dwattr $C$DW$748, DW_AT_accessibility(DW_ACCESS_public)
    6288              
    6289              $C$DW$749       .dwtag  DW_TAG_member
TMS320C2000 Assembler PC v15.12.3 Sun Oct 30 14:01:37 2016

Tools Copyright (c) 1996-2015 Texas Instruments Incorporated
C:\Users\MaCHaDo\AppData\Local\Temp\0057210                          PAGE  121

    6290                      .dwattr $C$DW$749, DW_AT_type(*$C$DW$T$123)
    6291                      .dwattr $C$DW$749, DW_AT_name("flashHandle")
    6292                      .dwattr $C$DW$749, DW_AT_TI_symbol_name("_flashHandle")
    6293                      .dwattr $C$DW$749, DW_AT_data_member_location[DW_OP_plus_uconst 0x6]
    6294                      .dwattr $C$DW$749, DW_AT_accessibility(DW_ACCESS_public)
    6295              
    6296              $C$DW$750       .dwtag  DW_TAG_member
    6297                      .dwattr $C$DW$750, DW_AT_type(*$C$DW$T$77)
    6298                      .dwattr $C$DW$750, DW_AT_name("gpioHandle")
    6299                      .dwattr $C$DW$750, DW_AT_TI_symbol_name("_gpioHandle")
    6300                      .dwattr $C$DW$750, DW_AT_data_member_location[DW_OP_plus_uconst 0x8]
    6301                      .dwattr $C$DW$750, DW_AT_accessibility(DW_ACCESS_public)
    6302              
    6303              $C$DW$751       .dwtag  DW_TAG_member
    6304                      .dwattr $C$DW$751, DW_AT_type(*$C$DW$T$126)
    6305                      .dwattr $C$DW$751, DW_AT_name("offsetHandle_I")
    6306                      .dwattr $C$DW$751, DW_AT_TI_symbol_name("_offsetHandle_I")
    6307                      .dwattr $C$DW$751, DW_AT_data_member_location[DW_OP_plus_uconst 0xa]
    6308                      .dwattr $C$DW$751, DW_AT_accessibility(DW_ACCESS_public)
    6309              
    6310              $C$DW$752       .dwtag  DW_TAG_member
    6311                      .dwattr $C$DW$752, DW_AT_type(*$C$DW$T$128)
    6312                      .dwattr $C$DW$752, DW_AT_name("offset_I")
    6313                      .dwattr $C$DW$752, DW_AT_TI_symbol_name("_offset_I")
    6314                      .dwattr $C$DW$752, DW_AT_data_member_location[DW_OP_plus_uconst 0x10]
    6315                      .dwattr $C$DW$752, DW_AT_accessibility(DW_ACCESS_public)
    6316              
    6317              $C$DW$753       .dwtag  DW_TAG_member
    6318                      .dwattr $C$DW$753, DW_AT_type(*$C$DW$T$126)
    6319                      .dwattr $C$DW$753, DW_AT_name("offsetHandle_V")
    6320                      .dwattr $C$DW$753, DW_AT_TI_symbol_name("_offsetHandle_V")
    6321                      .dwattr $C$DW$753, DW_AT_data_member_location[DW_OP_plus_uconst 0x40]
    6322                      .dwattr $C$DW$753, DW_AT_accessibility(DW_ACCESS_public)
    6323              
    6324              $C$DW$754       .dwtag  DW_TAG_member
    6325                      .dwattr $C$DW$754, DW_AT_type(*$C$DW$T$128)
    6326                      .dwattr $C$DW$754, DW_AT_name("offset_V")
    6327                      .dwattr $C$DW$754, DW_AT_TI_symbol_name("_offset_V")
    6328                      .dwattr $C$DW$754, DW_AT_data_member_location[DW_OP_plus_uconst 0x46]
    6329                      .dwattr $C$DW$754, DW_AT_accessibility(DW_ACCESS_public)
    6330              
    6331              $C$DW$755       .dwtag  DW_TAG_member
    6332                      .dwattr $C$DW$755, DW_AT_type(*$C$DW$T$130)
    6333                      .dwattr $C$DW$755, DW_AT_name("oscHandle")
    6334                      .dwattr $C$DW$755, DW_AT_TI_symbol_name("_oscHandle")
    6335                      .dwattr $C$DW$755, DW_AT_data_member_location[DW_OP_plus_uconst 0x76]
    6336                      .dwattr $C$DW$755, DW_AT_accessibility(DW_ACCESS_public)
    6337              
    6338              $C$DW$756       .dwtag  DW_TAG_member
    6339                      .dwattr $C$DW$756, DW_AT_type(*$C$DW$T$132)
    6340                      .dwattr $C$DW$756, DW_AT_name("pieHandle")
    6341                      .dwattr $C$DW$756, DW_AT_TI_symbol_name("_pieHandle")
    6342                      .dwattr $C$DW$756, DW_AT_data_member_location[DW_OP_plus_uconst 0x78]
    6343                      .dwattr $C$DW$756, DW_AT_accessibility(DW_ACCESS_public)
    6344              
TMS320C2000 Assembler PC v15.12.3 Sun Oct 30 14:01:37 2016

Tools Copyright (c) 1996-2015 Texas Instruments Incorporated
C:\Users\MaCHaDo\AppData\Local\Temp\0057210                          PAGE  122

    6345              $C$DW$757       .dwtag  DW_TAG_member
    6346                      .dwattr $C$DW$757, DW_AT_type(*$C$DW$T$134)
    6347                      .dwattr $C$DW$757, DW_AT_name("pllHandle")
    6348                      .dwattr $C$DW$757, DW_AT_TI_symbol_name("_pllHandle")
    6349                      .dwattr $C$DW$757, DW_AT_data_member_location[DW_OP_plus_uconst 0x7a]
    6350                      .dwattr $C$DW$757, DW_AT_accessibility(DW_ACCESS_public)
    6351              
    6352              $C$DW$758       .dwtag  DW_TAG_member
    6353                      .dwattr $C$DW$758, DW_AT_type(*$C$DW$T$137)
    6354                      .dwattr $C$DW$758, DW_AT_name("pwmHandle")
    6355                      .dwattr $C$DW$758, DW_AT_TI_symbol_name("_pwmHandle")
    6356                      .dwattr $C$DW$758, DW_AT_data_member_location[DW_OP_plus_uconst 0x7c]
    6357                      .dwattr $C$DW$758, DW_AT_accessibility(DW_ACCESS_public)
    6358              
    6359              $C$DW$759       .dwtag  DW_TAG_member
    6360                      .dwattr $C$DW$759, DW_AT_type(*$C$DW$T$137)
    6361                      .dwattr $C$DW$759, DW_AT_name("pwmDacHandle")
    6362                      .dwattr $C$DW$759, DW_AT_TI_symbol_name("_pwmDacHandle")
    6363                      .dwattr $C$DW$759, DW_AT_data_member_location[DW_OP_plus_uconst 0x82]
    6364                      .dwattr $C$DW$759, DW_AT_accessibility(DW_ACCESS_public)
    6365              
    6366              $C$DW$760       .dwtag  DW_TAG_member
    6367                      .dwattr $C$DW$760, DW_AT_type(*$C$DW$T$139)
    6368                      .dwattr $C$DW$760, DW_AT_name("pwrHandle")
    6369                      .dwattr $C$DW$760, DW_AT_TI_symbol_name("_pwrHandle")
    6370                      .dwattr $C$DW$760, DW_AT_data_member_location[DW_OP_plus_uconst 0x88]
    6371                      .dwattr $C$DW$760, DW_AT_accessibility(DW_ACCESS_public)
    6372              
    6373              $C$DW$761       .dwtag  DW_TAG_member
    6374                      .dwattr $C$DW$761, DW_AT_type(*$C$DW$T$142)
    6375                      .dwattr $C$DW$761, DW_AT_name("timerHandle")
    6376                      .dwattr $C$DW$761, DW_AT_TI_symbol_name("_timerHandle")
    6377                      .dwattr $C$DW$761, DW_AT_data_member_location[DW_OP_plus_uconst 0x8a]
    6378                      .dwattr $C$DW$761, DW_AT_accessibility(DW_ACCESS_public)
    6379              
    6380              $C$DW$762       .dwtag  DW_TAG_member
    6381                      .dwattr $C$DW$762, DW_AT_type(*$C$DW$T$144)
    6382                      .dwattr $C$DW$762, DW_AT_name("wdogHandle")
    6383                      .dwattr $C$DW$762, DW_AT_TI_symbol_name("_wdogHandle")
    6384                      .dwattr $C$DW$762, DW_AT_data_member_location[DW_OP_plus_uconst 0x90]
    6385                      .dwattr $C$DW$762, DW_AT_accessibility(DW_ACCESS_public)
    6386              
    6387              $C$DW$763       .dwtag  DW_TAG_member
    6388                      .dwattr $C$DW$763, DW_AT_type(*$C$DW$T$145)
    6389                      .dwattr $C$DW$763, DW_AT_name("adcBias")
    6390                      .dwattr $C$DW$763, DW_AT_TI_symbol_name("_adcBias")
    6391                      .dwattr $C$DW$763, DW_AT_data_member_location[DW_OP_plus_uconst 0x92]
    6392                      .dwattr $C$DW$763, DW_AT_accessibility(DW_ACCESS_public)
    6393              
    6394              $C$DW$764       .dwtag  DW_TAG_member
    6395                      .dwattr $C$DW$764, DW_AT_type(*$C$DW$T$31)
    6396                      .dwattr $C$DW$764, DW_AT_name("current_sf")
    6397                      .dwattr $C$DW$764, DW_AT_TI_symbol_name("_current_sf")
    6398                      .dwattr $C$DW$764, DW_AT_data_member_location[DW_OP_plus_uconst 0xa2]
    6399                      .dwattr $C$DW$764, DW_AT_accessibility(DW_ACCESS_public)
TMS320C2000 Assembler PC v15.12.3 Sun Oct 30 14:01:37 2016

Tools Copyright (c) 1996-2015 Texas Instruments Incorporated
C:\Users\MaCHaDo\AppData\Local\Temp\0057210                          PAGE  123

    6400              
    6401              $C$DW$765       .dwtag  DW_TAG_member
    6402                      .dwattr $C$DW$765, DW_AT_type(*$C$DW$T$31)
    6403                      .dwattr $C$DW$765, DW_AT_name("bus_current_sf")
    6404                      .dwattr $C$DW$765, DW_AT_TI_symbol_name("_bus_current_sf")
    6405                      .dwattr $C$DW$765, DW_AT_data_member_location[DW_OP_plus_uconst 0xa4]
    6406                      .dwattr $C$DW$765, DW_AT_accessibility(DW_ACCESS_public)
    6407              
    6408              $C$DW$766       .dwtag  DW_TAG_member
    6409                      .dwattr $C$DW$766, DW_AT_type(*$C$DW$T$31)
    6410                      .dwattr $C$DW$766, DW_AT_name("voltage_sf")
    6411                      .dwattr $C$DW$766, DW_AT_TI_symbol_name("_voltage_sf")
    6412                      .dwattr $C$DW$766, DW_AT_data_member_location[DW_OP_plus_uconst 0xa6]
    6413                      .dwattr $C$DW$766, DW_AT_accessibility(DW_ACCESS_public)
    6414              
    6415              $C$DW$767       .dwtag  DW_TAG_member
    6416                      .dwattr $C$DW$767, DW_AT_type(*$C$DW$T$32)
    6417                      .dwattr $C$DW$767, DW_AT_name("numCurrentSensors")
    6418                      .dwattr $C$DW$767, DW_AT_TI_symbol_name("_numCurrentSensors")
    6419                      .dwattr $C$DW$767, DW_AT_data_member_location[DW_OP_plus_uconst 0xa8]
    6420                      .dwattr $C$DW$767, DW_AT_accessibility(DW_ACCESS_public)
    6421              
    6422              $C$DW$768       .dwtag  DW_TAG_member
    6423                      .dwattr $C$DW$768, DW_AT_type(*$C$DW$T$32)
    6424                      .dwattr $C$DW$768, DW_AT_name("numBusCurrentSensors")
    6425                      .dwattr $C$DW$768, DW_AT_TI_symbol_name("_numBusCurrentSensors")
    6426                      .dwattr $C$DW$768, DW_AT_data_member_location[DW_OP_plus_uconst 0xa9]
    6427                      .dwattr $C$DW$768, DW_AT_accessibility(DW_ACCESS_public)
    6428              
    6429              $C$DW$769       .dwtag  DW_TAG_member
    6430                      .dwattr $C$DW$769, DW_AT_type(*$C$DW$T$32)
    6431                      .dwattr $C$DW$769, DW_AT_name("numVoltageSensors")
    6432                      .dwattr $C$DW$769, DW_AT_TI_symbol_name("_numVoltageSensors")
    6433                      .dwattr $C$DW$769, DW_AT_data_member_location[DW_OP_plus_uconst 0xaa]
    6434                      .dwattr $C$DW$769, DW_AT_accessibility(DW_ACCESS_public)
    6435              
    6436              $C$DW$770       .dwtag  DW_TAG_member
    6437                      .dwattr $C$DW$770, DW_AT_type(*$C$DW$T$75)
    6438                      .dwattr $C$DW$770, DW_AT_name("spiAHandle")
    6439                      .dwattr $C$DW$770, DW_AT_TI_symbol_name("_spiAHandle")
    6440                      .dwattr $C$DW$770, DW_AT_data_member_location[DW_OP_plus_uconst 0xac]
    6441                      .dwattr $C$DW$770, DW_AT_accessibility(DW_ACCESS_public)
    6442              
    6443              $C$DW$771       .dwtag  DW_TAG_member
    6444                      .dwattr $C$DW$771, DW_AT_type(*$C$DW$T$146)
    6445                      .dwattr $C$DW$771, DW_AT_name("spiA")
    6446                      .dwattr $C$DW$771, DW_AT_TI_symbol_name("_spiA")
    6447                      .dwattr $C$DW$771, DW_AT_data_member_location[DW_OP_plus_uconst 0xae]
    6448                      .dwattr $C$DW$771, DW_AT_accessibility(DW_ACCESS_public)
    6449              
    6450              $C$DW$772       .dwtag  DW_TAG_member
    6451                      .dwattr $C$DW$772, DW_AT_type(*$C$DW$T$148)
    6452                      .dwattr $C$DW$772, DW_AT_name("drv8301Handle")
    6453                      .dwattr $C$DW$772, DW_AT_TI_symbol_name("_drv8301Handle")
    6454                      .dwattr $C$DW$772, DW_AT_data_member_location[DW_OP_plus_uconst 0xbe]
TMS320C2000 Assembler PC v15.12.3 Sun Oct 30 14:01:37 2016

Tools Copyright (c) 1996-2015 Texas Instruments Incorporated
C:\Users\MaCHaDo\AppData\Local\Temp\0057210                          PAGE  124

    6455                      .dwattr $C$DW$772, DW_AT_accessibility(DW_ACCESS_public)
    6456              
    6457              $C$DW$773       .dwtag  DW_TAG_member
    6458                      .dwattr $C$DW$773, DW_AT_type(*$C$DW$T$149)
    6459                      .dwattr $C$DW$773, DW_AT_name("drv8301")
    6460                      .dwattr $C$DW$773, DW_AT_TI_symbol_name("_drv8301")
    6461                      .dwattr $C$DW$773, DW_AT_data_member_location[DW_OP_plus_uconst 0xc0]
    6462                      .dwattr $C$DW$773, DW_AT_accessibility(DW_ACCESS_public)
    6463              
    6464              $C$DW$774       .dwtag  DW_TAG_member
    6465                      .dwattr $C$DW$774, DW_AT_type(*$C$DW$T$151)
    6466                      .dwattr $C$DW$774, DW_AT_name("sciAHandle")
    6467                      .dwattr $C$DW$774, DW_AT_TI_symbol_name("_sciAHandle")
    6468                      .dwattr $C$DW$774, DW_AT_data_member_location[DW_OP_plus_uconst 0xc8]
    6469                      .dwattr $C$DW$774, DW_AT_accessibility(DW_ACCESS_public)
    6470              
    6471              $C$DW$775       .dwtag  DW_TAG_member
    6472                      .dwattr $C$DW$775, DW_AT_type(*$C$DW$T$152)
    6473                      .dwattr $C$DW$775, DW_AT_name("sciA")
    6474                      .dwattr $C$DW$775, DW_AT_TI_symbol_name("_sciA")
    6475                      .dwattr $C$DW$775, DW_AT_data_member_location[DW_OP_plus_uconst 0xca]
    6476                      .dwattr $C$DW$775, DW_AT_accessibility(DW_ACCESS_public)
    6477              
    6478                      .dwendtag $C$DW$T$153
    6479              
    6480              $C$DW$T$249     .dwtag  DW_TAG_typedef
    6481                      .dwattr $C$DW$T$249, DW_AT_name("HAL_Obj")
    6482                      .dwattr $C$DW$T$249, DW_AT_type(*$C$DW$T$153)
    6483                      .dwattr $C$DW$T$249, DW_AT_language(DW_LANG_C)
    6484              
    6485              $C$DW$T$250     .dwtag  DW_TAG_pointer_type
    6486                      .dwattr $C$DW$T$250, DW_AT_type(*$C$DW$T$249)
    6487                      .dwattr $C$DW$T$250, DW_AT_address_class(0x20)
    6488              
    6489              $C$DW$T$251     .dwtag  DW_TAG_pointer_type
    6490                      .dwattr $C$DW$T$251, DW_AT_type(*$C$DW$T$153)
    6491                      .dwattr $C$DW$T$251, DW_AT_address_class(0x20)
    6492              
    6493              $C$DW$T$252     .dwtag  DW_TAG_typedef
    6494                      .dwattr $C$DW$T$252, DW_AT_name("HAL_Handle")
    6495                      .dwattr $C$DW$T$252, DW_AT_type(*$C$DW$T$251)
    6496                      .dwattr $C$DW$T$252, DW_AT_language(DW_LANG_C)
    6497              
    6498              
    6499              $C$DW$T$154     .dwtag  DW_TAG_structure_type
    6500                      .dwattr $C$DW$T$154, DW_AT_name("_HAL_PwmData_t_")
    6501                      .dwattr $C$DW$T$154, DW_AT_byte_size(0x06)
    6502              $C$DW$776       .dwtag  DW_TAG_member
    6503                      .dwattr $C$DW$776, DW_AT_type(*$C$DW$T$114)
    6504                      .dwattr $C$DW$776, DW_AT_name("Tabc")
    6505                      .dwattr $C$DW$776, DW_AT_TI_symbol_name("_Tabc")
    6506                      .dwattr $C$DW$776, DW_AT_data_member_location[DW_OP_plus_uconst 0x0]
    6507                      .dwattr $C$DW$776, DW_AT_accessibility(DW_ACCESS_public)
    6508              
    6509                      .dwendtag $C$DW$T$154
TMS320C2000 Assembler PC v15.12.3 Sun Oct 30 14:01:37 2016

Tools Copyright (c) 1996-2015 Texas Instruments Incorporated
C:\Users\MaCHaDo\AppData\Local\Temp\0057210                          PAGE  125

    6510              
    6511              $C$DW$T$256     .dwtag  DW_TAG_typedef
    6512                      .dwattr $C$DW$T$256, DW_AT_name("HAL_PwmData_t")
    6513                      .dwattr $C$DW$T$256, DW_AT_type(*$C$DW$T$154)
    6514                      .dwattr $C$DW$T$256, DW_AT_language(DW_LANG_C)
    6515              
    6516              $C$DW$T$257     .dwtag  DW_TAG_pointer_type
    6517                      .dwattr $C$DW$T$257, DW_AT_type(*$C$DW$T$256)
    6518                      .dwattr $C$DW$T$257, DW_AT_address_class(0x20)
    6519              
    6520              
    6521              $C$DW$T$155     .dwtag  DW_TAG_structure_type
    6522                      .dwattr $C$DW$T$155, DW_AT_name("_IPARK_Obj_")
    6523                      .dwattr $C$DW$T$155, DW_AT_byte_size(0x04)
    6524              $C$DW$777       .dwtag  DW_TAG_member
    6525                      .dwattr $C$DW$777, DW_AT_type(*$C$DW$T$31)
    6526                      .dwattr $C$DW$777, DW_AT_name("sinTh")
    6527                      .dwattr $C$DW$777, DW_AT_TI_symbol_name("_sinTh")
    6528                      .dwattr $C$DW$777, DW_AT_data_member_location[DW_OP_plus_uconst 0x0]
    6529                      .dwattr $C$DW$777, DW_AT_accessibility(DW_ACCESS_public)
    6530              
    6531              $C$DW$778       .dwtag  DW_TAG_member
    6532                      .dwattr $C$DW$778, DW_AT_type(*$C$DW$T$31)
    6533                      .dwattr $C$DW$778, DW_AT_name("cosTh")
    6534                      .dwattr $C$DW$778, DW_AT_TI_symbol_name("_cosTh")
    6535                      .dwattr $C$DW$778, DW_AT_data_member_location[DW_OP_plus_uconst 0x2]
    6536                      .dwattr $C$DW$778, DW_AT_accessibility(DW_ACCESS_public)
    6537              
    6538                      .dwendtag $C$DW$T$155
    6539              
    6540              $C$DW$T$55      .dwtag  DW_TAG_typedef
    6541                      .dwattr $C$DW$T$55, DW_AT_name("IPARK_Obj")
    6542                      .dwattr $C$DW$T$55, DW_AT_type(*$C$DW$T$155)
    6543                      .dwattr $C$DW$T$55, DW_AT_language(DW_LANG_C)
    6544              
    6545              $C$DW$T$53      .dwtag  DW_TAG_pointer_type
    6546                      .dwattr $C$DW$T$53, DW_AT_type(*$C$DW$T$155)
    6547                      .dwattr $C$DW$T$53, DW_AT_address_class(0x20)
    6548              
    6549              $C$DW$T$54      .dwtag  DW_TAG_typedef
    6550                      .dwattr $C$DW$T$54, DW_AT_name("IPARK_Handle")
    6551                      .dwattr $C$DW$T$54, DW_AT_type(*$C$DW$T$53)
    6552                      .dwattr $C$DW$T$54, DW_AT_language(DW_LANG_C)
    6553              
    6554              
    6555              $C$DW$T$157     .dwtag  DW_TAG_structure_type
    6556                      .dwattr $C$DW$T$157, DW_AT_name("_MATH_vec2_")
    6557                      .dwattr $C$DW$T$157, DW_AT_byte_size(0x04)
    6558              $C$DW$779       .dwtag  DW_TAG_member
    6559                      .dwattr $C$DW$779, DW_AT_type(*$C$DW$T$156)
    6560                      .dwattr $C$DW$779, DW_AT_name("value")
    6561                      .dwattr $C$DW$779, DW_AT_TI_symbol_name("_value")
    6562                      .dwattr $C$DW$779, DW_AT_data_member_location[DW_OP_plus_uconst 0x0]
    6563                      .dwattr $C$DW$779, DW_AT_accessibility(DW_ACCESS_public)
    6564              
TMS320C2000 Assembler PC v15.12.3 Sun Oct 30 14:01:37 2016

Tools Copyright (c) 1996-2015 Texas Instruments Incorporated
C:\Users\MaCHaDo\AppData\Local\Temp\0057210                          PAGE  126

    6565                      .dwendtag $C$DW$T$157
    6566              
    6567              $C$DW$T$68      .dwtag  DW_TAG_typedef
    6568                      .dwattr $C$DW$T$68, DW_AT_name("MATH_vec2")
    6569                      .dwattr $C$DW$T$68, DW_AT_type(*$C$DW$T$157)
    6570                      .dwattr $C$DW$T$68, DW_AT_language(DW_LANG_C)
    6571              
    6572              
    6573              $C$DW$T$159     .dwtag  DW_TAG_structure_type
    6574                      .dwattr $C$DW$T$159, DW_AT_name("_MATH_vec3_")
    6575                      .dwattr $C$DW$T$159, DW_AT_byte_size(0x06)
    6576              $C$DW$780       .dwtag  DW_TAG_member
    6577                      .dwattr $C$DW$780, DW_AT_type(*$C$DW$T$158)
    6578                      .dwattr $C$DW$780, DW_AT_name("value")
    6579                      .dwattr $C$DW$780, DW_AT_TI_symbol_name("_value")
    6580                      .dwattr $C$DW$780, DW_AT_data_member_location[DW_OP_plus_uconst 0x0]
    6581                      .dwattr $C$DW$780, DW_AT_accessibility(DW_ACCESS_public)
    6582              
    6583                      .dwendtag $C$DW$T$159
    6584              
    6585              $C$DW$T$114     .dwtag  DW_TAG_typedef
    6586                      .dwattr $C$DW$T$114, DW_AT_name("MATH_vec3")
    6587                      .dwattr $C$DW$T$114, DW_AT_type(*$C$DW$T$159)
    6588                      .dwattr $C$DW$T$114, DW_AT_language(DW_LANG_C)
    6589              
    6590              
    6591              $C$DW$T$162     .dwtag  DW_TAG_structure_type
    6592                      .dwattr $C$DW$T$162, DW_AT_name("_MOTOR_Params_")
    6593                      .dwattr $C$DW$T$162, DW_AT_byte_size(0x0e)
    6594              $C$DW$781       .dwtag  DW_TAG_member
    6595                      .dwattr $C$DW$781, DW_AT_type(*$C$DW$T$161)
    6596                      .dwattr $C$DW$781, DW_AT_name("type")
    6597                      .dwattr $C$DW$781, DW_AT_TI_symbol_name("_type")
    6598                      .dwattr $C$DW$781, DW_AT_data_member_location[DW_OP_plus_uconst 0x0]
    6599                      .dwattr $C$DW$781, DW_AT_accessibility(DW_ACCESS_public)
    6600              
    6601              $C$DW$782       .dwtag  DW_TAG_member
    6602                      .dwattr $C$DW$782, DW_AT_type(*$C$DW$T$66)
    6603                      .dwattr $C$DW$782, DW_AT_name("numPolePairs")
    6604                      .dwattr $C$DW$782, DW_AT_TI_symbol_name("_numPolePairs")
    6605                      .dwattr $C$DW$782, DW_AT_data_member_location[DW_OP_plus_uconst 0x1]
    6606                      .dwattr $C$DW$782, DW_AT_accessibility(DW_ACCESS_public)
    6607              
    6608              $C$DW$783       .dwtag  DW_TAG_member
    6609                      .dwattr $C$DW$783, DW_AT_type(*$C$DW$T$67)
    6610                      .dwattr $C$DW$783, DW_AT_name("Lr_H")
    6611                      .dwattr $C$DW$783, DW_AT_TI_symbol_name("_Lr_H")
    6612                      .dwattr $C$DW$783, DW_AT_data_member_location[DW_OP_plus_uconst 0x2]
    6613                      .dwattr $C$DW$783, DW_AT_accessibility(DW_ACCESS_public)
    6614              
    6615              $C$DW$784       .dwtag  DW_TAG_member
    6616                      .dwattr $C$DW$784, DW_AT_type(*$C$DW$T$67)
    6617                      .dwattr $C$DW$784, DW_AT_name("Ls_d_H")
    6618                      .dwattr $C$DW$784, DW_AT_TI_symbol_name("_Ls_d_H")
    6619                      .dwattr $C$DW$784, DW_AT_data_member_location[DW_OP_plus_uconst 0x4]
TMS320C2000 Assembler PC v15.12.3 Sun Oct 30 14:01:37 2016

Tools Copyright (c) 1996-2015 Texas Instruments Incorporated
C:\Users\MaCHaDo\AppData\Local\Temp\0057210                          PAGE  127

    6620                      .dwattr $C$DW$784, DW_AT_accessibility(DW_ACCESS_public)
    6621              
    6622              $C$DW$785       .dwtag  DW_TAG_member
    6623                      .dwattr $C$DW$785, DW_AT_type(*$C$DW$T$67)
    6624                      .dwattr $C$DW$785, DW_AT_name("Ls_q_H")
    6625                      .dwattr $C$DW$785, DW_AT_TI_symbol_name("_Ls_q_H")
    6626                      .dwattr $C$DW$785, DW_AT_data_member_location[DW_OP_plus_uconst 0x6]
    6627                      .dwattr $C$DW$785, DW_AT_accessibility(DW_ACCESS_public)
    6628              
    6629              $C$DW$786       .dwtag  DW_TAG_member
    6630                      .dwattr $C$DW$786, DW_AT_type(*$C$DW$T$67)
    6631                      .dwattr $C$DW$786, DW_AT_name("Rr_Ohm")
    6632                      .dwattr $C$DW$786, DW_AT_TI_symbol_name("_Rr_Ohm")
    6633                      .dwattr $C$DW$786, DW_AT_data_member_location[DW_OP_plus_uconst 0x8]
    6634                      .dwattr $C$DW$786, DW_AT_accessibility(DW_ACCESS_public)
    6635              
    6636              $C$DW$787       .dwtag  DW_TAG_member
    6637                      .dwattr $C$DW$787, DW_AT_type(*$C$DW$T$67)
    6638                      .dwattr $C$DW$787, DW_AT_name("Rs_Ohm")
    6639                      .dwattr $C$DW$787, DW_AT_TI_symbol_name("_Rs_Ohm")
    6640                      .dwattr $C$DW$787, DW_AT_data_member_location[DW_OP_plus_uconst 0xa]
    6641                      .dwattr $C$DW$787, DW_AT_accessibility(DW_ACCESS_public)
    6642              
    6643              $C$DW$788       .dwtag  DW_TAG_member
    6644                      .dwattr $C$DW$788, DW_AT_type(*$C$DW$T$67)
    6645                      .dwattr $C$DW$788, DW_AT_name("ratedFlux_VpHz")
    6646                      .dwattr $C$DW$788, DW_AT_TI_symbol_name("_ratedFlux_VpHz")
    6647                      .dwattr $C$DW$788, DW_AT_data_member_location[DW_OP_plus_uconst 0xc]
    6648                      .dwattr $C$DW$788, DW_AT_accessibility(DW_ACCESS_public)
    6649              
    6650                      .dwendtag $C$DW$T$162
    6651              
    6652              $C$DW$T$62      .dwtag  DW_TAG_typedef
    6653                      .dwattr $C$DW$T$62, DW_AT_name("MOTOR_Params")
    6654                      .dwattr $C$DW$T$62, DW_AT_type(*$C$DW$T$162)
    6655                      .dwattr $C$DW$T$62, DW_AT_language(DW_LANG_C)
    6656              
    6657              
    6658              $C$DW$T$167     .dwtag  DW_TAG_structure_type
    6659                      .dwattr $C$DW$T$167, DW_AT_name("_MOTOR_Vars_t_")
    6660                      .dwattr $C$DW$T$167, DW_AT_byte_size(0x6a)
    6661              $C$DW$789       .dwtag  DW_TAG_member
    6662                      .dwattr $C$DW$789, DW_AT_type(*$C$DW$T$69)
    6663                      .dwattr $C$DW$789, DW_AT_name("Flag_enableSys")
    6664                      .dwattr $C$DW$789, DW_AT_TI_symbol_name("_Flag_enableSys")
    6665                      .dwattr $C$DW$789, DW_AT_data_member_location[DW_OP_plus_uconst 0x0]
    6666                      .dwattr $C$DW$789, DW_AT_accessibility(DW_ACCESS_public)
    6667              
    6668              $C$DW$790       .dwtag  DW_TAG_member
    6669                      .dwattr $C$DW$790, DW_AT_type(*$C$DW$T$69)
    6670                      .dwattr $C$DW$790, DW_AT_name("Flag_Run_Identify")
    6671                      .dwattr $C$DW$790, DW_AT_TI_symbol_name("_Flag_Run_Identify")
    6672                      .dwattr $C$DW$790, DW_AT_data_member_location[DW_OP_plus_uconst 0x1]
    6673                      .dwattr $C$DW$790, DW_AT_accessibility(DW_ACCESS_public)
    6674              
TMS320C2000 Assembler PC v15.12.3 Sun Oct 30 14:01:37 2016

Tools Copyright (c) 1996-2015 Texas Instruments Incorporated
C:\Users\MaCHaDo\AppData\Local\Temp\0057210                          PAGE  128

    6675              $C$DW$791       .dwtag  DW_TAG_member
    6676                      .dwattr $C$DW$791, DW_AT_type(*$C$DW$T$69)
    6677                      .dwattr $C$DW$791, DW_AT_name("Flag_MotorIdentified")
    6678                      .dwattr $C$DW$791, DW_AT_TI_symbol_name("_Flag_MotorIdentified")
    6679                      .dwattr $C$DW$791, DW_AT_data_member_location[DW_OP_plus_uconst 0x2]
    6680                      .dwattr $C$DW$791, DW_AT_accessibility(DW_ACCESS_public)
    6681              
    6682              $C$DW$792       .dwtag  DW_TAG_member
    6683                      .dwattr $C$DW$792, DW_AT_type(*$C$DW$T$69)
    6684                      .dwattr $C$DW$792, DW_AT_name("Flag_enableForceAngle")
    6685                      .dwattr $C$DW$792, DW_AT_TI_symbol_name("_Flag_enableForceAngle")
    6686                      .dwattr $C$DW$792, DW_AT_data_member_location[DW_OP_plus_uconst 0x3]
    6687                      .dwattr $C$DW$792, DW_AT_accessibility(DW_ACCESS_public)
    6688              
    6689              $C$DW$793       .dwtag  DW_TAG_member
    6690                      .dwattr $C$DW$793, DW_AT_type(*$C$DW$T$69)
    6691                      .dwattr $C$DW$793, DW_AT_name("Flag_enableFieldWeakening")
    6692                      .dwattr $C$DW$793, DW_AT_TI_symbol_name("_Flag_enableFieldWeakening")
    6693                      .dwattr $C$DW$793, DW_AT_data_member_location[DW_OP_plus_uconst 0x4]
    6694                      .dwattr $C$DW$793, DW_AT_accessibility(DW_ACCESS_public)
    6695              
    6696              $C$DW$794       .dwtag  DW_TAG_member
    6697                      .dwattr $C$DW$794, DW_AT_type(*$C$DW$T$69)
    6698                      .dwattr $C$DW$794, DW_AT_name("Flag_enableRsRecalc")
    6699                      .dwattr $C$DW$794, DW_AT_TI_symbol_name("_Flag_enableRsRecalc")
    6700                      .dwattr $C$DW$794, DW_AT_data_member_location[DW_OP_plus_uconst 0x5]
    6701                      .dwattr $C$DW$794, DW_AT_accessibility(DW_ACCESS_public)
    6702              
    6703              $C$DW$795       .dwtag  DW_TAG_member
    6704                      .dwattr $C$DW$795, DW_AT_type(*$C$DW$T$69)
    6705                      .dwattr $C$DW$795, DW_AT_name("Flag_enableUserParams")
    6706                      .dwattr $C$DW$795, DW_AT_TI_symbol_name("_Flag_enableUserParams")
    6707                      .dwattr $C$DW$795, DW_AT_data_member_location[DW_OP_plus_uconst 0x6]
    6708                      .dwattr $C$DW$795, DW_AT_accessibility(DW_ACCESS_public)
    6709              
    6710              $C$DW$796       .dwtag  DW_TAG_member
    6711                      .dwattr $C$DW$796, DW_AT_type(*$C$DW$T$69)
    6712                      .dwattr $C$DW$796, DW_AT_name("Flag_enableOffsetcalc")
    6713                      .dwattr $C$DW$796, DW_AT_TI_symbol_name("_Flag_enableOffsetcalc")
    6714                      .dwattr $C$DW$796, DW_AT_data_member_location[DW_OP_plus_uconst 0x7]
    6715                      .dwattr $C$DW$796, DW_AT_accessibility(DW_ACCESS_public)
    6716              
    6717              $C$DW$797       .dwtag  DW_TAG_member
    6718                      .dwattr $C$DW$797, DW_AT_type(*$C$DW$T$69)
    6719                      .dwattr $C$DW$797, DW_AT_name("Flag_enablePowerWarp")
    6720                      .dwattr $C$DW$797, DW_AT_TI_symbol_name("_Flag_enablePowerWarp")
    6721                      .dwattr $C$DW$797, DW_AT_data_member_location[DW_OP_plus_uconst 0x8]
    6722                      .dwattr $C$DW$797, DW_AT_accessibility(DW_ACCESS_public)
    6723              
    6724              $C$DW$798       .dwtag  DW_TAG_member
    6725                      .dwattr $C$DW$798, DW_AT_type(*$C$DW$T$69)
    6726                      .dwattr $C$DW$798, DW_AT_name("Flag_enableSpeedCtrl")
    6727                      .dwattr $C$DW$798, DW_AT_TI_symbol_name("_Flag_enableSpeedCtrl")
    6728                      .dwattr $C$DW$798, DW_AT_data_member_location[DW_OP_plus_uconst 0x9]
    6729                      .dwattr $C$DW$798, DW_AT_accessibility(DW_ACCESS_public)
TMS320C2000 Assembler PC v15.12.3 Sun Oct 30 14:01:37 2016

Tools Copyright (c) 1996-2015 Texas Instruments Incorporated
C:\Users\MaCHaDo\AppData\Local\Temp\0057210                          PAGE  129

    6730              
    6731              $C$DW$799       .dwtag  DW_TAG_member
    6732                      .dwattr $C$DW$799, DW_AT_type(*$C$DW$T$39)
    6733                      .dwattr $C$DW$799, DW_AT_name("CtrlState")
    6734                      .dwattr $C$DW$799, DW_AT_TI_symbol_name("_CtrlState")
    6735                      .dwattr $C$DW$799, DW_AT_data_member_location[DW_OP_plus_uconst 0xa]
    6736                      .dwattr $C$DW$799, DW_AT_accessibility(DW_ACCESS_public)
    6737              
    6738              $C$DW$800       .dwtag  DW_TAG_member
    6739                      .dwattr $C$DW$800, DW_AT_type(*$C$DW$T$164)
    6740                      .dwattr $C$DW$800, DW_AT_name("EstState")
    6741                      .dwattr $C$DW$800, DW_AT_TI_symbol_name("_EstState")
    6742                      .dwattr $C$DW$800, DW_AT_data_member_location[DW_OP_plus_uconst 0xb]
    6743                      .dwattr $C$DW$800, DW_AT_accessibility(DW_ACCESS_public)
    6744              
    6745              $C$DW$801       .dwtag  DW_TAG_member
    6746                      .dwattr $C$DW$801, DW_AT_type(*$C$DW$T$166)
    6747                      .dwattr $C$DW$801, DW_AT_name("UserErrorCode")
    6748                      .dwattr $C$DW$801, DW_AT_TI_symbol_name("_UserErrorCode")
    6749                      .dwattr $C$DW$801, DW_AT_data_member_location[DW_OP_plus_uconst 0xc]
    6750                      .dwattr $C$DW$801, DW_AT_accessibility(DW_ACCESS_public)
    6751              
    6752              $C$DW$802       .dwtag  DW_TAG_member
    6753                      .dwattr $C$DW$802, DW_AT_type(*$C$DW$T$37)
    6754                      .dwattr $C$DW$802, DW_AT_name("CtrlVersion")
    6755                      .dwattr $C$DW$802, DW_AT_TI_symbol_name("_CtrlVersion")
    6756                      .dwattr $C$DW$802, DW_AT_data_member_location[DW_OP_plus_uconst 0xd]
    6757                      .dwattr $C$DW$802, DW_AT_accessibility(DW_ACCESS_public)
    6758              
    6759              $C$DW$803       .dwtag  DW_TAG_member
    6760                      .dwattr $C$DW$803, DW_AT_type(*$C$DW$T$31)
    6761                      .dwattr $C$DW$803, DW_AT_name("IdRef_A")
    6762                      .dwattr $C$DW$803, DW_AT_TI_symbol_name("_IdRef_A")
    6763                      .dwattr $C$DW$803, DW_AT_data_member_location[DW_OP_plus_uconst 0x12]
    6764                      .dwattr $C$DW$803, DW_AT_accessibility(DW_ACCESS_public)
    6765              
    6766              $C$DW$804       .dwtag  DW_TAG_member
    6767                      .dwattr $C$DW$804, DW_AT_type(*$C$DW$T$31)
    6768                      .dwattr $C$DW$804, DW_AT_name("IqRef_A")
    6769                      .dwattr $C$DW$804, DW_AT_TI_symbol_name("_IqRef_A")
    6770                      .dwattr $C$DW$804, DW_AT_data_member_location[DW_OP_plus_uconst 0x14]
    6771                      .dwattr $C$DW$804, DW_AT_accessibility(DW_ACCESS_public)
    6772              
    6773              $C$DW$805       .dwtag  DW_TAG_member
    6774                      .dwattr $C$DW$805, DW_AT_type(*$C$DW$T$31)
    6775                      .dwattr $C$DW$805, DW_AT_name("SpeedRef_pu")
    6776                      .dwattr $C$DW$805, DW_AT_TI_symbol_name("_SpeedRef_pu")
    6777                      .dwattr $C$DW$805, DW_AT_data_member_location[DW_OP_plus_uconst 0x16]
    6778                      .dwattr $C$DW$805, DW_AT_accessibility(DW_ACCESS_public)
    6779              
    6780              $C$DW$806       .dwtag  DW_TAG_member
    6781                      .dwattr $C$DW$806, DW_AT_type(*$C$DW$T$31)
    6782                      .dwattr $C$DW$806, DW_AT_name("SpeedRef_krpm")
    6783                      .dwattr $C$DW$806, DW_AT_TI_symbol_name("_SpeedRef_krpm")
    6784                      .dwattr $C$DW$806, DW_AT_data_member_location[DW_OP_plus_uconst 0x18]
TMS320C2000 Assembler PC v15.12.3 Sun Oct 30 14:01:37 2016

Tools Copyright (c) 1996-2015 Texas Instruments Incorporated
C:\Users\MaCHaDo\AppData\Local\Temp\0057210                          PAGE  130

    6785                      .dwattr $C$DW$806, DW_AT_accessibility(DW_ACCESS_public)
    6786              
    6787              $C$DW$807       .dwtag  DW_TAG_member
    6788                      .dwattr $C$DW$807, DW_AT_type(*$C$DW$T$31)
    6789                      .dwattr $C$DW$807, DW_AT_name("SpeedTraj_krpm")
    6790                      .dwattr $C$DW$807, DW_AT_TI_symbol_name("_SpeedTraj_krpm")
    6791                      .dwattr $C$DW$807, DW_AT_data_member_location[DW_OP_plus_uconst 0x1a]
    6792                      .dwattr $C$DW$807, DW_AT_accessibility(DW_ACCESS_public)
    6793              
    6794              $C$DW$808       .dwtag  DW_TAG_member
    6795                      .dwattr $C$DW$808, DW_AT_type(*$C$DW$T$31)
    6796                      .dwattr $C$DW$808, DW_AT_name("MaxAccel_krpmps")
    6797                      .dwattr $C$DW$808, DW_AT_TI_symbol_name("_MaxAccel_krpmps")
    6798                      .dwattr $C$DW$808, DW_AT_data_member_location[DW_OP_plus_uconst 0x1c]
    6799                      .dwattr $C$DW$808, DW_AT_accessibility(DW_ACCESS_public)
    6800              
    6801              $C$DW$809       .dwtag  DW_TAG_member
    6802                      .dwattr $C$DW$809, DW_AT_type(*$C$DW$T$31)
    6803                      .dwattr $C$DW$809, DW_AT_name("Speed_krpm")
    6804                      .dwattr $C$DW$809, DW_AT_TI_symbol_name("_Speed_krpm")
    6805                      .dwattr $C$DW$809, DW_AT_data_member_location[DW_OP_plus_uconst 0x1e]
    6806                      .dwattr $C$DW$809, DW_AT_accessibility(DW_ACCESS_public)
    6807              
    6808              $C$DW$810       .dwtag  DW_TAG_member
    6809                      .dwattr $C$DW$810, DW_AT_type(*$C$DW$T$31)
    6810                      .dwattr $C$DW$810, DW_AT_name("OverModulation")
    6811                      .dwattr $C$DW$810, DW_AT_TI_symbol_name("_OverModulation")
    6812                      .dwattr $C$DW$810, DW_AT_data_member_location[DW_OP_plus_uconst 0x20]
    6813                      .dwattr $C$DW$810, DW_AT_accessibility(DW_ACCESS_public)
    6814              
    6815              $C$DW$811       .dwtag  DW_TAG_member
    6816                      .dwattr $C$DW$811, DW_AT_type(*$C$DW$T$31)
    6817                      .dwattr $C$DW$811, DW_AT_name("RsOnLineCurrent_A")
    6818                      .dwattr $C$DW$811, DW_AT_TI_symbol_name("_RsOnLineCurrent_A")
    6819                      .dwattr $C$DW$811, DW_AT_data_member_location[DW_OP_plus_uconst 0x22]
    6820                      .dwattr $C$DW$811, DW_AT_accessibility(DW_ACCESS_public)
    6821              
    6822              $C$DW$812       .dwtag  DW_TAG_member
    6823                      .dwattr $C$DW$812, DW_AT_type(*$C$DW$T$31)
    6824                      .dwattr $C$DW$812, DW_AT_name("SvgenMaxModulation_ticks")
    6825                      .dwattr $C$DW$812, DW_AT_TI_symbol_name("_SvgenMaxModulation_ticks")
    6826                      .dwattr $C$DW$812, DW_AT_data_member_location[DW_OP_plus_uconst 0x24]
    6827                      .dwattr $C$DW$812, DW_AT_accessibility(DW_ACCESS_public)
    6828              
    6829              $C$DW$813       .dwtag  DW_TAG_member
    6830                      .dwattr $C$DW$813, DW_AT_type(*$C$DW$T$31)
    6831                      .dwattr $C$DW$813, DW_AT_name("Flux_Wb")
    6832                      .dwattr $C$DW$813, DW_AT_TI_symbol_name("_Flux_Wb")
    6833                      .dwattr $C$DW$813, DW_AT_data_member_location[DW_OP_plus_uconst 0x26]
    6834                      .dwattr $C$DW$813, DW_AT_accessibility(DW_ACCESS_public)
    6835              
    6836              $C$DW$814       .dwtag  DW_TAG_member
    6837                      .dwattr $C$DW$814, DW_AT_type(*$C$DW$T$31)
    6838                      .dwattr $C$DW$814, DW_AT_name("Torque_Nm")
    6839                      .dwattr $C$DW$814, DW_AT_TI_symbol_name("_Torque_Nm")
TMS320C2000 Assembler PC v15.12.3 Sun Oct 30 14:01:37 2016

Tools Copyright (c) 1996-2015 Texas Instruments Incorporated
C:\Users\MaCHaDo\AppData\Local\Temp\0057210                          PAGE  131

    6840                      .dwattr $C$DW$814, DW_AT_data_member_location[DW_OP_plus_uconst 0x28]
    6841                      .dwattr $C$DW$814, DW_AT_accessibility(DW_ACCESS_public)
    6842              
    6843              $C$DW$815       .dwtag  DW_TAG_member
    6844                      .dwattr $C$DW$815, DW_AT_type(*$C$DW$T$67)
    6845                      .dwattr $C$DW$815, DW_AT_name("MagnCurr_A")
    6846                      .dwattr $C$DW$815, DW_AT_TI_symbol_name("_MagnCurr_A")
    6847                      .dwattr $C$DW$815, DW_AT_data_member_location[DW_OP_plus_uconst 0x2a]
    6848                      .dwattr $C$DW$815, DW_AT_accessibility(DW_ACCESS_public)
    6849              
    6850              $C$DW$816       .dwtag  DW_TAG_member
    6851                      .dwattr $C$DW$816, DW_AT_type(*$C$DW$T$67)
    6852                      .dwattr $C$DW$816, DW_AT_name("Rr_Ohm")
    6853                      .dwattr $C$DW$816, DW_AT_TI_symbol_name("_Rr_Ohm")
    6854                      .dwattr $C$DW$816, DW_AT_data_member_location[DW_OP_plus_uconst 0x2c]
    6855                      .dwattr $C$DW$816, DW_AT_accessibility(DW_ACCESS_public)
    6856              
    6857              $C$DW$817       .dwtag  DW_TAG_member
    6858                      .dwattr $C$DW$817, DW_AT_type(*$C$DW$T$67)
    6859                      .dwattr $C$DW$817, DW_AT_name("Rs_Ohm")
    6860                      .dwattr $C$DW$817, DW_AT_TI_symbol_name("_Rs_Ohm")
    6861                      .dwattr $C$DW$817, DW_AT_data_member_location[DW_OP_plus_uconst 0x2e]
    6862                      .dwattr $C$DW$817, DW_AT_accessibility(DW_ACCESS_public)
    6863              
    6864              $C$DW$818       .dwtag  DW_TAG_member
    6865                      .dwattr $C$DW$818, DW_AT_type(*$C$DW$T$67)
    6866                      .dwattr $C$DW$818, DW_AT_name("RsOnLine_Ohm")
    6867                      .dwattr $C$DW$818, DW_AT_TI_symbol_name("_RsOnLine_Ohm")
    6868                      .dwattr $C$DW$818, DW_AT_data_member_location[DW_OP_plus_uconst 0x30]
    6869                      .dwattr $C$DW$818, DW_AT_accessibility(DW_ACCESS_public)
    6870              
    6871              $C$DW$819       .dwtag  DW_TAG_member
    6872                      .dwattr $C$DW$819, DW_AT_type(*$C$DW$T$67)
    6873                      .dwattr $C$DW$819, DW_AT_name("Lsd_H")
    6874                      .dwattr $C$DW$819, DW_AT_TI_symbol_name("_Lsd_H")
    6875                      .dwattr $C$DW$819, DW_AT_data_member_location[DW_OP_plus_uconst 0x32]
    6876                      .dwattr $C$DW$819, DW_AT_accessibility(DW_ACCESS_public)
    6877              
    6878              $C$DW$820       .dwtag  DW_TAG_member
    6879                      .dwattr $C$DW$820, DW_AT_type(*$C$DW$T$67)
    6880                      .dwattr $C$DW$820, DW_AT_name("Lsq_H")
    6881                      .dwattr $C$DW$820, DW_AT_TI_symbol_name("_Lsq_H")
    6882                      .dwattr $C$DW$820, DW_AT_data_member_location[DW_OP_plus_uconst 0x34]
    6883                      .dwattr $C$DW$820, DW_AT_accessibility(DW_ACCESS_public)
    6884              
    6885              $C$DW$821       .dwtag  DW_TAG_member
    6886                      .dwattr $C$DW$821, DW_AT_type(*$C$DW$T$67)
    6887                      .dwattr $C$DW$821, DW_AT_name("Flux_VpHz")
    6888                      .dwattr $C$DW$821, DW_AT_TI_symbol_name("_Flux_VpHz")
    6889                      .dwattr $C$DW$821, DW_AT_data_member_location[DW_OP_plus_uconst 0x36]
    6890                      .dwattr $C$DW$821, DW_AT_accessibility(DW_ACCESS_public)
    6891              
    6892              $C$DW$822       .dwtag  DW_TAG_member
    6893                      .dwattr $C$DW$822, DW_AT_type(*$C$DW$T$67)
    6894                      .dwattr $C$DW$822, DW_AT_name("ipd_excFreq_Hz")
TMS320C2000 Assembler PC v15.12.3 Sun Oct 30 14:01:37 2016

Tools Copyright (c) 1996-2015 Texas Instruments Incorporated
C:\Users\MaCHaDo\AppData\Local\Temp\0057210                          PAGE  132

    6895                      .dwattr $C$DW$822, DW_AT_TI_symbol_name("_ipd_excFreq_Hz")
    6896                      .dwattr $C$DW$822, DW_AT_data_member_location[DW_OP_plus_uconst 0x38]
    6897                      .dwattr $C$DW$822, DW_AT_accessibility(DW_ACCESS_public)
    6898              
    6899              $C$DW$823       .dwtag  DW_TAG_member
    6900                      .dwattr $C$DW$823, DW_AT_type(*$C$DW$T$31)
    6901                      .dwattr $C$DW$823, DW_AT_name("ipd_Kspd")
    6902                      .dwattr $C$DW$823, DW_AT_TI_symbol_name("_ipd_Kspd")
    6903                      .dwattr $C$DW$823, DW_AT_data_member_location[DW_OP_plus_uconst 0x3a]
    6904                      .dwattr $C$DW$823, DW_AT_accessibility(DW_ACCESS_public)
    6905              
    6906              $C$DW$824       .dwtag  DW_TAG_member
    6907                      .dwattr $C$DW$824, DW_AT_type(*$C$DW$T$31)
    6908                      .dwattr $C$DW$824, DW_AT_name("ipd_excMag_coarse_pu")
    6909                      .dwattr $C$DW$824, DW_AT_TI_symbol_name("_ipd_excMag_coarse_pu")
    6910                      .dwattr $C$DW$824, DW_AT_data_member_location[DW_OP_plus_uconst 0x3c]
    6911                      .dwattr $C$DW$824, DW_AT_accessibility(DW_ACCESS_public)
    6912              
    6913              $C$DW$825       .dwtag  DW_TAG_member
    6914                      .dwattr $C$DW$825, DW_AT_type(*$C$DW$T$31)
    6915                      .dwattr $C$DW$825, DW_AT_name("ipd_excMag_fine_pu")
    6916                      .dwattr $C$DW$825, DW_AT_TI_symbol_name("_ipd_excMag_fine_pu")
    6917                      .dwattr $C$DW$825, DW_AT_data_member_location[DW_OP_plus_uconst 0x3e]
    6918                      .dwattr $C$DW$825, DW_AT_accessibility(DW_ACCESS_public)
    6919              
    6920              $C$DW$826       .dwtag  DW_TAG_member
    6921                      .dwattr $C$DW$826, DW_AT_type(*$C$DW$T$16)
    6922                      .dwattr $C$DW$826, DW_AT_name("ipd_waitTime_coarse_sec")
    6923                      .dwattr $C$DW$826, DW_AT_TI_symbol_name("_ipd_waitTime_coarse_sec")
    6924                      .dwattr $C$DW$826, DW_AT_data_member_location[DW_OP_plus_uconst 0x40]
    6925                      .dwattr $C$DW$826, DW_AT_accessibility(DW_ACCESS_public)
    6926              
    6927              $C$DW$827       .dwtag  DW_TAG_member
    6928                      .dwattr $C$DW$827, DW_AT_type(*$C$DW$T$16)
    6929                      .dwattr $C$DW$827, DW_AT_name("ipd_waitTime_fine_sec")
    6930                      .dwattr $C$DW$827, DW_AT_TI_symbol_name("_ipd_waitTime_fine_sec")
    6931                      .dwattr $C$DW$827, DW_AT_data_member_location[DW_OP_plus_uconst 0x42]
    6932                      .dwattr $C$DW$827, DW_AT_accessibility(DW_ACCESS_public)
    6933              
    6934              $C$DW$828       .dwtag  DW_TAG_member
    6935                      .dwattr $C$DW$828, DW_AT_type(*$C$DW$T$31)
    6936                      .dwattr $C$DW$828, DW_AT_name("Kp_spd")
    6937                      .dwattr $C$DW$828, DW_AT_TI_symbol_name("_Kp_spd")
    6938                      .dwattr $C$DW$828, DW_AT_data_member_location[DW_OP_plus_uconst 0x44]
    6939                      .dwattr $C$DW$828, DW_AT_accessibility(DW_ACCESS_public)
    6940              
    6941              $C$DW$829       .dwtag  DW_TAG_member
    6942                      .dwattr $C$DW$829, DW_AT_type(*$C$DW$T$31)
    6943                      .dwattr $C$DW$829, DW_AT_name("Ki_spd")
    6944                      .dwattr $C$DW$829, DW_AT_TI_symbol_name("_Ki_spd")
    6945                      .dwattr $C$DW$829, DW_AT_data_member_location[DW_OP_plus_uconst 0x46]
    6946                      .dwattr $C$DW$829, DW_AT_accessibility(DW_ACCESS_public)
    6947              
    6948              $C$DW$830       .dwtag  DW_TAG_member
    6949                      .dwattr $C$DW$830, DW_AT_type(*$C$DW$T$31)
TMS320C2000 Assembler PC v15.12.3 Sun Oct 30 14:01:37 2016

Tools Copyright (c) 1996-2015 Texas Instruments Incorporated
C:\Users\MaCHaDo\AppData\Local\Temp\0057210                          PAGE  133

    6950                      .dwattr $C$DW$830, DW_AT_name("Kp_Idq")
    6951                      .dwattr $C$DW$830, DW_AT_TI_symbol_name("_Kp_Idq")
    6952                      .dwattr $C$DW$830, DW_AT_data_member_location[DW_OP_plus_uconst 0x48]
    6953                      .dwattr $C$DW$830, DW_AT_accessibility(DW_ACCESS_public)
    6954              
    6955              $C$DW$831       .dwtag  DW_TAG_member
    6956                      .dwattr $C$DW$831, DW_AT_type(*$C$DW$T$31)
    6957                      .dwattr $C$DW$831, DW_AT_name("Ki_Idq")
    6958                      .dwattr $C$DW$831, DW_AT_TI_symbol_name("_Ki_Idq")
    6959                      .dwattr $C$DW$831, DW_AT_data_member_location[DW_OP_plus_uconst 0x4a]
    6960                      .dwattr $C$DW$831, DW_AT_accessibility(DW_ACCESS_public)
    6961              
    6962              $C$DW$832       .dwtag  DW_TAG_member
    6963                      .dwattr $C$DW$832, DW_AT_type(*$C$DW$T$31)
    6964                      .dwattr $C$DW$832, DW_AT_name("Vd")
    6965                      .dwattr $C$DW$832, DW_AT_TI_symbol_name("_Vd")
    6966                      .dwattr $C$DW$832, DW_AT_data_member_location[DW_OP_plus_uconst 0x4c]
    6967                      .dwattr $C$DW$832, DW_AT_accessibility(DW_ACCESS_public)
    6968              
    6969              $C$DW$833       .dwtag  DW_TAG_member
    6970                      .dwattr $C$DW$833, DW_AT_type(*$C$DW$T$31)
    6971                      .dwattr $C$DW$833, DW_AT_name("Vq")
    6972                      .dwattr $C$DW$833, DW_AT_TI_symbol_name("_Vq")
    6973                      .dwattr $C$DW$833, DW_AT_data_member_location[DW_OP_plus_uconst 0x4e]
    6974                      .dwattr $C$DW$833, DW_AT_accessibility(DW_ACCESS_public)
    6975              
    6976              $C$DW$834       .dwtag  DW_TAG_member
    6977                      .dwattr $C$DW$834, DW_AT_type(*$C$DW$T$31)
    6978                      .dwattr $C$DW$834, DW_AT_name("Vs")
    6979                      .dwattr $C$DW$834, DW_AT_TI_symbol_name("_Vs")
    6980                      .dwattr $C$DW$834, DW_AT_data_member_location[DW_OP_plus_uconst 0x50]
    6981                      .dwattr $C$DW$834, DW_AT_accessibility(DW_ACCESS_public)
    6982              
    6983              $C$DW$835       .dwtag  DW_TAG_member
    6984                      .dwattr $C$DW$835, DW_AT_type(*$C$DW$T$31)
    6985                      .dwattr $C$DW$835, DW_AT_name("VsRef")
    6986                      .dwattr $C$DW$835, DW_AT_TI_symbol_name("_VsRef")
    6987                      .dwattr $C$DW$835, DW_AT_data_member_location[DW_OP_plus_uconst 0x52]
    6988                      .dwattr $C$DW$835, DW_AT_accessibility(DW_ACCESS_public)
    6989              
    6990              $C$DW$836       .dwtag  DW_TAG_member
    6991                      .dwattr $C$DW$836, DW_AT_type(*$C$DW$T$31)
    6992                      .dwattr $C$DW$836, DW_AT_name("VdcBus_kV")
    6993                      .dwattr $C$DW$836, DW_AT_TI_symbol_name("_VdcBus_kV")
    6994                      .dwattr $C$DW$836, DW_AT_data_member_location[DW_OP_plus_uconst 0x54]
    6995                      .dwattr $C$DW$836, DW_AT_accessibility(DW_ACCESS_public)
    6996              
    6997              $C$DW$837       .dwtag  DW_TAG_member
    6998                      .dwattr $C$DW$837, DW_AT_type(*$C$DW$T$31)
    6999                      .dwattr $C$DW$837, DW_AT_name("IdcBus")
    7000                      .dwattr $C$DW$837, DW_AT_TI_symbol_name("_IdcBus")
    7001                      .dwattr $C$DW$837, DW_AT_data_member_location[DW_OP_plus_uconst 0x56]
    7002                      .dwattr $C$DW$837, DW_AT_accessibility(DW_ACCESS_public)
    7003              
    7004              $C$DW$838       .dwtag  DW_TAG_member
TMS320C2000 Assembler PC v15.12.3 Sun Oct 30 14:01:37 2016

Tools Copyright (c) 1996-2015 Texas Instruments Incorporated
C:\Users\MaCHaDo\AppData\Local\Temp\0057210                          PAGE  134

    7005                      .dwattr $C$DW$838, DW_AT_type(*$C$DW$T$31)
    7006                      .dwattr $C$DW$838, DW_AT_name("Id_A")
    7007                      .dwattr $C$DW$838, DW_AT_TI_symbol_name("_Id_A")
    7008                      .dwattr $C$DW$838, DW_AT_data_member_location[DW_OP_plus_uconst 0x58]
    7009                      .dwattr $C$DW$838, DW_AT_accessibility(DW_ACCESS_public)
    7010              
    7011              $C$DW$839       .dwtag  DW_TAG_member
    7012                      .dwattr $C$DW$839, DW_AT_type(*$C$DW$T$31)
    7013                      .dwattr $C$DW$839, DW_AT_name("Iq_A")
    7014                      .dwattr $C$DW$839, DW_AT_TI_symbol_name("_Iq_A")
    7015                      .dwattr $C$DW$839, DW_AT_data_member_location[DW_OP_plus_uconst 0x5a]
    7016                      .dwattr $C$DW$839, DW_AT_accessibility(DW_ACCESS_public)
    7017              
    7018              $C$DW$840       .dwtag  DW_TAG_member
    7019                      .dwattr $C$DW$840, DW_AT_type(*$C$DW$T$31)
    7020                      .dwattr $C$DW$840, DW_AT_name("Is_A")
    7021                      .dwattr $C$DW$840, DW_AT_TI_symbol_name("_Is_A")
    7022                      .dwattr $C$DW$840, DW_AT_data_member_location[DW_OP_plus_uconst 0x5c]
    7023                      .dwattr $C$DW$840, DW_AT_accessibility(DW_ACCESS_public)
    7024              
    7025              $C$DW$841       .dwtag  DW_TAG_member
    7026                      .dwattr $C$DW$841, DW_AT_type(*$C$DW$T$114)
    7027                      .dwattr $C$DW$841, DW_AT_name("I_bias")
    7028                      .dwattr $C$DW$841, DW_AT_TI_symbol_name("_I_bias")
    7029                      .dwattr $C$DW$841, DW_AT_data_member_location[DW_OP_plus_uconst 0x5e]
    7030                      .dwattr $C$DW$841, DW_AT_accessibility(DW_ACCESS_public)
    7031              
    7032              $C$DW$842       .dwtag  DW_TAG_member
    7033                      .dwattr $C$DW$842, DW_AT_type(*$C$DW$T$114)
    7034                      .dwattr $C$DW$842, DW_AT_name("V_bias")
    7035                      .dwattr $C$DW$842, DW_AT_TI_symbol_name("_V_bias")
    7036                      .dwattr $C$DW$842, DW_AT_data_member_location[DW_OP_plus_uconst 0x64]
    7037                      .dwattr $C$DW$842, DW_AT_accessibility(DW_ACCESS_public)
    7038              
    7039                      .dwendtag $C$DW$T$167
    7040              
    7041              $C$DW$T$259     .dwtag  DW_TAG_typedef
    7042                      .dwattr $C$DW$T$259, DW_AT_name("MOTOR_Vars_t")
    7043                      .dwattr $C$DW$T$259, DW_AT_type(*$C$DW$T$167)
    7044                      .dwattr $C$DW$T$259, DW_AT_language(DW_LANG_C)
    7045              
    7046              $C$DW$843       .dwtag  DW_TAG_TI_far_type
    7047                      .dwattr $C$DW$843, DW_AT_type(*$C$DW$T$259)
    7048              
    7049              $C$DW$T$260     .dwtag  DW_TAG_volatile_type
    7050                      .dwattr $C$DW$T$260, DW_AT_type(*$C$DW$843)
    7051              
    7052              
    7053              $C$DW$T$171     .dwtag  DW_TAG_structure_type
    7054                      .dwattr $C$DW$T$171, DW_AT_name("_OFFSET_")
    7055                      .dwattr $C$DW$T$171, DW_AT_byte_size(0x10)
    7056              $C$DW$844       .dwtag  DW_TAG_member
    7057                      .dwattr $C$DW$844, DW_AT_type(*$C$DW$T$31)
    7058                      .dwattr $C$DW$844, DW_AT_name("value")
    7059                      .dwattr $C$DW$844, DW_AT_TI_symbol_name("_value")
TMS320C2000 Assembler PC v15.12.3 Sun Oct 30 14:01:37 2016

Tools Copyright (c) 1996-2015 Texas Instruments Incorporated
C:\Users\MaCHaDo\AppData\Local\Temp\0057210                          PAGE  135

    7060                      .dwattr $C$DW$844, DW_AT_data_member_location[DW_OP_plus_uconst 0x0]
    7061                      .dwattr $C$DW$844, DW_AT_accessibility(DW_ACCESS_public)
    7062              
    7063              $C$DW$845       .dwtag  DW_TAG_member
    7064                      .dwattr $C$DW$845, DW_AT_type(*$C$DW$T$31)
    7065                      .dwattr $C$DW$845, DW_AT_name("bias")
    7066                      .dwattr $C$DW$845, DW_AT_TI_symbol_name("_bias")
    7067                      .dwattr $C$DW$845, DW_AT_data_member_location[DW_OP_plus_uconst 0x2]
    7068                      .dwattr $C$DW$845, DW_AT_accessibility(DW_ACCESS_public)
    7069              
    7070              $C$DW$846       .dwtag  DW_TAG_member
    7071                      .dwattr $C$DW$846, DW_AT_type(*$C$DW$T$168)
    7072                      .dwattr $C$DW$846, DW_AT_name("filter")
    7073                      .dwattr $C$DW$846, DW_AT_TI_symbol_name("_filter")
    7074                      .dwattr $C$DW$846, DW_AT_data_member_location[DW_OP_plus_uconst 0x4]
    7075                      .dwattr $C$DW$846, DW_AT_accessibility(DW_ACCESS_public)
    7076              
    7077              $C$DW$847       .dwtag  DW_TAG_member
    7078                      .dwattr $C$DW$847, DW_AT_type(*$C$DW$T$170)
    7079                      .dwattr $C$DW$847, DW_AT_name("filterHandle")
    7080                      .dwattr $C$DW$847, DW_AT_TI_symbol_name("_filterHandle")
    7081                      .dwattr $C$DW$847, DW_AT_data_member_location[DW_OP_plus_uconst 0xe]
    7082                      .dwattr $C$DW$847, DW_AT_accessibility(DW_ACCESS_public)
    7083              
    7084                      .dwendtag $C$DW$T$171
    7085              
    7086              $C$DW$T$127     .dwtag  DW_TAG_typedef
    7087                      .dwattr $C$DW$T$127, DW_AT_name("OFFSET_Obj")
    7088                      .dwattr $C$DW$T$127, DW_AT_type(*$C$DW$T$171)
    7089                      .dwattr $C$DW$T$127, DW_AT_language(DW_LANG_C)
    7090              
    7091              
    7092              $C$DW$T$128     .dwtag  DW_TAG_array_type
    7093                      .dwattr $C$DW$T$128, DW_AT_type(*$C$DW$T$127)
    7094                      .dwattr $C$DW$T$128, DW_AT_language(DW_LANG_C)
    7095                      .dwattr $C$DW$T$128, DW_AT_byte_size(0x30)
    7096              $C$DW$848       .dwtag  DW_TAG_subrange_type
    7097                      .dwattr $C$DW$848, DW_AT_upper_bound(0x02)
    7098              
    7099                      .dwendtag $C$DW$T$128
    7100              
    7101              
    7102              $C$DW$T$21      .dwtag  DW_TAG_structure_type
    7103                      .dwattr $C$DW$T$21, DW_AT_name("_OFFSET_Obj_")
    7104                      .dwattr $C$DW$T$21, DW_AT_declaration
    7105                      .dwendtag $C$DW$T$21
    7106              
    7107              $C$DW$T$124     .dwtag  DW_TAG_pointer_type
    7108                      .dwattr $C$DW$T$124, DW_AT_type(*$C$DW$T$21)
    7109                      .dwattr $C$DW$T$124, DW_AT_address_class(0x20)
    7110              
    7111              $C$DW$T$125     .dwtag  DW_TAG_typedef
    7112                      .dwattr $C$DW$T$125, DW_AT_name("OFFSET_Handle")
    7113                      .dwattr $C$DW$T$125, DW_AT_type(*$C$DW$T$124)
    7114                      .dwattr $C$DW$T$125, DW_AT_language(DW_LANG_C)
TMS320C2000 Assembler PC v15.12.3 Sun Oct 30 14:01:37 2016

Tools Copyright (c) 1996-2015 Texas Instruments Incorporated
C:\Users\MaCHaDo\AppData\Local\Temp\0057210                          PAGE  136

    7115              
    7116              
    7117              $C$DW$T$126     .dwtag  DW_TAG_array_type
    7118                      .dwattr $C$DW$T$126, DW_AT_type(*$C$DW$T$125)
    7119                      .dwattr $C$DW$T$126, DW_AT_language(DW_LANG_C)
    7120                      .dwattr $C$DW$T$126, DW_AT_byte_size(0x06)
    7121              $C$DW$849       .dwtag  DW_TAG_subrange_type
    7122                      .dwattr $C$DW$849, DW_AT_upper_bound(0x02)
    7123              
    7124                      .dwendtag $C$DW$T$126
    7125              
    7126              
    7127              $C$DW$T$172     .dwtag  DW_TAG_structure_type
    7128                      .dwattr $C$DW$T$172, DW_AT_name("_OSC_Obj_")
    7129                      .dwattr $C$DW$T$172, DW_AT_byte_size(0x03)
    7130              $C$DW$850       .dwtag  DW_TAG_member
    7131                      .dwattr $C$DW$850, DW_AT_type(*$C$DW$T$23)
    7132                      .dwattr $C$DW$850, DW_AT_name("INTOSC1TRIM")
    7133                      .dwattr $C$DW$850, DW_AT_TI_symbol_name("_INTOSC1TRIM")
    7134                      .dwattr $C$DW$850, DW_AT_data_member_location[DW_OP_plus_uconst 0x0]
    7135                      .dwattr $C$DW$850, DW_AT_accessibility(DW_ACCESS_public)
    7136              
    7137              $C$DW$851       .dwtag  DW_TAG_member
    7138                      .dwattr $C$DW$851, DW_AT_type(*$C$DW$T$23)
    7139                      .dwattr $C$DW$851, DW_AT_name("rsvd_1")
    7140                      .dwattr $C$DW$851, DW_AT_TI_symbol_name("_rsvd_1")
    7141                      .dwattr $C$DW$851, DW_AT_data_member_location[DW_OP_plus_uconst 0x1]
    7142                      .dwattr $C$DW$851, DW_AT_accessibility(DW_ACCESS_public)
    7143              
    7144              $C$DW$852       .dwtag  DW_TAG_member
    7145                      .dwattr $C$DW$852, DW_AT_type(*$C$DW$T$23)
    7146                      .dwattr $C$DW$852, DW_AT_name("INTOSC2TRIM")
    7147                      .dwattr $C$DW$852, DW_AT_TI_symbol_name("_INTOSC2TRIM")
    7148                      .dwattr $C$DW$852, DW_AT_data_member_location[DW_OP_plus_uconst 0x2]
    7149                      .dwattr $C$DW$852, DW_AT_accessibility(DW_ACCESS_public)
    7150              
    7151                      .dwendtag $C$DW$T$172
    7152              
    7153              $C$DW$T$129     .dwtag  DW_TAG_pointer_type
    7154                      .dwattr $C$DW$T$129, DW_AT_type(*$C$DW$T$172)
    7155                      .dwattr $C$DW$T$129, DW_AT_address_class(0x20)
    7156              
    7157              $C$DW$T$130     .dwtag  DW_TAG_typedef
    7158                      .dwattr $C$DW$T$130, DW_AT_name("OSC_Handle")
    7159                      .dwattr $C$DW$T$130, DW_AT_type(*$C$DW$T$129)
    7160                      .dwattr $C$DW$T$130, DW_AT_language(DW_LANG_C)
    7161              
    7162              
    7163              $C$DW$T$173     .dwtag  DW_TAG_structure_type
    7164                      .dwattr $C$DW$T$173, DW_AT_name("_PARK_Obj_")
    7165                      .dwattr $C$DW$T$173, DW_AT_byte_size(0x04)
    7166              $C$DW$853       .dwtag  DW_TAG_member
    7167                      .dwattr $C$DW$853, DW_AT_type(*$C$DW$T$31)
    7168                      .dwattr $C$DW$853, DW_AT_name("sinTh")
    7169                      .dwattr $C$DW$853, DW_AT_TI_symbol_name("_sinTh")
TMS320C2000 Assembler PC v15.12.3 Sun Oct 30 14:01:37 2016

Tools Copyright (c) 1996-2015 Texas Instruments Incorporated
C:\Users\MaCHaDo\AppData\Local\Temp\0057210                          PAGE  137

    7170                      .dwattr $C$DW$853, DW_AT_data_member_location[DW_OP_plus_uconst 0x0]
    7171                      .dwattr $C$DW$853, DW_AT_accessibility(DW_ACCESS_public)
    7172              
    7173              $C$DW$854       .dwtag  DW_TAG_member
    7174                      .dwattr $C$DW$854, DW_AT_type(*$C$DW$T$31)
    7175                      .dwattr $C$DW$854, DW_AT_name("cosTh")
    7176                      .dwattr $C$DW$854, DW_AT_TI_symbol_name("_cosTh")
    7177                      .dwattr $C$DW$854, DW_AT_data_member_location[DW_OP_plus_uconst 0x2]
    7178                      .dwattr $C$DW$854, DW_AT_accessibility(DW_ACCESS_public)
    7179              
    7180                      .dwendtag $C$DW$T$173
    7181              
    7182              $C$DW$T$49      .dwtag  DW_TAG_typedef
    7183                      .dwattr $C$DW$T$49, DW_AT_name("PARK_Obj")
    7184                      .dwattr $C$DW$T$49, DW_AT_type(*$C$DW$T$173)
    7185                      .dwattr $C$DW$T$49, DW_AT_language(DW_LANG_C)
    7186              
    7187              $C$DW$T$47      .dwtag  DW_TAG_pointer_type
    7188                      .dwattr $C$DW$T$47, DW_AT_type(*$C$DW$T$173)
    7189                      .dwattr $C$DW$T$47, DW_AT_address_class(0x20)
    7190              
    7191              $C$DW$T$48      .dwtag  DW_TAG_typedef
    7192                      .dwattr $C$DW$T$48, DW_AT_name("PARK_Handle")
    7193                      .dwattr $C$DW$T$48, DW_AT_type(*$C$DW$T$47)
    7194                      .dwattr $C$DW$T$48, DW_AT_language(DW_LANG_C)
    7195              
    7196              
    7197              $C$DW$T$174     .dwtag  DW_TAG_structure_type
    7198                      .dwattr $C$DW$T$174, DW_AT_name("_PID_Obj_")
    7199                      .dwattr $C$DW$T$174, DW_AT_byte_size(0x10)
    7200              $C$DW$855       .dwtag  DW_TAG_member
    7201                      .dwattr $C$DW$855, DW_AT_type(*$C$DW$T$31)
    7202                      .dwattr $C$DW$855, DW_AT_name("Kp")
    7203                      .dwattr $C$DW$855, DW_AT_TI_symbol_name("_Kp")
    7204                      .dwattr $C$DW$855, DW_AT_data_member_location[DW_OP_plus_uconst 0x0]
    7205                      .dwattr $C$DW$855, DW_AT_accessibility(DW_ACCESS_public)
    7206              
    7207              $C$DW$856       .dwtag  DW_TAG_member
    7208                      .dwattr $C$DW$856, DW_AT_type(*$C$DW$T$31)
    7209                      .dwattr $C$DW$856, DW_AT_name("Ki")
    7210                      .dwattr $C$DW$856, DW_AT_TI_symbol_name("_Ki")
    7211                      .dwattr $C$DW$856, DW_AT_data_member_location[DW_OP_plus_uconst 0x2]
    7212                      .dwattr $C$DW$856, DW_AT_accessibility(DW_ACCESS_public)
    7213              
    7214              $C$DW$857       .dwtag  DW_TAG_member
    7215                      .dwattr $C$DW$857, DW_AT_type(*$C$DW$T$31)
    7216                      .dwattr $C$DW$857, DW_AT_name("Kd")
    7217                      .dwattr $C$DW$857, DW_AT_TI_symbol_name("_Kd")
    7218                      .dwattr $C$DW$857, DW_AT_data_member_location[DW_OP_plus_uconst 0x4]
    7219                      .dwattr $C$DW$857, DW_AT_accessibility(DW_ACCESS_public)
    7220              
    7221              $C$DW$858       .dwtag  DW_TAG_member
    7222                      .dwattr $C$DW$858, DW_AT_type(*$C$DW$T$31)
    7223                      .dwattr $C$DW$858, DW_AT_name("Ui")
    7224                      .dwattr $C$DW$858, DW_AT_TI_symbol_name("_Ui")
TMS320C2000 Assembler PC v15.12.3 Sun Oct 30 14:01:37 2016

Tools Copyright (c) 1996-2015 Texas Instruments Incorporated
C:\Users\MaCHaDo\AppData\Local\Temp\0057210                          PAGE  138

    7225                      .dwattr $C$DW$858, DW_AT_data_member_location[DW_OP_plus_uconst 0x6]
    7226                      .dwattr $C$DW$858, DW_AT_accessibility(DW_ACCESS_public)
    7227              
    7228              $C$DW$859       .dwtag  DW_TAG_member
    7229                      .dwattr $C$DW$859, DW_AT_type(*$C$DW$T$31)
    7230                      .dwattr $C$DW$859, DW_AT_name("refValue")
    7231                      .dwattr $C$DW$859, DW_AT_TI_symbol_name("_refValue")
    7232                      .dwattr $C$DW$859, DW_AT_data_member_location[DW_OP_plus_uconst 0x8]
    7233                      .dwattr $C$DW$859, DW_AT_accessibility(DW_ACCESS_public)
    7234              
    7235              $C$DW$860       .dwtag  DW_TAG_member
    7236                      .dwattr $C$DW$860, DW_AT_type(*$C$DW$T$31)
    7237                      .dwattr $C$DW$860, DW_AT_name("fbackValue")
    7238                      .dwattr $C$DW$860, DW_AT_TI_symbol_name("_fbackValue")
    7239                      .dwattr $C$DW$860, DW_AT_data_member_location[DW_OP_plus_uconst 0xa]
    7240                      .dwattr $C$DW$860, DW_AT_accessibility(DW_ACCESS_public)
    7241              
    7242              $C$DW$861       .dwtag  DW_TAG_member
    7243                      .dwattr $C$DW$861, DW_AT_type(*$C$DW$T$31)
    7244                      .dwattr $C$DW$861, DW_AT_name("outMin")
    7245                      .dwattr $C$DW$861, DW_AT_TI_symbol_name("_outMin")
    7246                      .dwattr $C$DW$861, DW_AT_data_member_location[DW_OP_plus_uconst 0xc]
    7247                      .dwattr $C$DW$861, DW_AT_accessibility(DW_ACCESS_public)
    7248              
    7249              $C$DW$862       .dwtag  DW_TAG_member
    7250                      .dwattr $C$DW$862, DW_AT_type(*$C$DW$T$31)
    7251                      .dwattr $C$DW$862, DW_AT_name("outMax")
    7252                      .dwattr $C$DW$862, DW_AT_TI_symbol_name("_outMax")
    7253                      .dwattr $C$DW$862, DW_AT_data_member_location[DW_OP_plus_uconst 0xe]
    7254                      .dwattr $C$DW$862, DW_AT_accessibility(DW_ACCESS_public)
    7255              
    7256                      .dwendtag $C$DW$T$174
    7257              
    7258              $C$DW$T$52      .dwtag  DW_TAG_typedef
    7259                      .dwattr $C$DW$T$52, DW_AT_name("PID_Obj")
    7260                      .dwattr $C$DW$T$52, DW_AT_type(*$C$DW$T$174)
    7261                      .dwattr $C$DW$T$52, DW_AT_language(DW_LANG_C)
    7262              
    7263              $C$DW$T$50      .dwtag  DW_TAG_pointer_type
    7264                      .dwattr $C$DW$T$50, DW_AT_type(*$C$DW$T$174)
    7265                      .dwattr $C$DW$T$50, DW_AT_address_class(0x20)
    7266              
    7267              $C$DW$T$51      .dwtag  DW_TAG_typedef
    7268                      .dwattr $C$DW$T$51, DW_AT_name("PID_Handle")
    7269                      .dwattr $C$DW$T$51, DW_AT_type(*$C$DW$T$50)
    7270                      .dwattr $C$DW$T$51, DW_AT_language(DW_LANG_C)
    7271              
    7272              
    7273              $C$DW$T$175     .dwtag  DW_TAG_structure_type
    7274                      .dwattr $C$DW$T$175, DW_AT_name("_PIE_IERIFR_t")
    7275                      .dwattr $C$DW$T$175, DW_AT_byte_size(0x02)
    7276              $C$DW$863       .dwtag  DW_TAG_member
    7277                      .dwattr $C$DW$863, DW_AT_type(*$C$DW$T$23)
    7278                      .dwattr $C$DW$863, DW_AT_name("IER")
    7279                      .dwattr $C$DW$863, DW_AT_TI_symbol_name("_IER")
TMS320C2000 Assembler PC v15.12.3 Sun Oct 30 14:01:37 2016

Tools Copyright (c) 1996-2015 Texas Instruments Incorporated
C:\Users\MaCHaDo\AppData\Local\Temp\0057210                          PAGE  139

    7280                      .dwattr $C$DW$863, DW_AT_data_member_location[DW_OP_plus_uconst 0x0]
    7281                      .dwattr $C$DW$863, DW_AT_accessibility(DW_ACCESS_public)
    7282              
    7283              $C$DW$864       .dwtag  DW_TAG_member
    7284                      .dwattr $C$DW$864, DW_AT_type(*$C$DW$T$23)
    7285                      .dwattr $C$DW$864, DW_AT_name("IFR")
    7286                      .dwattr $C$DW$864, DW_AT_TI_symbol_name("_IFR")
    7287                      .dwattr $C$DW$864, DW_AT_data_member_location[DW_OP_plus_uconst 0x1]
    7288                      .dwattr $C$DW$864, DW_AT_accessibility(DW_ACCESS_public)
    7289              
    7290                      .dwendtag $C$DW$T$175
    7291              
    7292              $C$DW$T$176     .dwtag  DW_TAG_typedef
    7293                      .dwattr $C$DW$T$176, DW_AT_name("PIE_IERIFR_t")
    7294                      .dwattr $C$DW$T$176, DW_AT_type(*$C$DW$T$175)
    7295                      .dwattr $C$DW$T$176, DW_AT_language(DW_LANG_C)
    7296              
    7297              $C$DW$865       .dwtag  DW_TAG_TI_far_type
    7298                      .dwattr $C$DW$865, DW_AT_type(*$C$DW$T$176)
    7299              
    7300              $C$DW$T$177     .dwtag  DW_TAG_volatile_type
    7301                      .dwattr $C$DW$T$177, DW_AT_type(*$C$DW$865)
    7302              
    7303              
    7304              $C$DW$T$178     .dwtag  DW_TAG_array_type
    7305                      .dwattr $C$DW$T$178, DW_AT_type(*$C$DW$T$177)
    7306                      .dwattr $C$DW$T$178, DW_AT_language(DW_LANG_C)
    7307                      .dwattr $C$DW$T$178, DW_AT_byte_size(0x18)
    7308              $C$DW$866       .dwtag  DW_TAG_subrange_type
    7309                      .dwattr $C$DW$866, DW_AT_upper_bound(0x0b)
    7310              
    7311                      .dwendtag $C$DW$T$178
    7312              
    7313              
    7314              $C$DW$T$185     .dwtag  DW_TAG_structure_type
    7315                      .dwattr $C$DW$T$185, DW_AT_name("_PIE_Obj_")
    7316                      .dwattr $C$DW$T$185, DW_AT_byte_size(0x639c)
    7317              $C$DW$867       .dwtag  DW_TAG_member
    7318                      .dwattr $C$DW$867, DW_AT_type(*$C$DW$T$23)
    7319                      .dwattr $C$DW$867, DW_AT_name("PIECTRL")
    7320                      .dwattr $C$DW$867, DW_AT_TI_symbol_name("_PIECTRL")
    7321                      .dwattr $C$DW$867, DW_AT_data_member_location[DW_OP_plus_uconst 0x0]
    7322                      .dwattr $C$DW$867, DW_AT_accessibility(DW_ACCESS_public)
    7323              
    7324              $C$DW$868       .dwtag  DW_TAG_member
    7325                      .dwattr $C$DW$868, DW_AT_type(*$C$DW$T$23)
    7326                      .dwattr $C$DW$868, DW_AT_name("PIEACK")
    7327                      .dwattr $C$DW$868, DW_AT_TI_symbol_name("_PIEACK")
    7328                      .dwattr $C$DW$868, DW_AT_data_member_location[DW_OP_plus_uconst 0x1]
    7329                      .dwattr $C$DW$868, DW_AT_accessibility(DW_ACCESS_public)
    7330              
    7331              $C$DW$869       .dwtag  DW_TAG_member
    7332                      .dwattr $C$DW$869, DW_AT_type(*$C$DW$T$178)
    7333                      .dwattr $C$DW$869, DW_AT_name("PIEIER_PIEIFR")
    7334                      .dwattr $C$DW$869, DW_AT_TI_symbol_name("_PIEIER_PIEIFR")
TMS320C2000 Assembler PC v15.12.3 Sun Oct 30 14:01:37 2016

Tools Copyright (c) 1996-2015 Texas Instruments Incorporated
C:\Users\MaCHaDo\AppData\Local\Temp\0057210                          PAGE  140

    7335                      .dwattr $C$DW$869, DW_AT_data_member_location[DW_OP_plus_uconst 0x2]
    7336                      .dwattr $C$DW$869, DW_AT_accessibility(DW_ACCESS_public)
    7337              
    7338              $C$DW$870       .dwtag  DW_TAG_member
    7339                      .dwattr $C$DW$870, DW_AT_type(*$C$DW$T$179)
    7340                      .dwattr $C$DW$870, DW_AT_name("rsvd_1")
    7341                      .dwattr $C$DW$870, DW_AT_TI_symbol_name("_rsvd_1")
    7342                      .dwattr $C$DW$870, DW_AT_data_member_location[DW_OP_plus_uconst 0x1a]
    7343                      .dwattr $C$DW$870, DW_AT_accessibility(DW_ACCESS_public)
    7344              
    7345              $C$DW$871       .dwtag  DW_TAG_member
    7346                      .dwattr $C$DW$871, DW_AT_type(*$C$DW$T$183)
    7347                      .dwattr $C$DW$871, DW_AT_name("Reset")
    7348                      .dwattr $C$DW$871, DW_AT_TI_symbol_name("_Reset")
    7349                      .dwattr $C$DW$871, DW_AT_data_member_location[DW_OP_plus_uconst 0x20]
    7350                      .dwattr $C$DW$871, DW_AT_accessibility(DW_ACCESS_public)
    7351              
    7352              $C$DW$872       .dwtag  DW_TAG_member
    7353                      .dwattr $C$DW$872, DW_AT_type(*$C$DW$T$183)
    7354                      .dwattr $C$DW$872, DW_AT_name("INT1")
    7355                      .dwattr $C$DW$872, DW_AT_TI_symbol_name("_INT1")
    7356                      .dwattr $C$DW$872, DW_AT_data_member_location[DW_OP_plus_uconst 0x22]
    7357                      .dwattr $C$DW$872, DW_AT_accessibility(DW_ACCESS_public)
    7358              
    7359              $C$DW$873       .dwtag  DW_TAG_member
    7360                      .dwattr $C$DW$873, DW_AT_type(*$C$DW$T$183)
    7361                      .dwattr $C$DW$873, DW_AT_name("INT2")
    7362                      .dwattr $C$DW$873, DW_AT_TI_symbol_name("_INT2")
    7363                      .dwattr $C$DW$873, DW_AT_data_member_location[DW_OP_plus_uconst 0x24]
    7364                      .dwattr $C$DW$873, DW_AT_accessibility(DW_ACCESS_public)
    7365              
    7366              $C$DW$874       .dwtag  DW_TAG_member
    7367                      .dwattr $C$DW$874, DW_AT_type(*$C$DW$T$183)
    7368                      .dwattr $C$DW$874, DW_AT_name("INT3")
    7369                      .dwattr $C$DW$874, DW_AT_TI_symbol_name("_INT3")
    7370                      .dwattr $C$DW$874, DW_AT_data_member_location[DW_OP_plus_uconst 0x26]
    7371                      .dwattr $C$DW$874, DW_AT_accessibility(DW_ACCESS_public)
    7372              
    7373              $C$DW$875       .dwtag  DW_TAG_member
    7374                      .dwattr $C$DW$875, DW_AT_type(*$C$DW$T$183)
    7375                      .dwattr $C$DW$875, DW_AT_name("INT4")
    7376                      .dwattr $C$DW$875, DW_AT_TI_symbol_name("_INT4")
    7377                      .dwattr $C$DW$875, DW_AT_data_member_location[DW_OP_plus_uconst 0x28]
    7378                      .dwattr $C$DW$875, DW_AT_accessibility(DW_ACCESS_public)
    7379              
    7380              $C$DW$876       .dwtag  DW_TAG_member
    7381                      .dwattr $C$DW$876, DW_AT_type(*$C$DW$T$183)
    7382                      .dwattr $C$DW$876, DW_AT_name("INT5")
    7383                      .dwattr $C$DW$876, DW_AT_TI_symbol_name("_INT5")
    7384                      .dwattr $C$DW$876, DW_AT_data_member_location[DW_OP_plus_uconst 0x2a]
    7385                      .dwattr $C$DW$876, DW_AT_accessibility(DW_ACCESS_public)
    7386              
    7387              $C$DW$877       .dwtag  DW_TAG_member
    7388                      .dwattr $C$DW$877, DW_AT_type(*$C$DW$T$183)
    7389                      .dwattr $C$DW$877, DW_AT_name("INT6")
TMS320C2000 Assembler PC v15.12.3 Sun Oct 30 14:01:37 2016

Tools Copyright (c) 1996-2015 Texas Instruments Incorporated
C:\Users\MaCHaDo\AppData\Local\Temp\0057210                          PAGE  141

    7390                      .dwattr $C$DW$877, DW_AT_TI_symbol_name("_INT6")
    7391                      .dwattr $C$DW$877, DW_AT_data_member_location[DW_OP_plus_uconst 0x2c]
    7392                      .dwattr $C$DW$877, DW_AT_accessibility(DW_ACCESS_public)
    7393              
    7394              $C$DW$878       .dwtag  DW_TAG_member
    7395                      .dwattr $C$DW$878, DW_AT_type(*$C$DW$T$183)
    7396                      .dwattr $C$DW$878, DW_AT_name("INT7")
    7397                      .dwattr $C$DW$878, DW_AT_TI_symbol_name("_INT7")
    7398                      .dwattr $C$DW$878, DW_AT_data_member_location[DW_OP_plus_uconst 0x2e]
    7399                      .dwattr $C$DW$878, DW_AT_accessibility(DW_ACCESS_public)
    7400              
    7401              $C$DW$879       .dwtag  DW_TAG_member
    7402                      .dwattr $C$DW$879, DW_AT_type(*$C$DW$T$183)
    7403                      .dwattr $C$DW$879, DW_AT_name("INT8")
    7404                      .dwattr $C$DW$879, DW_AT_TI_symbol_name("_INT8")
    7405                      .dwattr $C$DW$879, DW_AT_data_member_location[DW_OP_plus_uconst 0x30]
    7406                      .dwattr $C$DW$879, DW_AT_accessibility(DW_ACCESS_public)
    7407              
    7408              $C$DW$880       .dwtag  DW_TAG_member
    7409                      .dwattr $C$DW$880, DW_AT_type(*$C$DW$T$183)
    7410                      .dwattr $C$DW$880, DW_AT_name("INT9")
    7411                      .dwattr $C$DW$880, DW_AT_TI_symbol_name("_INT9")
    7412                      .dwattr $C$DW$880, DW_AT_data_member_location[DW_OP_plus_uconst 0x32]
    7413                      .dwattr $C$DW$880, DW_AT_accessibility(DW_ACCESS_public)
    7414              
    7415              $C$DW$881       .dwtag  DW_TAG_member
    7416                      .dwattr $C$DW$881, DW_AT_type(*$C$DW$T$183)
    7417                      .dwattr $C$DW$881, DW_AT_name("INT10")
    7418                      .dwattr $C$DW$881, DW_AT_TI_symbol_name("_INT10")
    7419                      .dwattr $C$DW$881, DW_AT_data_member_location[DW_OP_plus_uconst 0x34]
    7420                      .dwattr $C$DW$881, DW_AT_accessibility(DW_ACCESS_public)
    7421              
    7422              $C$DW$882       .dwtag  DW_TAG_member
    7423                      .dwattr $C$DW$882, DW_AT_type(*$C$DW$T$183)
    7424                      .dwattr $C$DW$882, DW_AT_name("INT11")
    7425                      .dwattr $C$DW$882, DW_AT_TI_symbol_name("_INT11")
    7426                      .dwattr $C$DW$882, DW_AT_data_member_location[DW_OP_plus_uconst 0x36]
    7427                      .dwattr $C$DW$882, DW_AT_accessibility(DW_ACCESS_public)
    7428              
    7429              $C$DW$883       .dwtag  DW_TAG_member
    7430                      .dwattr $C$DW$883, DW_AT_type(*$C$DW$T$183)
    7431                      .dwattr $C$DW$883, DW_AT_name("INT12")
    7432                      .dwattr $C$DW$883, DW_AT_TI_symbol_name("_INT12")
    7433                      .dwattr $C$DW$883, DW_AT_data_member_location[DW_OP_plus_uconst 0x38]
    7434                      .dwattr $C$DW$883, DW_AT_accessibility(DW_ACCESS_public)
    7435              
    7436              $C$DW$884       .dwtag  DW_TAG_member
    7437                      .dwattr $C$DW$884, DW_AT_type(*$C$DW$T$183)
    7438                      .dwattr $C$DW$884, DW_AT_name("TINT1")
    7439                      .dwattr $C$DW$884, DW_AT_TI_symbol_name("_TINT1")
    7440                      .dwattr $C$DW$884, DW_AT_data_member_location[DW_OP_plus_uconst 0x3a]
    7441                      .dwattr $C$DW$884, DW_AT_accessibility(DW_ACCESS_public)
    7442              
    7443              $C$DW$885       .dwtag  DW_TAG_member
    7444                      .dwattr $C$DW$885, DW_AT_type(*$C$DW$T$183)
TMS320C2000 Assembler PC v15.12.3 Sun Oct 30 14:01:37 2016

Tools Copyright (c) 1996-2015 Texas Instruments Incorporated
C:\Users\MaCHaDo\AppData\Local\Temp\0057210                          PAGE  142

    7445                      .dwattr $C$DW$885, DW_AT_name("TINT2")
    7446                      .dwattr $C$DW$885, DW_AT_TI_symbol_name("_TINT2")
    7447                      .dwattr $C$DW$885, DW_AT_data_member_location[DW_OP_plus_uconst 0x3c]
    7448                      .dwattr $C$DW$885, DW_AT_accessibility(DW_ACCESS_public)
    7449              
    7450              $C$DW$886       .dwtag  DW_TAG_member
    7451                      .dwattr $C$DW$886, DW_AT_type(*$C$DW$T$183)
    7452                      .dwattr $C$DW$886, DW_AT_name("DATALOG")
    7453                      .dwattr $C$DW$886, DW_AT_TI_symbol_name("_DATALOG")
    7454                      .dwattr $C$DW$886, DW_AT_data_member_location[DW_OP_plus_uconst 0x3e]
    7455                      .dwattr $C$DW$886, DW_AT_accessibility(DW_ACCESS_public)
    7456              
    7457              $C$DW$887       .dwtag  DW_TAG_member
    7458                      .dwattr $C$DW$887, DW_AT_type(*$C$DW$T$183)
    7459                      .dwattr $C$DW$887, DW_AT_name("RTOSINT")
    7460                      .dwattr $C$DW$887, DW_AT_TI_symbol_name("_RTOSINT")
    7461                      .dwattr $C$DW$887, DW_AT_data_member_location[DW_OP_plus_uconst 0x40]
    7462                      .dwattr $C$DW$887, DW_AT_accessibility(DW_ACCESS_public)
    7463              
    7464              $C$DW$888       .dwtag  DW_TAG_member
    7465                      .dwattr $C$DW$888, DW_AT_type(*$C$DW$T$183)
    7466                      .dwattr $C$DW$888, DW_AT_name("EMUINT")
    7467                      .dwattr $C$DW$888, DW_AT_TI_symbol_name("_EMUINT")
    7468                      .dwattr $C$DW$888, DW_AT_data_member_location[DW_OP_plus_uconst 0x42]
    7469                      .dwattr $C$DW$888, DW_AT_accessibility(DW_ACCESS_public)
    7470              
    7471              $C$DW$889       .dwtag  DW_TAG_member
    7472                      .dwattr $C$DW$889, DW_AT_type(*$C$DW$T$183)
    7473                      .dwattr $C$DW$889, DW_AT_name("NMI")
    7474                      .dwattr $C$DW$889, DW_AT_TI_symbol_name("_NMI")
    7475                      .dwattr $C$DW$889, DW_AT_data_member_location[DW_OP_plus_uconst 0x44]
    7476                      .dwattr $C$DW$889, DW_AT_accessibility(DW_ACCESS_public)
    7477              
    7478              $C$DW$890       .dwtag  DW_TAG_member
    7479                      .dwattr $C$DW$890, DW_AT_type(*$C$DW$T$183)
    7480                      .dwattr $C$DW$890, DW_AT_name("ILLEGAL")
    7481                      .dwattr $C$DW$890, DW_AT_TI_symbol_name("_ILLEGAL")
    7482                      .dwattr $C$DW$890, DW_AT_data_member_location[DW_OP_plus_uconst 0x46]
    7483                      .dwattr $C$DW$890, DW_AT_accessibility(DW_ACCESS_public)
    7484              
    7485              $C$DW$891       .dwtag  DW_TAG_member
    7486                      .dwattr $C$DW$891, DW_AT_type(*$C$DW$T$183)
    7487                      .dwattr $C$DW$891, DW_AT_name("USER1")
    7488                      .dwattr $C$DW$891, DW_AT_TI_symbol_name("_USER1")
    7489                      .dwattr $C$DW$891, DW_AT_data_member_location[DW_OP_plus_uconst 0x48]
    7490                      .dwattr $C$DW$891, DW_AT_accessibility(DW_ACCESS_public)
    7491              
    7492              $C$DW$892       .dwtag  DW_TAG_member
    7493                      .dwattr $C$DW$892, DW_AT_type(*$C$DW$T$183)
    7494                      .dwattr $C$DW$892, DW_AT_name("USER2")
    7495                      .dwattr $C$DW$892, DW_AT_TI_symbol_name("_USER2")
    7496                      .dwattr $C$DW$892, DW_AT_data_member_location[DW_OP_plus_uconst 0x4a]
    7497                      .dwattr $C$DW$892, DW_AT_accessibility(DW_ACCESS_public)
    7498              
    7499              $C$DW$893       .dwtag  DW_TAG_member
TMS320C2000 Assembler PC v15.12.3 Sun Oct 30 14:01:37 2016

Tools Copyright (c) 1996-2015 Texas Instruments Incorporated
C:\Users\MaCHaDo\AppData\Local\Temp\0057210                          PAGE  143

    7500                      .dwattr $C$DW$893, DW_AT_type(*$C$DW$T$183)
    7501                      .dwattr $C$DW$893, DW_AT_name("USER3")
    7502                      .dwattr $C$DW$893, DW_AT_TI_symbol_name("_USER3")
    7503                      .dwattr $C$DW$893, DW_AT_data_member_location[DW_OP_plus_uconst 0x4c]
    7504                      .dwattr $C$DW$893, DW_AT_accessibility(DW_ACCESS_public)
    7505              
    7506              $C$DW$894       .dwtag  DW_TAG_member
    7507                      .dwattr $C$DW$894, DW_AT_type(*$C$DW$T$183)
    7508                      .dwattr $C$DW$894, DW_AT_name("USER4")
    7509                      .dwattr $C$DW$894, DW_AT_TI_symbol_name("_USER4")
    7510                      .dwattr $C$DW$894, DW_AT_data_member_location[DW_OP_plus_uconst 0x4e]
    7511                      .dwattr $C$DW$894, DW_AT_accessibility(DW_ACCESS_public)
    7512              
    7513              $C$DW$895       .dwtag  DW_TAG_member
    7514                      .dwattr $C$DW$895, DW_AT_type(*$C$DW$T$183)
    7515                      .dwattr $C$DW$895, DW_AT_name("USER5")
    7516                      .dwattr $C$DW$895, DW_AT_TI_symbol_name("_USER5")
    7517                      .dwattr $C$DW$895, DW_AT_data_member_location[DW_OP_plus_uconst 0x50]
    7518                      .dwattr $C$DW$895, DW_AT_accessibility(DW_ACCESS_public)
    7519              
    7520              $C$DW$896       .dwtag  DW_TAG_member
    7521                      .dwattr $C$DW$896, DW_AT_type(*$C$DW$T$183)
    7522                      .dwattr $C$DW$896, DW_AT_name("USER6")
    7523                      .dwattr $C$DW$896, DW_AT_TI_symbol_name("_USER6")
    7524                      .dwattr $C$DW$896, DW_AT_data_member_location[DW_OP_plus_uconst 0x52]
    7525                      .dwattr $C$DW$896, DW_AT_accessibility(DW_ACCESS_public)
    7526              
    7527              $C$DW$897       .dwtag  DW_TAG_member
    7528                      .dwattr $C$DW$897, DW_AT_type(*$C$DW$T$183)
    7529                      .dwattr $C$DW$897, DW_AT_name("USER7")
    7530                      .dwattr $C$DW$897, DW_AT_TI_symbol_name("_USER7")
    7531                      .dwattr $C$DW$897, DW_AT_data_member_location[DW_OP_plus_uconst 0x54]
    7532                      .dwattr $C$DW$897, DW_AT_accessibility(DW_ACCESS_public)
    7533              
    7534              $C$DW$898       .dwtag  DW_TAG_member
    7535                      .dwattr $C$DW$898, DW_AT_type(*$C$DW$T$183)
    7536                      .dwattr $C$DW$898, DW_AT_name("USER8")
    7537                      .dwattr $C$DW$898, DW_AT_TI_symbol_name("_USER8")
    7538                      .dwattr $C$DW$898, DW_AT_data_member_location[DW_OP_plus_uconst 0x56]
    7539                      .dwattr $C$DW$898, DW_AT_accessibility(DW_ACCESS_public)
    7540              
    7541              $C$DW$899       .dwtag  DW_TAG_member
    7542                      .dwattr $C$DW$899, DW_AT_type(*$C$DW$T$183)
    7543                      .dwattr $C$DW$899, DW_AT_name("USER9")
    7544                      .dwattr $C$DW$899, DW_AT_TI_symbol_name("_USER9")
    7545                      .dwattr $C$DW$899, DW_AT_data_member_location[DW_OP_plus_uconst 0x58]
    7546                      .dwattr $C$DW$899, DW_AT_accessibility(DW_ACCESS_public)
    7547              
    7548              $C$DW$900       .dwtag  DW_TAG_member
    7549                      .dwattr $C$DW$900, DW_AT_type(*$C$DW$T$183)
    7550                      .dwattr $C$DW$900, DW_AT_name("USER10")
    7551                      .dwattr $C$DW$900, DW_AT_TI_symbol_name("_USER10")
    7552                      .dwattr $C$DW$900, DW_AT_data_member_location[DW_OP_plus_uconst 0x5a]
    7553                      .dwattr $C$DW$900, DW_AT_accessibility(DW_ACCESS_public)
    7554              
TMS320C2000 Assembler PC v15.12.3 Sun Oct 30 14:01:37 2016

Tools Copyright (c) 1996-2015 Texas Instruments Incorporated
C:\Users\MaCHaDo\AppData\Local\Temp\0057210                          PAGE  144

    7555              $C$DW$901       .dwtag  DW_TAG_member
    7556                      .dwattr $C$DW$901, DW_AT_type(*$C$DW$T$183)
    7557                      .dwattr $C$DW$901, DW_AT_name("USER11")
    7558                      .dwattr $C$DW$901, DW_AT_TI_symbol_name("_USER11")
    7559                      .dwattr $C$DW$901, DW_AT_data_member_location[DW_OP_plus_uconst 0x5c]
    7560                      .dwattr $C$DW$901, DW_AT_accessibility(DW_ACCESS_public)
    7561              
    7562              $C$DW$902       .dwtag  DW_TAG_member
    7563                      .dwattr $C$DW$902, DW_AT_type(*$C$DW$T$183)
    7564                      .dwattr $C$DW$902, DW_AT_name("USER12")
    7565                      .dwattr $C$DW$902, DW_AT_TI_symbol_name("_USER12")
    7566                      .dwattr $C$DW$902, DW_AT_data_member_location[DW_OP_plus_uconst 0x5e]
    7567                      .dwattr $C$DW$902, DW_AT_accessibility(DW_ACCESS_public)
    7568              
    7569              $C$DW$903       .dwtag  DW_TAG_member
    7570                      .dwattr $C$DW$903, DW_AT_type(*$C$DW$T$183)
    7571                      .dwattr $C$DW$903, DW_AT_name("ADCINT1_HP")
    7572                      .dwattr $C$DW$903, DW_AT_TI_symbol_name("_ADCINT1_HP")
    7573                      .dwattr $C$DW$903, DW_AT_data_member_location[DW_OP_plus_uconst 0x60]
    7574                      .dwattr $C$DW$903, DW_AT_accessibility(DW_ACCESS_public)
    7575              
    7576              $C$DW$904       .dwtag  DW_TAG_member
    7577                      .dwattr $C$DW$904, DW_AT_type(*$C$DW$T$183)
    7578                      .dwattr $C$DW$904, DW_AT_name("ADCINT2_HP")
    7579                      .dwattr $C$DW$904, DW_AT_TI_symbol_name("_ADCINT2_HP")
    7580                      .dwattr $C$DW$904, DW_AT_data_member_location[DW_OP_plus_uconst 0x62]
    7581                      .dwattr $C$DW$904, DW_AT_accessibility(DW_ACCESS_public)
    7582              
    7583              $C$DW$905       .dwtag  DW_TAG_member
    7584                      .dwattr $C$DW$905, DW_AT_type(*$C$DW$T$183)
    7585                      .dwattr $C$DW$905, DW_AT_name("rsvd1_3")
    7586                      .dwattr $C$DW$905, DW_AT_TI_symbol_name("_rsvd1_3")
    7587                      .dwattr $C$DW$905, DW_AT_data_member_location[DW_OP_plus_uconst 0x64]
    7588                      .dwattr $C$DW$905, DW_AT_accessibility(DW_ACCESS_public)
    7589              
    7590              $C$DW$906       .dwtag  DW_TAG_member
    7591                      .dwattr $C$DW$906, DW_AT_type(*$C$DW$T$183)
    7592                      .dwattr $C$DW$906, DW_AT_name("XINT1")
    7593                      .dwattr $C$DW$906, DW_AT_TI_symbol_name("_XINT1")
    7594                      .dwattr $C$DW$906, DW_AT_data_member_location[DW_OP_plus_uconst 0x66]
    7595                      .dwattr $C$DW$906, DW_AT_accessibility(DW_ACCESS_public)
    7596              
    7597              $C$DW$907       .dwtag  DW_TAG_member
    7598                      .dwattr $C$DW$907, DW_AT_type(*$C$DW$T$183)
    7599                      .dwattr $C$DW$907, DW_AT_name("XINT2")
    7600                      .dwattr $C$DW$907, DW_AT_TI_symbol_name("_XINT2")
    7601                      .dwattr $C$DW$907, DW_AT_data_member_location[DW_OP_plus_uconst 0x68]
    7602                      .dwattr $C$DW$907, DW_AT_accessibility(DW_ACCESS_public)
    7603              
    7604              $C$DW$908       .dwtag  DW_TAG_member
    7605                      .dwattr $C$DW$908, DW_AT_type(*$C$DW$T$183)
    7606                      .dwattr $C$DW$908, DW_AT_name("ADCINT9")
    7607                      .dwattr $C$DW$908, DW_AT_TI_symbol_name("_ADCINT9")
    7608                      .dwattr $C$DW$908, DW_AT_data_member_location[DW_OP_plus_uconst 0x6a]
    7609                      .dwattr $C$DW$908, DW_AT_accessibility(DW_ACCESS_public)
TMS320C2000 Assembler PC v15.12.3 Sun Oct 30 14:01:37 2016

Tools Copyright (c) 1996-2015 Texas Instruments Incorporated
C:\Users\MaCHaDo\AppData\Local\Temp\0057210                          PAGE  145

    7610              
    7611              $C$DW$909       .dwtag  DW_TAG_member
    7612                      .dwattr $C$DW$909, DW_AT_type(*$C$DW$T$183)
    7613                      .dwattr $C$DW$909, DW_AT_name("TINT0")
    7614                      .dwattr $C$DW$909, DW_AT_TI_symbol_name("_TINT0")
    7615                      .dwattr $C$DW$909, DW_AT_data_member_location[DW_OP_plus_uconst 0x6c]
    7616                      .dwattr $C$DW$909, DW_AT_accessibility(DW_ACCESS_public)
    7617              
    7618              $C$DW$910       .dwtag  DW_TAG_member
    7619                      .dwattr $C$DW$910, DW_AT_type(*$C$DW$T$183)
    7620                      .dwattr $C$DW$910, DW_AT_name("WAKEINT")
    7621                      .dwattr $C$DW$910, DW_AT_TI_symbol_name("_WAKEINT")
    7622                      .dwattr $C$DW$910, DW_AT_data_member_location[DW_OP_plus_uconst 0x6e]
    7623                      .dwattr $C$DW$910, DW_AT_accessibility(DW_ACCESS_public)
    7624              
    7625              $C$DW$911       .dwtag  DW_TAG_member
    7626                      .dwattr $C$DW$911, DW_AT_type(*$C$DW$T$183)
    7627                      .dwattr $C$DW$911, DW_AT_name("EPWM1_TZINT")
    7628                      .dwattr $C$DW$911, DW_AT_TI_symbol_name("_EPWM1_TZINT")
    7629                      .dwattr $C$DW$911, DW_AT_data_member_location[DW_OP_plus_uconst 0x70]
    7630                      .dwattr $C$DW$911, DW_AT_accessibility(DW_ACCESS_public)
    7631              
    7632              $C$DW$912       .dwtag  DW_TAG_member
    7633                      .dwattr $C$DW$912, DW_AT_type(*$C$DW$T$183)
    7634                      .dwattr $C$DW$912, DW_AT_name("EPWM2_TZINT")
    7635                      .dwattr $C$DW$912, DW_AT_TI_symbol_name("_EPWM2_TZINT")
    7636                      .dwattr $C$DW$912, DW_AT_data_member_location[DW_OP_plus_uconst 0x72]
    7637                      .dwattr $C$DW$912, DW_AT_accessibility(DW_ACCESS_public)
    7638              
    7639              $C$DW$913       .dwtag  DW_TAG_member
    7640                      .dwattr $C$DW$913, DW_AT_type(*$C$DW$T$183)
    7641                      .dwattr $C$DW$913, DW_AT_name("EPWM3_TZINT")
    7642                      .dwattr $C$DW$913, DW_AT_TI_symbol_name("_EPWM3_TZINT")
    7643                      .dwattr $C$DW$913, DW_AT_data_member_location[DW_OP_plus_uconst 0x74]
    7644                      .dwattr $C$DW$913, DW_AT_accessibility(DW_ACCESS_public)
    7645              
    7646              $C$DW$914       .dwtag  DW_TAG_member
    7647                      .dwattr $C$DW$914, DW_AT_type(*$C$DW$T$183)
    7648                      .dwattr $C$DW$914, DW_AT_name("EPWM4_TZINT")
    7649                      .dwattr $C$DW$914, DW_AT_TI_symbol_name("_EPWM4_TZINT")
    7650                      .dwattr $C$DW$914, DW_AT_data_member_location[DW_OP_plus_uconst 0x76]
    7651                      .dwattr $C$DW$914, DW_AT_accessibility(DW_ACCESS_public)
    7652              
    7653              $C$DW$915       .dwtag  DW_TAG_member
    7654                      .dwattr $C$DW$915, DW_AT_type(*$C$DW$T$183)
    7655                      .dwattr $C$DW$915, DW_AT_name("rsvd2_5")
    7656                      .dwattr $C$DW$915, DW_AT_TI_symbol_name("_rsvd2_5")
    7657                      .dwattr $C$DW$915, DW_AT_data_member_location[DW_OP_plus_uconst 0x78]
    7658                      .dwattr $C$DW$915, DW_AT_accessibility(DW_ACCESS_public)
    7659              
    7660              $C$DW$916       .dwtag  DW_TAG_member
    7661                      .dwattr $C$DW$916, DW_AT_type(*$C$DW$T$183)
    7662                      .dwattr $C$DW$916, DW_AT_name("rsvd2_6")
    7663                      .dwattr $C$DW$916, DW_AT_TI_symbol_name("_rsvd2_6")
    7664                      .dwattr $C$DW$916, DW_AT_data_member_location[DW_OP_plus_uconst 0x7a]
TMS320C2000 Assembler PC v15.12.3 Sun Oct 30 14:01:37 2016

Tools Copyright (c) 1996-2015 Texas Instruments Incorporated
C:\Users\MaCHaDo\AppData\Local\Temp\0057210                          PAGE  146

    7665                      .dwattr $C$DW$916, DW_AT_accessibility(DW_ACCESS_public)
    7666              
    7667              $C$DW$917       .dwtag  DW_TAG_member
    7668                      .dwattr $C$DW$917, DW_AT_type(*$C$DW$T$183)
    7669                      .dwattr $C$DW$917, DW_AT_name("rsvd2_7")
    7670                      .dwattr $C$DW$917, DW_AT_TI_symbol_name("_rsvd2_7")
    7671                      .dwattr $C$DW$917, DW_AT_data_member_location[DW_OP_plus_uconst 0x7c]
    7672                      .dwattr $C$DW$917, DW_AT_accessibility(DW_ACCESS_public)
    7673              
    7674              $C$DW$918       .dwtag  DW_TAG_member
    7675                      .dwattr $C$DW$918, DW_AT_type(*$C$DW$T$183)
    7676                      .dwattr $C$DW$918, DW_AT_name("rsvd2_8")
    7677                      .dwattr $C$DW$918, DW_AT_TI_symbol_name("_rsvd2_8")
    7678                      .dwattr $C$DW$918, DW_AT_data_member_location[DW_OP_plus_uconst 0x7e]
    7679                      .dwattr $C$DW$918, DW_AT_accessibility(DW_ACCESS_public)
    7680              
    7681              $C$DW$919       .dwtag  DW_TAG_member
    7682                      .dwattr $C$DW$919, DW_AT_type(*$C$DW$T$183)
    7683                      .dwattr $C$DW$919, DW_AT_name("EPWM1_INT")
    7684                      .dwattr $C$DW$919, DW_AT_TI_symbol_name("_EPWM1_INT")
    7685                      .dwattr $C$DW$919, DW_AT_data_member_location[DW_OP_plus_uconst 0x80]
    7686                      .dwattr $C$DW$919, DW_AT_accessibility(DW_ACCESS_public)
    7687              
    7688              $C$DW$920       .dwtag  DW_TAG_member
    7689                      .dwattr $C$DW$920, DW_AT_type(*$C$DW$T$183)
    7690                      .dwattr $C$DW$920, DW_AT_name("EPWM2_INT")
    7691                      .dwattr $C$DW$920, DW_AT_TI_symbol_name("_EPWM2_INT")
    7692                      .dwattr $C$DW$920, DW_AT_data_member_location[DW_OP_plus_uconst 0x82]
    7693                      .dwattr $C$DW$920, DW_AT_accessibility(DW_ACCESS_public)
    7694              
    7695              $C$DW$921       .dwtag  DW_TAG_member
    7696                      .dwattr $C$DW$921, DW_AT_type(*$C$DW$T$183)
    7697                      .dwattr $C$DW$921, DW_AT_name("EPWM3_INT")
    7698                      .dwattr $C$DW$921, DW_AT_TI_symbol_name("_EPWM3_INT")
    7699                      .dwattr $C$DW$921, DW_AT_data_member_location[DW_OP_plus_uconst 0x84]
    7700                      .dwattr $C$DW$921, DW_AT_accessibility(DW_ACCESS_public)
    7701              
    7702              $C$DW$922       .dwtag  DW_TAG_member
    7703                      .dwattr $C$DW$922, DW_AT_type(*$C$DW$T$183)
    7704                      .dwattr $C$DW$922, DW_AT_name("EPWM4_INT")
    7705                      .dwattr $C$DW$922, DW_AT_TI_symbol_name("_EPWM4_INT")
    7706                      .dwattr $C$DW$922, DW_AT_data_member_location[DW_OP_plus_uconst 0x86]
    7707                      .dwattr $C$DW$922, DW_AT_accessibility(DW_ACCESS_public)
    7708              
    7709              $C$DW$923       .dwtag  DW_TAG_member
    7710                      .dwattr $C$DW$923, DW_AT_type(*$C$DW$T$183)
    7711                      .dwattr $C$DW$923, DW_AT_name("rsvd3_5")
    7712                      .dwattr $C$DW$923, DW_AT_TI_symbol_name("_rsvd3_5")
    7713                      .dwattr $C$DW$923, DW_AT_data_member_location[DW_OP_plus_uconst 0x88]
    7714                      .dwattr $C$DW$923, DW_AT_accessibility(DW_ACCESS_public)
    7715              
    7716              $C$DW$924       .dwtag  DW_TAG_member
    7717                      .dwattr $C$DW$924, DW_AT_type(*$C$DW$T$183)
    7718                      .dwattr $C$DW$924, DW_AT_name("rsvd3_6")
    7719                      .dwattr $C$DW$924, DW_AT_TI_symbol_name("_rsvd3_6")
TMS320C2000 Assembler PC v15.12.3 Sun Oct 30 14:01:37 2016

Tools Copyright (c) 1996-2015 Texas Instruments Incorporated
C:\Users\MaCHaDo\AppData\Local\Temp\0057210                          PAGE  147

    7720                      .dwattr $C$DW$924, DW_AT_data_member_location[DW_OP_plus_uconst 0x8a]
    7721                      .dwattr $C$DW$924, DW_AT_accessibility(DW_ACCESS_public)
    7722              
    7723              $C$DW$925       .dwtag  DW_TAG_member
    7724                      .dwattr $C$DW$925, DW_AT_type(*$C$DW$T$183)
    7725                      .dwattr $C$DW$925, DW_AT_name("rsvd3_7")
    7726                      .dwattr $C$DW$925, DW_AT_TI_symbol_name("_rsvd3_7")
    7727                      .dwattr $C$DW$925, DW_AT_data_member_location[DW_OP_plus_uconst 0x8c]
    7728                      .dwattr $C$DW$925, DW_AT_accessibility(DW_ACCESS_public)
    7729              
    7730              $C$DW$926       .dwtag  DW_TAG_member
    7731                      .dwattr $C$DW$926, DW_AT_type(*$C$DW$T$183)
    7732                      .dwattr $C$DW$926, DW_AT_name("rsvd3_8")
    7733                      .dwattr $C$DW$926, DW_AT_TI_symbol_name("_rsvd3_8")
    7734                      .dwattr $C$DW$926, DW_AT_data_member_location[DW_OP_plus_uconst 0x8e]
    7735                      .dwattr $C$DW$926, DW_AT_accessibility(DW_ACCESS_public)
    7736              
    7737              $C$DW$927       .dwtag  DW_TAG_member
    7738                      .dwattr $C$DW$927, DW_AT_type(*$C$DW$T$183)
    7739                      .dwattr $C$DW$927, DW_AT_name("ECAP1_INT")
    7740                      .dwattr $C$DW$927, DW_AT_TI_symbol_name("_ECAP1_INT")
    7741                      .dwattr $C$DW$927, DW_AT_data_member_location[DW_OP_plus_uconst 0x90]
    7742                      .dwattr $C$DW$927, DW_AT_accessibility(DW_ACCESS_public)
    7743              
    7744              $C$DW$928       .dwtag  DW_TAG_member
    7745                      .dwattr $C$DW$928, DW_AT_type(*$C$DW$T$183)
    7746                      .dwattr $C$DW$928, DW_AT_name("rsvd4_2")
    7747                      .dwattr $C$DW$928, DW_AT_TI_symbol_name("_rsvd4_2")
    7748                      .dwattr $C$DW$928, DW_AT_data_member_location[DW_OP_plus_uconst 0x92]
    7749                      .dwattr $C$DW$928, DW_AT_accessibility(DW_ACCESS_public)
    7750              
    7751              $C$DW$929       .dwtag  DW_TAG_member
    7752                      .dwattr $C$DW$929, DW_AT_type(*$C$DW$T$183)
    7753                      .dwattr $C$DW$929, DW_AT_name("rsvd4_3")
    7754                      .dwattr $C$DW$929, DW_AT_TI_symbol_name("_rsvd4_3")
    7755                      .dwattr $C$DW$929, DW_AT_data_member_location[DW_OP_plus_uconst 0x94]
    7756                      .dwattr $C$DW$929, DW_AT_accessibility(DW_ACCESS_public)
    7757              
    7758              $C$DW$930       .dwtag  DW_TAG_member
    7759                      .dwattr $C$DW$930, DW_AT_type(*$C$DW$T$183)
    7760                      .dwattr $C$DW$930, DW_AT_name("rsvd4_4")
    7761                      .dwattr $C$DW$930, DW_AT_TI_symbol_name("_rsvd4_4")
    7762                      .dwattr $C$DW$930, DW_AT_data_member_location[DW_OP_plus_uconst 0x96]
    7763                      .dwattr $C$DW$930, DW_AT_accessibility(DW_ACCESS_public)
    7764              
    7765              $C$DW$931       .dwtag  DW_TAG_member
    7766                      .dwattr $C$DW$931, DW_AT_type(*$C$DW$T$183)
    7767                      .dwattr $C$DW$931, DW_AT_name("rsvd4_5")
    7768                      .dwattr $C$DW$931, DW_AT_TI_symbol_name("_rsvd4_5")
    7769                      .dwattr $C$DW$931, DW_AT_data_member_location[DW_OP_plus_uconst 0x98]
    7770                      .dwattr $C$DW$931, DW_AT_accessibility(DW_ACCESS_public)
    7771              
    7772              $C$DW$932       .dwtag  DW_TAG_member
    7773                      .dwattr $C$DW$932, DW_AT_type(*$C$DW$T$183)
    7774                      .dwattr $C$DW$932, DW_AT_name("rsvd4_6")
TMS320C2000 Assembler PC v15.12.3 Sun Oct 30 14:01:37 2016

Tools Copyright (c) 1996-2015 Texas Instruments Incorporated
C:\Users\MaCHaDo\AppData\Local\Temp\0057210                          PAGE  148

    7775                      .dwattr $C$DW$932, DW_AT_TI_symbol_name("_rsvd4_6")
    7776                      .dwattr $C$DW$932, DW_AT_data_member_location[DW_OP_plus_uconst 0x9a]
    7777                      .dwattr $C$DW$932, DW_AT_accessibility(DW_ACCESS_public)
    7778              
    7779              $C$DW$933       .dwtag  DW_TAG_member
    7780                      .dwattr $C$DW$933, DW_AT_type(*$C$DW$T$183)
    7781                      .dwattr $C$DW$933, DW_AT_name("rsvd4_7")
    7782                      .dwattr $C$DW$933, DW_AT_TI_symbol_name("_rsvd4_7")
    7783                      .dwattr $C$DW$933, DW_AT_data_member_location[DW_OP_plus_uconst 0x9c]
    7784                      .dwattr $C$DW$933, DW_AT_accessibility(DW_ACCESS_public)
    7785              
    7786              $C$DW$934       .dwtag  DW_TAG_member
    7787                      .dwattr $C$DW$934, DW_AT_type(*$C$DW$T$183)
    7788                      .dwattr $C$DW$934, DW_AT_name("rsvd4_8")
    7789                      .dwattr $C$DW$934, DW_AT_TI_symbol_name("_rsvd4_8")
    7790                      .dwattr $C$DW$934, DW_AT_data_member_location[DW_OP_plus_uconst 0x9e]
    7791                      .dwattr $C$DW$934, DW_AT_accessibility(DW_ACCESS_public)
    7792              
    7793              $C$DW$935       .dwtag  DW_TAG_member
    7794                      .dwattr $C$DW$935, DW_AT_type(*$C$DW$T$183)
    7795                      .dwattr $C$DW$935, DW_AT_name("rsvd5_1")
    7796                      .dwattr $C$DW$935, DW_AT_TI_symbol_name("_rsvd5_1")
    7797                      .dwattr $C$DW$935, DW_AT_data_member_location[DW_OP_plus_uconst 0xa0]
    7798                      .dwattr $C$DW$935, DW_AT_accessibility(DW_ACCESS_public)
    7799              
    7800              $C$DW$936       .dwtag  DW_TAG_member
    7801                      .dwattr $C$DW$936, DW_AT_type(*$C$DW$T$183)
    7802                      .dwattr $C$DW$936, DW_AT_name("rsvd5_2")
    7803                      .dwattr $C$DW$936, DW_AT_TI_symbol_name("_rsvd5_2")
    7804                      .dwattr $C$DW$936, DW_AT_data_member_location[DW_OP_plus_uconst 0xa2]
    7805                      .dwattr $C$DW$936, DW_AT_accessibility(DW_ACCESS_public)
    7806              
    7807              $C$DW$937       .dwtag  DW_TAG_member
    7808                      .dwattr $C$DW$937, DW_AT_type(*$C$DW$T$183)
    7809                      .dwattr $C$DW$937, DW_AT_name("rsvd5_3")
    7810                      .dwattr $C$DW$937, DW_AT_TI_symbol_name("_rsvd5_3")
    7811                      .dwattr $C$DW$937, DW_AT_data_member_location[DW_OP_plus_uconst 0xa4]
    7812                      .dwattr $C$DW$937, DW_AT_accessibility(DW_ACCESS_public)
    7813              
    7814              $C$DW$938       .dwtag  DW_TAG_member
    7815                      .dwattr $C$DW$938, DW_AT_type(*$C$DW$T$183)
    7816                      .dwattr $C$DW$938, DW_AT_name("rsvd5_4")
    7817                      .dwattr $C$DW$938, DW_AT_TI_symbol_name("_rsvd5_4")
    7818                      .dwattr $C$DW$938, DW_AT_data_member_location[DW_OP_plus_uconst 0xa6]
    7819                      .dwattr $C$DW$938, DW_AT_accessibility(DW_ACCESS_public)
    7820              
    7821              $C$DW$939       .dwtag  DW_TAG_member
    7822                      .dwattr $C$DW$939, DW_AT_type(*$C$DW$T$183)
    7823                      .dwattr $C$DW$939, DW_AT_name("rsvd5_5")
    7824                      .dwattr $C$DW$939, DW_AT_TI_symbol_name("_rsvd5_5")
    7825                      .dwattr $C$DW$939, DW_AT_data_member_location[DW_OP_plus_uconst 0xa8]
    7826                      .dwattr $C$DW$939, DW_AT_accessibility(DW_ACCESS_public)
    7827              
    7828              $C$DW$940       .dwtag  DW_TAG_member
    7829                      .dwattr $C$DW$940, DW_AT_type(*$C$DW$T$183)
TMS320C2000 Assembler PC v15.12.3 Sun Oct 30 14:01:37 2016

Tools Copyright (c) 1996-2015 Texas Instruments Incorporated
C:\Users\MaCHaDo\AppData\Local\Temp\0057210                          PAGE  149

    7830                      .dwattr $C$DW$940, DW_AT_name("rsvd5_6")
    7831                      .dwattr $C$DW$940, DW_AT_TI_symbol_name("_rsvd5_6")
    7832                      .dwattr $C$DW$940, DW_AT_data_member_location[DW_OP_plus_uconst 0xaa]
    7833                      .dwattr $C$DW$940, DW_AT_accessibility(DW_ACCESS_public)
    7834              
    7835              $C$DW$941       .dwtag  DW_TAG_member
    7836                      .dwattr $C$DW$941, DW_AT_type(*$C$DW$T$183)
    7837                      .dwattr $C$DW$941, DW_AT_name("rsvd5_7")
    7838                      .dwattr $C$DW$941, DW_AT_TI_symbol_name("_rsvd5_7")
    7839                      .dwattr $C$DW$941, DW_AT_data_member_location[DW_OP_plus_uconst 0xac]
    7840                      .dwattr $C$DW$941, DW_AT_accessibility(DW_ACCESS_public)
    7841              
    7842              $C$DW$942       .dwtag  DW_TAG_member
    7843                      .dwattr $C$DW$942, DW_AT_type(*$C$DW$T$183)
    7844                      .dwattr $C$DW$942, DW_AT_name("rsvd5_8")
    7845                      .dwattr $C$DW$942, DW_AT_TI_symbol_name("_rsvd5_8")
    7846                      .dwattr $C$DW$942, DW_AT_data_member_location[DW_OP_plus_uconst 0xae]
    7847                      .dwattr $C$DW$942, DW_AT_accessibility(DW_ACCESS_public)
    7848              
    7849              $C$DW$943       .dwtag  DW_TAG_member
    7850                      .dwattr $C$DW$943, DW_AT_type(*$C$DW$T$183)
    7851                      .dwattr $C$DW$943, DW_AT_name("SPIRXINTA")
    7852                      .dwattr $C$DW$943, DW_AT_TI_symbol_name("_SPIRXINTA")
    7853                      .dwattr $C$DW$943, DW_AT_data_member_location[DW_OP_plus_uconst 0xb0]
    7854                      .dwattr $C$DW$943, DW_AT_accessibility(DW_ACCESS_public)
    7855              
    7856              $C$DW$944       .dwtag  DW_TAG_member
    7857                      .dwattr $C$DW$944, DW_AT_type(*$C$DW$T$183)
    7858                      .dwattr $C$DW$944, DW_AT_name("SPITXINTA")
    7859                      .dwattr $C$DW$944, DW_AT_TI_symbol_name("_SPITXINTA")
    7860                      .dwattr $C$DW$944, DW_AT_data_member_location[DW_OP_plus_uconst 0xb2]
    7861                      .dwattr $C$DW$944, DW_AT_accessibility(DW_ACCESS_public)
    7862              
    7863              $C$DW$945       .dwtag  DW_TAG_member
    7864                      .dwattr $C$DW$945, DW_AT_type(*$C$DW$T$183)
    7865                      .dwattr $C$DW$945, DW_AT_name("rsvd6_3")
    7866                      .dwattr $C$DW$945, DW_AT_TI_symbol_name("_rsvd6_3")
    7867                      .dwattr $C$DW$945, DW_AT_data_member_location[DW_OP_plus_uconst 0xb4]
    7868                      .dwattr $C$DW$945, DW_AT_accessibility(DW_ACCESS_public)
    7869              
    7870              $C$DW$946       .dwtag  DW_TAG_member
    7871                      .dwattr $C$DW$946, DW_AT_type(*$C$DW$T$183)
    7872                      .dwattr $C$DW$946, DW_AT_name("rsvd6_4")
    7873                      .dwattr $C$DW$946, DW_AT_TI_symbol_name("_rsvd6_4")
    7874                      .dwattr $C$DW$946, DW_AT_data_member_location[DW_OP_plus_uconst 0xb6]
    7875                      .dwattr $C$DW$946, DW_AT_accessibility(DW_ACCESS_public)
    7876              
    7877              $C$DW$947       .dwtag  DW_TAG_member
    7878                      .dwattr $C$DW$947, DW_AT_type(*$C$DW$T$183)
    7879                      .dwattr $C$DW$947, DW_AT_name("rsvd6_5")
    7880                      .dwattr $C$DW$947, DW_AT_TI_symbol_name("_rsvd6_5")
    7881                      .dwattr $C$DW$947, DW_AT_data_member_location[DW_OP_plus_uconst 0xb8]
    7882                      .dwattr $C$DW$947, DW_AT_accessibility(DW_ACCESS_public)
    7883              
    7884              $C$DW$948       .dwtag  DW_TAG_member
TMS320C2000 Assembler PC v15.12.3 Sun Oct 30 14:01:37 2016

Tools Copyright (c) 1996-2015 Texas Instruments Incorporated
C:\Users\MaCHaDo\AppData\Local\Temp\0057210                          PAGE  150

    7885                      .dwattr $C$DW$948, DW_AT_type(*$C$DW$T$183)
    7886                      .dwattr $C$DW$948, DW_AT_name("rsvd6_6")
    7887                      .dwattr $C$DW$948, DW_AT_TI_symbol_name("_rsvd6_6")
    7888                      .dwattr $C$DW$948, DW_AT_data_member_location[DW_OP_plus_uconst 0xba]
    7889                      .dwattr $C$DW$948, DW_AT_accessibility(DW_ACCESS_public)
    7890              
    7891              $C$DW$949       .dwtag  DW_TAG_member
    7892                      .dwattr $C$DW$949, DW_AT_type(*$C$DW$T$183)
    7893                      .dwattr $C$DW$949, DW_AT_name("rsvd6_7")
    7894                      .dwattr $C$DW$949, DW_AT_TI_symbol_name("_rsvd6_7")
    7895                      .dwattr $C$DW$949, DW_AT_data_member_location[DW_OP_plus_uconst 0xbc]
    7896                      .dwattr $C$DW$949, DW_AT_accessibility(DW_ACCESS_public)
    7897              
    7898              $C$DW$950       .dwtag  DW_TAG_member
    7899                      .dwattr $C$DW$950, DW_AT_type(*$C$DW$T$183)
    7900                      .dwattr $C$DW$950, DW_AT_name("rsvd6_8")
    7901                      .dwattr $C$DW$950, DW_AT_TI_symbol_name("_rsvd6_8")
    7902                      .dwattr $C$DW$950, DW_AT_data_member_location[DW_OP_plus_uconst 0xbe]
    7903                      .dwattr $C$DW$950, DW_AT_accessibility(DW_ACCESS_public)
    7904              
    7905              $C$DW$951       .dwtag  DW_TAG_member
    7906                      .dwattr $C$DW$951, DW_AT_type(*$C$DW$T$183)
    7907                      .dwattr $C$DW$951, DW_AT_name("rsvd7_1")
    7908                      .dwattr $C$DW$951, DW_AT_TI_symbol_name("_rsvd7_1")
    7909                      .dwattr $C$DW$951, DW_AT_data_member_location[DW_OP_plus_uconst 0xc0]
    7910                      .dwattr $C$DW$951, DW_AT_accessibility(DW_ACCESS_public)
    7911              
    7912              $C$DW$952       .dwtag  DW_TAG_member
    7913                      .dwattr $C$DW$952, DW_AT_type(*$C$DW$T$183)
    7914                      .dwattr $C$DW$952, DW_AT_name("rsvd7_2")
    7915                      .dwattr $C$DW$952, DW_AT_TI_symbol_name("_rsvd7_2")
    7916                      .dwattr $C$DW$952, DW_AT_data_member_location[DW_OP_plus_uconst 0xc2]
    7917                      .dwattr $C$DW$952, DW_AT_accessibility(DW_ACCESS_public)
    7918              
    7919              $C$DW$953       .dwtag  DW_TAG_member
    7920                      .dwattr $C$DW$953, DW_AT_type(*$C$DW$T$183)
    7921                      .dwattr $C$DW$953, DW_AT_name("rsvd7_3")
    7922                      .dwattr $C$DW$953, DW_AT_TI_symbol_name("_rsvd7_3")
    7923                      .dwattr $C$DW$953, DW_AT_data_member_location[DW_OP_plus_uconst 0xc4]
    7924                      .dwattr $C$DW$953, DW_AT_accessibility(DW_ACCESS_public)
    7925              
    7926              $C$DW$954       .dwtag  DW_TAG_member
    7927                      .dwattr $C$DW$954, DW_AT_type(*$C$DW$T$183)
    7928                      .dwattr $C$DW$954, DW_AT_name("rsvd7_4")
    7929                      .dwattr $C$DW$954, DW_AT_TI_symbol_name("_rsvd7_4")
    7930                      .dwattr $C$DW$954, DW_AT_data_member_location[DW_OP_plus_uconst 0xc6]
    7931                      .dwattr $C$DW$954, DW_AT_accessibility(DW_ACCESS_public)
    7932              
    7933              $C$DW$955       .dwtag  DW_TAG_member
    7934                      .dwattr $C$DW$955, DW_AT_type(*$C$DW$T$183)
    7935                      .dwattr $C$DW$955, DW_AT_name("rsvd7_5")
    7936                      .dwattr $C$DW$955, DW_AT_TI_symbol_name("_rsvd7_5")
    7937                      .dwattr $C$DW$955, DW_AT_data_member_location[DW_OP_plus_uconst 0xc8]
    7938                      .dwattr $C$DW$955, DW_AT_accessibility(DW_ACCESS_public)
    7939              
TMS320C2000 Assembler PC v15.12.3 Sun Oct 30 14:01:37 2016

Tools Copyright (c) 1996-2015 Texas Instruments Incorporated
C:\Users\MaCHaDo\AppData\Local\Temp\0057210                          PAGE  151

    7940              $C$DW$956       .dwtag  DW_TAG_member
    7941                      .dwattr $C$DW$956, DW_AT_type(*$C$DW$T$183)
    7942                      .dwattr $C$DW$956, DW_AT_name("rsvd7_6")
    7943                      .dwattr $C$DW$956, DW_AT_TI_symbol_name("_rsvd7_6")
    7944                      .dwattr $C$DW$956, DW_AT_data_member_location[DW_OP_plus_uconst 0xca]
    7945                      .dwattr $C$DW$956, DW_AT_accessibility(DW_ACCESS_public)
    7946              
    7947              $C$DW$957       .dwtag  DW_TAG_member
    7948                      .dwattr $C$DW$957, DW_AT_type(*$C$DW$T$183)
    7949                      .dwattr $C$DW$957, DW_AT_name("rsvd7_7")
    7950                      .dwattr $C$DW$957, DW_AT_TI_symbol_name("_rsvd7_7")
    7951                      .dwattr $C$DW$957, DW_AT_data_member_location[DW_OP_plus_uconst 0xcc]
    7952                      .dwattr $C$DW$957, DW_AT_accessibility(DW_ACCESS_public)
    7953              
    7954              $C$DW$958       .dwtag  DW_TAG_member
    7955                      .dwattr $C$DW$958, DW_AT_type(*$C$DW$T$183)
    7956                      .dwattr $C$DW$958, DW_AT_name("rsvd7_8")
    7957                      .dwattr $C$DW$958, DW_AT_TI_symbol_name("_rsvd7_8")
    7958                      .dwattr $C$DW$958, DW_AT_data_member_location[DW_OP_plus_uconst 0xce]
    7959                      .dwattr $C$DW$958, DW_AT_accessibility(DW_ACCESS_public)
    7960              
    7961              $C$DW$959       .dwtag  DW_TAG_member
    7962                      .dwattr $C$DW$959, DW_AT_type(*$C$DW$T$183)
    7963                      .dwattr $C$DW$959, DW_AT_name("I2CINT1A")
    7964                      .dwattr $C$DW$959, DW_AT_TI_symbol_name("_I2CINT1A")
    7965                      .dwattr $C$DW$959, DW_AT_data_member_location[DW_OP_plus_uconst 0xd0]
    7966                      .dwattr $C$DW$959, DW_AT_accessibility(DW_ACCESS_public)
    7967              
    7968              $C$DW$960       .dwtag  DW_TAG_member
    7969                      .dwattr $C$DW$960, DW_AT_type(*$C$DW$T$183)
    7970                      .dwattr $C$DW$960, DW_AT_name("I2CINT2A")
    7971                      .dwattr $C$DW$960, DW_AT_TI_symbol_name("_I2CINT2A")
    7972                      .dwattr $C$DW$960, DW_AT_data_member_location[DW_OP_plus_uconst 0xd2]
    7973                      .dwattr $C$DW$960, DW_AT_accessibility(DW_ACCESS_public)
    7974              
    7975              $C$DW$961       .dwtag  DW_TAG_member
    7976                      .dwattr $C$DW$961, DW_AT_type(*$C$DW$T$183)
    7977                      .dwattr $C$DW$961, DW_AT_name("rsvd8_3")
    7978                      .dwattr $C$DW$961, DW_AT_TI_symbol_name("_rsvd8_3")
    7979                      .dwattr $C$DW$961, DW_AT_data_member_location[DW_OP_plus_uconst 0xd4]
    7980                      .dwattr $C$DW$961, DW_AT_accessibility(DW_ACCESS_public)
    7981              
    7982              $C$DW$962       .dwtag  DW_TAG_member
    7983                      .dwattr $C$DW$962, DW_AT_type(*$C$DW$T$183)
    7984                      .dwattr $C$DW$962, DW_AT_name("rsvd8_4")
    7985                      .dwattr $C$DW$962, DW_AT_TI_symbol_name("_rsvd8_4")
    7986                      .dwattr $C$DW$962, DW_AT_data_member_location[DW_OP_plus_uconst 0xd6]
    7987                      .dwattr $C$DW$962, DW_AT_accessibility(DW_ACCESS_public)
    7988              
    7989              $C$DW$963       .dwtag  DW_TAG_member
    7990                      .dwattr $C$DW$963, DW_AT_type(*$C$DW$T$183)
    7991                      .dwattr $C$DW$963, DW_AT_name("rsvd8_5")
    7992                      .dwattr $C$DW$963, DW_AT_TI_symbol_name("_rsvd8_5")
    7993                      .dwattr $C$DW$963, DW_AT_data_member_location[DW_OP_plus_uconst 0xd8]
    7994                      .dwattr $C$DW$963, DW_AT_accessibility(DW_ACCESS_public)
TMS320C2000 Assembler PC v15.12.3 Sun Oct 30 14:01:37 2016

Tools Copyright (c) 1996-2015 Texas Instruments Incorporated
C:\Users\MaCHaDo\AppData\Local\Temp\0057210                          PAGE  152

    7995              
    7996              $C$DW$964       .dwtag  DW_TAG_member
    7997                      .dwattr $C$DW$964, DW_AT_type(*$C$DW$T$183)
    7998                      .dwattr $C$DW$964, DW_AT_name("rsvd8_6")
    7999                      .dwattr $C$DW$964, DW_AT_TI_symbol_name("_rsvd8_6")
    8000                      .dwattr $C$DW$964, DW_AT_data_member_location[DW_OP_plus_uconst 0xda]
    8001                      .dwattr $C$DW$964, DW_AT_accessibility(DW_ACCESS_public)
    8002              
    8003              $C$DW$965       .dwtag  DW_TAG_member
    8004                      .dwattr $C$DW$965, DW_AT_type(*$C$DW$T$183)
    8005                      .dwattr $C$DW$965, DW_AT_name("rsvd8_7")
    8006                      .dwattr $C$DW$965, DW_AT_TI_symbol_name("_rsvd8_7")
    8007                      .dwattr $C$DW$965, DW_AT_data_member_location[DW_OP_plus_uconst 0xdc]
    8008                      .dwattr $C$DW$965, DW_AT_accessibility(DW_ACCESS_public)
    8009              
    8010              $C$DW$966       .dwtag  DW_TAG_member
    8011                      .dwattr $C$DW$966, DW_AT_type(*$C$DW$T$183)
    8012                      .dwattr $C$DW$966, DW_AT_name("rsvd8_8")
    8013                      .dwattr $C$DW$966, DW_AT_TI_symbol_name("_rsvd8_8")
    8014                      .dwattr $C$DW$966, DW_AT_data_member_location[DW_OP_plus_uconst 0xde]
    8015                      .dwattr $C$DW$966, DW_AT_accessibility(DW_ACCESS_public)
    8016              
    8017              $C$DW$967       .dwtag  DW_TAG_member
    8018                      .dwattr $C$DW$967, DW_AT_type(*$C$DW$T$183)
    8019                      .dwattr $C$DW$967, DW_AT_name("SCIRXINTA")
    8020                      .dwattr $C$DW$967, DW_AT_TI_symbol_name("_SCIRXINTA")
    8021                      .dwattr $C$DW$967, DW_AT_data_member_location[DW_OP_plus_uconst 0xe0]
    8022                      .dwattr $C$DW$967, DW_AT_accessibility(DW_ACCESS_public)
    8023              
    8024              $C$DW$968       .dwtag  DW_TAG_member
    8025                      .dwattr $C$DW$968, DW_AT_type(*$C$DW$T$183)
    8026                      .dwattr $C$DW$968, DW_AT_name("SCITXINTA")
    8027                      .dwattr $C$DW$968, DW_AT_TI_symbol_name("_SCITXINTA")
    8028                      .dwattr $C$DW$968, DW_AT_data_member_location[DW_OP_plus_uconst 0xe2]
    8029                      .dwattr $C$DW$968, DW_AT_accessibility(DW_ACCESS_public)
    8030              
    8031              $C$DW$969       .dwtag  DW_TAG_member
    8032                      .dwattr $C$DW$969, DW_AT_type(*$C$DW$T$183)
    8033                      .dwattr $C$DW$969, DW_AT_name("rsvd9_3")
    8034                      .dwattr $C$DW$969, DW_AT_TI_symbol_name("_rsvd9_3")
    8035                      .dwattr $C$DW$969, DW_AT_data_member_location[DW_OP_plus_uconst 0xe4]
    8036                      .dwattr $C$DW$969, DW_AT_accessibility(DW_ACCESS_public)
    8037              
    8038              $C$DW$970       .dwtag  DW_TAG_member
    8039                      .dwattr $C$DW$970, DW_AT_type(*$C$DW$T$183)
    8040                      .dwattr $C$DW$970, DW_AT_name("rsvd9_4")
    8041                      .dwattr $C$DW$970, DW_AT_TI_symbol_name("_rsvd9_4")
    8042                      .dwattr $C$DW$970, DW_AT_data_member_location[DW_OP_plus_uconst 0xe6]
    8043                      .dwattr $C$DW$970, DW_AT_accessibility(DW_ACCESS_public)
    8044              
    8045              $C$DW$971       .dwtag  DW_TAG_member
    8046                      .dwattr $C$DW$971, DW_AT_type(*$C$DW$T$183)
    8047                      .dwattr $C$DW$971, DW_AT_name("rsvd9_5")
    8048                      .dwattr $C$DW$971, DW_AT_TI_symbol_name("_rsvd9_5")
    8049                      .dwattr $C$DW$971, DW_AT_data_member_location[DW_OP_plus_uconst 0xe8]
TMS320C2000 Assembler PC v15.12.3 Sun Oct 30 14:01:37 2016

Tools Copyright (c) 1996-2015 Texas Instruments Incorporated
C:\Users\MaCHaDo\AppData\Local\Temp\0057210                          PAGE  153

    8050                      .dwattr $C$DW$971, DW_AT_accessibility(DW_ACCESS_public)
    8051              
    8052              $C$DW$972       .dwtag  DW_TAG_member
    8053                      .dwattr $C$DW$972, DW_AT_type(*$C$DW$T$183)
    8054                      .dwattr $C$DW$972, DW_AT_name("rsvd9_6")
    8055                      .dwattr $C$DW$972, DW_AT_TI_symbol_name("_rsvd9_6")
    8056                      .dwattr $C$DW$972, DW_AT_data_member_location[DW_OP_plus_uconst 0xea]
    8057                      .dwattr $C$DW$972, DW_AT_accessibility(DW_ACCESS_public)
    8058              
    8059              $C$DW$973       .dwtag  DW_TAG_member
    8060                      .dwattr $C$DW$973, DW_AT_type(*$C$DW$T$183)
    8061                      .dwattr $C$DW$973, DW_AT_name("rsvd9_7")
    8062                      .dwattr $C$DW$973, DW_AT_TI_symbol_name("_rsvd9_7")
    8063                      .dwattr $C$DW$973, DW_AT_data_member_location[DW_OP_plus_uconst 0xec]
    8064                      .dwattr $C$DW$973, DW_AT_accessibility(DW_ACCESS_public)
    8065              
    8066              $C$DW$974       .dwtag  DW_TAG_member
    8067                      .dwattr $C$DW$974, DW_AT_type(*$C$DW$T$183)
    8068                      .dwattr $C$DW$974, DW_AT_name("rsvd9_8")
    8069                      .dwattr $C$DW$974, DW_AT_TI_symbol_name("_rsvd9_8")
    8070                      .dwattr $C$DW$974, DW_AT_data_member_location[DW_OP_plus_uconst 0xee]
    8071                      .dwattr $C$DW$974, DW_AT_accessibility(DW_ACCESS_public)
    8072              
    8073              $C$DW$975       .dwtag  DW_TAG_member
    8074                      .dwattr $C$DW$975, DW_AT_type(*$C$DW$T$183)
    8075                      .dwattr $C$DW$975, DW_AT_name("ADCINT1")
    8076                      .dwattr $C$DW$975, DW_AT_TI_symbol_name("_ADCINT1")
    8077                      .dwattr $C$DW$975, DW_AT_data_member_location[DW_OP_plus_uconst 0xf0]
    8078                      .dwattr $C$DW$975, DW_AT_accessibility(DW_ACCESS_public)
    8079              
    8080              $C$DW$976       .dwtag  DW_TAG_member
    8081                      .dwattr $C$DW$976, DW_AT_type(*$C$DW$T$183)
    8082                      .dwattr $C$DW$976, DW_AT_name("ADCINT2")
    8083                      .dwattr $C$DW$976, DW_AT_TI_symbol_name("_ADCINT2")
    8084                      .dwattr $C$DW$976, DW_AT_data_member_location[DW_OP_plus_uconst 0xf2]
    8085                      .dwattr $C$DW$976, DW_AT_accessibility(DW_ACCESS_public)
    8086              
    8087              $C$DW$977       .dwtag  DW_TAG_member
    8088                      .dwattr $C$DW$977, DW_AT_type(*$C$DW$T$183)
    8089                      .dwattr $C$DW$977, DW_AT_name("ADCINT3")
    8090                      .dwattr $C$DW$977, DW_AT_TI_symbol_name("_ADCINT3")
    8091                      .dwattr $C$DW$977, DW_AT_data_member_location[DW_OP_plus_uconst 0xf4]
    8092                      .dwattr $C$DW$977, DW_AT_accessibility(DW_ACCESS_public)
    8093              
    8094              $C$DW$978       .dwtag  DW_TAG_member
    8095                      .dwattr $C$DW$978, DW_AT_type(*$C$DW$T$183)
    8096                      .dwattr $C$DW$978, DW_AT_name("ADCINT4")
    8097                      .dwattr $C$DW$978, DW_AT_TI_symbol_name("_ADCINT4")
    8098                      .dwattr $C$DW$978, DW_AT_data_member_location[DW_OP_plus_uconst 0xf6]
    8099                      .dwattr $C$DW$978, DW_AT_accessibility(DW_ACCESS_public)
    8100              
    8101              $C$DW$979       .dwtag  DW_TAG_member
    8102                      .dwattr $C$DW$979, DW_AT_type(*$C$DW$T$183)
    8103                      .dwattr $C$DW$979, DW_AT_name("ADCINT5")
    8104                      .dwattr $C$DW$979, DW_AT_TI_symbol_name("_ADCINT5")
TMS320C2000 Assembler PC v15.12.3 Sun Oct 30 14:01:37 2016

Tools Copyright (c) 1996-2015 Texas Instruments Incorporated
C:\Users\MaCHaDo\AppData\Local\Temp\0057210                          PAGE  154

    8105                      .dwattr $C$DW$979, DW_AT_data_member_location[DW_OP_plus_uconst 0xf8]
    8106                      .dwattr $C$DW$979, DW_AT_accessibility(DW_ACCESS_public)
    8107              
    8108              $C$DW$980       .dwtag  DW_TAG_member
    8109                      .dwattr $C$DW$980, DW_AT_type(*$C$DW$T$183)
    8110                      .dwattr $C$DW$980, DW_AT_name("ADCINT6")
    8111                      .dwattr $C$DW$980, DW_AT_TI_symbol_name("_ADCINT6")
    8112                      .dwattr $C$DW$980, DW_AT_data_member_location[DW_OP_plus_uconst 0xfa]
    8113                      .dwattr $C$DW$980, DW_AT_accessibility(DW_ACCESS_public)
    8114              
    8115              $C$DW$981       .dwtag  DW_TAG_member
    8116                      .dwattr $C$DW$981, DW_AT_type(*$C$DW$T$183)
    8117                      .dwattr $C$DW$981, DW_AT_name("ADCINT7")
    8118                      .dwattr $C$DW$981, DW_AT_TI_symbol_name("_ADCINT7")
    8119                      .dwattr $C$DW$981, DW_AT_data_member_location[DW_OP_plus_uconst 0xfc]
    8120                      .dwattr $C$DW$981, DW_AT_accessibility(DW_ACCESS_public)
    8121              
    8122              $C$DW$982       .dwtag  DW_TAG_member
    8123                      .dwattr $C$DW$982, DW_AT_type(*$C$DW$T$183)
    8124                      .dwattr $C$DW$982, DW_AT_name("ADCINT8")
    8125                      .dwattr $C$DW$982, DW_AT_TI_symbol_name("_ADCINT8")
    8126                      .dwattr $C$DW$982, DW_AT_data_member_location[DW_OP_plus_uconst 0xfe]
    8127                      .dwattr $C$DW$982, DW_AT_accessibility(DW_ACCESS_public)
    8128              
    8129              $C$DW$983       .dwtag  DW_TAG_member
    8130                      .dwattr $C$DW$983, DW_AT_type(*$C$DW$T$183)
    8131                      .dwattr $C$DW$983, DW_AT_name("rsvd11_1")
    8132                      .dwattr $C$DW$983, DW_AT_TI_symbol_name("_rsvd11_1")
    8133                      .dwattr $C$DW$983, DW_AT_data_member_location[DW_OP_plus_uconst 0x100]
    8134                      .dwattr $C$DW$983, DW_AT_accessibility(DW_ACCESS_public)
    8135              
    8136              $C$DW$984       .dwtag  DW_TAG_member
    8137                      .dwattr $C$DW$984, DW_AT_type(*$C$DW$T$183)
    8138                      .dwattr $C$DW$984, DW_AT_name("rsvd11_2")
    8139                      .dwattr $C$DW$984, DW_AT_TI_symbol_name("_rsvd11_2")
    8140                      .dwattr $C$DW$984, DW_AT_data_member_location[DW_OP_plus_uconst 0x102]
    8141                      .dwattr $C$DW$984, DW_AT_accessibility(DW_ACCESS_public)
    8142              
    8143              $C$DW$985       .dwtag  DW_TAG_member
    8144                      .dwattr $C$DW$985, DW_AT_type(*$C$DW$T$183)
    8145                      .dwattr $C$DW$985, DW_AT_name("rsvd11_3")
    8146                      .dwattr $C$DW$985, DW_AT_TI_symbol_name("_rsvd11_3")
    8147                      .dwattr $C$DW$985, DW_AT_data_member_location[DW_OP_plus_uconst 0x104]
    8148                      .dwattr $C$DW$985, DW_AT_accessibility(DW_ACCESS_public)
    8149              
    8150              $C$DW$986       .dwtag  DW_TAG_member
    8151                      .dwattr $C$DW$986, DW_AT_type(*$C$DW$T$183)
    8152                      .dwattr $C$DW$986, DW_AT_name("rsvd11_4")
    8153                      .dwattr $C$DW$986, DW_AT_TI_symbol_name("_rsvd11_4")
    8154                      .dwattr $C$DW$986, DW_AT_data_member_location[DW_OP_plus_uconst 0x106]
    8155                      .dwattr $C$DW$986, DW_AT_accessibility(DW_ACCESS_public)
    8156              
    8157              $C$DW$987       .dwtag  DW_TAG_member
    8158                      .dwattr $C$DW$987, DW_AT_type(*$C$DW$T$183)
    8159                      .dwattr $C$DW$987, DW_AT_name("rsvd11_5")
TMS320C2000 Assembler PC v15.12.3 Sun Oct 30 14:01:37 2016

Tools Copyright (c) 1996-2015 Texas Instruments Incorporated
C:\Users\MaCHaDo\AppData\Local\Temp\0057210                          PAGE  155

    8160                      .dwattr $C$DW$987, DW_AT_TI_symbol_name("_rsvd11_5")
    8161                      .dwattr $C$DW$987, DW_AT_data_member_location[DW_OP_plus_uconst 0x108]
    8162                      .dwattr $C$DW$987, DW_AT_accessibility(DW_ACCESS_public)
    8163              
    8164              $C$DW$988       .dwtag  DW_TAG_member
    8165                      .dwattr $C$DW$988, DW_AT_type(*$C$DW$T$183)
    8166                      .dwattr $C$DW$988, DW_AT_name("rsvd11_6")
    8167                      .dwattr $C$DW$988, DW_AT_TI_symbol_name("_rsvd11_6")
    8168                      .dwattr $C$DW$988, DW_AT_data_member_location[DW_OP_plus_uconst 0x10a]
    8169                      .dwattr $C$DW$988, DW_AT_accessibility(DW_ACCESS_public)
    8170              
    8171              $C$DW$989       .dwtag  DW_TAG_member
    8172                      .dwattr $C$DW$989, DW_AT_type(*$C$DW$T$183)
    8173                      .dwattr $C$DW$989, DW_AT_name("rsvd11_7")
    8174                      .dwattr $C$DW$989, DW_AT_TI_symbol_name("_rsvd11_7")
    8175                      .dwattr $C$DW$989, DW_AT_data_member_location[DW_OP_plus_uconst 0x10c]
    8176                      .dwattr $C$DW$989, DW_AT_accessibility(DW_ACCESS_public)
    8177              
    8178              $C$DW$990       .dwtag  DW_TAG_member
    8179                      .dwattr $C$DW$990, DW_AT_type(*$C$DW$T$183)
    8180                      .dwattr $C$DW$990, DW_AT_name("rsvd11_8")
    8181                      .dwattr $C$DW$990, DW_AT_TI_symbol_name("_rsvd11_8")
    8182                      .dwattr $C$DW$990, DW_AT_data_member_location[DW_OP_plus_uconst 0x10e]
    8183                      .dwattr $C$DW$990, DW_AT_accessibility(DW_ACCESS_public)
    8184              
    8185              $C$DW$991       .dwtag  DW_TAG_member
    8186                      .dwattr $C$DW$991, DW_AT_type(*$C$DW$T$183)
    8187                      .dwattr $C$DW$991, DW_AT_name("XINT3")
    8188                      .dwattr $C$DW$991, DW_AT_TI_symbol_name("_XINT3")
    8189                      .dwattr $C$DW$991, DW_AT_data_member_location[DW_OP_plus_uconst 0x110]
    8190                      .dwattr $C$DW$991, DW_AT_accessibility(DW_ACCESS_public)
    8191              
    8192              $C$DW$992       .dwtag  DW_TAG_member
    8193                      .dwattr $C$DW$992, DW_AT_type(*$C$DW$T$183)
    8194                      .dwattr $C$DW$992, DW_AT_name("rsvd12_2")
    8195                      .dwattr $C$DW$992, DW_AT_TI_symbol_name("_rsvd12_2")
    8196                      .dwattr $C$DW$992, DW_AT_data_member_location[DW_OP_plus_uconst 0x112]
    8197                      .dwattr $C$DW$992, DW_AT_accessibility(DW_ACCESS_public)
    8198              
    8199              $C$DW$993       .dwtag  DW_TAG_member
    8200                      .dwattr $C$DW$993, DW_AT_type(*$C$DW$T$183)
    8201                      .dwattr $C$DW$993, DW_AT_name("rsvd12_3")
    8202                      .dwattr $C$DW$993, DW_AT_TI_symbol_name("_rsvd12_3")
    8203                      .dwattr $C$DW$993, DW_AT_data_member_location[DW_OP_plus_uconst 0x114]
    8204                      .dwattr $C$DW$993, DW_AT_accessibility(DW_ACCESS_public)
    8205              
    8206              $C$DW$994       .dwtag  DW_TAG_member
    8207                      .dwattr $C$DW$994, DW_AT_type(*$C$DW$T$183)
    8208                      .dwattr $C$DW$994, DW_AT_name("rsvd12_4")
    8209                      .dwattr $C$DW$994, DW_AT_TI_symbol_name("_rsvd12_4")
    8210                      .dwattr $C$DW$994, DW_AT_data_member_location[DW_OP_plus_uconst 0x116]
    8211                      .dwattr $C$DW$994, DW_AT_accessibility(DW_ACCESS_public)
    8212              
    8213              $C$DW$995       .dwtag  DW_TAG_member
    8214                      .dwattr $C$DW$995, DW_AT_type(*$C$DW$T$183)
TMS320C2000 Assembler PC v15.12.3 Sun Oct 30 14:01:37 2016

Tools Copyright (c) 1996-2015 Texas Instruments Incorporated
C:\Users\MaCHaDo\AppData\Local\Temp\0057210                          PAGE  156

    8215                      .dwattr $C$DW$995, DW_AT_name("rsvd12_5")
    8216                      .dwattr $C$DW$995, DW_AT_TI_symbol_name("_rsvd12_5")
    8217                      .dwattr $C$DW$995, DW_AT_data_member_location[DW_OP_plus_uconst 0x118]
    8218                      .dwattr $C$DW$995, DW_AT_accessibility(DW_ACCESS_public)
    8219              
    8220              $C$DW$996       .dwtag  DW_TAG_member
    8221                      .dwattr $C$DW$996, DW_AT_type(*$C$DW$T$183)
    8222                      .dwattr $C$DW$996, DW_AT_name("rsvd12_6")
    8223                      .dwattr $C$DW$996, DW_AT_TI_symbol_name("_rsvd12_6")
    8224                      .dwattr $C$DW$996, DW_AT_data_member_location[DW_OP_plus_uconst 0x11a]
    8225                      .dwattr $C$DW$996, DW_AT_accessibility(DW_ACCESS_public)
    8226              
    8227              $C$DW$997       .dwtag  DW_TAG_member
    8228                      .dwattr $C$DW$997, DW_AT_type(*$C$DW$T$183)
    8229                      .dwattr $C$DW$997, DW_AT_name("rsvd12_7")
    8230                      .dwattr $C$DW$997, DW_AT_TI_symbol_name("_rsvd12_7")
    8231                      .dwattr $C$DW$997, DW_AT_data_member_location[DW_OP_plus_uconst 0x11c]
    8232                      .dwattr $C$DW$997, DW_AT_accessibility(DW_ACCESS_public)
    8233              
    8234              $C$DW$998       .dwtag  DW_TAG_member
    8235                      .dwattr $C$DW$998, DW_AT_type(*$C$DW$T$183)
    8236                      .dwattr $C$DW$998, DW_AT_name("rsvd12_8")
    8237                      .dwattr $C$DW$998, DW_AT_TI_symbol_name("_rsvd12_8")
    8238                      .dwattr $C$DW$998, DW_AT_data_member_location[DW_OP_plus_uconst 0x11e]
    8239                      .dwattr $C$DW$998, DW_AT_accessibility(DW_ACCESS_public)
    8240              
    8241              $C$DW$999       .dwtag  DW_TAG_member
    8242                      .dwattr $C$DW$999, DW_AT_type(*$C$DW$T$184)
    8243                      .dwattr $C$DW$999, DW_AT_name("rsvd13")
    8244                      .dwattr $C$DW$999, DW_AT_TI_symbol_name("_rsvd13")
    8245                      .dwattr $C$DW$999, DW_AT_data_member_location[DW_OP_plus_uconst 0x120]
    8246                      .dwattr $C$DW$999, DW_AT_accessibility(DW_ACCESS_public)
    8247              
    8248              $C$DW$1000      .dwtag  DW_TAG_member
    8249                      .dwattr $C$DW$1000, DW_AT_type(*$C$DW$T$28)
    8250                      .dwattr $C$DW$1000, DW_AT_name("XINTnCR")
    8251                      .dwattr $C$DW$1000, DW_AT_TI_symbol_name("_XINTnCR")
    8252                      .dwattr $C$DW$1000, DW_AT_data_member_location[DW_OP_plus_uconst 0x6390]
    8253                      .dwattr $C$DW$1000, DW_AT_accessibility(DW_ACCESS_public)
    8254              
    8255              $C$DW$1001      .dwtag  DW_TAG_member
    8256                      .dwattr $C$DW$1001, DW_AT_type(*$C$DW$T$27)
    8257                      .dwattr $C$DW$1001, DW_AT_name("rsvd14")
    8258                      .dwattr $C$DW$1001, DW_AT_TI_symbol_name("_rsvd14")
    8259                      .dwattr $C$DW$1001, DW_AT_data_member_location[DW_OP_plus_uconst 0x6393]
    8260                      .dwattr $C$DW$1001, DW_AT_accessibility(DW_ACCESS_public)
    8261              
    8262              $C$DW$1002      .dwtag  DW_TAG_member
    8263                      .dwattr $C$DW$1002, DW_AT_type(*$C$DW$T$28)
    8264                      .dwattr $C$DW$1002, DW_AT_name("XINTnCTR")
    8265                      .dwattr $C$DW$1002, DW_AT_TI_symbol_name("_XINTnCTR")
    8266                      .dwattr $C$DW$1002, DW_AT_data_member_location[DW_OP_plus_uconst 0x6398]
    8267                      .dwattr $C$DW$1002, DW_AT_accessibility(DW_ACCESS_public)
    8268              
    8269                      .dwendtag $C$DW$T$185
TMS320C2000 Assembler PC v15.12.3 Sun Oct 30 14:01:37 2016

Tools Copyright (c) 1996-2015 Texas Instruments Incorporated
C:\Users\MaCHaDo\AppData\Local\Temp\0057210                          PAGE  157

    8270              
    8271              $C$DW$T$265     .dwtag  DW_TAG_typedef
    8272                      .dwattr $C$DW$T$265, DW_AT_name("PIE_Obj")
    8273                      .dwattr $C$DW$T$265, DW_AT_type(*$C$DW$T$185)
    8274                      .dwattr $C$DW$T$265, DW_AT_language(DW_LANG_C)
    8275              
    8276              $C$DW$T$266     .dwtag  DW_TAG_pointer_type
    8277                      .dwattr $C$DW$T$266, DW_AT_type(*$C$DW$T$265)
    8278                      .dwattr $C$DW$T$266, DW_AT_address_class(0x20)
    8279              
    8280              $C$DW$T$131     .dwtag  DW_TAG_pointer_type
    8281                      .dwattr $C$DW$T$131, DW_AT_type(*$C$DW$T$185)
    8282                      .dwattr $C$DW$T$131, DW_AT_address_class(0x20)
    8283              
    8284              $C$DW$T$132     .dwtag  DW_TAG_typedef
    8285                      .dwattr $C$DW$T$132, DW_AT_name("PIE_Handle")
    8286                      .dwattr $C$DW$T$132, DW_AT_type(*$C$DW$T$131)
    8287                      .dwattr $C$DW$T$132, DW_AT_language(DW_LANG_C)
    8288              
    8289              
    8290              $C$DW$T$186     .dwtag  DW_TAG_structure_type
    8291                      .dwattr $C$DW$T$186, DW_AT_name("_PLL_Obj_")
    8292                      .dwattr $C$DW$T$186, DW_AT_byte_size(0x11)
    8293              $C$DW$1003      .dwtag  DW_TAG_member
    8294                      .dwattr $C$DW$1003, DW_AT_type(*$C$DW$T$23)
    8295                      .dwattr $C$DW$1003, DW_AT_name("PLLSTS")
    8296                      .dwattr $C$DW$1003, DW_AT_TI_symbol_name("_PLLSTS")
    8297                      .dwattr $C$DW$1003, DW_AT_data_member_location[DW_OP_plus_uconst 0x0]
    8298                      .dwattr $C$DW$1003, DW_AT_accessibility(DW_ACCESS_public)
    8299              
    8300              $C$DW$1004      .dwtag  DW_TAG_member
    8301                      .dwattr $C$DW$1004, DW_AT_type(*$C$DW$T$23)
    8302                      .dwattr $C$DW$1004, DW_AT_name("rsvd_1")
    8303                      .dwattr $C$DW$1004, DW_AT_TI_symbol_name("_rsvd_1")
    8304                      .dwattr $C$DW$1004, DW_AT_data_member_location[DW_OP_plus_uconst 0x1]
    8305                      .dwattr $C$DW$1004, DW_AT_accessibility(DW_ACCESS_public)
    8306              
    8307              $C$DW$1005      .dwtag  DW_TAG_member
    8308                      .dwattr $C$DW$1005, DW_AT_type(*$C$DW$T$23)
    8309                      .dwattr $C$DW$1005, DW_AT_name("PLLLOCKPRD")
    8310                      .dwattr $C$DW$1005, DW_AT_TI_symbol_name("_PLLLOCKPRD")
    8311                      .dwattr $C$DW$1005, DW_AT_data_member_location[DW_OP_plus_uconst 0x2]
    8312                      .dwattr $C$DW$1005, DW_AT_accessibility(DW_ACCESS_public)
    8313              
    8314              $C$DW$1006      .dwtag  DW_TAG_member
    8315                      .dwattr $C$DW$1006, DW_AT_type(*$C$DW$T$29)
    8316                      .dwattr $C$DW$1006, DW_AT_name("rsvd_2")
    8317                      .dwattr $C$DW$1006, DW_AT_TI_symbol_name("_rsvd_2")
    8318                      .dwattr $C$DW$1006, DW_AT_data_member_location[DW_OP_plus_uconst 0x3]
    8319                      .dwattr $C$DW$1006, DW_AT_accessibility(DW_ACCESS_public)
    8320              
    8321              $C$DW$1007      .dwtag  DW_TAG_member
    8322                      .dwattr $C$DW$1007, DW_AT_type(*$C$DW$T$23)
    8323                      .dwattr $C$DW$1007, DW_AT_name("PLLCR")
    8324                      .dwattr $C$DW$1007, DW_AT_TI_symbol_name("_PLLCR")
TMS320C2000 Assembler PC v15.12.3 Sun Oct 30 14:01:37 2016

Tools Copyright (c) 1996-2015 Texas Instruments Incorporated
C:\Users\MaCHaDo\AppData\Local\Temp\0057210                          PAGE  158

    8325                      .dwattr $C$DW$1007, DW_AT_data_member_location[DW_OP_plus_uconst 0x10]
    8326                      .dwattr $C$DW$1007, DW_AT_accessibility(DW_ACCESS_public)
    8327              
    8328                      .dwendtag $C$DW$T$186
    8329              
    8330              $C$DW$T$133     .dwtag  DW_TAG_pointer_type
    8331                      .dwattr $C$DW$T$133, DW_AT_type(*$C$DW$T$186)
    8332                      .dwattr $C$DW$T$133, DW_AT_address_class(0x20)
    8333              
    8334              $C$DW$T$134     .dwtag  DW_TAG_typedef
    8335                      .dwattr $C$DW$T$134, DW_AT_name("PLL_Handle")
    8336                      .dwattr $C$DW$T$134, DW_AT_type(*$C$DW$T$133)
    8337                      .dwattr $C$DW$T$134, DW_AT_language(DW_LANG_C)
    8338              
    8339              
    8340              $C$DW$T$187     .dwtag  DW_TAG_structure_type
    8341                      .dwattr $C$DW$T$187, DW_AT_name("_PWM_Obj_")
    8342                      .dwattr $C$DW$T$187, DW_AT_byte_size(0x3a)
    8343              $C$DW$1008      .dwtag  DW_TAG_member
    8344                      .dwattr $C$DW$1008, DW_AT_type(*$C$DW$T$23)
    8345                      .dwattr $C$DW$1008, DW_AT_name("TBCTL")
    8346                      .dwattr $C$DW$1008, DW_AT_TI_symbol_name("_TBCTL")
    8347                      .dwattr $C$DW$1008, DW_AT_data_member_location[DW_OP_plus_uconst 0x0]
    8348                      .dwattr $C$DW$1008, DW_AT_accessibility(DW_ACCESS_public)
    8349              
    8350              $C$DW$1009      .dwtag  DW_TAG_member
    8351                      .dwattr $C$DW$1009, DW_AT_type(*$C$DW$T$23)
    8352                      .dwattr $C$DW$1009, DW_AT_name("TBSTS")
    8353                      .dwattr $C$DW$1009, DW_AT_TI_symbol_name("_TBSTS")
    8354                      .dwattr $C$DW$1009, DW_AT_data_member_location[DW_OP_plus_uconst 0x1]
    8355                      .dwattr $C$DW$1009, DW_AT_accessibility(DW_ACCESS_public)
    8356              
    8357              $C$DW$1010      .dwtag  DW_TAG_member
    8358                      .dwattr $C$DW$1010, DW_AT_type(*$C$DW$T$23)
    8359                      .dwattr $C$DW$1010, DW_AT_name("TBPHSHR")
    8360                      .dwattr $C$DW$1010, DW_AT_TI_symbol_name("_TBPHSHR")
    8361                      .dwattr $C$DW$1010, DW_AT_data_member_location[DW_OP_plus_uconst 0x2]
    8362                      .dwattr $C$DW$1010, DW_AT_accessibility(DW_ACCESS_public)
    8363              
    8364              $C$DW$1011      .dwtag  DW_TAG_member
    8365                      .dwattr $C$DW$1011, DW_AT_type(*$C$DW$T$23)
    8366                      .dwattr $C$DW$1011, DW_AT_name("TBPHS")
    8367                      .dwattr $C$DW$1011, DW_AT_TI_symbol_name("_TBPHS")
    8368                      .dwattr $C$DW$1011, DW_AT_data_member_location[DW_OP_plus_uconst 0x3]
    8369                      .dwattr $C$DW$1011, DW_AT_accessibility(DW_ACCESS_public)
    8370              
    8371              $C$DW$1012      .dwtag  DW_TAG_member
    8372                      .dwattr $C$DW$1012, DW_AT_type(*$C$DW$T$23)
    8373                      .dwattr $C$DW$1012, DW_AT_name("TBCTR")
    8374                      .dwattr $C$DW$1012, DW_AT_TI_symbol_name("_TBCTR")
    8375                      .dwattr $C$DW$1012, DW_AT_data_member_location[DW_OP_plus_uconst 0x4]
    8376                      .dwattr $C$DW$1012, DW_AT_accessibility(DW_ACCESS_public)
    8377              
    8378              $C$DW$1013      .dwtag  DW_TAG_member
    8379                      .dwattr $C$DW$1013, DW_AT_type(*$C$DW$T$23)
TMS320C2000 Assembler PC v15.12.3 Sun Oct 30 14:01:37 2016

Tools Copyright (c) 1996-2015 Texas Instruments Incorporated
C:\Users\MaCHaDo\AppData\Local\Temp\0057210                          PAGE  159

    8380                      .dwattr $C$DW$1013, DW_AT_name("TBPRD")
    8381                      .dwattr $C$DW$1013, DW_AT_TI_symbol_name("_TBPRD")
    8382                      .dwattr $C$DW$1013, DW_AT_data_member_location[DW_OP_plus_uconst 0x5]
    8383                      .dwattr $C$DW$1013, DW_AT_accessibility(DW_ACCESS_public)
    8384              
    8385              $C$DW$1014      .dwtag  DW_TAG_member
    8386                      .dwattr $C$DW$1014, DW_AT_type(*$C$DW$T$23)
    8387                      .dwattr $C$DW$1014, DW_AT_name("TBPRDHR")
    8388                      .dwattr $C$DW$1014, DW_AT_TI_symbol_name("_TBPRDHR")
    8389                      .dwattr $C$DW$1014, DW_AT_data_member_location[DW_OP_plus_uconst 0x6]
    8390                      .dwattr $C$DW$1014, DW_AT_accessibility(DW_ACCESS_public)
    8391              
    8392              $C$DW$1015      .dwtag  DW_TAG_member
    8393                      .dwattr $C$DW$1015, DW_AT_type(*$C$DW$T$23)
    8394                      .dwattr $C$DW$1015, DW_AT_name("CMPCTL")
    8395                      .dwattr $C$DW$1015, DW_AT_TI_symbol_name("_CMPCTL")
    8396                      .dwattr $C$DW$1015, DW_AT_data_member_location[DW_OP_plus_uconst 0x7]
    8397                      .dwattr $C$DW$1015, DW_AT_accessibility(DW_ACCESS_public)
    8398              
    8399              $C$DW$1016      .dwtag  DW_TAG_member
    8400                      .dwattr $C$DW$1016, DW_AT_type(*$C$DW$T$23)
    8401                      .dwattr $C$DW$1016, DW_AT_name("CMPAHR")
    8402                      .dwattr $C$DW$1016, DW_AT_TI_symbol_name("_CMPAHR")
    8403                      .dwattr $C$DW$1016, DW_AT_data_member_location[DW_OP_plus_uconst 0x8]
    8404                      .dwattr $C$DW$1016, DW_AT_accessibility(DW_ACCESS_public)
    8405              
    8406              $C$DW$1017      .dwtag  DW_TAG_member
    8407                      .dwattr $C$DW$1017, DW_AT_type(*$C$DW$T$23)
    8408                      .dwattr $C$DW$1017, DW_AT_name("CMPA")
    8409                      .dwattr $C$DW$1017, DW_AT_TI_symbol_name("_CMPA")
    8410                      .dwattr $C$DW$1017, DW_AT_data_member_location[DW_OP_plus_uconst 0x9]
    8411                      .dwattr $C$DW$1017, DW_AT_accessibility(DW_ACCESS_public)
    8412              
    8413              $C$DW$1018      .dwtag  DW_TAG_member
    8414                      .dwattr $C$DW$1018, DW_AT_type(*$C$DW$T$23)
    8415                      .dwattr $C$DW$1018, DW_AT_name("CMPB")
    8416                      .dwattr $C$DW$1018, DW_AT_TI_symbol_name("_CMPB")
    8417                      .dwattr $C$DW$1018, DW_AT_data_member_location[DW_OP_plus_uconst 0xa]
    8418                      .dwattr $C$DW$1018, DW_AT_accessibility(DW_ACCESS_public)
    8419              
    8420              $C$DW$1019      .dwtag  DW_TAG_member
    8421                      .dwattr $C$DW$1019, DW_AT_type(*$C$DW$T$23)
    8422                      .dwattr $C$DW$1019, DW_AT_name("AQCTLA")
    8423                      .dwattr $C$DW$1019, DW_AT_TI_symbol_name("_AQCTLA")
    8424                      .dwattr $C$DW$1019, DW_AT_data_member_location[DW_OP_plus_uconst 0xb]
    8425                      .dwattr $C$DW$1019, DW_AT_accessibility(DW_ACCESS_public)
    8426              
    8427              $C$DW$1020      .dwtag  DW_TAG_member
    8428                      .dwattr $C$DW$1020, DW_AT_type(*$C$DW$T$23)
    8429                      .dwattr $C$DW$1020, DW_AT_name("AQCTLB")
    8430                      .dwattr $C$DW$1020, DW_AT_TI_symbol_name("_AQCTLB")
    8431                      .dwattr $C$DW$1020, DW_AT_data_member_location[DW_OP_plus_uconst 0xc]
    8432                      .dwattr $C$DW$1020, DW_AT_accessibility(DW_ACCESS_public)
    8433              
    8434              $C$DW$1021      .dwtag  DW_TAG_member
TMS320C2000 Assembler PC v15.12.3 Sun Oct 30 14:01:37 2016

Tools Copyright (c) 1996-2015 Texas Instruments Incorporated
C:\Users\MaCHaDo\AppData\Local\Temp\0057210                          PAGE  160

    8435                      .dwattr $C$DW$1021, DW_AT_type(*$C$DW$T$23)
    8436                      .dwattr $C$DW$1021, DW_AT_name("AQSFRC")
    8437                      .dwattr $C$DW$1021, DW_AT_TI_symbol_name("_AQSFRC")
    8438                      .dwattr $C$DW$1021, DW_AT_data_member_location[DW_OP_plus_uconst 0xd]
    8439                      .dwattr $C$DW$1021, DW_AT_accessibility(DW_ACCESS_public)
    8440              
    8441              $C$DW$1022      .dwtag  DW_TAG_member
    8442                      .dwattr $C$DW$1022, DW_AT_type(*$C$DW$T$23)
    8443                      .dwattr $C$DW$1022, DW_AT_name("AQCSFRC")
    8444                      .dwattr $C$DW$1022, DW_AT_TI_symbol_name("_AQCSFRC")
    8445                      .dwattr $C$DW$1022, DW_AT_data_member_location[DW_OP_plus_uconst 0xe]
    8446                      .dwattr $C$DW$1022, DW_AT_accessibility(DW_ACCESS_public)
    8447              
    8448              $C$DW$1023      .dwtag  DW_TAG_member
    8449                      .dwattr $C$DW$1023, DW_AT_type(*$C$DW$T$23)
    8450                      .dwattr $C$DW$1023, DW_AT_name("DBCTL")
    8451                      .dwattr $C$DW$1023, DW_AT_TI_symbol_name("_DBCTL")
    8452                      .dwattr $C$DW$1023, DW_AT_data_member_location[DW_OP_plus_uconst 0xf]
    8453                      .dwattr $C$DW$1023, DW_AT_accessibility(DW_ACCESS_public)
    8454              
    8455              $C$DW$1024      .dwtag  DW_TAG_member
    8456                      .dwattr $C$DW$1024, DW_AT_type(*$C$DW$T$23)
    8457                      .dwattr $C$DW$1024, DW_AT_name("DBRED")
    8458                      .dwattr $C$DW$1024, DW_AT_TI_symbol_name("_DBRED")
    8459                      .dwattr $C$DW$1024, DW_AT_data_member_location[DW_OP_plus_uconst 0x10]
    8460                      .dwattr $C$DW$1024, DW_AT_accessibility(DW_ACCESS_public)
    8461              
    8462              $C$DW$1025      .dwtag  DW_TAG_member
    8463                      .dwattr $C$DW$1025, DW_AT_type(*$C$DW$T$23)
    8464                      .dwattr $C$DW$1025, DW_AT_name("DBFED")
    8465                      .dwattr $C$DW$1025, DW_AT_TI_symbol_name("_DBFED")
    8466                      .dwattr $C$DW$1025, DW_AT_data_member_location[DW_OP_plus_uconst 0x11]
    8467                      .dwattr $C$DW$1025, DW_AT_accessibility(DW_ACCESS_public)
    8468              
    8469              $C$DW$1026      .dwtag  DW_TAG_member
    8470                      .dwattr $C$DW$1026, DW_AT_type(*$C$DW$T$23)
    8471                      .dwattr $C$DW$1026, DW_AT_name("TZSEL")
    8472                      .dwattr $C$DW$1026, DW_AT_TI_symbol_name("_TZSEL")
    8473                      .dwattr $C$DW$1026, DW_AT_data_member_location[DW_OP_plus_uconst 0x12]
    8474                      .dwattr $C$DW$1026, DW_AT_accessibility(DW_ACCESS_public)
    8475              
    8476              $C$DW$1027      .dwtag  DW_TAG_member
    8477                      .dwattr $C$DW$1027, DW_AT_type(*$C$DW$T$23)
    8478                      .dwattr $C$DW$1027, DW_AT_name("TZDCSEL")
    8479                      .dwattr $C$DW$1027, DW_AT_TI_symbol_name("_TZDCSEL")
    8480                      .dwattr $C$DW$1027, DW_AT_data_member_location[DW_OP_plus_uconst 0x13]
    8481                      .dwattr $C$DW$1027, DW_AT_accessibility(DW_ACCESS_public)
    8482              
    8483              $C$DW$1028      .dwtag  DW_TAG_member
    8484                      .dwattr $C$DW$1028, DW_AT_type(*$C$DW$T$23)
    8485                      .dwattr $C$DW$1028, DW_AT_name("TZCTL")
    8486                      .dwattr $C$DW$1028, DW_AT_TI_symbol_name("_TZCTL")
    8487                      .dwattr $C$DW$1028, DW_AT_data_member_location[DW_OP_plus_uconst 0x14]
    8488                      .dwattr $C$DW$1028, DW_AT_accessibility(DW_ACCESS_public)
    8489              
TMS320C2000 Assembler PC v15.12.3 Sun Oct 30 14:01:37 2016

Tools Copyright (c) 1996-2015 Texas Instruments Incorporated
C:\Users\MaCHaDo\AppData\Local\Temp\0057210                          PAGE  161

    8490              $C$DW$1029      .dwtag  DW_TAG_member
    8491                      .dwattr $C$DW$1029, DW_AT_type(*$C$DW$T$23)
    8492                      .dwattr $C$DW$1029, DW_AT_name("TZEINT")
    8493                      .dwattr $C$DW$1029, DW_AT_TI_symbol_name("_TZEINT")
    8494                      .dwattr $C$DW$1029, DW_AT_data_member_location[DW_OP_plus_uconst 0x15]
    8495                      .dwattr $C$DW$1029, DW_AT_accessibility(DW_ACCESS_public)
    8496              
    8497              $C$DW$1030      .dwtag  DW_TAG_member
    8498                      .dwattr $C$DW$1030, DW_AT_type(*$C$DW$T$23)
    8499                      .dwattr $C$DW$1030, DW_AT_name("TZFLG")
    8500                      .dwattr $C$DW$1030, DW_AT_TI_symbol_name("_TZFLG")
    8501                      .dwattr $C$DW$1030, DW_AT_data_member_location[DW_OP_plus_uconst 0x16]
    8502                      .dwattr $C$DW$1030, DW_AT_accessibility(DW_ACCESS_public)
    8503              
    8504              $C$DW$1031      .dwtag  DW_TAG_member
    8505                      .dwattr $C$DW$1031, DW_AT_type(*$C$DW$T$23)
    8506                      .dwattr $C$DW$1031, DW_AT_name("TZCLR")
    8507                      .dwattr $C$DW$1031, DW_AT_TI_symbol_name("_TZCLR")
    8508                      .dwattr $C$DW$1031, DW_AT_data_member_location[DW_OP_plus_uconst 0x17]
    8509                      .dwattr $C$DW$1031, DW_AT_accessibility(DW_ACCESS_public)
    8510              
    8511              $C$DW$1032      .dwtag  DW_TAG_member
    8512                      .dwattr $C$DW$1032, DW_AT_type(*$C$DW$T$23)
    8513                      .dwattr $C$DW$1032, DW_AT_name("TZFRC")
    8514                      .dwattr $C$DW$1032, DW_AT_TI_symbol_name("_TZFRC")
    8515                      .dwattr $C$DW$1032, DW_AT_data_member_location[DW_OP_plus_uconst 0x18]
    8516                      .dwattr $C$DW$1032, DW_AT_accessibility(DW_ACCESS_public)
    8517              
    8518              $C$DW$1033      .dwtag  DW_TAG_member
    8519                      .dwattr $C$DW$1033, DW_AT_type(*$C$DW$T$23)
    8520                      .dwattr $C$DW$1033, DW_AT_name("ETSEL")
    8521                      .dwattr $C$DW$1033, DW_AT_TI_symbol_name("_ETSEL")
    8522                      .dwattr $C$DW$1033, DW_AT_data_member_location[DW_OP_plus_uconst 0x19]
    8523                      .dwattr $C$DW$1033, DW_AT_accessibility(DW_ACCESS_public)
    8524              
    8525              $C$DW$1034      .dwtag  DW_TAG_member
    8526                      .dwattr $C$DW$1034, DW_AT_type(*$C$DW$T$23)
    8527                      .dwattr $C$DW$1034, DW_AT_name("ETPS")
    8528                      .dwattr $C$DW$1034, DW_AT_TI_symbol_name("_ETPS")
    8529                      .dwattr $C$DW$1034, DW_AT_data_member_location[DW_OP_plus_uconst 0x1a]
    8530                      .dwattr $C$DW$1034, DW_AT_accessibility(DW_ACCESS_public)
    8531              
    8532              $C$DW$1035      .dwtag  DW_TAG_member
    8533                      .dwattr $C$DW$1035, DW_AT_type(*$C$DW$T$23)
    8534                      .dwattr $C$DW$1035, DW_AT_name("ETFLG")
    8535                      .dwattr $C$DW$1035, DW_AT_TI_symbol_name("_ETFLG")
    8536                      .dwattr $C$DW$1035, DW_AT_data_member_location[DW_OP_plus_uconst 0x1b]
    8537                      .dwattr $C$DW$1035, DW_AT_accessibility(DW_ACCESS_public)
    8538              
    8539              $C$DW$1036      .dwtag  DW_TAG_member
    8540                      .dwattr $C$DW$1036, DW_AT_type(*$C$DW$T$23)
    8541                      .dwattr $C$DW$1036, DW_AT_name("ETCLR")
    8542                      .dwattr $C$DW$1036, DW_AT_TI_symbol_name("_ETCLR")
    8543                      .dwattr $C$DW$1036, DW_AT_data_member_location[DW_OP_plus_uconst 0x1c]
    8544                      .dwattr $C$DW$1036, DW_AT_accessibility(DW_ACCESS_public)
TMS320C2000 Assembler PC v15.12.3 Sun Oct 30 14:01:37 2016

Tools Copyright (c) 1996-2015 Texas Instruments Incorporated
C:\Users\MaCHaDo\AppData\Local\Temp\0057210                          PAGE  162

    8545              
    8546              $C$DW$1037      .dwtag  DW_TAG_member
    8547                      .dwattr $C$DW$1037, DW_AT_type(*$C$DW$T$23)
    8548                      .dwattr $C$DW$1037, DW_AT_name("ETFRC")
    8549                      .dwattr $C$DW$1037, DW_AT_TI_symbol_name("_ETFRC")
    8550                      .dwattr $C$DW$1037, DW_AT_data_member_location[DW_OP_plus_uconst 0x1d]
    8551                      .dwattr $C$DW$1037, DW_AT_accessibility(DW_ACCESS_public)
    8552              
    8553              $C$DW$1038      .dwtag  DW_TAG_member
    8554                      .dwattr $C$DW$1038, DW_AT_type(*$C$DW$T$23)
    8555                      .dwattr $C$DW$1038, DW_AT_name("PCCTL")
    8556                      .dwattr $C$DW$1038, DW_AT_TI_symbol_name("_PCCTL")
    8557                      .dwattr $C$DW$1038, DW_AT_data_member_location[DW_OP_plus_uconst 0x1e]
    8558                      .dwattr $C$DW$1038, DW_AT_accessibility(DW_ACCESS_public)
    8559              
    8560              $C$DW$1039      .dwtag  DW_TAG_member
    8561                      .dwattr $C$DW$1039, DW_AT_type(*$C$DW$T$23)
    8562                      .dwattr $C$DW$1039, DW_AT_name("rsvd_1")
    8563                      .dwattr $C$DW$1039, DW_AT_TI_symbol_name("_rsvd_1")
    8564                      .dwattr $C$DW$1039, DW_AT_data_member_location[DW_OP_plus_uconst 0x1f]
    8565                      .dwattr $C$DW$1039, DW_AT_accessibility(DW_ACCESS_public)
    8566              
    8567              $C$DW$1040      .dwtag  DW_TAG_member
    8568                      .dwattr $C$DW$1040, DW_AT_type(*$C$DW$T$23)
    8569                      .dwattr $C$DW$1040, DW_AT_name("HRCNFG")
    8570                      .dwattr $C$DW$1040, DW_AT_TI_symbol_name("_HRCNFG")
    8571                      .dwattr $C$DW$1040, DW_AT_data_member_location[DW_OP_plus_uconst 0x20]
    8572                      .dwattr $C$DW$1040, DW_AT_accessibility(DW_ACCESS_public)
    8573              
    8574              $C$DW$1041      .dwtag  DW_TAG_member
    8575                      .dwattr $C$DW$1041, DW_AT_type(*$C$DW$T$23)
    8576                      .dwattr $C$DW$1041, DW_AT_name("HRPWR")
    8577                      .dwattr $C$DW$1041, DW_AT_TI_symbol_name("_HRPWR")
    8578                      .dwattr $C$DW$1041, DW_AT_data_member_location[DW_OP_plus_uconst 0x21]
    8579                      .dwattr $C$DW$1041, DW_AT_accessibility(DW_ACCESS_public)
    8580              
    8581              $C$DW$1042      .dwtag  DW_TAG_member
    8582                      .dwattr $C$DW$1042, DW_AT_type(*$C$DW$T$112)
    8583                      .dwattr $C$DW$1042, DW_AT_name("rsvd_2")
    8584                      .dwattr $C$DW$1042, DW_AT_TI_symbol_name("_rsvd_2")
    8585                      .dwattr $C$DW$1042, DW_AT_data_member_location[DW_OP_plus_uconst 0x22]
    8586                      .dwattr $C$DW$1042, DW_AT_accessibility(DW_ACCESS_public)
    8587              
    8588              $C$DW$1043      .dwtag  DW_TAG_member
    8589                      .dwattr $C$DW$1043, DW_AT_type(*$C$DW$T$23)
    8590                      .dwattr $C$DW$1043, DW_AT_name("HRMSTEP")
    8591                      .dwattr $C$DW$1043, DW_AT_TI_symbol_name("_HRMSTEP")
    8592                      .dwattr $C$DW$1043, DW_AT_data_member_location[DW_OP_plus_uconst 0x26]
    8593                      .dwattr $C$DW$1043, DW_AT_accessibility(DW_ACCESS_public)
    8594              
    8595              $C$DW$1044      .dwtag  DW_TAG_member
    8596                      .dwattr $C$DW$1044, DW_AT_type(*$C$DW$T$23)
    8597                      .dwattr $C$DW$1044, DW_AT_name("rsvd_3")
    8598                      .dwattr $C$DW$1044, DW_AT_TI_symbol_name("_rsvd_3")
    8599                      .dwattr $C$DW$1044, DW_AT_data_member_location[DW_OP_plus_uconst 0x27]
TMS320C2000 Assembler PC v15.12.3 Sun Oct 30 14:01:37 2016

Tools Copyright (c) 1996-2015 Texas Instruments Incorporated
C:\Users\MaCHaDo\AppData\Local\Temp\0057210                          PAGE  163

    8600                      .dwattr $C$DW$1044, DW_AT_accessibility(DW_ACCESS_public)
    8601              
    8602              $C$DW$1045      .dwtag  DW_TAG_member
    8603                      .dwattr $C$DW$1045, DW_AT_type(*$C$DW$T$23)
    8604                      .dwattr $C$DW$1045, DW_AT_name("HRPCTL")
    8605                      .dwattr $C$DW$1045, DW_AT_TI_symbol_name("_HRPCTL")
    8606                      .dwattr $C$DW$1045, DW_AT_data_member_location[DW_OP_plus_uconst 0x28]
    8607                      .dwattr $C$DW$1045, DW_AT_accessibility(DW_ACCESS_public)
    8608              
    8609              $C$DW$1046      .dwtag  DW_TAG_member
    8610                      .dwattr $C$DW$1046, DW_AT_type(*$C$DW$T$23)
    8611                      .dwattr $C$DW$1046, DW_AT_name("rsvd_4")
    8612                      .dwattr $C$DW$1046, DW_AT_TI_symbol_name("_rsvd_4")
    8613                      .dwattr $C$DW$1046, DW_AT_data_member_location[DW_OP_plus_uconst 0x29]
    8614                      .dwattr $C$DW$1046, DW_AT_accessibility(DW_ACCESS_public)
    8615              
    8616              $C$DW$1047      .dwtag  DW_TAG_member
    8617                      .dwattr $C$DW$1047, DW_AT_type(*$C$DW$T$23)
    8618                      .dwattr $C$DW$1047, DW_AT_name("TBPRDHRM")
    8619                      .dwattr $C$DW$1047, DW_AT_TI_symbol_name("_TBPRDHRM")
    8620                      .dwattr $C$DW$1047, DW_AT_data_member_location[DW_OP_plus_uconst 0x2a]
    8621                      .dwattr $C$DW$1047, DW_AT_accessibility(DW_ACCESS_public)
    8622              
    8623              $C$DW$1048      .dwtag  DW_TAG_member
    8624                      .dwattr $C$DW$1048, DW_AT_type(*$C$DW$T$23)
    8625                      .dwattr $C$DW$1048, DW_AT_name("TBPRDM")
    8626                      .dwattr $C$DW$1048, DW_AT_TI_symbol_name("_TBPRDM")
    8627                      .dwattr $C$DW$1048, DW_AT_data_member_location[DW_OP_plus_uconst 0x2b]
    8628                      .dwattr $C$DW$1048, DW_AT_accessibility(DW_ACCESS_public)
    8629              
    8630              $C$DW$1049      .dwtag  DW_TAG_member
    8631                      .dwattr $C$DW$1049, DW_AT_type(*$C$DW$T$23)
    8632                      .dwattr $C$DW$1049, DW_AT_name("CMPAHRM")
    8633                      .dwattr $C$DW$1049, DW_AT_TI_symbol_name("_CMPAHRM")
    8634                      .dwattr $C$DW$1049, DW_AT_data_member_location[DW_OP_plus_uconst 0x2c]
    8635                      .dwattr $C$DW$1049, DW_AT_accessibility(DW_ACCESS_public)
    8636              
    8637              $C$DW$1050      .dwtag  DW_TAG_member
    8638                      .dwattr $C$DW$1050, DW_AT_type(*$C$DW$T$23)
    8639                      .dwattr $C$DW$1050, DW_AT_name("CMPAM")
    8640                      .dwattr $C$DW$1050, DW_AT_TI_symbol_name("_CMPAM")
    8641                      .dwattr $C$DW$1050, DW_AT_data_member_location[DW_OP_plus_uconst 0x2d]
    8642                      .dwattr $C$DW$1050, DW_AT_accessibility(DW_ACCESS_public)
    8643              
    8644              $C$DW$1051      .dwtag  DW_TAG_member
    8645                      .dwattr $C$DW$1051, DW_AT_type(*$C$DW$T$26)
    8646                      .dwattr $C$DW$1051, DW_AT_name("rsvd_5")
    8647                      .dwattr $C$DW$1051, DW_AT_TI_symbol_name("_rsvd_5")
    8648                      .dwattr $C$DW$1051, DW_AT_data_member_location[DW_OP_plus_uconst 0x2e]
    8649                      .dwattr $C$DW$1051, DW_AT_accessibility(DW_ACCESS_public)
    8650              
    8651              $C$DW$1052      .dwtag  DW_TAG_member
    8652                      .dwattr $C$DW$1052, DW_AT_type(*$C$DW$T$23)
    8653                      .dwattr $C$DW$1052, DW_AT_name("DCTRIPSEL")
    8654                      .dwattr $C$DW$1052, DW_AT_TI_symbol_name("_DCTRIPSEL")
TMS320C2000 Assembler PC v15.12.3 Sun Oct 30 14:01:37 2016

Tools Copyright (c) 1996-2015 Texas Instruments Incorporated
C:\Users\MaCHaDo\AppData\Local\Temp\0057210                          PAGE  164

    8655                      .dwattr $C$DW$1052, DW_AT_data_member_location[DW_OP_plus_uconst 0x30]
    8656                      .dwattr $C$DW$1052, DW_AT_accessibility(DW_ACCESS_public)
    8657              
    8658              $C$DW$1053      .dwtag  DW_TAG_member
    8659                      .dwattr $C$DW$1053, DW_AT_type(*$C$DW$T$23)
    8660                      .dwattr $C$DW$1053, DW_AT_name("DCACTL")
    8661                      .dwattr $C$DW$1053, DW_AT_TI_symbol_name("_DCACTL")
    8662                      .dwattr $C$DW$1053, DW_AT_data_member_location[DW_OP_plus_uconst 0x31]
    8663                      .dwattr $C$DW$1053, DW_AT_accessibility(DW_ACCESS_public)
    8664              
    8665              $C$DW$1054      .dwtag  DW_TAG_member
    8666                      .dwattr $C$DW$1054, DW_AT_type(*$C$DW$T$23)
    8667                      .dwattr $C$DW$1054, DW_AT_name("DCBCTL")
    8668                      .dwattr $C$DW$1054, DW_AT_TI_symbol_name("_DCBCTL")
    8669                      .dwattr $C$DW$1054, DW_AT_data_member_location[DW_OP_plus_uconst 0x32]
    8670                      .dwattr $C$DW$1054, DW_AT_accessibility(DW_ACCESS_public)
    8671              
    8672              $C$DW$1055      .dwtag  DW_TAG_member
    8673                      .dwattr $C$DW$1055, DW_AT_type(*$C$DW$T$23)
    8674                      .dwattr $C$DW$1055, DW_AT_name("DCFCTL")
    8675                      .dwattr $C$DW$1055, DW_AT_TI_symbol_name("_DCFCTL")
    8676                      .dwattr $C$DW$1055, DW_AT_data_member_location[DW_OP_plus_uconst 0x33]
    8677                      .dwattr $C$DW$1055, DW_AT_accessibility(DW_ACCESS_public)
    8678              
    8679              $C$DW$1056      .dwtag  DW_TAG_member
    8680                      .dwattr $C$DW$1056, DW_AT_type(*$C$DW$T$23)
    8681                      .dwattr $C$DW$1056, DW_AT_name("DCCAPCTL")
    8682                      .dwattr $C$DW$1056, DW_AT_TI_symbol_name("_DCCAPCTL")
    8683                      .dwattr $C$DW$1056, DW_AT_data_member_location[DW_OP_plus_uconst 0x34]
    8684                      .dwattr $C$DW$1056, DW_AT_accessibility(DW_ACCESS_public)
    8685              
    8686              $C$DW$1057      .dwtag  DW_TAG_member
    8687                      .dwattr $C$DW$1057, DW_AT_type(*$C$DW$T$23)
    8688                      .dwattr $C$DW$1057, DW_AT_name("DCFOFFSET")
    8689                      .dwattr $C$DW$1057, DW_AT_TI_symbol_name("_DCFOFFSET")
    8690                      .dwattr $C$DW$1057, DW_AT_data_member_location[DW_OP_plus_uconst 0x35]
    8691                      .dwattr $C$DW$1057, DW_AT_accessibility(DW_ACCESS_public)
    8692              
    8693              $C$DW$1058      .dwtag  DW_TAG_member
    8694                      .dwattr $C$DW$1058, DW_AT_type(*$C$DW$T$23)
    8695                      .dwattr $C$DW$1058, DW_AT_name("DCFOFFSETCNT")
    8696                      .dwattr $C$DW$1058, DW_AT_TI_symbol_name("_DCFOFFSETCNT")
    8697                      .dwattr $C$DW$1058, DW_AT_data_member_location[DW_OP_plus_uconst 0x36]
    8698                      .dwattr $C$DW$1058, DW_AT_accessibility(DW_ACCESS_public)
    8699              
    8700              $C$DW$1059      .dwtag  DW_TAG_member
    8701                      .dwattr $C$DW$1059, DW_AT_type(*$C$DW$T$23)
    8702                      .dwattr $C$DW$1059, DW_AT_name("DCFWINDOW")
    8703                      .dwattr $C$DW$1059, DW_AT_TI_symbol_name("_DCFWINDOW")
    8704                      .dwattr $C$DW$1059, DW_AT_data_member_location[DW_OP_plus_uconst 0x37]
    8705                      .dwattr $C$DW$1059, DW_AT_accessibility(DW_ACCESS_public)
    8706              
    8707              $C$DW$1060      .dwtag  DW_TAG_member
    8708                      .dwattr $C$DW$1060, DW_AT_type(*$C$DW$T$23)
    8709                      .dwattr $C$DW$1060, DW_AT_name("DCFWINDOWCNT")
TMS320C2000 Assembler PC v15.12.3 Sun Oct 30 14:01:37 2016

Tools Copyright (c) 1996-2015 Texas Instruments Incorporated
C:\Users\MaCHaDo\AppData\Local\Temp\0057210                          PAGE  165

    8710                      .dwattr $C$DW$1060, DW_AT_TI_symbol_name("_DCFWINDOWCNT")
    8711                      .dwattr $C$DW$1060, DW_AT_data_member_location[DW_OP_plus_uconst 0x38]
    8712                      .dwattr $C$DW$1060, DW_AT_accessibility(DW_ACCESS_public)
    8713              
    8714              $C$DW$1061      .dwtag  DW_TAG_member
    8715                      .dwattr $C$DW$1061, DW_AT_type(*$C$DW$T$23)
    8716                      .dwattr $C$DW$1061, DW_AT_name("DCCAP")
    8717                      .dwattr $C$DW$1061, DW_AT_TI_symbol_name("_DCCAP")
    8718                      .dwattr $C$DW$1061, DW_AT_data_member_location[DW_OP_plus_uconst 0x39]
    8719                      .dwattr $C$DW$1061, DW_AT_accessibility(DW_ACCESS_public)
    8720              
    8721                      .dwendtag $C$DW$T$187
    8722              
    8723              $C$DW$T$267     .dwtag  DW_TAG_typedef
    8724                      .dwattr $C$DW$T$267, DW_AT_name("PWM_Obj")
    8725                      .dwattr $C$DW$T$267, DW_AT_type(*$C$DW$T$187)
    8726                      .dwattr $C$DW$T$267, DW_AT_language(DW_LANG_C)
    8727              
    8728              $C$DW$T$268     .dwtag  DW_TAG_pointer_type
    8729                      .dwattr $C$DW$T$268, DW_AT_type(*$C$DW$T$267)
    8730                      .dwattr $C$DW$T$268, DW_AT_address_class(0x20)
    8731              
    8732              $C$DW$T$135     .dwtag  DW_TAG_pointer_type
    8733                      .dwattr $C$DW$T$135, DW_AT_type(*$C$DW$T$187)
    8734                      .dwattr $C$DW$T$135, DW_AT_address_class(0x20)
    8735              
    8736              $C$DW$T$136     .dwtag  DW_TAG_typedef
    8737                      .dwattr $C$DW$T$136, DW_AT_name("PWM_Handle")
    8738                      .dwattr $C$DW$T$136, DW_AT_type(*$C$DW$T$135)
    8739                      .dwattr $C$DW$T$136, DW_AT_language(DW_LANG_C)
    8740              
    8741              
    8742              $C$DW$T$137     .dwtag  DW_TAG_array_type
    8743                      .dwattr $C$DW$T$137, DW_AT_type(*$C$DW$T$136)
    8744                      .dwattr $C$DW$T$137, DW_AT_language(DW_LANG_C)
    8745                      .dwattr $C$DW$T$137, DW_AT_byte_size(0x06)
    8746              $C$DW$1062      .dwtag  DW_TAG_subrange_type
    8747                      .dwattr $C$DW$1062, DW_AT_upper_bound(0x02)
    8748              
    8749                      .dwendtag $C$DW$T$137
    8750              
    8751              
    8752              $C$DW$T$189     .dwtag  DW_TAG_structure_type
    8753                      .dwattr $C$DW$T$189, DW_AT_name("_PWR_Obj_")
    8754                      .dwattr $C$DW$T$189, DW_AT_byte_size(0x669a)
    8755              $C$DW$1063      .dwtag  DW_TAG_member
    8756                      .dwattr $C$DW$1063, DW_AT_type(*$C$DW$T$23)
    8757                      .dwattr $C$DW$1063, DW_AT_name("BORCFG")
    8758                      .dwattr $C$DW$1063, DW_AT_TI_symbol_name("_BORCFG")
    8759                      .dwattr $C$DW$1063, DW_AT_data_member_location[DW_OP_plus_uconst 0x0]
    8760                      .dwattr $C$DW$1063, DW_AT_accessibility(DW_ACCESS_public)
    8761              
    8762              $C$DW$1064      .dwtag  DW_TAG_member
    8763                      .dwattr $C$DW$1064, DW_AT_type(*$C$DW$T$188)
    8764                      .dwattr $C$DW$1064, DW_AT_name("rsvd_1")
TMS320C2000 Assembler PC v15.12.3 Sun Oct 30 14:01:37 2016

Tools Copyright (c) 1996-2015 Texas Instruments Incorporated
C:\Users\MaCHaDo\AppData\Local\Temp\0057210                          PAGE  166

    8765                      .dwattr $C$DW$1064, DW_AT_TI_symbol_name("_rsvd_1")
    8766                      .dwattr $C$DW$1064, DW_AT_data_member_location[DW_OP_plus_uconst 0x1]
    8767                      .dwattr $C$DW$1064, DW_AT_accessibility(DW_ACCESS_public)
    8768              
    8769              $C$DW$1065      .dwtag  DW_TAG_member
    8770                      .dwattr $C$DW$1065, DW_AT_type(*$C$DW$T$23)
    8771                      .dwattr $C$DW$1065, DW_AT_name("LPMCR0")
    8772                      .dwattr $C$DW$1065, DW_AT_TI_symbol_name("_LPMCR0")
    8773                      .dwattr $C$DW$1065, DW_AT_data_member_location[DW_OP_plus_uconst 0x6699]
    8774                      .dwattr $C$DW$1065, DW_AT_accessibility(DW_ACCESS_public)
    8775              
    8776                      .dwendtag $C$DW$T$189
    8777              
    8778              $C$DW$T$138     .dwtag  DW_TAG_pointer_type
    8779                      .dwattr $C$DW$T$138, DW_AT_type(*$C$DW$T$189)
    8780                      .dwattr $C$DW$T$138, DW_AT_address_class(0x20)
    8781              
    8782              $C$DW$T$139     .dwtag  DW_TAG_typedef
    8783                      .dwattr $C$DW$T$139, DW_AT_name("PWR_Handle")
    8784                      .dwattr $C$DW$T$139, DW_AT_type(*$C$DW$T$138)
    8785                      .dwattr $C$DW$T$139, DW_AT_language(DW_LANG_C)
    8786              
    8787              
    8788              $C$DW$T$190     .dwtag  DW_TAG_structure_type
    8789                      .dwattr $C$DW$T$190, DW_AT_name("_SCI_Obj_")
    8790                      .dwattr $C$DW$T$190, DW_AT_byte_size(0x10)
    8791              $C$DW$1066      .dwtag  DW_TAG_member
    8792                      .dwattr $C$DW$1066, DW_AT_type(*$C$DW$T$23)
    8793                      .dwattr $C$DW$1066, DW_AT_name("SCICCR")
    8794                      .dwattr $C$DW$1066, DW_AT_TI_symbol_name("_SCICCR")
    8795                      .dwattr $C$DW$1066, DW_AT_data_member_location[DW_OP_plus_uconst 0x0]
    8796                      .dwattr $C$DW$1066, DW_AT_accessibility(DW_ACCESS_public)
    8797              
    8798              $C$DW$1067      .dwtag  DW_TAG_member
    8799                      .dwattr $C$DW$1067, DW_AT_type(*$C$DW$T$23)
    8800                      .dwattr $C$DW$1067, DW_AT_name("SCICTL1")
    8801                      .dwattr $C$DW$1067, DW_AT_TI_symbol_name("_SCICTL1")
    8802                      .dwattr $C$DW$1067, DW_AT_data_member_location[DW_OP_plus_uconst 0x1]
    8803                      .dwattr $C$DW$1067, DW_AT_accessibility(DW_ACCESS_public)
    8804              
    8805              $C$DW$1068      .dwtag  DW_TAG_member
    8806                      .dwattr $C$DW$1068, DW_AT_type(*$C$DW$T$23)
    8807                      .dwattr $C$DW$1068, DW_AT_name("SCIHBAUD")
    8808                      .dwattr $C$DW$1068, DW_AT_TI_symbol_name("_SCIHBAUD")
    8809                      .dwattr $C$DW$1068, DW_AT_data_member_location[DW_OP_plus_uconst 0x2]
    8810                      .dwattr $C$DW$1068, DW_AT_accessibility(DW_ACCESS_public)
    8811              
    8812              $C$DW$1069      .dwtag  DW_TAG_member
    8813                      .dwattr $C$DW$1069, DW_AT_type(*$C$DW$T$23)
    8814                      .dwattr $C$DW$1069, DW_AT_name("SCILBAUD")
    8815                      .dwattr $C$DW$1069, DW_AT_TI_symbol_name("_SCILBAUD")
    8816                      .dwattr $C$DW$1069, DW_AT_data_member_location[DW_OP_plus_uconst 0x3]
    8817                      .dwattr $C$DW$1069, DW_AT_accessibility(DW_ACCESS_public)
    8818              
    8819              $C$DW$1070      .dwtag  DW_TAG_member
TMS320C2000 Assembler PC v15.12.3 Sun Oct 30 14:01:37 2016

Tools Copyright (c) 1996-2015 Texas Instruments Incorporated
C:\Users\MaCHaDo\AppData\Local\Temp\0057210                          PAGE  167

    8820                      .dwattr $C$DW$1070, DW_AT_type(*$C$DW$T$23)
    8821                      .dwattr $C$DW$1070, DW_AT_name("SCICTL2")
    8822                      .dwattr $C$DW$1070, DW_AT_TI_symbol_name("_SCICTL2")
    8823                      .dwattr $C$DW$1070, DW_AT_data_member_location[DW_OP_plus_uconst 0x4]
    8824                      .dwattr $C$DW$1070, DW_AT_accessibility(DW_ACCESS_public)
    8825              
    8826              $C$DW$1071      .dwtag  DW_TAG_member
    8827                      .dwattr $C$DW$1071, DW_AT_type(*$C$DW$T$23)
    8828                      .dwattr $C$DW$1071, DW_AT_name("SCIRXST")
    8829                      .dwattr $C$DW$1071, DW_AT_TI_symbol_name("_SCIRXST")
    8830                      .dwattr $C$DW$1071, DW_AT_data_member_location[DW_OP_plus_uconst 0x5]
    8831                      .dwattr $C$DW$1071, DW_AT_accessibility(DW_ACCESS_public)
    8832              
    8833              $C$DW$1072      .dwtag  DW_TAG_member
    8834                      .dwattr $C$DW$1072, DW_AT_type(*$C$DW$T$23)
    8835                      .dwattr $C$DW$1072, DW_AT_name("SCIRXEMU")
    8836                      .dwattr $C$DW$1072, DW_AT_TI_symbol_name("_SCIRXEMU")
    8837                      .dwattr $C$DW$1072, DW_AT_data_member_location[DW_OP_plus_uconst 0x6]
    8838                      .dwattr $C$DW$1072, DW_AT_accessibility(DW_ACCESS_public)
    8839              
    8840              $C$DW$1073      .dwtag  DW_TAG_member
    8841                      .dwattr $C$DW$1073, DW_AT_type(*$C$DW$T$23)
    8842                      .dwattr $C$DW$1073, DW_AT_name("SCIRXBUF")
    8843                      .dwattr $C$DW$1073, DW_AT_TI_symbol_name("_SCIRXBUF")
    8844                      .dwattr $C$DW$1073, DW_AT_data_member_location[DW_OP_plus_uconst 0x7]
    8845                      .dwattr $C$DW$1073, DW_AT_accessibility(DW_ACCESS_public)
    8846              
    8847              $C$DW$1074      .dwtag  DW_TAG_member
    8848                      .dwattr $C$DW$1074, DW_AT_type(*$C$DW$T$23)
    8849                      .dwattr $C$DW$1074, DW_AT_name("rsvd_1")
    8850                      .dwattr $C$DW$1074, DW_AT_TI_symbol_name("_rsvd_1")
    8851                      .dwattr $C$DW$1074, DW_AT_data_member_location[DW_OP_plus_uconst 0x8]
    8852                      .dwattr $C$DW$1074, DW_AT_accessibility(DW_ACCESS_public)
    8853              
    8854              $C$DW$1075      .dwtag  DW_TAG_member
    8855                      .dwattr $C$DW$1075, DW_AT_type(*$C$DW$T$23)
    8856                      .dwattr $C$DW$1075, DW_AT_name("SCITXBUF")
    8857                      .dwattr $C$DW$1075, DW_AT_TI_symbol_name("_SCITXBUF")
    8858                      .dwattr $C$DW$1075, DW_AT_data_member_location[DW_OP_plus_uconst 0x9]
    8859                      .dwattr $C$DW$1075, DW_AT_accessibility(DW_ACCESS_public)
    8860              
    8861              $C$DW$1076      .dwtag  DW_TAG_member
    8862                      .dwattr $C$DW$1076, DW_AT_type(*$C$DW$T$23)
    8863                      .dwattr $C$DW$1076, DW_AT_name("SCIFFTX")
    8864                      .dwattr $C$DW$1076, DW_AT_TI_symbol_name("_SCIFFTX")
    8865                      .dwattr $C$DW$1076, DW_AT_data_member_location[DW_OP_plus_uconst 0xa]
    8866                      .dwattr $C$DW$1076, DW_AT_accessibility(DW_ACCESS_public)
    8867              
    8868              $C$DW$1077      .dwtag  DW_TAG_member
    8869                      .dwattr $C$DW$1077, DW_AT_type(*$C$DW$T$23)
    8870                      .dwattr $C$DW$1077, DW_AT_name("SCIFFRX")
    8871                      .dwattr $C$DW$1077, DW_AT_TI_symbol_name("_SCIFFRX")
    8872                      .dwattr $C$DW$1077, DW_AT_data_member_location[DW_OP_plus_uconst 0xb]
    8873                      .dwattr $C$DW$1077, DW_AT_accessibility(DW_ACCESS_public)
    8874              
TMS320C2000 Assembler PC v15.12.3 Sun Oct 30 14:01:37 2016

Tools Copyright (c) 1996-2015 Texas Instruments Incorporated
C:\Users\MaCHaDo\AppData\Local\Temp\0057210                          PAGE  168

    8875              $C$DW$1078      .dwtag  DW_TAG_member
    8876                      .dwattr $C$DW$1078, DW_AT_type(*$C$DW$T$23)
    8877                      .dwattr $C$DW$1078, DW_AT_name("SCIFFCT")
    8878                      .dwattr $C$DW$1078, DW_AT_TI_symbol_name("_SCIFFCT")
    8879                      .dwattr $C$DW$1078, DW_AT_data_member_location[DW_OP_plus_uconst 0xc]
    8880                      .dwattr $C$DW$1078, DW_AT_accessibility(DW_ACCESS_public)
    8881              
    8882              $C$DW$1079      .dwtag  DW_TAG_member
    8883                      .dwattr $C$DW$1079, DW_AT_type(*$C$DW$T$26)
    8884                      .dwattr $C$DW$1079, DW_AT_name("rsvd_2")
    8885                      .dwattr $C$DW$1079, DW_AT_TI_symbol_name("_rsvd_2")
    8886                      .dwattr $C$DW$1079, DW_AT_data_member_location[DW_OP_plus_uconst 0xd]
    8887                      .dwattr $C$DW$1079, DW_AT_accessibility(DW_ACCESS_public)
    8888              
    8889              $C$DW$1080      .dwtag  DW_TAG_member
    8890                      .dwattr $C$DW$1080, DW_AT_type(*$C$DW$T$23)
    8891                      .dwattr $C$DW$1080, DW_AT_name("SCIPRI")
    8892                      .dwattr $C$DW$1080, DW_AT_TI_symbol_name("_SCIPRI")
    8893                      .dwattr $C$DW$1080, DW_AT_data_member_location[DW_OP_plus_uconst 0xf]
    8894                      .dwattr $C$DW$1080, DW_AT_accessibility(DW_ACCESS_public)
    8895              
    8896                      .dwendtag $C$DW$T$190
    8897              
    8898              $C$DW$T$152     .dwtag  DW_TAG_typedef
    8899                      .dwattr $C$DW$T$152, DW_AT_name("SCI_Obj")
    8900                      .dwattr $C$DW$T$152, DW_AT_type(*$C$DW$T$190)
    8901                      .dwattr $C$DW$T$152, DW_AT_language(DW_LANG_C)
    8902              
    8903              $C$DW$T$150     .dwtag  DW_TAG_pointer_type
    8904                      .dwattr $C$DW$T$150, DW_AT_type(*$C$DW$T$190)
    8905                      .dwattr $C$DW$T$150, DW_AT_address_class(0x20)
    8906              
    8907              $C$DW$T$151     .dwtag  DW_TAG_typedef
    8908                      .dwattr $C$DW$T$151, DW_AT_name("SCI_Handle")
    8909                      .dwattr $C$DW$T$151, DW_AT_type(*$C$DW$T$150)
    8910                      .dwattr $C$DW$T$151, DW_AT_language(DW_LANG_C)
    8911              
    8912              
    8913              $C$DW$T$191     .dwtag  DW_TAG_structure_type
    8914                      .dwattr $C$DW$T$191, DW_AT_name("_SPI_Obj_")
    8915                      .dwattr $C$DW$T$191, DW_AT_byte_size(0x10)
    8916              $C$DW$1081      .dwtag  DW_TAG_member
    8917                      .dwattr $C$DW$1081, DW_AT_type(*$C$DW$T$23)
    8918                      .dwattr $C$DW$1081, DW_AT_name("SPICCR")
    8919                      .dwattr $C$DW$1081, DW_AT_TI_symbol_name("_SPICCR")
    8920                      .dwattr $C$DW$1081, DW_AT_data_member_location[DW_OP_plus_uconst 0x0]
    8921                      .dwattr $C$DW$1081, DW_AT_accessibility(DW_ACCESS_public)
    8922              
    8923              $C$DW$1082      .dwtag  DW_TAG_member
    8924                      .dwattr $C$DW$1082, DW_AT_type(*$C$DW$T$23)
    8925                      .dwattr $C$DW$1082, DW_AT_name("SPICTL")
    8926                      .dwattr $C$DW$1082, DW_AT_TI_symbol_name("_SPICTL")
    8927                      .dwattr $C$DW$1082, DW_AT_data_member_location[DW_OP_plus_uconst 0x1]
    8928                      .dwattr $C$DW$1082, DW_AT_accessibility(DW_ACCESS_public)
    8929              
TMS320C2000 Assembler PC v15.12.3 Sun Oct 30 14:01:37 2016

Tools Copyright (c) 1996-2015 Texas Instruments Incorporated
C:\Users\MaCHaDo\AppData\Local\Temp\0057210                          PAGE  169

    8930              $C$DW$1083      .dwtag  DW_TAG_member
    8931                      .dwattr $C$DW$1083, DW_AT_type(*$C$DW$T$23)
    8932                      .dwattr $C$DW$1083, DW_AT_name("SPIST")
    8933                      .dwattr $C$DW$1083, DW_AT_TI_symbol_name("_SPIST")
    8934                      .dwattr $C$DW$1083, DW_AT_data_member_location[DW_OP_plus_uconst 0x2]
    8935                      .dwattr $C$DW$1083, DW_AT_accessibility(DW_ACCESS_public)
    8936              
    8937              $C$DW$1084      .dwtag  DW_TAG_member
    8938                      .dwattr $C$DW$1084, DW_AT_type(*$C$DW$T$23)
    8939                      .dwattr $C$DW$1084, DW_AT_name("rsvd_1")
    8940                      .dwattr $C$DW$1084, DW_AT_TI_symbol_name("_rsvd_1")
    8941                      .dwattr $C$DW$1084, DW_AT_data_member_location[DW_OP_plus_uconst 0x3]
    8942                      .dwattr $C$DW$1084, DW_AT_accessibility(DW_ACCESS_public)
    8943              
    8944              $C$DW$1085      .dwtag  DW_TAG_member
    8945                      .dwattr $C$DW$1085, DW_AT_type(*$C$DW$T$23)
    8946                      .dwattr $C$DW$1085, DW_AT_name("SPIBRR")
    8947                      .dwattr $C$DW$1085, DW_AT_TI_symbol_name("_SPIBRR")
    8948                      .dwattr $C$DW$1085, DW_AT_data_member_location[DW_OP_plus_uconst 0x4]
    8949                      .dwattr $C$DW$1085, DW_AT_accessibility(DW_ACCESS_public)
    8950              
    8951              $C$DW$1086      .dwtag  DW_TAG_member
    8952                      .dwattr $C$DW$1086, DW_AT_type(*$C$DW$T$23)
    8953                      .dwattr $C$DW$1086, DW_AT_name("rsvd_2")
    8954                      .dwattr $C$DW$1086, DW_AT_TI_symbol_name("_rsvd_2")
    8955                      .dwattr $C$DW$1086, DW_AT_data_member_location[DW_OP_plus_uconst 0x5]
    8956                      .dwattr $C$DW$1086, DW_AT_accessibility(DW_ACCESS_public)
    8957              
    8958              $C$DW$1087      .dwtag  DW_TAG_member
    8959                      .dwattr $C$DW$1087, DW_AT_type(*$C$DW$T$23)
    8960                      .dwattr $C$DW$1087, DW_AT_name("SPIEMU")
    8961                      .dwattr $C$DW$1087, DW_AT_TI_symbol_name("_SPIEMU")
    8962                      .dwattr $C$DW$1087, DW_AT_data_member_location[DW_OP_plus_uconst 0x6]
    8963                      .dwattr $C$DW$1087, DW_AT_accessibility(DW_ACCESS_public)
    8964              
    8965              $C$DW$1088      .dwtag  DW_TAG_member
    8966                      .dwattr $C$DW$1088, DW_AT_type(*$C$DW$T$23)
    8967                      .dwattr $C$DW$1088, DW_AT_name("SPIRXBUF")
    8968                      .dwattr $C$DW$1088, DW_AT_TI_symbol_name("_SPIRXBUF")
    8969                      .dwattr $C$DW$1088, DW_AT_data_member_location[DW_OP_plus_uconst 0x7]
    8970                      .dwattr $C$DW$1088, DW_AT_accessibility(DW_ACCESS_public)
    8971              
    8972              $C$DW$1089      .dwtag  DW_TAG_member
    8973                      .dwattr $C$DW$1089, DW_AT_type(*$C$DW$T$23)
    8974                      .dwattr $C$DW$1089, DW_AT_name("SPITXBUF")
    8975                      .dwattr $C$DW$1089, DW_AT_TI_symbol_name("_SPITXBUF")
    8976                      .dwattr $C$DW$1089, DW_AT_data_member_location[DW_OP_plus_uconst 0x8]
    8977                      .dwattr $C$DW$1089, DW_AT_accessibility(DW_ACCESS_public)
    8978              
    8979              $C$DW$1090      .dwtag  DW_TAG_member
    8980                      .dwattr $C$DW$1090, DW_AT_type(*$C$DW$T$23)
    8981                      .dwattr $C$DW$1090, DW_AT_name("SPIDAT")
    8982                      .dwattr $C$DW$1090, DW_AT_TI_symbol_name("_SPIDAT")
    8983                      .dwattr $C$DW$1090, DW_AT_data_member_location[DW_OP_plus_uconst 0x9]
    8984                      .dwattr $C$DW$1090, DW_AT_accessibility(DW_ACCESS_public)
TMS320C2000 Assembler PC v15.12.3 Sun Oct 30 14:01:37 2016

Tools Copyright (c) 1996-2015 Texas Instruments Incorporated
C:\Users\MaCHaDo\AppData\Local\Temp\0057210                          PAGE  170

    8985              
    8986              $C$DW$1091      .dwtag  DW_TAG_member
    8987                      .dwattr $C$DW$1091, DW_AT_type(*$C$DW$T$23)
    8988                      .dwattr $C$DW$1091, DW_AT_name("SPIFFTX")
    8989                      .dwattr $C$DW$1091, DW_AT_TI_symbol_name("_SPIFFTX")
    8990                      .dwattr $C$DW$1091, DW_AT_data_member_location[DW_OP_plus_uconst 0xa]
    8991                      .dwattr $C$DW$1091, DW_AT_accessibility(DW_ACCESS_public)
    8992              
    8993              $C$DW$1092      .dwtag  DW_TAG_member
    8994                      .dwattr $C$DW$1092, DW_AT_type(*$C$DW$T$23)
    8995                      .dwattr $C$DW$1092, DW_AT_name("SPIFFRX")
    8996                      .dwattr $C$DW$1092, DW_AT_TI_symbol_name("_SPIFFRX")
    8997                      .dwattr $C$DW$1092, DW_AT_data_member_location[DW_OP_plus_uconst 0xb]
    8998                      .dwattr $C$DW$1092, DW_AT_accessibility(DW_ACCESS_public)
    8999              
    9000              $C$DW$1093      .dwtag  DW_TAG_member
    9001                      .dwattr $C$DW$1093, DW_AT_type(*$C$DW$T$23)
    9002                      .dwattr $C$DW$1093, DW_AT_name("SPIFFCT")
    9003                      .dwattr $C$DW$1093, DW_AT_TI_symbol_name("_SPIFFCT")
    9004                      .dwattr $C$DW$1093, DW_AT_data_member_location[DW_OP_plus_uconst 0xc]
    9005                      .dwattr $C$DW$1093, DW_AT_accessibility(DW_ACCESS_public)
    9006              
    9007              $C$DW$1094      .dwtag  DW_TAG_member
    9008                      .dwattr $C$DW$1094, DW_AT_type(*$C$DW$T$26)
    9009                      .dwattr $C$DW$1094, DW_AT_name("rsvd_3")
    9010                      .dwattr $C$DW$1094, DW_AT_TI_symbol_name("_rsvd_3")
    9011                      .dwattr $C$DW$1094, DW_AT_data_member_location[DW_OP_plus_uconst 0xd]
    9012                      .dwattr $C$DW$1094, DW_AT_accessibility(DW_ACCESS_public)
    9013              
    9014              $C$DW$1095      .dwtag  DW_TAG_member
    9015                      .dwattr $C$DW$1095, DW_AT_type(*$C$DW$T$23)
    9016                      .dwattr $C$DW$1095, DW_AT_name("SPIPRI")
    9017                      .dwattr $C$DW$1095, DW_AT_TI_symbol_name("_SPIPRI")
    9018                      .dwattr $C$DW$1095, DW_AT_data_member_location[DW_OP_plus_uconst 0xf]
    9019                      .dwattr $C$DW$1095, DW_AT_accessibility(DW_ACCESS_public)
    9020              
    9021                      .dwendtag $C$DW$T$191
    9022              
    9023              $C$DW$T$146     .dwtag  DW_TAG_typedef
    9024                      .dwattr $C$DW$T$146, DW_AT_name("SPI_Obj")
    9025                      .dwattr $C$DW$T$146, DW_AT_type(*$C$DW$T$191)
    9026                      .dwattr $C$DW$T$146, DW_AT_language(DW_LANG_C)
    9027              
    9028              $C$DW$T$74      .dwtag  DW_TAG_pointer_type
    9029                      .dwattr $C$DW$T$74, DW_AT_type(*$C$DW$T$191)
    9030                      .dwattr $C$DW$T$74, DW_AT_address_class(0x20)
    9031              
    9032              $C$DW$T$75      .dwtag  DW_TAG_typedef
    9033                      .dwattr $C$DW$T$75, DW_AT_name("SPI_Handle")
    9034                      .dwattr $C$DW$T$75, DW_AT_type(*$C$DW$T$74)
    9035                      .dwattr $C$DW$T$75, DW_AT_language(DW_LANG_C)
    9036              
    9037              
    9038              $C$DW$T$192     .dwtag  DW_TAG_structure_type
    9039                      .dwattr $C$DW$T$192, DW_AT_name("_SVGEN_Obj_")
TMS320C2000 Assembler PC v15.12.3 Sun Oct 30 14:01:37 2016

Tools Copyright (c) 1996-2015 Texas Instruments Incorporated
C:\Users\MaCHaDo\AppData\Local\Temp\0057210                          PAGE  171

    9040                      .dwattr $C$DW$T$192, DW_AT_byte_size(0x02)
    9041              $C$DW$1096      .dwtag  DW_TAG_member
    9042                      .dwattr $C$DW$1096, DW_AT_type(*$C$DW$T$31)
    9043                      .dwattr $C$DW$1096, DW_AT_name("maxModulation")
    9044                      .dwattr $C$DW$1096, DW_AT_TI_symbol_name("_maxModulation")
    9045                      .dwattr $C$DW$1096, DW_AT_data_member_location[DW_OP_plus_uconst 0x0]
    9046                      .dwattr $C$DW$1096, DW_AT_accessibility(DW_ACCESS_public)
    9047              
    9048                      .dwendtag $C$DW$T$192
    9049              
    9050              $C$DW$T$58      .dwtag  DW_TAG_typedef
    9051                      .dwattr $C$DW$T$58, DW_AT_name("SVGEN_Obj")
    9052                      .dwattr $C$DW$T$58, DW_AT_type(*$C$DW$T$192)
    9053                      .dwattr $C$DW$T$58, DW_AT_language(DW_LANG_C)
    9054              
    9055              $C$DW$T$56      .dwtag  DW_TAG_pointer_type
    9056                      .dwattr $C$DW$T$56, DW_AT_type(*$C$DW$T$192)
    9057                      .dwattr $C$DW$T$56, DW_AT_address_class(0x20)
    9058              
    9059              $C$DW$T$57      .dwtag  DW_TAG_typedef
    9060                      .dwattr $C$DW$T$57, DW_AT_name("SVGEN_Handle")
    9061                      .dwattr $C$DW$T$57, DW_AT_type(*$C$DW$T$56)
    9062                      .dwattr $C$DW$T$57, DW_AT_language(DW_LANG_C)
    9063              
    9064              
    9065              $C$DW$T$193     .dwtag  DW_TAG_structure_type
    9066                      .dwattr $C$DW$T$193, DW_AT_name("_TIMER_Obj_")
    9067                      .dwattr $C$DW$T$193, DW_AT_byte_size(0x08)
    9068              $C$DW$1097      .dwtag  DW_TAG_member
    9069                      .dwattr $C$DW$1097, DW_AT_type(*$C$DW$T$110)
    9070                      .dwattr $C$DW$1097, DW_AT_name("TIM")
    9071                      .dwattr $C$DW$1097, DW_AT_TI_symbol_name("_TIM")
    9072                      .dwattr $C$DW$1097, DW_AT_data_member_location[DW_OP_plus_uconst 0x0]
    9073                      .dwattr $C$DW$1097, DW_AT_accessibility(DW_ACCESS_public)
    9074              
    9075              $C$DW$1098      .dwtag  DW_TAG_member
    9076                      .dwattr $C$DW$1098, DW_AT_type(*$C$DW$T$110)
    9077                      .dwattr $C$DW$1098, DW_AT_name("PRD")
    9078                      .dwattr $C$DW$1098, DW_AT_TI_symbol_name("_PRD")
    9079                      .dwattr $C$DW$1098, DW_AT_data_member_location[DW_OP_plus_uconst 0x2]
    9080                      .dwattr $C$DW$1098, DW_AT_accessibility(DW_ACCESS_public)
    9081              
    9082              $C$DW$1099      .dwtag  DW_TAG_member
    9083                      .dwattr $C$DW$1099, DW_AT_type(*$C$DW$T$23)
    9084                      .dwattr $C$DW$1099, DW_AT_name("TCR")
    9085                      .dwattr $C$DW$1099, DW_AT_TI_symbol_name("_TCR")
    9086                      .dwattr $C$DW$1099, DW_AT_data_member_location[DW_OP_plus_uconst 0x4]
    9087                      .dwattr $C$DW$1099, DW_AT_accessibility(DW_ACCESS_public)
    9088              
    9089              $C$DW$1100      .dwtag  DW_TAG_member
    9090                      .dwattr $C$DW$1100, DW_AT_type(*$C$DW$T$23)
    9091                      .dwattr $C$DW$1100, DW_AT_name("resvd_1")
    9092                      .dwattr $C$DW$1100, DW_AT_TI_symbol_name("_resvd_1")
    9093                      .dwattr $C$DW$1100, DW_AT_data_member_location[DW_OP_plus_uconst 0x5]
    9094                      .dwattr $C$DW$1100, DW_AT_accessibility(DW_ACCESS_public)
TMS320C2000 Assembler PC v15.12.3 Sun Oct 30 14:01:37 2016

Tools Copyright (c) 1996-2015 Texas Instruments Incorporated
C:\Users\MaCHaDo\AppData\Local\Temp\0057210                          PAGE  172

    9095              
    9096              $C$DW$1101      .dwtag  DW_TAG_member
    9097                      .dwattr $C$DW$1101, DW_AT_type(*$C$DW$T$110)
    9098                      .dwattr $C$DW$1101, DW_AT_name("TPR")
    9099                      .dwattr $C$DW$1101, DW_AT_TI_symbol_name("_TPR")
    9100                      .dwattr $C$DW$1101, DW_AT_data_member_location[DW_OP_plus_uconst 0x6]
    9101                      .dwattr $C$DW$1101, DW_AT_accessibility(DW_ACCESS_public)
    9102              
    9103                      .dwendtag $C$DW$T$193
    9104              
    9105              $C$DW$T$140     .dwtag  DW_TAG_pointer_type
    9106                      .dwattr $C$DW$T$140, DW_AT_type(*$C$DW$T$193)
    9107                      .dwattr $C$DW$T$140, DW_AT_address_class(0x20)
    9108              
    9109              $C$DW$T$141     .dwtag  DW_TAG_typedef
    9110                      .dwattr $C$DW$T$141, DW_AT_name("TIMER_Handle")
    9111                      .dwattr $C$DW$T$141, DW_AT_type(*$C$DW$T$140)
    9112                      .dwattr $C$DW$T$141, DW_AT_language(DW_LANG_C)
    9113              
    9114              
    9115              $C$DW$T$142     .dwtag  DW_TAG_array_type
    9116                      .dwattr $C$DW$T$142, DW_AT_type(*$C$DW$T$141)
    9117                      .dwattr $C$DW$T$142, DW_AT_language(DW_LANG_C)
    9118                      .dwattr $C$DW$T$142, DW_AT_byte_size(0x06)
    9119              $C$DW$1102      .dwtag  DW_TAG_subrange_type
    9120                      .dwattr $C$DW$1102, DW_AT_upper_bound(0x02)
    9121              
    9122                      .dwendtag $C$DW$T$142
    9123              
    9124              
    9125              $C$DW$T$194     .dwtag  DW_TAG_structure_type
    9126                      .dwattr $C$DW$T$194, DW_AT_name("_TRAJ_Obj_")
    9127                      .dwattr $C$DW$T$194, DW_AT_byte_size(0x0a)
    9128              $C$DW$1103      .dwtag  DW_TAG_member
    9129                      .dwattr $C$DW$1103, DW_AT_type(*$C$DW$T$31)
    9130                      .dwattr $C$DW$1103, DW_AT_name("targetValue")
    9131                      .dwattr $C$DW$1103, DW_AT_TI_symbol_name("_targetValue")
    9132                      .dwattr $C$DW$1103, DW_AT_data_member_location[DW_OP_plus_uconst 0x0]
    9133                      .dwattr $C$DW$1103, DW_AT_accessibility(DW_ACCESS_public)
    9134              
    9135              $C$DW$1104      .dwtag  DW_TAG_member
    9136                      .dwattr $C$DW$1104, DW_AT_type(*$C$DW$T$31)
    9137                      .dwattr $C$DW$1104, DW_AT_name("intValue")
    9138                      .dwattr $C$DW$1104, DW_AT_TI_symbol_name("_intValue")
    9139                      .dwattr $C$DW$1104, DW_AT_data_member_location[DW_OP_plus_uconst 0x2]
    9140                      .dwattr $C$DW$1104, DW_AT_accessibility(DW_ACCESS_public)
    9141              
    9142              $C$DW$1105      .dwtag  DW_TAG_member
    9143                      .dwattr $C$DW$1105, DW_AT_type(*$C$DW$T$31)
    9144                      .dwattr $C$DW$1105, DW_AT_name("minValue")
    9145                      .dwattr $C$DW$1105, DW_AT_TI_symbol_name("_minValue")
    9146                      .dwattr $C$DW$1105, DW_AT_data_member_location[DW_OP_plus_uconst 0x4]
    9147                      .dwattr $C$DW$1105, DW_AT_accessibility(DW_ACCESS_public)
    9148              
    9149              $C$DW$1106      .dwtag  DW_TAG_member
TMS320C2000 Assembler PC v15.12.3 Sun Oct 30 14:01:37 2016

Tools Copyright (c) 1996-2015 Texas Instruments Incorporated
C:\Users\MaCHaDo\AppData\Local\Temp\0057210                          PAGE  173

    9150                      .dwattr $C$DW$1106, DW_AT_type(*$C$DW$T$31)
    9151                      .dwattr $C$DW$1106, DW_AT_name("maxValue")
    9152                      .dwattr $C$DW$1106, DW_AT_TI_symbol_name("_maxValue")
    9153                      .dwattr $C$DW$1106, DW_AT_data_member_location[DW_OP_plus_uconst 0x6]
    9154                      .dwattr $C$DW$1106, DW_AT_accessibility(DW_ACCESS_public)
    9155              
    9156              $C$DW$1107      .dwtag  DW_TAG_member
    9157                      .dwattr $C$DW$1107, DW_AT_type(*$C$DW$T$31)
    9158                      .dwattr $C$DW$1107, DW_AT_name("maxDelta")
    9159                      .dwattr $C$DW$1107, DW_AT_TI_symbol_name("_maxDelta")
    9160                      .dwattr $C$DW$1107, DW_AT_data_member_location[DW_OP_plus_uconst 0x8]
    9161                      .dwattr $C$DW$1107, DW_AT_accessibility(DW_ACCESS_public)
    9162              
    9163                      .dwendtag $C$DW$T$194
    9164              
    9165              $C$DW$T$61      .dwtag  DW_TAG_typedef
    9166                      .dwattr $C$DW$T$61, DW_AT_name("TRAJ_Obj")
    9167                      .dwattr $C$DW$T$61, DW_AT_type(*$C$DW$T$194)
    9168                      .dwattr $C$DW$T$61, DW_AT_language(DW_LANG_C)
    9169              
    9170              $C$DW$T$59      .dwtag  DW_TAG_pointer_type
    9171                      .dwattr $C$DW$T$59, DW_AT_type(*$C$DW$T$194)
    9172                      .dwattr $C$DW$T$59, DW_AT_address_class(0x20)
    9173              
    9174              $C$DW$T$60      .dwtag  DW_TAG_typedef
    9175                      .dwattr $C$DW$T$60, DW_AT_name("TRAJ_Handle")
    9176                      .dwattr $C$DW$T$60, DW_AT_type(*$C$DW$T$59)
    9177                      .dwattr $C$DW$T$60, DW_AT_language(DW_LANG_C)
    9178              
    9179              
    9180              $C$DW$T$198     .dwtag  DW_TAG_structure_type
    9181                      .dwattr $C$DW$T$198, DW_AT_name("_USER_Params_")
    9182                      .dwattr $C$DW$T$198, DW_AT_byte_size(0xb0)
    9183              $C$DW$1108      .dwtag  DW_TAG_member
    9184                      .dwattr $C$DW$1108, DW_AT_type(*$C$DW$T$67)
    9185                      .dwattr $C$DW$1108, DW_AT_name("iqFullScaleCurrent_A")
    9186                      .dwattr $C$DW$1108, DW_AT_TI_symbol_name("_iqFullScaleCurrent_A")
    9187                      .dwattr $C$DW$1108, DW_AT_data_member_location[DW_OP_plus_uconst 0x0]
    9188                      .dwattr $C$DW$1108, DW_AT_accessibility(DW_ACCESS_public)
    9189              
    9190              $C$DW$1109      .dwtag  DW_TAG_member
    9191                      .dwattr $C$DW$1109, DW_AT_type(*$C$DW$T$67)
    9192                      .dwattr $C$DW$1109, DW_AT_name("iqFullScaleVoltage_V")
    9193                      .dwattr $C$DW$1109, DW_AT_TI_symbol_name("_iqFullScaleVoltage_V")
    9194                      .dwattr $C$DW$1109, DW_AT_data_member_location[DW_OP_plus_uconst 0x2]
    9195                      .dwattr $C$DW$1109, DW_AT_accessibility(DW_ACCESS_public)
    9196              
    9197              $C$DW$1110      .dwtag  DW_TAG_member
    9198                      .dwattr $C$DW$1110, DW_AT_type(*$C$DW$T$67)
    9199                      .dwattr $C$DW$1110, DW_AT_name("iqFullScaleFreq_Hz")
    9200                      .dwattr $C$DW$1110, DW_AT_TI_symbol_name("_iqFullScaleFreq_Hz")
    9201                      .dwattr $C$DW$1110, DW_AT_data_member_location[DW_OP_plus_uconst 0x4]
    9202                      .dwattr $C$DW$1110, DW_AT_accessibility(DW_ACCESS_public)
    9203              
    9204              $C$DW$1111      .dwtag  DW_TAG_member
TMS320C2000 Assembler PC v15.12.3 Sun Oct 30 14:01:37 2016

Tools Copyright (c) 1996-2015 Texas Instruments Incorporated
C:\Users\MaCHaDo\AppData\Local\Temp\0057210                          PAGE  174

    9205                      .dwattr $C$DW$1111, DW_AT_type(*$C$DW$T$66)
    9206                      .dwattr $C$DW$1111, DW_AT_name("numIsrTicksPerCtrlTick")
    9207                      .dwattr $C$DW$1111, DW_AT_TI_symbol_name("_numIsrTicksPerCtrlTick")
    9208                      .dwattr $C$DW$1111, DW_AT_data_member_location[DW_OP_plus_uconst 0x6]
    9209                      .dwattr $C$DW$1111, DW_AT_accessibility(DW_ACCESS_public)
    9210              
    9211              $C$DW$1112      .dwtag  DW_TAG_member
    9212                      .dwattr $C$DW$1112, DW_AT_type(*$C$DW$T$66)
    9213                      .dwattr $C$DW$1112, DW_AT_name("numCtrlTicksPerCurrentTick")
    9214                      .dwattr $C$DW$1112, DW_AT_TI_symbol_name("_numCtrlTicksPerCurrentTick")
    9215                      .dwattr $C$DW$1112, DW_AT_data_member_location[DW_OP_plus_uconst 0x7]
    9216                      .dwattr $C$DW$1112, DW_AT_accessibility(DW_ACCESS_public)
    9217              
    9218              $C$DW$1113      .dwtag  DW_TAG_member
    9219                      .dwattr $C$DW$1113, DW_AT_type(*$C$DW$T$66)
    9220                      .dwattr $C$DW$1113, DW_AT_name("numCtrlTicksPerEstTick")
    9221                      .dwattr $C$DW$1113, DW_AT_TI_symbol_name("_numCtrlTicksPerEstTick")
    9222                      .dwattr $C$DW$1113, DW_AT_data_member_location[DW_OP_plus_uconst 0x8]
    9223                      .dwattr $C$DW$1113, DW_AT_accessibility(DW_ACCESS_public)
    9224              
    9225              $C$DW$1114      .dwtag  DW_TAG_member
    9226                      .dwattr $C$DW$1114, DW_AT_type(*$C$DW$T$66)
    9227                      .dwattr $C$DW$1114, DW_AT_name("numCtrlTicksPerSpeedTick")
    9228                      .dwattr $C$DW$1114, DW_AT_TI_symbol_name("_numCtrlTicksPerSpeedTick")
    9229                      .dwattr $C$DW$1114, DW_AT_data_member_location[DW_OP_plus_uconst 0x9]
    9230                      .dwattr $C$DW$1114, DW_AT_accessibility(DW_ACCESS_public)
    9231              
    9232              $C$DW$1115      .dwtag  DW_TAG_member
    9233                      .dwattr $C$DW$1115, DW_AT_type(*$C$DW$T$66)
    9234                      .dwattr $C$DW$1115, DW_AT_name("numCtrlTicksPerTrajTick")
    9235                      .dwattr $C$DW$1115, DW_AT_TI_symbol_name("_numCtrlTicksPerTrajTick")
    9236                      .dwattr $C$DW$1115, DW_AT_data_member_location[DW_OP_plus_uconst 0xa]
    9237                      .dwattr $C$DW$1115, DW_AT_accessibility(DW_ACCESS_public)
    9238              
    9239              $C$DW$1116      .dwtag  DW_TAG_member
    9240                      .dwattr $C$DW$1116, DW_AT_type(*$C$DW$T$32)
    9241                      .dwattr $C$DW$1116, DW_AT_name("numCurrentSensors")
    9242                      .dwattr $C$DW$1116, DW_AT_TI_symbol_name("_numCurrentSensors")
    9243                      .dwattr $C$DW$1116, DW_AT_data_member_location[DW_OP_plus_uconst 0xb]
    9244                      .dwattr $C$DW$1116, DW_AT_accessibility(DW_ACCESS_public)
    9245              
    9246              $C$DW$1117      .dwtag  DW_TAG_member
    9247                      .dwattr $C$DW$1117, DW_AT_type(*$C$DW$T$32)
    9248                      .dwattr $C$DW$1117, DW_AT_name("numVoltageSensors")
    9249                      .dwattr $C$DW$1117, DW_AT_TI_symbol_name("_numVoltageSensors")
    9250                      .dwattr $C$DW$1117, DW_AT_data_member_location[DW_OP_plus_uconst 0xc]
    9251                      .dwattr $C$DW$1117, DW_AT_accessibility(DW_ACCESS_public)
    9252              
    9253              $C$DW$1118      .dwtag  DW_TAG_member
    9254                      .dwattr $C$DW$1118, DW_AT_type(*$C$DW$T$67)
    9255                      .dwattr $C$DW$1118, DW_AT_name("offsetPole_rps")
    9256                      .dwattr $C$DW$1118, DW_AT_TI_symbol_name("_offsetPole_rps")
    9257                      .dwattr $C$DW$1118, DW_AT_data_member_location[DW_OP_plus_uconst 0xe]
    9258                      .dwattr $C$DW$1118, DW_AT_accessibility(DW_ACCESS_public)
    9259              
TMS320C2000 Assembler PC v15.12.3 Sun Oct 30 14:01:37 2016

Tools Copyright (c) 1996-2015 Texas Instruments Incorporated
C:\Users\MaCHaDo\AppData\Local\Temp\0057210                          PAGE  175

    9260              $C$DW$1119      .dwtag  DW_TAG_member
    9261                      .dwattr $C$DW$1119, DW_AT_type(*$C$DW$T$67)
    9262                      .dwattr $C$DW$1119, DW_AT_name("fluxPole_rps")
    9263                      .dwattr $C$DW$1119, DW_AT_TI_symbol_name("_fluxPole_rps")
    9264                      .dwattr $C$DW$1119, DW_AT_data_member_location[DW_OP_plus_uconst 0x10]
    9265                      .dwattr $C$DW$1119, DW_AT_accessibility(DW_ACCESS_public)
    9266              
    9267              $C$DW$1120      .dwtag  DW_TAG_member
    9268                      .dwattr $C$DW$1120, DW_AT_type(*$C$DW$T$67)
    9269                      .dwattr $C$DW$1120, DW_AT_name("zeroSpeedLimit")
    9270                      .dwattr $C$DW$1120, DW_AT_TI_symbol_name("_zeroSpeedLimit")
    9271                      .dwattr $C$DW$1120, DW_AT_data_member_location[DW_OP_plus_uconst 0x12]
    9272                      .dwattr $C$DW$1120, DW_AT_accessibility(DW_ACCESS_public)
    9273              
    9274              $C$DW$1121      .dwtag  DW_TAG_member
    9275                      .dwattr $C$DW$1121, DW_AT_type(*$C$DW$T$67)
    9276                      .dwattr $C$DW$1121, DW_AT_name("forceAngleFreq_Hz")
    9277                      .dwattr $C$DW$1121, DW_AT_TI_symbol_name("_forceAngleFreq_Hz")
    9278                      .dwattr $C$DW$1121, DW_AT_data_member_location[DW_OP_plus_uconst 0x14]
    9279                      .dwattr $C$DW$1121, DW_AT_accessibility(DW_ACCESS_public)
    9280              
    9281              $C$DW$1122      .dwtag  DW_TAG_member
    9282                      .dwattr $C$DW$1122, DW_AT_type(*$C$DW$T$67)
    9283                      .dwattr $C$DW$1122, DW_AT_name("maxAccel_Hzps")
    9284                      .dwattr $C$DW$1122, DW_AT_TI_symbol_name("_maxAccel_Hzps")
    9285                      .dwattr $C$DW$1122, DW_AT_data_member_location[DW_OP_plus_uconst 0x16]
    9286                      .dwattr $C$DW$1122, DW_AT_accessibility(DW_ACCESS_public)
    9287              
    9288              $C$DW$1123      .dwtag  DW_TAG_member
    9289                      .dwattr $C$DW$1123, DW_AT_type(*$C$DW$T$67)
    9290                      .dwattr $C$DW$1123, DW_AT_name("maxAccel_est_Hzps")
    9291                      .dwattr $C$DW$1123, DW_AT_TI_symbol_name("_maxAccel_est_Hzps")
    9292                      .dwattr $C$DW$1123, DW_AT_data_member_location[DW_OP_plus_uconst 0x18]
    9293                      .dwattr $C$DW$1123, DW_AT_accessibility(DW_ACCESS_public)
    9294              
    9295              $C$DW$1124      .dwtag  DW_TAG_member
    9296                      .dwattr $C$DW$1124, DW_AT_type(*$C$DW$T$67)
    9297                      .dwattr $C$DW$1124, DW_AT_name("directionPole_rps")
    9298                      .dwattr $C$DW$1124, DW_AT_TI_symbol_name("_directionPole_rps")
    9299                      .dwattr $C$DW$1124, DW_AT_data_member_location[DW_OP_plus_uconst 0x1a]
    9300                      .dwattr $C$DW$1124, DW_AT_accessibility(DW_ACCESS_public)
    9301              
    9302              $C$DW$1125      .dwtag  DW_TAG_member
    9303                      .dwattr $C$DW$1125, DW_AT_type(*$C$DW$T$67)
    9304                      .dwattr $C$DW$1125, DW_AT_name("speedPole_rps")
    9305                      .dwattr $C$DW$1125, DW_AT_TI_symbol_name("_speedPole_rps")
    9306                      .dwattr $C$DW$1125, DW_AT_data_member_location[DW_OP_plus_uconst 0x1c]
    9307                      .dwattr $C$DW$1125, DW_AT_accessibility(DW_ACCESS_public)
    9308              
    9309              $C$DW$1126      .dwtag  DW_TAG_member
    9310                      .dwattr $C$DW$1126, DW_AT_type(*$C$DW$T$67)
    9311                      .dwattr $C$DW$1126, DW_AT_name("dcBusPole_rps")
    9312                      .dwattr $C$DW$1126, DW_AT_TI_symbol_name("_dcBusPole_rps")
    9313                      .dwattr $C$DW$1126, DW_AT_data_member_location[DW_OP_plus_uconst 0x1e]
    9314                      .dwattr $C$DW$1126, DW_AT_accessibility(DW_ACCESS_public)
TMS320C2000 Assembler PC v15.12.3 Sun Oct 30 14:01:37 2016

Tools Copyright (c) 1996-2015 Texas Instruments Incorporated
C:\Users\MaCHaDo\AppData\Local\Temp\0057210                          PAGE  176

    9315              
    9316              $C$DW$1127      .dwtag  DW_TAG_member
    9317                      .dwattr $C$DW$1127, DW_AT_type(*$C$DW$T$67)
    9318                      .dwattr $C$DW$1127, DW_AT_name("fluxFraction")
    9319                      .dwattr $C$DW$1127, DW_AT_TI_symbol_name("_fluxFraction")
    9320                      .dwattr $C$DW$1127, DW_AT_data_member_location[DW_OP_plus_uconst 0x20]
    9321                      .dwattr $C$DW$1127, DW_AT_accessibility(DW_ACCESS_public)
    9322              
    9323              $C$DW$1128      .dwtag  DW_TAG_member
    9324                      .dwattr $C$DW$1128, DW_AT_type(*$C$DW$T$67)
    9325                      .dwattr $C$DW$1128, DW_AT_name("indEst_speedMaxFraction")
    9326                      .dwattr $C$DW$1128, DW_AT_TI_symbol_name("_indEst_speedMaxFraction")
    9327                      .dwattr $C$DW$1128, DW_AT_data_member_location[DW_OP_plus_uconst 0x22]
    9328                      .dwattr $C$DW$1128, DW_AT_accessibility(DW_ACCESS_public)
    9329              
    9330              $C$DW$1129      .dwtag  DW_TAG_member
    9331                      .dwattr $C$DW$1129, DW_AT_type(*$C$DW$T$67)
    9332                      .dwattr $C$DW$1129, DW_AT_name("powerWarpGain")
    9333                      .dwattr $C$DW$1129, DW_AT_TI_symbol_name("_powerWarpGain")
    9334                      .dwattr $C$DW$1129, DW_AT_data_member_location[DW_OP_plus_uconst 0x24]
    9335                      .dwattr $C$DW$1129, DW_AT_accessibility(DW_ACCESS_public)
    9336              
    9337              $C$DW$1130      .dwtag  DW_TAG_member
    9338                      .dwattr $C$DW$1130, DW_AT_type(*$C$DW$T$66)
    9339                      .dwattr $C$DW$1130, DW_AT_name("systemFreq_MHz")
    9340                      .dwattr $C$DW$1130, DW_AT_TI_symbol_name("_systemFreq_MHz")
    9341                      .dwattr $C$DW$1130, DW_AT_data_member_location[DW_OP_plus_uconst 0x26]
    9342                      .dwattr $C$DW$1130, DW_AT_accessibility(DW_ACCESS_public)
    9343              
    9344              $C$DW$1131      .dwtag  DW_TAG_member
    9345                      .dwattr $C$DW$1131, DW_AT_type(*$C$DW$T$67)
    9346                      .dwattr $C$DW$1131, DW_AT_name("pwmPeriod_usec")
    9347                      .dwattr $C$DW$1131, DW_AT_TI_symbol_name("_pwmPeriod_usec")
    9348                      .dwattr $C$DW$1131, DW_AT_data_member_location[DW_OP_plus_uconst 0x28]
    9349                      .dwattr $C$DW$1131, DW_AT_accessibility(DW_ACCESS_public)
    9350              
    9351              $C$DW$1132      .dwtag  DW_TAG_member
    9352                      .dwattr $C$DW$1132, DW_AT_type(*$C$DW$T$67)
    9353                      .dwattr $C$DW$1132, DW_AT_name("voltage_sf")
    9354                      .dwattr $C$DW$1132, DW_AT_TI_symbol_name("_voltage_sf")
    9355                      .dwattr $C$DW$1132, DW_AT_data_member_location[DW_OP_plus_uconst 0x2a]
    9356                      .dwattr $C$DW$1132, DW_AT_accessibility(DW_ACCESS_public)
    9357              
    9358              $C$DW$1133      .dwtag  DW_TAG_member
    9359                      .dwattr $C$DW$1133, DW_AT_type(*$C$DW$T$67)
    9360                      .dwattr $C$DW$1133, DW_AT_name("current_sf")
    9361                      .dwattr $C$DW$1133, DW_AT_TI_symbol_name("_current_sf")
    9362                      .dwattr $C$DW$1133, DW_AT_data_member_location[DW_OP_plus_uconst 0x2c]
    9363                      .dwattr $C$DW$1133, DW_AT_accessibility(DW_ACCESS_public)
    9364              
    9365              $C$DW$1134      .dwtag  DW_TAG_member
    9366                      .dwattr $C$DW$1134, DW_AT_type(*$C$DW$T$67)
    9367                      .dwattr $C$DW$1134, DW_AT_name("voltageFilterPole_rps")
    9368                      .dwattr $C$DW$1134, DW_AT_TI_symbol_name("_voltageFilterPole_rps")
    9369                      .dwattr $C$DW$1134, DW_AT_data_member_location[DW_OP_plus_uconst 0x2e]
TMS320C2000 Assembler PC v15.12.3 Sun Oct 30 14:01:37 2016

Tools Copyright (c) 1996-2015 Texas Instruments Incorporated
C:\Users\MaCHaDo\AppData\Local\Temp\0057210                          PAGE  177

    9370                      .dwattr $C$DW$1134, DW_AT_accessibility(DW_ACCESS_public)
    9371              
    9372              $C$DW$1135      .dwtag  DW_TAG_member
    9373                      .dwattr $C$DW$1135, DW_AT_type(*$C$DW$T$67)
    9374                      .dwattr $C$DW$1135, DW_AT_name("maxVsMag_pu")
    9375                      .dwattr $C$DW$1135, DW_AT_TI_symbol_name("_maxVsMag_pu")
    9376                      .dwattr $C$DW$1135, DW_AT_data_member_location[DW_OP_plus_uconst 0x30]
    9377                      .dwattr $C$DW$1135, DW_AT_accessibility(DW_ACCESS_public)
    9378              
    9379              $C$DW$1136      .dwtag  DW_TAG_member
    9380                      .dwattr $C$DW$1136, DW_AT_type(*$C$DW$T$67)
    9381                      .dwattr $C$DW$1136, DW_AT_name("estKappa")
    9382                      .dwattr $C$DW$1136, DW_AT_TI_symbol_name("_estKappa")
    9383                      .dwattr $C$DW$1136, DW_AT_data_member_location[DW_OP_plus_uconst 0x32]
    9384                      .dwattr $C$DW$1136, DW_AT_accessibility(DW_ACCESS_public)
    9385              
    9386              $C$DW$1137      .dwtag  DW_TAG_member
    9387                      .dwattr $C$DW$1137, DW_AT_type(*$C$DW$T$161)
    9388                      .dwattr $C$DW$1137, DW_AT_name("motor_type")
    9389                      .dwattr $C$DW$1137, DW_AT_TI_symbol_name("_motor_type")
    9390                      .dwattr $C$DW$1137, DW_AT_data_member_location[DW_OP_plus_uconst 0x34]
    9391                      .dwattr $C$DW$1137, DW_AT_accessibility(DW_ACCESS_public)
    9392              
    9393              $C$DW$1138      .dwtag  DW_TAG_member
    9394                      .dwattr $C$DW$1138, DW_AT_type(*$C$DW$T$66)
    9395                      .dwattr $C$DW$1138, DW_AT_name("motor_numPolePairs")
    9396                      .dwattr $C$DW$1138, DW_AT_TI_symbol_name("_motor_numPolePairs")
    9397                      .dwattr $C$DW$1138, DW_AT_data_member_location[DW_OP_plus_uconst 0x35]
    9398                      .dwattr $C$DW$1138, DW_AT_accessibility(DW_ACCESS_public)
    9399              
    9400              $C$DW$1139      .dwtag  DW_TAG_member
    9401                      .dwattr $C$DW$1139, DW_AT_type(*$C$DW$T$67)
    9402                      .dwattr $C$DW$1139, DW_AT_name("motor_ratedFlux")
    9403                      .dwattr $C$DW$1139, DW_AT_TI_symbol_name("_motor_ratedFlux")
    9404                      .dwattr $C$DW$1139, DW_AT_data_member_location[DW_OP_plus_uconst 0x36]
    9405                      .dwattr $C$DW$1139, DW_AT_accessibility(DW_ACCESS_public)
    9406              
    9407              $C$DW$1140      .dwtag  DW_TAG_member
    9408                      .dwattr $C$DW$1140, DW_AT_type(*$C$DW$T$67)
    9409                      .dwattr $C$DW$1140, DW_AT_name("motor_Rr")
    9410                      .dwattr $C$DW$1140, DW_AT_TI_symbol_name("_motor_Rr")
    9411                      .dwattr $C$DW$1140, DW_AT_data_member_location[DW_OP_plus_uconst 0x38]
    9412                      .dwattr $C$DW$1140, DW_AT_accessibility(DW_ACCESS_public)
    9413              
    9414              $C$DW$1141      .dwtag  DW_TAG_member
    9415                      .dwattr $C$DW$1141, DW_AT_type(*$C$DW$T$67)
    9416                      .dwattr $C$DW$1141, DW_AT_name("motor_Rs")
    9417                      .dwattr $C$DW$1141, DW_AT_TI_symbol_name("_motor_Rs")
    9418                      .dwattr $C$DW$1141, DW_AT_data_member_location[DW_OP_plus_uconst 0x3a]
    9419                      .dwattr $C$DW$1141, DW_AT_accessibility(DW_ACCESS_public)
    9420              
    9421              $C$DW$1142      .dwtag  DW_TAG_member
    9422                      .dwattr $C$DW$1142, DW_AT_type(*$C$DW$T$67)
    9423                      .dwattr $C$DW$1142, DW_AT_name("motor_Ls_d")
    9424                      .dwattr $C$DW$1142, DW_AT_TI_symbol_name("_motor_Ls_d")
TMS320C2000 Assembler PC v15.12.3 Sun Oct 30 14:01:37 2016

Tools Copyright (c) 1996-2015 Texas Instruments Incorporated
C:\Users\MaCHaDo\AppData\Local\Temp\0057210                          PAGE  178

    9425                      .dwattr $C$DW$1142, DW_AT_data_member_location[DW_OP_plus_uconst 0x3c]
    9426                      .dwattr $C$DW$1142, DW_AT_accessibility(DW_ACCESS_public)
    9427              
    9428              $C$DW$1143      .dwtag  DW_TAG_member
    9429                      .dwattr $C$DW$1143, DW_AT_type(*$C$DW$T$67)
    9430                      .dwattr $C$DW$1143, DW_AT_name("motor_Ls_q")
    9431                      .dwattr $C$DW$1143, DW_AT_TI_symbol_name("_motor_Ls_q")
    9432                      .dwattr $C$DW$1143, DW_AT_data_member_location[DW_OP_plus_uconst 0x3e]
    9433                      .dwattr $C$DW$1143, DW_AT_accessibility(DW_ACCESS_public)
    9434              
    9435              $C$DW$1144      .dwtag  DW_TAG_member
    9436                      .dwattr $C$DW$1144, DW_AT_type(*$C$DW$T$67)
    9437                      .dwattr $C$DW$1144, DW_AT_name("maxCurrent")
    9438                      .dwattr $C$DW$1144, DW_AT_TI_symbol_name("_maxCurrent")
    9439                      .dwattr $C$DW$1144, DW_AT_data_member_location[DW_OP_plus_uconst 0x40]
    9440                      .dwattr $C$DW$1144, DW_AT_accessibility(DW_ACCESS_public)
    9441              
    9442              $C$DW$1145      .dwtag  DW_TAG_member
    9443                      .dwattr $C$DW$1145, DW_AT_type(*$C$DW$T$67)
    9444                      .dwattr $C$DW$1145, DW_AT_name("maxCurrent_resEst")
    9445                      .dwattr $C$DW$1145, DW_AT_TI_symbol_name("_maxCurrent_resEst")
    9446                      .dwattr $C$DW$1145, DW_AT_data_member_location[DW_OP_plus_uconst 0x42]
    9447                      .dwattr $C$DW$1145, DW_AT_accessibility(DW_ACCESS_public)
    9448              
    9449              $C$DW$1146      .dwtag  DW_TAG_member
    9450                      .dwattr $C$DW$1146, DW_AT_type(*$C$DW$T$67)
    9451                      .dwattr $C$DW$1146, DW_AT_name("maxCurrent_indEst")
    9452                      .dwattr $C$DW$1146, DW_AT_TI_symbol_name("_maxCurrent_indEst")
    9453                      .dwattr $C$DW$1146, DW_AT_data_member_location[DW_OP_plus_uconst 0x44]
    9454                      .dwattr $C$DW$1146, DW_AT_accessibility(DW_ACCESS_public)
    9455              
    9456              $C$DW$1147      .dwtag  DW_TAG_member
    9457                      .dwattr $C$DW$1147, DW_AT_type(*$C$DW$T$67)
    9458                      .dwattr $C$DW$1147, DW_AT_name("maxCurrentSlope")
    9459                      .dwattr $C$DW$1147, DW_AT_TI_symbol_name("_maxCurrentSlope")
    9460                      .dwattr $C$DW$1147, DW_AT_data_member_location[DW_OP_plus_uconst 0x46]
    9461                      .dwattr $C$DW$1147, DW_AT_accessibility(DW_ACCESS_public)
    9462              
    9463              $C$DW$1148      .dwtag  DW_TAG_member
    9464                      .dwattr $C$DW$1148, DW_AT_type(*$C$DW$T$67)
    9465                      .dwattr $C$DW$1148, DW_AT_name("maxCurrentSlope_powerWarp")
    9466                      .dwattr $C$DW$1148, DW_AT_TI_symbol_name("_maxCurrentSlope_powerWarp")
    9467                      .dwattr $C$DW$1148, DW_AT_data_member_location[DW_OP_plus_uconst 0x48]
    9468                      .dwattr $C$DW$1148, DW_AT_accessibility(DW_ACCESS_public)
    9469              
    9470              $C$DW$1149      .dwtag  DW_TAG_member
    9471                      .dwattr $C$DW$1149, DW_AT_type(*$C$DW$T$67)
    9472                      .dwattr $C$DW$1149, DW_AT_name("IdRated")
    9473                      .dwattr $C$DW$1149, DW_AT_TI_symbol_name("_IdRated")
    9474                      .dwattr $C$DW$1149, DW_AT_data_member_location[DW_OP_plus_uconst 0x4a]
    9475                      .dwattr $C$DW$1149, DW_AT_accessibility(DW_ACCESS_public)
    9476              
    9477              $C$DW$1150      .dwtag  DW_TAG_member
    9478                      .dwattr $C$DW$1150, DW_AT_type(*$C$DW$T$67)
    9479                      .dwattr $C$DW$1150, DW_AT_name("IdRatedFraction_indEst")
TMS320C2000 Assembler PC v15.12.3 Sun Oct 30 14:01:37 2016

Tools Copyright (c) 1996-2015 Texas Instruments Incorporated
C:\Users\MaCHaDo\AppData\Local\Temp\0057210                          PAGE  179

    9480                      .dwattr $C$DW$1150, DW_AT_TI_symbol_name("_IdRatedFraction_indEst")
    9481                      .dwattr $C$DW$1150, DW_AT_data_member_location[DW_OP_plus_uconst 0x4c]
    9482                      .dwattr $C$DW$1150, DW_AT_accessibility(DW_ACCESS_public)
    9483              
    9484              $C$DW$1151      .dwtag  DW_TAG_member
    9485                      .dwattr $C$DW$1151, DW_AT_type(*$C$DW$T$67)
    9486                      .dwattr $C$DW$1151, DW_AT_name("IdRatedFraction_ratedFlux")
    9487                      .dwattr $C$DW$1151, DW_AT_TI_symbol_name("_IdRatedFraction_ratedFlux")
    9488                      .dwattr $C$DW$1151, DW_AT_data_member_location[DW_OP_plus_uconst 0x4e]
    9489                      .dwattr $C$DW$1151, DW_AT_accessibility(DW_ACCESS_public)
    9490              
    9491              $C$DW$1152      .dwtag  DW_TAG_member
    9492                      .dwattr $C$DW$1152, DW_AT_type(*$C$DW$T$67)
    9493                      .dwattr $C$DW$1152, DW_AT_name("IdRated_delta")
    9494                      .dwattr $C$DW$1152, DW_AT_TI_symbol_name("_IdRated_delta")
    9495                      .dwattr $C$DW$1152, DW_AT_data_member_location[DW_OP_plus_uconst 0x50]
    9496                      .dwattr $C$DW$1152, DW_AT_accessibility(DW_ACCESS_public)
    9497              
    9498              $C$DW$1153      .dwtag  DW_TAG_member
    9499                      .dwattr $C$DW$1153, DW_AT_type(*$C$DW$T$67)
    9500                      .dwattr $C$DW$1153, DW_AT_name("fluxEstFreq_Hz")
    9501                      .dwattr $C$DW$1153, DW_AT_TI_symbol_name("_fluxEstFreq_Hz")
    9502                      .dwattr $C$DW$1153, DW_AT_data_member_location[DW_OP_plus_uconst 0x52]
    9503                      .dwattr $C$DW$1153, DW_AT_accessibility(DW_ACCESS_public)
    9504              
    9505              $C$DW$1154      .dwtag  DW_TAG_member
    9506                      .dwattr $C$DW$1154, DW_AT_type(*$C$DW$T$65)
    9507                      .dwattr $C$DW$1154, DW_AT_name("ctrlWaitTime")
    9508                      .dwattr $C$DW$1154, DW_AT_TI_symbol_name("_ctrlWaitTime")
    9509                      .dwattr $C$DW$1154, DW_AT_data_member_location[DW_OP_plus_uconst 0x54]
    9510                      .dwattr $C$DW$1154, DW_AT_accessibility(DW_ACCESS_public)
    9511              
    9512              $C$DW$1155      .dwtag  DW_TAG_member
    9513                      .dwattr $C$DW$1155, DW_AT_type(*$C$DW$T$195)
    9514                      .dwattr $C$DW$1155, DW_AT_name("estWaitTime")
    9515                      .dwattr $C$DW$1155, DW_AT_TI_symbol_name("_estWaitTime")
    9516                      .dwattr $C$DW$1155, DW_AT_data_member_location[DW_OP_plus_uconst 0x5c]
    9517                      .dwattr $C$DW$1155, DW_AT_accessibility(DW_ACCESS_public)
    9518              
    9519              $C$DW$1156      .dwtag  DW_TAG_member
    9520                      .dwattr $C$DW$1156, DW_AT_type(*$C$DW$T$196)
    9521                      .dwattr $C$DW$1156, DW_AT_name("FluxWaitTime")
    9522                      .dwattr $C$DW$1156, DW_AT_TI_symbol_name("_FluxWaitTime")
    9523                      .dwattr $C$DW$1156, DW_AT_data_member_location[DW_OP_plus_uconst 0x78]
    9524                      .dwattr $C$DW$1156, DW_AT_accessibility(DW_ACCESS_public)
    9525              
    9526              $C$DW$1157      .dwtag  DW_TAG_member
    9527                      .dwattr $C$DW$1157, DW_AT_type(*$C$DW$T$197)
    9528                      .dwattr $C$DW$1157, DW_AT_name("LsWaitTime")
    9529                      .dwattr $C$DW$1157, DW_AT_TI_symbol_name("_LsWaitTime")
    9530                      .dwattr $C$DW$1157, DW_AT_data_member_location[DW_OP_plus_uconst 0x84]
    9531                      .dwattr $C$DW$1157, DW_AT_accessibility(DW_ACCESS_public)
    9532              
    9533              $C$DW$1158      .dwtag  DW_TAG_member
    9534                      .dwattr $C$DW$1158, DW_AT_type(*$C$DW$T$196)
TMS320C2000 Assembler PC v15.12.3 Sun Oct 30 14:01:37 2016

Tools Copyright (c) 1996-2015 Texas Instruments Incorporated
C:\Users\MaCHaDo\AppData\Local\Temp\0057210                          PAGE  180

    9535                      .dwattr $C$DW$1158, DW_AT_name("RsWaitTime")
    9536                      .dwattr $C$DW$1158, DW_AT_TI_symbol_name("_RsWaitTime")
    9537                      .dwattr $C$DW$1158, DW_AT_data_member_location[DW_OP_plus_uconst 0x92]
    9538                      .dwattr $C$DW$1158, DW_AT_accessibility(DW_ACCESS_public)
    9539              
    9540              $C$DW$1159      .dwtag  DW_TAG_member
    9541                      .dwattr $C$DW$1159, DW_AT_type(*$C$DW$T$64)
    9542                      .dwattr $C$DW$1159, DW_AT_name("ctrlFreq_Hz")
    9543                      .dwattr $C$DW$1159, DW_AT_TI_symbol_name("_ctrlFreq_Hz")
    9544                      .dwattr $C$DW$1159, DW_AT_data_member_location[DW_OP_plus_uconst 0x9e]
    9545                      .dwattr $C$DW$1159, DW_AT_accessibility(DW_ACCESS_public)
    9546              
    9547              $C$DW$1160      .dwtag  DW_TAG_member
    9548                      .dwattr $C$DW$1160, DW_AT_type(*$C$DW$T$64)
    9549                      .dwattr $C$DW$1160, DW_AT_name("estFreq_Hz")
    9550                      .dwattr $C$DW$1160, DW_AT_TI_symbol_name("_estFreq_Hz")
    9551                      .dwattr $C$DW$1160, DW_AT_data_member_location[DW_OP_plus_uconst 0xa0]
    9552                      .dwattr $C$DW$1160, DW_AT_accessibility(DW_ACCESS_public)
    9553              
    9554              $C$DW$1161      .dwtag  DW_TAG_member
    9555                      .dwattr $C$DW$1161, DW_AT_type(*$C$DW$T$64)
    9556                      .dwattr $C$DW$1161, DW_AT_name("RoverL_estFreq_Hz")
    9557                      .dwattr $C$DW$1161, DW_AT_TI_symbol_name("_RoverL_estFreq_Hz")
    9558                      .dwattr $C$DW$1161, DW_AT_data_member_location[DW_OP_plus_uconst 0xa2]
    9559                      .dwattr $C$DW$1161, DW_AT_accessibility(DW_ACCESS_public)
    9560              
    9561              $C$DW$1162      .dwtag  DW_TAG_member
    9562                      .dwattr $C$DW$1162, DW_AT_type(*$C$DW$T$64)
    9563                      .dwattr $C$DW$1162, DW_AT_name("trajFreq_Hz")
    9564                      .dwattr $C$DW$1162, DW_AT_TI_symbol_name("_trajFreq_Hz")
    9565                      .dwattr $C$DW$1162, DW_AT_data_member_location[DW_OP_plus_uconst 0xa4]
    9566                      .dwattr $C$DW$1162, DW_AT_accessibility(DW_ACCESS_public)
    9567              
    9568              $C$DW$1163      .dwtag  DW_TAG_member
    9569                      .dwattr $C$DW$1163, DW_AT_type(*$C$DW$T$67)
    9570                      .dwattr $C$DW$1163, DW_AT_name("ctrlPeriod_sec")
    9571                      .dwattr $C$DW$1163, DW_AT_TI_symbol_name("_ctrlPeriod_sec")
    9572                      .dwattr $C$DW$1163, DW_AT_data_member_location[DW_OP_plus_uconst 0xa6]
    9573                      .dwattr $C$DW$1163, DW_AT_accessibility(DW_ACCESS_public)
    9574              
    9575              $C$DW$1164      .dwtag  DW_TAG_member
    9576                      .dwattr $C$DW$1164, DW_AT_type(*$C$DW$T$67)
    9577                      .dwattr $C$DW$1164, DW_AT_name("maxNegativeIdCurrent_a")
    9578                      .dwattr $C$DW$1164, DW_AT_TI_symbol_name("_maxNegativeIdCurrent_a")
    9579                      .dwattr $C$DW$1164, DW_AT_data_member_location[DW_OP_plus_uconst 0xa8]
    9580                      .dwattr $C$DW$1164, DW_AT_accessibility(DW_ACCESS_public)
    9581              
    9582              $C$DW$1165      .dwtag  DW_TAG_member
    9583                      .dwattr $C$DW$1165, DW_AT_type(*$C$DW$T$166)
    9584                      .dwattr $C$DW$1165, DW_AT_name("errorCode")
    9585                      .dwattr $C$DW$1165, DW_AT_TI_symbol_name("_errorCode")
    9586                      .dwattr $C$DW$1165, DW_AT_data_member_location[DW_OP_plus_uconst 0xaa]
    9587                      .dwattr $C$DW$1165, DW_AT_accessibility(DW_ACCESS_public)
    9588              
    9589              $C$DW$1166      .dwtag  DW_TAG_member
TMS320C2000 Assembler PC v15.12.3 Sun Oct 30 14:01:37 2016

Tools Copyright (c) 1996-2015 Texas Instruments Incorporated
C:\Users\MaCHaDo\AppData\Local\Temp\0057210                          PAGE  181

    9590                      .dwattr $C$DW$1166, DW_AT_type(*$C$DW$T$67)
    9591                      .dwattr $C$DW$1166, DW_AT_name("bus_current_sf")
    9592                      .dwattr $C$DW$1166, DW_AT_TI_symbol_name("_bus_current_sf")
    9593                      .dwattr $C$DW$1166, DW_AT_data_member_location[DW_OP_plus_uconst 0xac]
    9594                      .dwattr $C$DW$1166, DW_AT_accessibility(DW_ACCESS_public)
    9595              
    9596              $C$DW$1167      .dwtag  DW_TAG_member
    9597                      .dwattr $C$DW$1167, DW_AT_type(*$C$DW$T$32)
    9598                      .dwattr $C$DW$1167, DW_AT_name("numBusCurrentSensors")
    9599                      .dwattr $C$DW$1167, DW_AT_TI_symbol_name("_numBusCurrentSensors")
    9600                      .dwattr $C$DW$1167, DW_AT_data_member_location[DW_OP_plus_uconst 0xae]
    9601                      .dwattr $C$DW$1167, DW_AT_accessibility(DW_ACCESS_public)
    9602              
    9603                      .dwendtag $C$DW$T$198
    9604              
    9605              $C$DW$T$206     .dwtag  DW_TAG_typedef
    9606                      .dwattr $C$DW$T$206, DW_AT_name("USER_Params")
    9607                      .dwattr $C$DW$T$206, DW_AT_type(*$C$DW$T$198)
    9608                      .dwattr $C$DW$T$206, DW_AT_language(DW_LANG_C)
    9609              
    9610              $C$DW$1168      .dwtag  DW_TAG_TI_far_type
    9611                      .dwattr $C$DW$1168, DW_AT_type(*$C$DW$T$206)
    9612              
    9613              $C$DW$T$270     .dwtag  DW_TAG_const_type
    9614                      .dwattr $C$DW$T$270, DW_AT_type(*$C$DW$1168)
    9615              
    9616              $C$DW$T$271     .dwtag  DW_TAG_pointer_type
    9617                      .dwattr $C$DW$T$271, DW_AT_type(*$C$DW$T$270)
    9618                      .dwattr $C$DW$T$271, DW_AT_address_class(0x20)
    9619              
    9620              $C$DW$T$207     .dwtag  DW_TAG_pointer_type
    9621                      .dwattr $C$DW$T$207, DW_AT_type(*$C$DW$T$206)
    9622                      .dwattr $C$DW$T$207, DW_AT_address_class(0x20)
    9623              
    9624              
    9625              $C$DW$T$199     .dwtag  DW_TAG_structure_type
    9626                      .dwattr $C$DW$T$199, DW_AT_name("_WDOG_Obj_")
    9627                      .dwattr $C$DW$T$199, DW_AT_byte_size(0x08)
    9628              $C$DW$1169      .dwtag  DW_TAG_member
    9629                      .dwattr $C$DW$1169, DW_AT_type(*$C$DW$T$23)
    9630                      .dwattr $C$DW$1169, DW_AT_name("SCSR")
    9631                      .dwattr $C$DW$1169, DW_AT_TI_symbol_name("_SCSR")
    9632                      .dwattr $C$DW$1169, DW_AT_data_member_location[DW_OP_plus_uconst 0x0]
    9633                      .dwattr $C$DW$1169, DW_AT_accessibility(DW_ACCESS_public)
    9634              
    9635              $C$DW$1170      .dwtag  DW_TAG_member
    9636                      .dwattr $C$DW$1170, DW_AT_type(*$C$DW$T$23)
    9637                      .dwattr $C$DW$1170, DW_AT_name("WDCNTR")
    9638                      .dwattr $C$DW$1170, DW_AT_TI_symbol_name("_WDCNTR")
    9639                      .dwattr $C$DW$1170, DW_AT_data_member_location[DW_OP_plus_uconst 0x1]
    9640                      .dwattr $C$DW$1170, DW_AT_accessibility(DW_ACCESS_public)
    9641              
    9642              $C$DW$1171      .dwtag  DW_TAG_member
    9643                      .dwattr $C$DW$1171, DW_AT_type(*$C$DW$T$23)
    9644                      .dwattr $C$DW$1171, DW_AT_name("rsvd_1")
TMS320C2000 Assembler PC v15.12.3 Sun Oct 30 14:01:37 2016

Tools Copyright (c) 1996-2015 Texas Instruments Incorporated
C:\Users\MaCHaDo\AppData\Local\Temp\0057210                          PAGE  182

    9645                      .dwattr $C$DW$1171, DW_AT_TI_symbol_name("_rsvd_1")
    9646                      .dwattr $C$DW$1171, DW_AT_data_member_location[DW_OP_plus_uconst 0x2]
    9647                      .dwattr $C$DW$1171, DW_AT_accessibility(DW_ACCESS_public)
    9648              
    9649              $C$DW$1172      .dwtag  DW_TAG_member
    9650                      .dwattr $C$DW$1172, DW_AT_type(*$C$DW$T$23)
    9651                      .dwattr $C$DW$1172, DW_AT_name("WDKEY")
    9652                      .dwattr $C$DW$1172, DW_AT_TI_symbol_name("_WDKEY")
    9653                      .dwattr $C$DW$1172, DW_AT_data_member_location[DW_OP_plus_uconst 0x3]
    9654                      .dwattr $C$DW$1172, DW_AT_accessibility(DW_ACCESS_public)
    9655              
    9656              $C$DW$1173      .dwtag  DW_TAG_member
    9657                      .dwattr $C$DW$1173, DW_AT_type(*$C$DW$T$28)
    9658                      .dwattr $C$DW$1173, DW_AT_name("rsvd_2")
    9659                      .dwattr $C$DW$1173, DW_AT_TI_symbol_name("_rsvd_2")
    9660                      .dwattr $C$DW$1173, DW_AT_data_member_location[DW_OP_plus_uconst 0x4]
    9661                      .dwattr $C$DW$1173, DW_AT_accessibility(DW_ACCESS_public)
    9662              
    9663              $C$DW$1174      .dwtag  DW_TAG_member
    9664                      .dwattr $C$DW$1174, DW_AT_type(*$C$DW$T$23)
    9665                      .dwattr $C$DW$1174, DW_AT_name("WDCR")
    9666                      .dwattr $C$DW$1174, DW_AT_TI_symbol_name("_WDCR")
    9667                      .dwattr $C$DW$1174, DW_AT_data_member_location[DW_OP_plus_uconst 0x7]
    9668                      .dwattr $C$DW$1174, DW_AT_accessibility(DW_ACCESS_public)
    9669              
    9670                      .dwendtag $C$DW$T$199
    9671              
    9672              $C$DW$T$143     .dwtag  DW_TAG_pointer_type
    9673                      .dwattr $C$DW$T$143, DW_AT_type(*$C$DW$T$199)
    9674                      .dwattr $C$DW$T$143, DW_AT_address_class(0x20)
    9675              
    9676              $C$DW$T$144     .dwtag  DW_TAG_typedef
    9677                      .dwattr $C$DW$T$144, DW_AT_name("WDOG_Handle")
    9678                      .dwattr $C$DW$T$144, DW_AT_type(*$C$DW$T$143)
    9679                      .dwattr $C$DW$T$144, DW_AT_language(DW_LANG_C)
    9680              
    9681              $C$DW$T$2       .dwtag  DW_TAG_unspecified_type
    9682                      .dwattr $C$DW$T$2, DW_AT_name("void")
    9683              
    9684              $C$DW$T$3       .dwtag  DW_TAG_pointer_type
    9685                      .dwattr $C$DW$T$3, DW_AT_type(*$C$DW$T$2)
    9686                      .dwattr $C$DW$T$3, DW_AT_address_class(0x20)
    9687              
    9688              
    9689              $C$DW$T$180     .dwtag  DW_TAG_subroutine_type
    9690                      .dwattr $C$DW$T$180, DW_AT_language(DW_LANG_C)
    9691                      .dwendtag $C$DW$T$180
    9692              
    9693              $C$DW$T$181     .dwtag  DW_TAG_pointer_type
    9694                      .dwattr $C$DW$T$181, DW_AT_type(*$C$DW$T$180)
    9695                      .dwattr $C$DW$T$181, DW_AT_address_class(0x20)
    9696              
    9697              $C$DW$T$182     .dwtag  DW_TAG_typedef
    9698                      .dwattr $C$DW$T$182, DW_AT_name("PIE_IntVec_t")
    9699                      .dwattr $C$DW$T$182, DW_AT_type(*$C$DW$T$181)
TMS320C2000 Assembler PC v15.12.3 Sun Oct 30 14:01:37 2016

Tools Copyright (c) 1996-2015 Texas Instruments Incorporated
C:\Users\MaCHaDo\AppData\Local\Temp\0057210                          PAGE  183

    9700                      .dwattr $C$DW$T$182, DW_AT_language(DW_LANG_C)
    9701              
    9702              $C$DW$1175      .dwtag  DW_TAG_TI_far_type
    9703                      .dwattr $C$DW$1175, DW_AT_type(*$C$DW$T$182)
    9704              
    9705              $C$DW$T$183     .dwtag  DW_TAG_volatile_type
    9706                      .dwattr $C$DW$T$183, DW_AT_type(*$C$DW$1175)
    9707              
    9708              $C$DW$T$4       .dwtag  DW_TAG_base_type
    9709                      .dwattr $C$DW$T$4, DW_AT_encoding(DW_ATE_boolean)
    9710                      .dwattr $C$DW$T$4, DW_AT_name("bool")
    9711                      .dwattr $C$DW$T$4, DW_AT_byte_size(0x01)
    9712              
    9713              $C$DW$T$5       .dwtag  DW_TAG_base_type
    9714                      .dwattr $C$DW$T$5, DW_AT_encoding(DW_ATE_signed_char)
    9715                      .dwattr $C$DW$T$5, DW_AT_name("signed char")
    9716                      .dwattr $C$DW$T$5, DW_AT_byte_size(0x01)
    9717              
    9718              $C$DW$T$6       .dwtag  DW_TAG_base_type
    9719                      .dwattr $C$DW$T$6, DW_AT_encoding(DW_ATE_unsigned_char)
    9720                      .dwattr $C$DW$T$6, DW_AT_name("unsigned char")
    9721                      .dwattr $C$DW$T$6, DW_AT_byte_size(0x01)
    9722              
    9723              $C$DW$T$7       .dwtag  DW_TAG_base_type
    9724                      .dwattr $C$DW$T$7, DW_AT_encoding(DW_ATE_signed_char)
    9725                      .dwattr $C$DW$T$7, DW_AT_name("wchar_t")
    9726                      .dwattr $C$DW$T$7, DW_AT_byte_size(0x01)
    9727              
    9728              $C$DW$T$8       .dwtag  DW_TAG_base_type
    9729                      .dwattr $C$DW$T$8, DW_AT_encoding(DW_ATE_signed)
    9730                      .dwattr $C$DW$T$8, DW_AT_name("short")
    9731                      .dwattr $C$DW$T$8, DW_AT_byte_size(0x01)
    9732              
    9733              $C$DW$T$9       .dwtag  DW_TAG_base_type
    9734                      .dwattr $C$DW$T$9, DW_AT_encoding(DW_ATE_unsigned)
    9735                      .dwattr $C$DW$T$9, DW_AT_name("unsigned short")
    9736                      .dwattr $C$DW$T$9, DW_AT_byte_size(0x01)
    9737              
    9738              $C$DW$T$10      .dwtag  DW_TAG_base_type
    9739                      .dwattr $C$DW$T$10, DW_AT_encoding(DW_ATE_signed)
    9740                      .dwattr $C$DW$T$10, DW_AT_name("int")
    9741                      .dwattr $C$DW$T$10, DW_AT_byte_size(0x01)
    9742              
    9743              $C$DW$T$11      .dwtag  DW_TAG_base_type
    9744                      .dwattr $C$DW$T$11, DW_AT_encoding(DW_ATE_unsigned)
    9745                      .dwattr $C$DW$T$11, DW_AT_name("unsigned int")
    9746                      .dwattr $C$DW$T$11, DW_AT_byte_size(0x01)
    9747              
    9748              $C$DW$T$22      .dwtag  DW_TAG_typedef
    9749                      .dwattr $C$DW$T$22, DW_AT_name("uint16_t")
    9750                      .dwattr $C$DW$T$22, DW_AT_type(*$C$DW$T$11)
    9751                      .dwattr $C$DW$T$22, DW_AT_language(DW_LANG_C)
    9752              
    9753              $C$DW$T$274     .dwtag  DW_TAG_pointer_type
    9754                      .dwattr $C$DW$T$274, DW_AT_type(*$C$DW$T$22)
TMS320C2000 Assembler PC v15.12.3 Sun Oct 30 14:01:37 2016

Tools Copyright (c) 1996-2015 Texas Instruments Incorporated
C:\Users\MaCHaDo\AppData\Local\Temp\0057210                          PAGE  184

    9755                      .dwattr $C$DW$T$274, DW_AT_address_class(0x20)
    9756              
    9757              $C$DW$1176      .dwtag  DW_TAG_TI_far_type
    9758                      .dwattr $C$DW$1176, DW_AT_type(*$C$DW$T$22)
    9759              
    9760              $C$DW$T$23      .dwtag  DW_TAG_volatile_type
    9761                      .dwattr $C$DW$T$23, DW_AT_type(*$C$DW$1176)
    9762              
    9763              
    9764              $C$DW$T$24      .dwtag  DW_TAG_array_type
    9765                      .dwattr $C$DW$T$24, DW_AT_type(*$C$DW$T$23)
    9766                      .dwattr $C$DW$T$24, DW_AT_language(DW_LANG_C)
    9767                      .dwattr $C$DW$T$24, DW_AT_byte_size(0x10)
    9768              $C$DW$1177      .dwtag  DW_TAG_subrange_type
    9769                      .dwattr $C$DW$1177, DW_AT_upper_bound(0x0f)
    9770              
    9771                      .dwendtag $C$DW$T$24
    9772              
    9773              
    9774              $C$DW$T$25      .dwtag  DW_TAG_array_type
    9775                      .dwattr $C$DW$T$25, DW_AT_type(*$C$DW$T$23)
    9776                      .dwattr $C$DW$T$25, DW_AT_language(DW_LANG_C)
    9777                      .dwattr $C$DW$T$25, DW_AT_byte_size(0x65f0)
    9778              $C$DW$1178      .dwtag  DW_TAG_subrange_type
    9779                      .dwattr $C$DW$1178, DW_AT_upper_bound(0x65ef)
    9780              
    9781                      .dwendtag $C$DW$T$25
    9782              
    9783              
    9784              $C$DW$T$26      .dwtag  DW_TAG_array_type
    9785                      .dwattr $C$DW$T$26, DW_AT_type(*$C$DW$T$23)
    9786                      .dwattr $C$DW$T$26, DW_AT_language(DW_LANG_C)
    9787                      .dwattr $C$DW$T$26, DW_AT_byte_size(0x02)
    9788              $C$DW$1179      .dwtag  DW_TAG_subrange_type
    9789                      .dwattr $C$DW$1179, DW_AT_upper_bound(0x01)
    9790              
    9791                      .dwendtag $C$DW$T$26
    9792              
    9793              
    9794              $C$DW$T$27      .dwtag  DW_TAG_array_type
    9795                      .dwattr $C$DW$T$27, DW_AT_type(*$C$DW$T$23)
    9796                      .dwattr $C$DW$T$27, DW_AT_language(DW_LANG_C)
    9797                      .dwattr $C$DW$T$27, DW_AT_byte_size(0x05)
    9798              $C$DW$1180      .dwtag  DW_TAG_subrange_type
    9799                      .dwattr $C$DW$1180, DW_AT_upper_bound(0x04)
    9800              
    9801                      .dwendtag $C$DW$T$27
    9802              
    9803              
    9804              $C$DW$T$28      .dwtag  DW_TAG_array_type
    9805                      .dwattr $C$DW$T$28, DW_AT_type(*$C$DW$T$23)
    9806                      .dwattr $C$DW$T$28, DW_AT_language(DW_LANG_C)
    9807                      .dwattr $C$DW$T$28, DW_AT_byte_size(0x03)
    9808              $C$DW$1181      .dwtag  DW_TAG_subrange_type
    9809                      .dwattr $C$DW$1181, DW_AT_upper_bound(0x02)
TMS320C2000 Assembler PC v15.12.3 Sun Oct 30 14:01:37 2016

Tools Copyright (c) 1996-2015 Texas Instruments Incorporated
C:\Users\MaCHaDo\AppData\Local\Temp\0057210                          PAGE  185

    9810              
    9811                      .dwendtag $C$DW$T$28
    9812              
    9813              
    9814              $C$DW$T$29      .dwtag  DW_TAG_array_type
    9815                      .dwattr $C$DW$T$29, DW_AT_type(*$C$DW$T$23)
    9816                      .dwattr $C$DW$T$29, DW_AT_language(DW_LANG_C)
    9817                      .dwattr $C$DW$T$29, DW_AT_byte_size(0x0d)
    9818              $C$DW$1182      .dwtag  DW_TAG_subrange_type
    9819                      .dwattr $C$DW$1182, DW_AT_upper_bound(0x0c)
    9820              
    9821                      .dwendtag $C$DW$T$29
    9822              
    9823              
    9824              $C$DW$T$34      .dwtag  DW_TAG_array_type
    9825                      .dwattr $C$DW$T$34, DW_AT_type(*$C$DW$T$23)
    9826                      .dwattr $C$DW$T$34, DW_AT_language(DW_LANG_C)
    9827                      .dwattr $C$DW$T$34, DW_AT_byte_size(0x08)
    9828              $C$DW$1183      .dwtag  DW_TAG_subrange_type
    9829                      .dwattr $C$DW$1183, DW_AT_upper_bound(0x07)
    9830              
    9831                      .dwendtag $C$DW$T$34
    9832              
    9833              
    9834              $C$DW$T$111     .dwtag  DW_TAG_array_type
    9835                      .dwattr $C$DW$T$111, DW_AT_type(*$C$DW$T$23)
    9836                      .dwattr $C$DW$T$111, DW_AT_language(DW_LANG_C)
    9837                      .dwattr $C$DW$T$111, DW_AT_byte_size(0x18)
    9838              $C$DW$1184      .dwtag  DW_TAG_subrange_type
    9839                      .dwattr $C$DW$1184, DW_AT_upper_bound(0x17)
    9840              
    9841                      .dwendtag $C$DW$T$111
    9842              
    9843              
    9844              $C$DW$T$112     .dwtag  DW_TAG_array_type
    9845                      .dwattr $C$DW$T$112, DW_AT_type(*$C$DW$T$23)
    9846                      .dwattr $C$DW$T$112, DW_AT_language(DW_LANG_C)
    9847                      .dwattr $C$DW$T$112, DW_AT_byte_size(0x04)
    9848              $C$DW$1185      .dwtag  DW_TAG_subrange_type
    9849                      .dwattr $C$DW$1185, DW_AT_upper_bound(0x03)
    9850              
    9851                      .dwendtag $C$DW$T$112
    9852              
    9853              
    9854              $C$DW$T$179     .dwtag  DW_TAG_array_type
    9855                      .dwattr $C$DW$T$179, DW_AT_type(*$C$DW$T$23)
    9856                      .dwattr $C$DW$T$179, DW_AT_language(DW_LANG_C)
    9857                      .dwattr $C$DW$T$179, DW_AT_byte_size(0x06)
    9858              $C$DW$1186      .dwtag  DW_TAG_subrange_type
    9859                      .dwattr $C$DW$1186, DW_AT_upper_bound(0x05)
    9860              
    9861                      .dwendtag $C$DW$T$179
    9862              
    9863              
    9864              $C$DW$T$184     .dwtag  DW_TAG_array_type
TMS320C2000 Assembler PC v15.12.3 Sun Oct 30 14:01:37 2016

Tools Copyright (c) 1996-2015 Texas Instruments Incorporated
C:\Users\MaCHaDo\AppData\Local\Temp\0057210                          PAGE  186

    9865                      .dwattr $C$DW$T$184, DW_AT_type(*$C$DW$T$23)
    9866                      .dwattr $C$DW$T$184, DW_AT_language(DW_LANG_C)
    9867                      .dwattr $C$DW$T$184, DW_AT_byte_size(0x6270)
    9868              $C$DW$1187      .dwtag  DW_TAG_subrange_type
    9869                      .dwattr $C$DW$1187, DW_AT_upper_bound(0x626f)
    9870              
    9871                      .dwendtag $C$DW$T$184
    9872              
    9873              
    9874              $C$DW$T$188     .dwtag  DW_TAG_array_type
    9875                      .dwattr $C$DW$T$188, DW_AT_type(*$C$DW$T$23)
    9876                      .dwattr $C$DW$T$188, DW_AT_language(DW_LANG_C)
    9877                      .dwattr $C$DW$T$188, DW_AT_byte_size(0x6698)
    9878              $C$DW$1188      .dwtag  DW_TAG_subrange_type
    9879                      .dwattr $C$DW$1188, DW_AT_upper_bound(0x6697)
    9880              
    9881                      .dwendtag $C$DW$T$188
    9882              
    9883              $C$DW$T$66      .dwtag  DW_TAG_typedef
    9884                      .dwattr $C$DW$T$66, DW_AT_name("uint_least16_t")
    9885                      .dwattr $C$DW$T$66, DW_AT_type(*$C$DW$T$22)
    9886                      .dwattr $C$DW$T$66, DW_AT_language(DW_LANG_C)
    9887              
    9888              $C$DW$T$32      .dwtag  DW_TAG_typedef
    9889                      .dwattr $C$DW$T$32, DW_AT_name("uint_least8_t")
    9890                      .dwattr $C$DW$T$32, DW_AT_type(*$C$DW$T$22)
    9891                      .dwattr $C$DW$T$32, DW_AT_language(DW_LANG_C)
    9892              
    9893              $C$DW$1189      .dwtag  DW_TAG_TI_far_type
    9894                      .dwattr $C$DW$1189, DW_AT_type(*$C$DW$T$32)
    9895              
    9896              $C$DW$T$232     .dwtag  DW_TAG_const_type
    9897                      .dwattr $C$DW$T$232, DW_AT_type(*$C$DW$1189)
    9898              
    9899              $C$DW$T$12      .dwtag  DW_TAG_base_type
    9900                      .dwattr $C$DW$T$12, DW_AT_encoding(DW_ATE_signed)
    9901                      .dwattr $C$DW$T$12, DW_AT_name("long")
    9902                      .dwattr $C$DW$T$12, DW_AT_byte_size(0x02)
    9903              
    9904              $C$DW$T$31      .dwtag  DW_TAG_typedef
    9905                      .dwattr $C$DW$T$31, DW_AT_name("_iq")
    9906                      .dwattr $C$DW$T$31, DW_AT_type(*$C$DW$T$12)
    9907                      .dwattr $C$DW$T$31, DW_AT_language(DW_LANG_C)
    9908              
    9909              
    9910              $C$DW$T$156     .dwtag  DW_TAG_array_type
    9911                      .dwattr $C$DW$T$156, DW_AT_type(*$C$DW$T$31)
    9912                      .dwattr $C$DW$T$156, DW_AT_language(DW_LANG_C)
    9913                      .dwattr $C$DW$T$156, DW_AT_byte_size(0x04)
    9914              $C$DW$1190      .dwtag  DW_TAG_subrange_type
    9915                      .dwattr $C$DW$1190, DW_AT_upper_bound(0x01)
    9916              
    9917                      .dwendtag $C$DW$T$156
    9918              
    9919              
TMS320C2000 Assembler PC v15.12.3 Sun Oct 30 14:01:37 2016

Tools Copyright (c) 1996-2015 Texas Instruments Incorporated
C:\Users\MaCHaDo\AppData\Local\Temp\0057210                          PAGE  187

    9920              $C$DW$T$158     .dwtag  DW_TAG_array_type
    9921                      .dwattr $C$DW$T$158, DW_AT_type(*$C$DW$T$31)
    9922                      .dwattr $C$DW$T$158, DW_AT_language(DW_LANG_C)
    9923                      .dwattr $C$DW$T$158, DW_AT_byte_size(0x06)
    9924              $C$DW$1191      .dwtag  DW_TAG_subrange_type
    9925                      .dwattr $C$DW$1191, DW_AT_upper_bound(0x02)
    9926              
    9927                      .dwendtag $C$DW$T$158
    9928              
    9929              $C$DW$1192      .dwtag  DW_TAG_TI_far_type
    9930                      .dwattr $C$DW$1192, DW_AT_type(*$C$DW$T$31)
    9931              
    9932              $C$DW$T$280     .dwtag  DW_TAG_const_type
    9933                      .dwattr $C$DW$T$280, DW_AT_type(*$C$DW$1192)
    9934              
    9935              $C$DW$T$13      .dwtag  DW_TAG_base_type
    9936                      .dwattr $C$DW$T$13, DW_AT_encoding(DW_ATE_unsigned)
    9937                      .dwattr $C$DW$T$13, DW_AT_name("unsigned long")
    9938                      .dwattr $C$DW$T$13, DW_AT_byte_size(0x02)
    9939              
    9940              $C$DW$T$233     .dwtag  DW_TAG_typedef
    9941                      .dwattr $C$DW$T$233, DW_AT_name("size_t")
    9942                      .dwattr $C$DW$T$233, DW_AT_type(*$C$DW$T$13)
    9943                      .dwattr $C$DW$T$233, DW_AT_language(DW_LANG_C)
    9944              
    9945              $C$DW$1193      .dwtag  DW_TAG_TI_far_type
    9946                      .dwattr $C$DW$1193, DW_AT_type(*$C$DW$T$233)
    9947              
    9948              $C$DW$T$234     .dwtag  DW_TAG_const_type
    9949                      .dwattr $C$DW$T$234, DW_AT_type(*$C$DW$1193)
    9950              
    9951              $C$DW$T$63      .dwtag  DW_TAG_typedef
    9952                      .dwattr $C$DW$T$63, DW_AT_name("uint32_t")
    9953                      .dwattr $C$DW$T$63, DW_AT_type(*$C$DW$T$13)
    9954                      .dwattr $C$DW$T$63, DW_AT_language(DW_LANG_C)
    9955              
    9956              $C$DW$1194      .dwtag  DW_TAG_TI_far_type
    9957                      .dwattr $C$DW$1194, DW_AT_type(*$C$DW$T$63)
    9958              
    9959              $C$DW$T$110     .dwtag  DW_TAG_volatile_type
    9960                      .dwattr $C$DW$T$110, DW_AT_type(*$C$DW$1194)
    9961              
    9962              $C$DW$T$64      .dwtag  DW_TAG_typedef
    9963                      .dwattr $C$DW$T$64, DW_AT_name("uint_least32_t")
    9964                      .dwattr $C$DW$T$64, DW_AT_type(*$C$DW$T$63)
    9965                      .dwattr $C$DW$T$64, DW_AT_language(DW_LANG_C)
    9966              
    9967              
    9968              $C$DW$T$65      .dwtag  DW_TAG_array_type
    9969                      .dwattr $C$DW$T$65, DW_AT_type(*$C$DW$T$64)
    9970                      .dwattr $C$DW$T$65, DW_AT_language(DW_LANG_C)
    9971                      .dwattr $C$DW$T$65, DW_AT_byte_size(0x08)
    9972              $C$DW$1195      .dwtag  DW_TAG_subrange_type
    9973                      .dwattr $C$DW$1195, DW_AT_upper_bound(0x03)
    9974              
TMS320C2000 Assembler PC v15.12.3 Sun Oct 30 14:01:37 2016

Tools Copyright (c) 1996-2015 Texas Instruments Incorporated
C:\Users\MaCHaDo\AppData\Local\Temp\0057210                          PAGE  188

    9975                      .dwendtag $C$DW$T$65
    9976              
    9977              
    9978              $C$DW$T$195     .dwtag  DW_TAG_array_type
    9979                      .dwattr $C$DW$T$195, DW_AT_type(*$C$DW$T$64)
    9980                      .dwattr $C$DW$T$195, DW_AT_language(DW_LANG_C)
    9981                      .dwattr $C$DW$T$195, DW_AT_byte_size(0x1c)
    9982              $C$DW$1196      .dwtag  DW_TAG_subrange_type
    9983                      .dwattr $C$DW$1196, DW_AT_upper_bound(0x0d)
    9984              
    9985                      .dwendtag $C$DW$T$195
    9986              
    9987              
    9988              $C$DW$T$196     .dwtag  DW_TAG_array_type
    9989                      .dwattr $C$DW$T$196, DW_AT_type(*$C$DW$T$64)
    9990                      .dwattr $C$DW$T$196, DW_AT_language(DW_LANG_C)
    9991                      .dwattr $C$DW$T$196, DW_AT_byte_size(0x0c)
    9992              $C$DW$1197      .dwtag  DW_TAG_subrange_type
    9993                      .dwattr $C$DW$1197, DW_AT_upper_bound(0x05)
    9994              
    9995                      .dwendtag $C$DW$T$196
    9996              
    9997              
    9998              $C$DW$T$197     .dwtag  DW_TAG_array_type
    9999                      .dwattr $C$DW$T$197, DW_AT_type(*$C$DW$T$64)
   10000                      .dwattr $C$DW$T$197, DW_AT_language(DW_LANG_C)
   10001                      .dwattr $C$DW$T$197, DW_AT_byte_size(0x0e)
   10002              $C$DW$1198      .dwtag  DW_TAG_subrange_type
   10003                      .dwattr $C$DW$1198, DW_AT_upper_bound(0x06)
   10004              
   10005                      .dwendtag $C$DW$T$197
   10006              
   10007              $C$DW$T$14      .dwtag  DW_TAG_base_type
   10008                      .dwattr $C$DW$T$14, DW_AT_encoding(DW_ATE_signed)
   10009                      .dwattr $C$DW$T$14, DW_AT_name("long long")
   10010                      .dwattr $C$DW$T$14, DW_AT_byte_size(0x04)
   10011              
   10012              $C$DW$T$15      .dwtag  DW_TAG_base_type
   10013                      .dwattr $C$DW$T$15, DW_AT_encoding(DW_ATE_unsigned)
   10014                      .dwattr $C$DW$T$15, DW_AT_name("unsigned long long")
   10015                      .dwattr $C$DW$T$15, DW_AT_byte_size(0x04)
   10016              
   10017              $C$DW$T$16      .dwtag  DW_TAG_base_type
   10018                      .dwattr $C$DW$T$16, DW_AT_encoding(DW_ATE_float)
   10019                      .dwattr $C$DW$T$16, DW_AT_name("float")
   10020                      .dwattr $C$DW$T$16, DW_AT_byte_size(0x02)
   10021              
   10022              $C$DW$T$67      .dwtag  DW_TAG_typedef
   10023                      .dwattr $C$DW$T$67, DW_AT_name("float_t")
   10024                      .dwattr $C$DW$T$67, DW_AT_type(*$C$DW$T$16)
   10025                      .dwattr $C$DW$T$67, DW_AT_language(DW_LANG_C)
   10026              
   10027              $C$DW$T$17      .dwtag  DW_TAG_base_type
   10028                      .dwattr $C$DW$T$17, DW_AT_encoding(DW_ATE_float)
   10029                      .dwattr $C$DW$T$17, DW_AT_name("double")
TMS320C2000 Assembler PC v15.12.3 Sun Oct 30 14:01:37 2016

Tools Copyright (c) 1996-2015 Texas Instruments Incorporated
C:\Users\MaCHaDo\AppData\Local\Temp\0057210                          PAGE  189

   10030                      .dwattr $C$DW$T$17, DW_AT_byte_size(0x02)
   10031              
   10032              $C$DW$T$18      .dwtag  DW_TAG_base_type
   10033                      .dwattr $C$DW$T$18, DW_AT_encoding(DW_ATE_float)
   10034                      .dwattr $C$DW$T$18, DW_AT_name("long double")
   10035                      .dwattr $C$DW$T$18, DW_AT_byte_size(0x04)
   10036              
   10037              $C$DW$T$69      .dwtag  DW_TAG_base_type
   10038                      .dwattr $C$DW$T$69, DW_AT_encoding(DW_ATE_unsigned_char)
   10039                      .dwattr $C$DW$T$69, DW_AT_name("unsigned char")
   10040                      .dwattr $C$DW$T$69, DW_AT_byte_size(0x01)
   10041              
   10042              $C$DW$1199      .dwtag  DW_TAG_TI_far_type
   10043                      .dwattr $C$DW$1199, DW_AT_type(*$C$DW$T$69)
   10044              
   10045              $C$DW$T$277     .dwtag  DW_TAG_const_type
   10046                      .dwattr $C$DW$T$277, DW_AT_type(*$C$DW$1199)
   10047              
   10048                      .dwattr $C$DW$CU, DW_AT_language(DW_LANG_C)
   10049              
   10050              ;***************************************************************
   10051              ;* DWARF CIE ENTRIES                                           *
   10052              ;***************************************************************
   10053              
   10054              $C$DW$CIE       .dwcie 26
   10055                      .dwcfi  cfa_register, 20
   10056                      .dwcfi  cfa_offset, 0
   10057                      .dwcfi  undefined, 0
   10058                      .dwcfi  undefined, 1
   10059                      .dwcfi  undefined, 2
   10060                      .dwcfi  undefined, 3
   10061                      .dwcfi  undefined, 20
   10062                      .dwcfi  undefined, 21
   10063                      .dwcfi  undefined, 22
   10064                      .dwcfi  undefined, 23
   10065                      .dwcfi  undefined, 24
   10066                      .dwcfi  undefined, 25
   10067                      .dwcfi  undefined, 26
   10068                      .dwcfi  same_value, 28
   10069                      .dwcfi  undefined, 29
   10070                      .dwcfi  undefined, 30
   10071                      .dwcfi  undefined, 31
   10072                      .dwcfi  undefined, 32
   10073                      .dwcfi  undefined, 33
   10074                      .dwcfi  undefined, 34
   10075                      .dwcfi  undefined, 35
   10076                      .dwcfi  undefined, 36
   10077                      .dwcfi  undefined, 37
   10078                      .dwcfi  undefined, 38
   10079                      .dwcfi  undefined, 75
   10080                      .dwcfi  undefined, 76
   10081                      .dwcfi  undefined, 77
   10082                      .dwcfi  undefined, 4
   10083                      .dwcfi  undefined, 5
   10084                      .dwcfi  same_value, 6
TMS320C2000 Assembler PC v15.12.3 Sun Oct 30 14:01:37 2016

Tools Copyright (c) 1996-2015 Texas Instruments Incorporated
C:\Users\MaCHaDo\AppData\Local\Temp\0057210                          PAGE  190

   10085                      .dwcfi  same_value, 7
   10086                      .dwcfi  same_value, 8
   10087                      .dwcfi  same_value, 9
   10088                      .dwcfi  same_value, 10
   10089                      .dwcfi  same_value, 11
   10090                      .dwcfi  undefined, 12
   10091                      .dwcfi  undefined, 13
   10092                      .dwcfi  undefined, 14
   10093                      .dwcfi  undefined, 15
   10094                      .dwcfi  undefined, 16
   10095                      .dwcfi  undefined, 17
   10096                      .dwcfi  undefined, 18
   10097                      .dwcfi  undefined, 19
   10098                      .dwendentry
   10099              
   10100              ;***************************************************************
   10101              ;* DWARF REGISTER MAP                                          *
   10102              ;***************************************************************
   10103              
   10104              $C$DW$1200      .dwtag  DW_TAG_TI_assign_register
   10105                      .dwattr $C$DW$1200, DW_AT_name("AL")
   10106                      .dwattr $C$DW$1200, DW_AT_location[DW_OP_reg0]
   10107              
   10108              $C$DW$1201      .dwtag  DW_TAG_TI_assign_register
   10109                      .dwattr $C$DW$1201, DW_AT_name("AH")
   10110                      .dwattr $C$DW$1201, DW_AT_location[DW_OP_reg1]
   10111              
   10112              $C$DW$1202      .dwtag  DW_TAG_TI_assign_register
   10113                      .dwattr $C$DW$1202, DW_AT_name("PL")
   10114                      .dwattr $C$DW$1202, DW_AT_location[DW_OP_reg2]
   10115              
   10116              $C$DW$1203      .dwtag  DW_TAG_TI_assign_register
   10117                      .dwattr $C$DW$1203, DW_AT_name("PH")
   10118                      .dwattr $C$DW$1203, DW_AT_location[DW_OP_reg3]
   10119              
   10120              $C$DW$1204      .dwtag  DW_TAG_TI_assign_register
   10121                      .dwattr $C$DW$1204, DW_AT_name("SP")
   10122                      .dwattr $C$DW$1204, DW_AT_location[DW_OP_reg20]
   10123              
   10124              $C$DW$1205      .dwtag  DW_TAG_TI_assign_register
   10125                      .dwattr $C$DW$1205, DW_AT_name("XT")
   10126                      .dwattr $C$DW$1205, DW_AT_location[DW_OP_reg21]
   10127              
   10128              $C$DW$1206      .dwtag  DW_TAG_TI_assign_register
   10129                      .dwattr $C$DW$1206, DW_AT_name("T")
   10130                      .dwattr $C$DW$1206, DW_AT_location[DW_OP_reg22]
   10131              
   10132              $C$DW$1207      .dwtag  DW_TAG_TI_assign_register
   10133                      .dwattr $C$DW$1207, DW_AT_name("ST0")
   10134                      .dwattr $C$DW$1207, DW_AT_location[DW_OP_reg23]
   10135              
   10136              $C$DW$1208      .dwtag  DW_TAG_TI_assign_register
   10137                      .dwattr $C$DW$1208, DW_AT_name("ST1")
   10138                      .dwattr $C$DW$1208, DW_AT_location[DW_OP_reg24]
   10139              
TMS320C2000 Assembler PC v15.12.3 Sun Oct 30 14:01:37 2016

Tools Copyright (c) 1996-2015 Texas Instruments Incorporated
C:\Users\MaCHaDo\AppData\Local\Temp\0057210                          PAGE  191

   10140              $C$DW$1209      .dwtag  DW_TAG_TI_assign_register
   10141                      .dwattr $C$DW$1209, DW_AT_name("PC")
   10142                      .dwattr $C$DW$1209, DW_AT_location[DW_OP_reg25]
   10143              
   10144              $C$DW$1210      .dwtag  DW_TAG_TI_assign_register
   10145                      .dwattr $C$DW$1210, DW_AT_name("RPC")
   10146                      .dwattr $C$DW$1210, DW_AT_location[DW_OP_reg26]
   10147              
   10148              $C$DW$1211      .dwtag  DW_TAG_TI_assign_register
   10149                      .dwattr $C$DW$1211, DW_AT_name("FP")
   10150                      .dwattr $C$DW$1211, DW_AT_location[DW_OP_reg28]
   10151              
   10152              $C$DW$1212      .dwtag  DW_TAG_TI_assign_register
   10153                      .dwattr $C$DW$1212, DW_AT_name("DP")
   10154                      .dwattr $C$DW$1212, DW_AT_location[DW_OP_reg29]
   10155              
   10156              $C$DW$1213      .dwtag  DW_TAG_TI_assign_register
   10157                      .dwattr $C$DW$1213, DW_AT_name("SXM")
   10158                      .dwattr $C$DW$1213, DW_AT_location[DW_OP_reg30]
   10159              
   10160              $C$DW$1214      .dwtag  DW_TAG_TI_assign_register
   10161                      .dwattr $C$DW$1214, DW_AT_name("PM")
   10162                      .dwattr $C$DW$1214, DW_AT_location[DW_OP_reg31]
   10163              
   10164              $C$DW$1215      .dwtag  DW_TAG_TI_assign_register
   10165                      .dwattr $C$DW$1215, DW_AT_name("OVM")
   10166                      .dwattr $C$DW$1215, DW_AT_location[DW_OP_regx 0x20]
   10167              
   10168              $C$DW$1216      .dwtag  DW_TAG_TI_assign_register
   10169                      .dwattr $C$DW$1216, DW_AT_name("PAGE0")
   10170                      .dwattr $C$DW$1216, DW_AT_location[DW_OP_regx 0x21]
   10171              
   10172              $C$DW$1217      .dwtag  DW_TAG_TI_assign_register
   10173                      .dwattr $C$DW$1217, DW_AT_name("AMODE")
   10174                      .dwattr $C$DW$1217, DW_AT_location[DW_OP_regx 0x22]
   10175              
   10176              $C$DW$1218      .dwtag  DW_TAG_TI_assign_register
   10177                      .dwattr $C$DW$1218, DW_AT_name("INTM")
   10178                      .dwattr $C$DW$1218, DW_AT_location[DW_OP_regx 0x23]
   10179              
   10180              $C$DW$1219      .dwtag  DW_TAG_TI_assign_register
   10181                      .dwattr $C$DW$1219, DW_AT_name("IFR")
   10182                      .dwattr $C$DW$1219, DW_AT_location[DW_OP_regx 0x24]
   10183              
   10184              $C$DW$1220      .dwtag  DW_TAG_TI_assign_register
   10185                      .dwattr $C$DW$1220, DW_AT_name("IER")
   10186                      .dwattr $C$DW$1220, DW_AT_location[DW_OP_regx 0x25]
   10187              
   10188              $C$DW$1221      .dwtag  DW_TAG_TI_assign_register
   10189                      .dwattr $C$DW$1221, DW_AT_name("V")
   10190                      .dwattr $C$DW$1221, DW_AT_location[DW_OP_regx 0x26]
   10191              
   10192              $C$DW$1222      .dwtag  DW_TAG_TI_assign_register
   10193                      .dwattr $C$DW$1222, DW_AT_name("PSEUDOH")
   10194                      .dwattr $C$DW$1222, DW_AT_location[DW_OP_regx 0x4c]
TMS320C2000 Assembler PC v15.12.3 Sun Oct 30 14:01:37 2016

Tools Copyright (c) 1996-2015 Texas Instruments Incorporated
C:\Users\MaCHaDo\AppData\Local\Temp\0057210                          PAGE  192

   10195              
   10196              $C$DW$1223      .dwtag  DW_TAG_TI_assign_register
   10197                      .dwattr $C$DW$1223, DW_AT_name("VOL")
   10198                      .dwattr $C$DW$1223, DW_AT_location[DW_OP_regx 0x4d]
   10199              
   10200              $C$DW$1224      .dwtag  DW_TAG_TI_assign_register
   10201                      .dwattr $C$DW$1224, DW_AT_name("AR0")
   10202                      .dwattr $C$DW$1224, DW_AT_location[DW_OP_reg4]
   10203              
   10204              $C$DW$1225      .dwtag  DW_TAG_TI_assign_register
   10205                      .dwattr $C$DW$1225, DW_AT_name("XAR0")
   10206                      .dwattr $C$DW$1225, DW_AT_location[DW_OP_reg5]
   10207              
   10208              $C$DW$1226      .dwtag  DW_TAG_TI_assign_register
   10209                      .dwattr $C$DW$1226, DW_AT_name("AR1")
   10210                      .dwattr $C$DW$1226, DW_AT_location[DW_OP_reg6]
   10211              
   10212              $C$DW$1227      .dwtag  DW_TAG_TI_assign_register
   10213                      .dwattr $C$DW$1227, DW_AT_name("XAR1")
   10214                      .dwattr $C$DW$1227, DW_AT_location[DW_OP_reg7]
   10215              
   10216              $C$DW$1228      .dwtag  DW_TAG_TI_assign_register
   10217                      .dwattr $C$DW$1228, DW_AT_name("AR2")
   10218                      .dwattr $C$DW$1228, DW_AT_location[DW_OP_reg8]
   10219              
   10220              $C$DW$1229      .dwtag  DW_TAG_TI_assign_register
   10221                      .dwattr $C$DW$1229, DW_AT_name("XAR2")
   10222                      .dwattr $C$DW$1229, DW_AT_location[DW_OP_reg9]
   10223              
   10224              $C$DW$1230      .dwtag  DW_TAG_TI_assign_register
   10225                      .dwattr $C$DW$1230, DW_AT_name("AR3")
   10226                      .dwattr $C$DW$1230, DW_AT_location[DW_OP_reg10]
   10227              
   10228              $C$DW$1231      .dwtag  DW_TAG_TI_assign_register
   10229                      .dwattr $C$DW$1231, DW_AT_name("XAR3")
   10230                      .dwattr $C$DW$1231, DW_AT_location[DW_OP_reg11]
   10231              
   10232              $C$DW$1232      .dwtag  DW_TAG_TI_assign_register
   10233                      .dwattr $C$DW$1232, DW_AT_name("AR4")
   10234                      .dwattr $C$DW$1232, DW_AT_location[DW_OP_reg12]
   10235              
   10236              $C$DW$1233      .dwtag  DW_TAG_TI_assign_register
   10237                      .dwattr $C$DW$1233, DW_AT_name("XAR4")
   10238                      .dwattr $C$DW$1233, DW_AT_location[DW_OP_reg13]
   10239              
   10240              $C$DW$1234      .dwtag  DW_TAG_TI_assign_register
   10241                      .dwattr $C$DW$1234, DW_AT_name("AR5")
   10242                      .dwattr $C$DW$1234, DW_AT_location[DW_OP_reg14]
   10243              
   10244              $C$DW$1235      .dwtag  DW_TAG_TI_assign_register
   10245                      .dwattr $C$DW$1235, DW_AT_name("XAR5")
   10246                      .dwattr $C$DW$1235, DW_AT_location[DW_OP_reg15]
   10247              
   10248              $C$DW$1236      .dwtag  DW_TAG_TI_assign_register
   10249                      .dwattr $C$DW$1236, DW_AT_name("AR6")
TMS320C2000 Assembler PC v15.12.3 Sun Oct 30 14:01:37 2016

Tools Copyright (c) 1996-2015 Texas Instruments Incorporated
C:\Users\MaCHaDo\AppData\Local\Temp\0057210                          PAGE  193

   10250                      .dwattr $C$DW$1236, DW_AT_location[DW_OP_reg16]
   10251              
   10252              $C$DW$1237      .dwtag  DW_TAG_TI_assign_register
   10253                      .dwattr $C$DW$1237, DW_AT_name("XAR6")
   10254                      .dwattr $C$DW$1237, DW_AT_location[DW_OP_reg17]
   10255              
   10256              $C$DW$1238      .dwtag  DW_TAG_TI_assign_register
   10257                      .dwattr $C$DW$1238, DW_AT_name("AR7")
   10258                      .dwattr $C$DW$1238, DW_AT_location[DW_OP_reg18]
   10259              
   10260              $C$DW$1239      .dwtag  DW_TAG_TI_assign_register
   10261                      .dwattr $C$DW$1239, DW_AT_name("XAR7")
   10262                      .dwattr $C$DW$1239, DW_AT_location[DW_OP_reg19]
   10263              
   10264                      .dwendtag $C$DW$CU
   10265              

No Assembly Errors, No Assembly Warnings
