TMS320C2000 Assembler PC v15.12.3 Sun Oct 30 14:01:37 2016

Tools Copyright (c) 1996-2015 Texas Instruments Incorporated
C:\Users\MaCHaDo\AppData\Local\Temp\0057210                          PAGE    1

       1              ;***************************************************************
       2              ;* TMS320C2000 C/C++ Codegen                   PC v15.12.3.LTS *
       3              ;* Date/Time created: Sun Oct 30 14:01:36 2016                 *
       4              ;***************************************************************
       5                      .compiler_opts --abi=coffabi --float_support=softlib --hll_source=on --mem_model:code=flat --mem_mode
       6        0002  FP      .set    XAR2
       7              
       8              $C$DW$CU        .dwtag  DW_TAG_compile_unit
       9                      .dwattr $C$DW$CU, DW_AT_name("../main.c")
      10                      .dwattr $C$DW$CU, DW_AT_producer("TI TMS320C2000 C/C++ Codegen PC v15.12.3.LTS Copyright (c) 1996-201
      11                      .dwattr $C$DW$CU, DW_AT_TI_version(0x01)
      12                      .dwattr $C$DW$CU, DW_AT_comp_dir("D:\Users\MaCHaDo\Documents\GitHub\LegStrong\Debug")
      13              ;**************************************************************
      14              ;* CINIT RECORDS                                              *
      15              ;**************************************************************
      16 00000000               .sect   ".cinit"
      17                      .align  1
      18 00000000 FFFF          .field          -1,16
      19 00000001 0000-         .field          _gCounter_updateGlobals+0,32
         00000002 0000 
      20 00000003 0000          .bits   0,16                    ; _gCounter_updateGlobals @ 0
      21              
      22 00000004               .sect   ".cinit"
      23                      .align  1
      24 00000004 FFFF          .field          -1,16
      25 00000005 0001-         .field          _Flag_Latch_softwareUpdate+0,32
         00000006 0000 
      26 00000007 0001          .bits   1,16                    ; _Flag_Latch_softwareUpdate @ 0
      27              
      28 00000008               .sect   ".cinit"
      29                      .align  1
      30 00000008 FFFF          .field          -1,16
      31 00000009 0002-         .field          _gLEDcnt+0,32
         0000000a 0000 
      32 0000000b 0000          .bits   0,16                    ; _gLEDcnt @ 0
      33              
      34 0000000c               .sect   ".cinit"
      35                      .align  1
      36 0000000c FFFE          .field          -2,16
      37 0000000d 0006-         .field          _gMaxCurrentSlope+0,32
         0000000e 0000 
      38 0000000f 0000          .bits   0,32                    ; _gMaxCurrentSlope @ 0
         00000010 0000 
      39              
      40 00000011               .sect   ".cinit"
      41                      .align  1
      42 00000011 FFFA          .field          -$C$IR_1,16
      43 00000012 0010-         .field          _gPwmData+0,32
         00000013 0000 
      44 00000014 0000          .bits   0,32                    ; _gPwmData._Tabc._value[0] @ 0
         00000015 0000 
      45 00000016 0000          .bits   0,32                    ; _gPwmData._Tabc._value[1] @ 32
         00000017 0000 
      46 00000018 0000          .bits   0,32                    ; _gPwmData._Tabc._value[2] @ 64
         00000019 0000 
TMS320C2000 Assembler PC v15.12.3 Sun Oct 30 14:01:37 2016

Tools Copyright (c) 1996-2015 Texas Instruments Incorporated
C:\Users\MaCHaDo\AppData\Local\Temp\0057210                          PAGE    2

      47        0006  $C$IR_1:        .set    6
      48              
      49 0000001a               .sect   ".cinit"
      50                      .align  1
      51 0000001a FF96          .field          -$C$IR_2,16
      52 0000001b 0040-         .field          _gMotorVars+0,32
         0000001c 0000 
      53 0000001d 0000          .bits   0,16                    ; _gMotorVars._Flag_enableSys @ 0
      54 0000001e 0000          .bits   0,16                    ; _gMotorVars._Flag_Run_Identify @ 16
      55 0000001f 0000          .bits   0,16                    ; _gMotorVars._Flag_MotorIdentified @ 32
      56 00000020 0001          .bits   1,16                    ; _gMotorVars._Flag_enableForceAngle @ 48
      57 00000021 0000          .bits   0,16                    ; _gMotorVars._Flag_enableFieldWeakening @ 64
      58 00000022 0000          .bits   0,16                    ; _gMotorVars._Flag_enableRsRecalc @ 80
      59 00000023 0001          .bits   1,16                    ; _gMotorVars._Flag_enableUserParams @ 96
      60 00000024 0000          .bits   0,16                    ; _gMotorVars._Flag_enableOffsetcalc @ 112
      61 00000025 0000          .bits   0,16                    ; _gMotorVars._Flag_enablePowerWarp @ 128
      62 00000026 0000          .bits   0,16                    ; _gMotorVars._Flag_enableSpeedCtrl @ 144
      63 00000027 0001          .bits   1,16                    ; _gMotorVars._CtrlState @ 160
      64 00000028 0001          .bits   1,16                    ; _gMotorVars._EstState @ 176
      65 00000029 0000          .bits   0,16                    ; _gMotorVars._UserErrorCode @ 192
      66 0000002a 0000          .bits   0,16                    ; _gMotorVars._CtrlVersion._rsvd @ 208
      67 0000002b 0004          .bits   4,16                    ; _gMotorVars._CtrlVersion._targetProc @ 224
      68 0000002c 0000          .bits   0,16                    ; _gMotorVars._CtrlVersion._major @ 240
      69 0000002d 0000          .bits   0,16                    ; _gMotorVars._CtrlVersion._minor @ 256
      70 0000002e               .space  16
      71 0000002f 0000          .bits   0,32                    ; _gMotorVars._IdRef_A @ 288
         00000030 0000 
      72 00000031 0000          .bits   0,32                    ; _gMotorVars._IqRef_A @ 320
         00000032 0000 
      73 00000033 0000          .bits   0,32                    ; _gMotorVars._SpeedRef_pu @ 352
         00000034 0000 
      74 00000035 9999          .bits   1677721,32                      ; _gMotorVars._SpeedRef_krpm @ 384
         00000036 0019 
      75 00000037 0000          .bits   0,32                    ; _gMotorVars._SpeedTraj_krpm @ 416
         00000038 0000 
      76 00000039 3333          .bits   3355443,32                      ; _gMotorVars._MaxAccel_krpmps @ 448
         0000003a 0033 
      77 0000003b 0000          .bits   0,32                    ; _gMotorVars._Speed_krpm @ 480
         0000003c 0000 
      78 0000003d 0000          .bits   8388608,32                      ; _gMotorVars._OverModulation @ 512
         0000003e 0080 
      79 0000003f 999A          .bits   10066330,32                     ; _gMotorVars._RsOnLineCurrent_A @ 544
         00000040 0099 
      80 00000041 0190          .bits   400,32                  ; _gMotorVars._SvgenMaxModulation_ticks @ 576
         00000042 0000 
      81 00000043 0000          .bits   0,32                    ; _gMotorVars._Flux_Wb @ 608
         00000044 0000 
      82 00000045 0000          .bits   0,32                    ; _gMotorVars._Torque_Nm @ 640
         00000046 0000 
      83 00000047 0000          .xfloat $strtod("0x0p+0")               ; _gMotorVars._MagnCurr_A @ 672
         00000048 0000 
      84 00000049 0000          .xfloat $strtod("0x0p+0")               ; _gMotorVars._Rr_Ohm @ 704
         0000004a 0000 
      85 0000004b 0000          .xfloat $strtod("0x0p+0")               ; _gMotorVars._Rs_Ohm @ 736
         0000004c 0000 
TMS320C2000 Assembler PC v15.12.3 Sun Oct 30 14:01:37 2016

Tools Copyright (c) 1996-2015 Texas Instruments Incorporated
C:\Users\MaCHaDo\AppData\Local\Temp\0057210                          PAGE    3

      86 0000004d 0000          .xfloat $strtod("0x0p+0")               ; _gMotorVars._RsOnLine_Ohm @ 768
         0000004e 0000 
      87 0000004f 0000          .xfloat $strtod("0x0p+0")               ; _gMotorVars._Lsd_H @ 800
         00000050 0000 
      88 00000051 0000          .xfloat $strtod("0x0p+0")               ; _gMotorVars._Lsq_H @ 832
         00000052 0000 
      89 00000053 0000          .xfloat $strtod("0x0p+0")               ; _gMotorVars._Flux_VpHz @ 864
         00000054 0000 
      90 00000055 0000          .xfloat $strtod("0x0p+0")               ; _gMotorVars._ipd_excFreq_Hz @ 896
         00000056 0000 
      91 00000057 0000          .bits   0,32                    ; _gMotorVars._ipd_Kspd @ 928
         00000058 0000 
      92 00000059 0000          .bits   0,32                    ; _gMotorVars._ipd_excMag_coarse_pu @ 960
         0000005a 0000 
      93 0000005b 0000          .bits   0,32                    ; _gMotorVars._ipd_excMag_fine_pu @ 992
         0000005c 0000 
      94 0000005d 0000          .xfloat $strtod("0x0p+0")               ; _gMotorVars._ipd_waitTime_coarse_sec @ 1024
         0000005e 0000 
      95 0000005f 0000          .xfloat $strtod("0x0p+0")               ; _gMotorVars._ipd_waitTime_fine_sec @ 1056
         00000060 0000 
      96 00000061 0000          .bits   0,32                    ; _gMotorVars._Kp_spd @ 1088
         00000062 0000 
      97 00000063 0000          .bits   0,32                    ; _gMotorVars._Ki_spd @ 1120
         00000064 0000 
      98 00000065 0000          .bits   0,32                    ; _gMotorVars._Kp_Idq @ 1152
         00000066 0000 
      99 00000067 0000          .bits   0,32                    ; _gMotorVars._Ki_Idq @ 1184
         00000068 0000 
     100 00000069 0000          .bits   0,32                    ; _gMotorVars._Vd @ 1216
         0000006a 0000 
     101 0000006b 0000          .bits   0,32                    ; _gMotorVars._Vq @ 1248
         0000006c 0000 
     102 0000006d 0000          .bits   0,32                    ; _gMotorVars._Vs @ 1280
         0000006e 0000 
     103 0000006f 6666          .bits   6710886,32                      ; _gMotorVars._VsRef @ 1312
         00000070 0066 
     104 00000071 0000          .bits   0,32                    ; _gMotorVars._VdcBus_kV @ 1344
         00000072 0000 
     105 00000073 0000          .bits   0,32                    ; _gMotorVars._IdcBus @ 1376
         00000074 0000 
     106 00000075 0000          .bits   0,32                    ; _gMotorVars._Id_A @ 1408
         00000076 0000 
     107 00000077 0000          .bits   0,32                    ; _gMotorVars._Iq_A @ 1440
         00000078 0000 
     108 00000079 0000          .bits   0,32                    ; _gMotorVars._Is_A @ 1472
         0000007a 0000 
     109 0000007b 0000          .bits   0,32                    ; _gMotorVars._I_bias._value[0] @ 1504
         0000007c 0000 
     110 0000007d 0000          .bits   0,32                    ; _gMotorVars._I_bias._value[1] @ 1536
         0000007e 0000 
     111 0000007f 0000          .bits   0,32                    ; _gMotorVars._I_bias._value[2] @ 1568
         00000080 0000 
     112 00000081 0000          .bits   0,32                    ; _gMotorVars._V_bias._value[0] @ 1600
         00000082 0000 
     113 00000083 0000          .bits   0,32                    ; _gMotorVars._V_bias._value[1] @ 1632
TMS320C2000 Assembler PC v15.12.3 Sun Oct 30 14:01:37 2016

Tools Copyright (c) 1996-2015 Texas Instruments Incorporated
C:\Users\MaCHaDo\AppData\Local\Temp\0057210                          PAGE    4

         00000084 0000 
     114 00000085 0000          .bits   0,32                    ; _gMotorVars._V_bias._value[2] @ 1664
         00000086 0000 
     115        006A  $C$IR_2:        .set    106
     116              
     117              
     118              $C$DW$1 .dwtag  DW_TAG_subprogram
     119                      .dwattr $C$DW$1, DW_AT_name("CTRL_setup")
     120                      .dwattr $C$DW$1, DW_AT_TI_symbol_name("_CTRL_setup")
     121                      .dwattr $C$DW$1, DW_AT_declaration
     122                      .dwattr $C$DW$1, DW_AT_external
     123              $C$DW$2 .dwtag  DW_TAG_formal_parameter
     124                      .dwattr $C$DW$2, DW_AT_type(*$C$DW$T$201)
     125              
     126                      .dwendtag $C$DW$1
     127              
     128              
     129              $C$DW$3 .dwtag  DW_TAG_subprogram
     130                      .dwattr $C$DW$3, DW_AT_name("CTRL_setParams")
     131                      .dwattr $C$DW$3, DW_AT_TI_symbol_name("_CTRL_setParams")
     132                      .dwattr $C$DW$3, DW_AT_declaration
     133                      .dwattr $C$DW$3, DW_AT_external
     134              $C$DW$4 .dwtag  DW_TAG_formal_parameter
     135                      .dwattr $C$DW$4, DW_AT_type(*$C$DW$T$201)
     136              
     137              $C$DW$5 .dwtag  DW_TAG_formal_parameter
     138                      .dwattr $C$DW$5, DW_AT_type(*$C$DW$T$207)
     139              
     140                      .dwendtag $C$DW$3
     141              
     142              
     143              $C$DW$6 .dwtag  DW_TAG_subprogram
     144                      .dwattr $C$DW$6, DW_AT_name("CTRL_setSpd_ref_krpm")
     145                      .dwattr $C$DW$6, DW_AT_TI_symbol_name("_CTRL_setSpd_ref_krpm")
     146                      .dwattr $C$DW$6, DW_AT_declaration
     147                      .dwattr $C$DW$6, DW_AT_external
     148              $C$DW$7 .dwtag  DW_TAG_formal_parameter
     149                      .dwattr $C$DW$7, DW_AT_type(*$C$DW$T$201)
     150              
     151              $C$DW$8 .dwtag  DW_TAG_formal_parameter
     152                      .dwattr $C$DW$8, DW_AT_type(*$C$DW$T$280)
     153              
     154                      .dwendtag $C$DW$6
     155              
     156              
     157              $C$DW$9 .dwtag  DW_TAG_subprogram
     158                      .dwattr $C$DW$9, DW_AT_name("HAL_enableDebugInt")
     159                      .dwattr $C$DW$9, DW_AT_TI_symbol_name("_HAL_enableDebugInt")
     160                      .dwattr $C$DW$9, DW_AT_declaration
     161                      .dwattr $C$DW$9, DW_AT_external
     162              $C$DW$10        .dwtag  DW_TAG_formal_parameter
     163                      .dwattr $C$DW$10, DW_AT_type(*$C$DW$T$252)
     164              
     165                      .dwendtag $C$DW$9
     166              
TMS320C2000 Assembler PC v15.12.3 Sun Oct 30 14:01:37 2016

Tools Copyright (c) 1996-2015 Texas Instruments Incorporated
C:\Users\MaCHaDo\AppData\Local\Temp\0057210                          PAGE    5

     167              
     168              $C$DW$11        .dwtag  DW_TAG_subprogram
     169                      .dwattr $C$DW$11, DW_AT_name("HAL_enableGlobalInts")
     170                      .dwattr $C$DW$11, DW_AT_TI_symbol_name("_HAL_enableGlobalInts")
     171                      .dwattr $C$DW$11, DW_AT_declaration
     172                      .dwattr $C$DW$11, DW_AT_external
     173              $C$DW$12        .dwtag  DW_TAG_formal_parameter
     174                      .dwattr $C$DW$12, DW_AT_type(*$C$DW$T$252)
     175              
     176                      .dwendtag $C$DW$11
     177              
     178              
     179              $C$DW$13        .dwtag  DW_TAG_subprogram
     180                      .dwattr $C$DW$13, DW_AT_name("HAL_enableAdcInts")
     181                      .dwattr $C$DW$13, DW_AT_TI_symbol_name("_HAL_enableAdcInts")
     182                      .dwattr $C$DW$13, DW_AT_declaration
     183                      .dwattr $C$DW$13, DW_AT_external
     184              $C$DW$14        .dwtag  DW_TAG_formal_parameter
     185                      .dwattr $C$DW$14, DW_AT_type(*$C$DW$T$252)
     186              
     187                      .dwendtag $C$DW$13
     188              
     189              
     190              $C$DW$15        .dwtag  DW_TAG_subprogram
     191                      .dwattr $C$DW$15, DW_AT_name("CTRL_run")
     192                      .dwattr $C$DW$15, DW_AT_TI_symbol_name("_CTRL_run")
     193                      .dwattr $C$DW$15, DW_AT_declaration
     194                      .dwattr $C$DW$15, DW_AT_external
     195              $C$DW$16        .dwtag  DW_TAG_formal_parameter
     196                      .dwattr $C$DW$16, DW_AT_type(*$C$DW$T$201)
     197              
     198              $C$DW$17        .dwtag  DW_TAG_formal_parameter
     199                      .dwattr $C$DW$17, DW_AT_type(*$C$DW$T$252)
     200              
     201              $C$DW$18        .dwtag  DW_TAG_formal_parameter
     202                      .dwattr $C$DW$18, DW_AT_type(*$C$DW$T$246)
     203              
     204              $C$DW$19        .dwtag  DW_TAG_formal_parameter
     205                      .dwattr $C$DW$19, DW_AT_type(*$C$DW$T$257)
     206              
     207                      .dwendtag $C$DW$15
     208              
     209              
     210              $C$DW$20        .dwtag  DW_TAG_subprogram
     211                      .dwattr $C$DW$20, DW_AT_name("CTRL_getVersion")
     212                      .dwattr $C$DW$20, DW_AT_TI_symbol_name("_CTRL_getVersion")
     213                      .dwattr $C$DW$20, DW_AT_declaration
     214                      .dwattr $C$DW$20, DW_AT_external
     215              $C$DW$21        .dwtag  DW_TAG_formal_parameter
     216                      .dwattr $C$DW$21, DW_AT_type(*$C$DW$T$201)
     217              
     218              $C$DW$22        .dwtag  DW_TAG_formal_parameter
     219                      .dwattr $C$DW$22, DW_AT_type(*$C$DW$T$239)
     220              
     221                      .dwendtag $C$DW$20
TMS320C2000 Assembler PC v15.12.3 Sun Oct 30 14:01:37 2016

Tools Copyright (c) 1996-2015 Texas Instruments Incorporated
C:\Users\MaCHaDo\AppData\Local\Temp\0057210                          PAGE    6

     222              
     223              
     224              $C$DW$23        .dwtag  DW_TAG_subprogram
     225                      .dwattr $C$DW$23, DW_AT_name("HAL_setupDrvSpi")
     226                      .dwattr $C$DW$23, DW_AT_TI_symbol_name("_HAL_setupDrvSpi")
     227                      .dwattr $C$DW$23, DW_AT_declaration
     228                      .dwattr $C$DW$23, DW_AT_external
     229              $C$DW$24        .dwtag  DW_TAG_formal_parameter
     230                      .dwattr $C$DW$24, DW_AT_type(*$C$DW$T$252)
     231              
     232              $C$DW$25        .dwtag  DW_TAG_formal_parameter
     233                      .dwattr $C$DW$25, DW_AT_type(*$C$DW$T$243)
     234              
     235                      .dwendtag $C$DW$23
     236              
     237              
     238              $C$DW$26        .dwtag  DW_TAG_subprogram
     239                      .dwattr $C$DW$26, DW_AT_name("HAL_writeDrvData")
     240                      .dwattr $C$DW$26, DW_AT_TI_symbol_name("_HAL_writeDrvData")
     241                      .dwattr $C$DW$26, DW_AT_declaration
     242                      .dwattr $C$DW$26, DW_AT_external
     243              $C$DW$27        .dwtag  DW_TAG_formal_parameter
     244                      .dwattr $C$DW$27, DW_AT_type(*$C$DW$T$252)
     245              
     246              $C$DW$28        .dwtag  DW_TAG_formal_parameter
     247                      .dwattr $C$DW$28, DW_AT_type(*$C$DW$T$243)
     248              
     249                      .dwendtag $C$DW$26
     250              
     251              
     252              $C$DW$29        .dwtag  DW_TAG_subprogram
     253                      .dwattr $C$DW$29, DW_AT_name("HAL_readDrvData")
     254                      .dwattr $C$DW$29, DW_AT_TI_symbol_name("_HAL_readDrvData")
     255                      .dwattr $C$DW$29, DW_AT_declaration
     256                      .dwattr $C$DW$29, DW_AT_external
     257              $C$DW$30        .dwtag  DW_TAG_formal_parameter
     258                      .dwattr $C$DW$30, DW_AT_type(*$C$DW$T$252)
     259              
     260              $C$DW$31        .dwtag  DW_TAG_formal_parameter
     261                      .dwattr $C$DW$31, DW_AT_type(*$C$DW$T$243)
     262              
     263                      .dwendtag $C$DW$29
     264              
     265              
     266              $C$DW$32        .dwtag  DW_TAG_subprogram
     267                      .dwattr $C$DW$32, DW_AT_name("HAL_setupFaults")
     268                      .dwattr $C$DW$32, DW_AT_TI_symbol_name("_HAL_setupFaults")
     269                      .dwattr $C$DW$32, DW_AT_declaration
     270                      .dwattr $C$DW$32, DW_AT_external
     271              $C$DW$33        .dwtag  DW_TAG_formal_parameter
     272                      .dwattr $C$DW$33, DW_AT_type(*$C$DW$T$252)
     273              
     274                      .dwendtag $C$DW$32
     275              
     276              
TMS320C2000 Assembler PC v15.12.3 Sun Oct 30 14:01:37 2016

Tools Copyright (c) 1996-2015 Texas Instruments Incorporated
C:\Users\MaCHaDo\AppData\Local\Temp\0057210                          PAGE    7

     277              $C$DW$34        .dwtag  DW_TAG_subprogram
     278                      .dwattr $C$DW$34, DW_AT_name("HAL_setParams")
     279                      .dwattr $C$DW$34, DW_AT_TI_symbol_name("_HAL_setParams")
     280                      .dwattr $C$DW$34, DW_AT_declaration
     281                      .dwattr $C$DW$34, DW_AT_external
     282              $C$DW$35        .dwtag  DW_TAG_formal_parameter
     283                      .dwattr $C$DW$35, DW_AT_type(*$C$DW$T$252)
     284              
     285              $C$DW$36        .dwtag  DW_TAG_formal_parameter
     286                      .dwattr $C$DW$36, DW_AT_type(*$C$DW$T$271)
     287              
     288                      .dwendtag $C$DW$34
     289              
     290              
     291              $C$DW$37        .dwtag  DW_TAG_subprogram
     292                      .dwattr $C$DW$37, DW_AT_name("HAL_enableDrv")
     293                      .dwattr $C$DW$37, DW_AT_TI_symbol_name("_HAL_enableDrv")
     294                      .dwattr $C$DW$37, DW_AT_declaration
     295                      .dwattr $C$DW$37, DW_AT_external
     296              $C$DW$38        .dwtag  DW_TAG_formal_parameter
     297                      .dwattr $C$DW$38, DW_AT_type(*$C$DW$T$252)
     298              
     299                      .dwendtag $C$DW$37
     300              
     301              
     302              $C$DW$39        .dwtag  DW_TAG_subprogram
     303                      .dwattr $C$DW$39, DW_AT_name("EST_setMaxCurrentSlope_pu")
     304                      .dwattr $C$DW$39, DW_AT_TI_symbol_name("_EST_setMaxCurrentSlope_pu")
     305                      .dwattr $C$DW$39, DW_AT_declaration
     306                      .dwattr $C$DW$39, DW_AT_external
     307              $C$DW$40        .dwtag  DW_TAG_formal_parameter
     308                      .dwattr $C$DW$40, DW_AT_type(*$C$DW$T$46)
     309              
     310              $C$DW$41        .dwtag  DW_TAG_formal_parameter
     311                      .dwattr $C$DW$41, DW_AT_type(*$C$DW$T$280)
     312              
     313                      .dwendtag $C$DW$39
     314              
     315              
     316              $C$DW$42        .dwtag  DW_TAG_subprogram
     317                      .dwattr $C$DW$42, DW_AT_name("USER_setParams")
     318                      .dwattr $C$DW$42, DW_AT_TI_symbol_name("_USER_setParams")
     319                      .dwattr $C$DW$42, DW_AT_declaration
     320                      .dwattr $C$DW$42, DW_AT_external
     321              $C$DW$43        .dwtag  DW_TAG_formal_parameter
     322                      .dwattr $C$DW$43, DW_AT_type(*$C$DW$T$207)
     323              
     324                      .dwendtag $C$DW$42
     325              
     326              
     327              $C$DW$44        .dwtag  DW_TAG_subprogram
     328                      .dwattr $C$DW$44, DW_AT_name("EST_setFlag_enableRsRecalc")
     329                      .dwattr $C$DW$44, DW_AT_TI_symbol_name("_EST_setFlag_enableRsRecalc")
     330                      .dwattr $C$DW$44, DW_AT_declaration
     331                      .dwattr $C$DW$44, DW_AT_external
TMS320C2000 Assembler PC v15.12.3 Sun Oct 30 14:01:37 2016

Tools Copyright (c) 1996-2015 Texas Instruments Incorporated
C:\Users\MaCHaDo\AppData\Local\Temp\0057210                          PAGE    8

     332              $C$DW$45        .dwtag  DW_TAG_formal_parameter
     333                      .dwattr $C$DW$45, DW_AT_type(*$C$DW$T$46)
     334              
     335              $C$DW$46        .dwtag  DW_TAG_formal_parameter
     336                      .dwattr $C$DW$46, DW_AT_type(*$C$DW$T$277)
     337              
     338                      .dwendtag $C$DW$44
     339              
     340              
     341              $C$DW$47        .dwtag  DW_TAG_subprogram
     342                      .dwattr $C$DW$47, DW_AT_name("USER_checkForErrors")
     343                      .dwattr $C$DW$47, DW_AT_TI_symbol_name("_USER_checkForErrors")
     344                      .dwattr $C$DW$47, DW_AT_declaration
     345                      .dwattr $C$DW$47, DW_AT_external
     346              $C$DW$48        .dwtag  DW_TAG_formal_parameter
     347                      .dwattr $C$DW$48, DW_AT_type(*$C$DW$T$207)
     348              
     349                      .dwendtag $C$DW$47
     350              
     351              
     352              $C$DW$49        .dwtag  DW_TAG_subprogram
     353                      .dwattr $C$DW$49, DW_AT_name("USER_softwareUpdate1p6")
     354                      .dwattr $C$DW$49, DW_AT_TI_symbol_name("_USER_softwareUpdate1p6")
     355                      .dwattr $C$DW$49, DW_AT_declaration
     356                      .dwattr $C$DW$49, DW_AT_external
     357              $C$DW$50        .dwtag  DW_TAG_formal_parameter
     358                      .dwattr $C$DW$50, DW_AT_type(*$C$DW$T$201)
     359              
     360                      .dwendtag $C$DW$49
     361              
     362              
     363              $C$DW$51        .dwtag  DW_TAG_subprogram
     364                      .dwattr $C$DW$51, DW_AT_name("SCI_clearRxFifoOvf")
     365                      .dwattr $C$DW$51, DW_AT_TI_symbol_name("_SCI_clearRxFifoOvf")
     366                      .dwattr $C$DW$51, DW_AT_declaration
     367                      .dwattr $C$DW$51, DW_AT_external
     368              $C$DW$52        .dwtag  DW_TAG_formal_parameter
     369                      .dwattr $C$DW$52, DW_AT_type(*$C$DW$T$151)
     370              
     371                      .dwendtag $C$DW$51
     372              
     373              
     374              $C$DW$53        .dwtag  DW_TAG_subprogram
     375                      .dwattr $C$DW$53, DW_AT_name("memCopy")
     376                      .dwattr $C$DW$53, DW_AT_TI_symbol_name("_memCopy")
     377                      .dwattr $C$DW$53, DW_AT_declaration
     378                      .dwattr $C$DW$53, DW_AT_external
     379              $C$DW$54        .dwtag  DW_TAG_formal_parameter
     380                      .dwattr $C$DW$54, DW_AT_type(*$C$DW$T$274)
     381              
     382              $C$DW$55        .dwtag  DW_TAG_formal_parameter
     383                      .dwattr $C$DW$55, DW_AT_type(*$C$DW$T$274)
     384              
     385              $C$DW$56        .dwtag  DW_TAG_formal_parameter
     386                      .dwattr $C$DW$56, DW_AT_type(*$C$DW$T$274)
TMS320C2000 Assembler PC v15.12.3 Sun Oct 30 14:01:37 2016

Tools Copyright (c) 1996-2015 Texas Instruments Incorporated
C:\Users\MaCHaDo\AppData\Local\Temp\0057210                          PAGE    9

     387              
     388                      .dwendtag $C$DW$53
     389              
     390              
     391              $C$DW$57        .dwtag  DW_TAG_subprogram
     392                      .dwattr $C$DW$57, DW_AT_name("EST_setFlag_enableForceAngle")
     393                      .dwattr $C$DW$57, DW_AT_TI_symbol_name("_EST_setFlag_enableForceAngle")
     394                      .dwattr $C$DW$57, DW_AT_declaration
     395                      .dwattr $C$DW$57, DW_AT_external
     396              $C$DW$58        .dwtag  DW_TAG_formal_parameter
     397                      .dwattr $C$DW$58, DW_AT_type(*$C$DW$T$46)
     398              
     399              $C$DW$59        .dwtag  DW_TAG_formal_parameter
     400                      .dwattr $C$DW$59, DW_AT_type(*$C$DW$T$277)
     401              
     402                      .dwendtag $C$DW$57
     403              
     404              
     405              $C$DW$60        .dwtag  DW_TAG_subprogram
     406                      .dwattr $C$DW$60, DW_AT_name("SCI_clearRxFifoInt")
     407                      .dwattr $C$DW$60, DW_AT_TI_symbol_name("_SCI_clearRxFifoInt")
     408                      .dwattr $C$DW$60, DW_AT_declaration
     409                      .dwattr $C$DW$60, DW_AT_external
     410              $C$DW$61        .dwtag  DW_TAG_formal_parameter
     411                      .dwattr $C$DW$61, DW_AT_type(*$C$DW$T$151)
     412              
     413                      .dwendtag $C$DW$60
     414              
     415              
     416              $C$DW$62        .dwtag  DW_TAG_subprogram
     417                      .dwattr $C$DW$62, DW_AT_name("USER_calcPIgains")
     418                      .dwattr $C$DW$62, DW_AT_TI_symbol_name("_USER_calcPIgains")
     419                      .dwattr $C$DW$62, DW_AT_declaration
     420                      .dwattr $C$DW$62, DW_AT_external
     421              $C$DW$63        .dwtag  DW_TAG_formal_parameter
     422                      .dwattr $C$DW$63, DW_AT_type(*$C$DW$T$201)
     423              
     424                      .dwendtag $C$DW$62
     425              
     426                      .global _gCounter_updateGlobals
     427 00000000       _gCounter_updateGlobals:        .usect  ".ebss",1,1,0
     428              $C$DW$64        .dwtag  DW_TAG_variable
     429                      .dwattr $C$DW$64, DW_AT_name("gCounter_updateGlobals")
     430                      .dwattr $C$DW$64, DW_AT_TI_symbol_name("_gCounter_updateGlobals")
     431                      .dwattr $C$DW$64, DW_AT_location[DW_OP_addr _gCounter_updateGlobals]
     432                      .dwattr $C$DW$64, DW_AT_type(*$C$DW$T$66)
     433                      .dwattr $C$DW$64, DW_AT_external
     434              
     435                      .global _Flag_Latch_softwareUpdate
     436 00000001       _Flag_Latch_softwareUpdate:     .usect  ".ebss",1,1,0
     437              $C$DW$65        .dwtag  DW_TAG_variable
     438                      .dwattr $C$DW$65, DW_AT_name("Flag_Latch_softwareUpdate")
     439                      .dwattr $C$DW$65, DW_AT_TI_symbol_name("_Flag_Latch_softwareUpdate")
     440                      .dwattr $C$DW$65, DW_AT_location[DW_OP_addr _Flag_Latch_softwareUpdate]
     441                      .dwattr $C$DW$65, DW_AT_type(*$C$DW$T$69)
TMS320C2000 Assembler PC v15.12.3 Sun Oct 30 14:01:37 2016

Tools Copyright (c) 1996-2015 Texas Instruments Incorporated
C:\Users\MaCHaDo\AppData\Local\Temp\0057210                          PAGE   10

     442                      .dwattr $C$DW$65, DW_AT_external
     443              
     444                      .global _gLEDcnt
     445 00000002       _gLEDcnt:       .usect  ".ebss",1,1,0
     446              $C$DW$66        .dwtag  DW_TAG_variable
     447                      .dwattr $C$DW$66, DW_AT_name("gLEDcnt")
     448                      .dwattr $C$DW$66, DW_AT_TI_symbol_name("_gLEDcnt")
     449                      .dwattr $C$DW$66, DW_AT_location[DW_OP_addr _gLEDcnt]
     450                      .dwattr $C$DW$66, DW_AT_type(*$C$DW$T$22)
     451                      .dwattr $C$DW$66, DW_AT_external
     452              
     453              
     454              $C$DW$67        .dwtag  DW_TAG_subprogram
     455                      .dwattr $C$DW$67, DW_AT_name("EST_isMotorIdentified")
     456                      .dwattr $C$DW$67, DW_AT_TI_symbol_name("_EST_isMotorIdentified")
     457                      .dwattr $C$DW$67, DW_AT_type(*$C$DW$T$69)
     458                      .dwattr $C$DW$67, DW_AT_declaration
     459                      .dwattr $C$DW$67, DW_AT_external
     460              $C$DW$68        .dwtag  DW_TAG_formal_parameter
     461                      .dwattr $C$DW$68, DW_AT_type(*$C$DW$T$46)
     462              
     463                      .dwendtag $C$DW$67
     464              
     465              
     466              $C$DW$69        .dwtag  DW_TAG_subprogram
     467                      .dwattr $C$DW$69, DW_AT_name("EST_getState")
     468                      .dwattr $C$DW$69, DW_AT_TI_symbol_name("_EST_getState")
     469                      .dwattr $C$DW$69, DW_AT_type(*$C$DW$T$164)
     470                      .dwattr $C$DW$69, DW_AT_declaration
     471                      .dwattr $C$DW$69, DW_AT_external
     472              $C$DW$70        .dwtag  DW_TAG_formal_parameter
     473                      .dwattr $C$DW$70, DW_AT_type(*$C$DW$T$46)
     474              
     475                      .dwendtag $C$DW$69
     476              
     477              
     478              $C$DW$71        .dwtag  DW_TAG_subprogram
     479                      .dwattr $C$DW$71, DW_AT_name("USER_getErrorCode")
     480                      .dwattr $C$DW$71, DW_AT_TI_symbol_name("_USER_getErrorCode")
     481                      .dwattr $C$DW$71, DW_AT_type(*$C$DW$T$166)
     482                      .dwattr $C$DW$71, DW_AT_declaration
     483                      .dwattr $C$DW$71, DW_AT_external
     484              $C$DW$72        .dwtag  DW_TAG_formal_parameter
     485                      .dwattr $C$DW$72, DW_AT_type(*$C$DW$T$207)
     486              
     487                      .dwendtag $C$DW$71
     488              
     489              
     490              $C$DW$73        .dwtag  DW_TAG_subprogram
     491                      .dwattr $C$DW$73, DW_AT_name("CTRL_updateState")
     492                      .dwattr $C$DW$73, DW_AT_TI_symbol_name("_CTRL_updateState")
     493                      .dwattr $C$DW$73, DW_AT_type(*$C$DW$T$69)
     494                      .dwattr $C$DW$73, DW_AT_declaration
     495                      .dwattr $C$DW$73, DW_AT_external
     496              $C$DW$74        .dwtag  DW_TAG_formal_parameter
TMS320C2000 Assembler PC v15.12.3 Sun Oct 30 14:01:37 2016

Tools Copyright (c) 1996-2015 Texas Instruments Incorporated
C:\Users\MaCHaDo\AppData\Local\Temp\0057210                          PAGE   11

     497                      .dwattr $C$DW$74, DW_AT_type(*$C$DW$T$201)
     498              
     499                      .dwendtag $C$DW$73
     500              
     501              
     502              $C$DW$75        .dwtag  DW_TAG_subprogram
     503                      .dwattr $C$DW$75, DW_AT_name("SCI_getDataBlocking")
     504                      .dwattr $C$DW$75, DW_AT_TI_symbol_name("_SCI_getDataBlocking")
     505                      .dwattr $C$DW$75, DW_AT_type(*$C$DW$T$22)
     506                      .dwattr $C$DW$75, DW_AT_declaration
     507                      .dwattr $C$DW$75, DW_AT_external
     508              $C$DW$76        .dwtag  DW_TAG_formal_parameter
     509                      .dwattr $C$DW$76, DW_AT_type(*$C$DW$T$151)
     510              
     511                      .dwendtag $C$DW$75
     512              
     513              
     514              $C$DW$77        .dwtag  DW_TAG_subprogram
     515                      .dwattr $C$DW$77, DW_AT_name("SCI_getRxFifoStatus")
     516                      .dwattr $C$DW$77, DW_AT_TI_symbol_name("_SCI_getRxFifoStatus")
     517                      .dwattr $C$DW$77, DW_AT_type(*$C$DW$T$221)
     518                      .dwattr $C$DW$77, DW_AT_declaration
     519                      .dwattr $C$DW$77, DW_AT_external
     520              $C$DW$78        .dwtag  DW_TAG_formal_parameter
     521                      .dwattr $C$DW$78, DW_AT_type(*$C$DW$T$151)
     522              
     523                      .dwendtag $C$DW$77
     524              
     525              $C$DW$79        .dwtag  DW_TAG_variable
     526                      .dwattr $C$DW$79, DW_AT_name("RamfuncsLoadStart")
     527                      .dwattr $C$DW$79, DW_AT_TI_symbol_name("_RamfuncsLoadStart")
     528                      .dwattr $C$DW$79, DW_AT_type(*$C$DW$T$274)
     529                      .dwattr $C$DW$79, DW_AT_declaration
     530                      .dwattr $C$DW$79, DW_AT_external
     531              
     532              $C$DW$80        .dwtag  DW_TAG_variable
     533                      .dwattr $C$DW$80, DW_AT_name("RamfuncsRunStart")
     534                      .dwattr $C$DW$80, DW_AT_TI_symbol_name("_RamfuncsRunStart")
     535                      .dwattr $C$DW$80, DW_AT_type(*$C$DW$T$274)
     536                      .dwattr $C$DW$80, DW_AT_declaration
     537                      .dwattr $C$DW$80, DW_AT_external
     538              
     539              
     540              $C$DW$81        .dwtag  DW_TAG_subprogram
     541                      .dwattr $C$DW$81, DW_AT_name("USER_computeTorque_Flux_Iq_pu_to_Nm_sf")
     542                      .dwattr $C$DW$81, DW_AT_TI_symbol_name("_USER_computeTorque_Flux_Iq_pu_to_Nm_sf")
     543                      .dwattr $C$DW$81, DW_AT_type(*$C$DW$T$31)
     544                      .dwattr $C$DW$81, DW_AT_declaration
     545                      .dwattr $C$DW$81, DW_AT_external
     546                      .dwendtag $C$DW$81
     547              
     548              $C$DW$82        .dwtag  DW_TAG_variable
     549                      .dwattr $C$DW$82, DW_AT_name("RamfuncsLoadEnd")
     550                      .dwattr $C$DW$82, DW_AT_TI_symbol_name("_RamfuncsLoadEnd")
     551                      .dwattr $C$DW$82, DW_AT_type(*$C$DW$T$274)
TMS320C2000 Assembler PC v15.12.3 Sun Oct 30 14:01:37 2016

Tools Copyright (c) 1996-2015 Texas Instruments Incorporated
C:\Users\MaCHaDo\AppData\Local\Temp\0057210                          PAGE   12

     552                      .dwattr $C$DW$82, DW_AT_declaration
     553                      .dwattr $C$DW$82, DW_AT_external
     554              
     555              
     556              $C$DW$83        .dwtag  DW_TAG_subprogram
     557                      .dwattr $C$DW$83, DW_AT_name("USER_computeFlux_pu_to_Wb_sf")
     558                      .dwattr $C$DW$83, DW_AT_TI_symbol_name("_USER_computeFlux_pu_to_Wb_sf")
     559                      .dwattr $C$DW$83, DW_AT_type(*$C$DW$T$31)
     560                      .dwattr $C$DW$83, DW_AT_declaration
     561                      .dwattr $C$DW$83, DW_AT_external
     562                      .dwendtag $C$DW$83
     563              
     564              
     565              $C$DW$84        .dwtag  DW_TAG_subprogram
     566                      .dwattr $C$DW$84, DW_AT_name("USER_computeFlux_pu_to_VpHz_sf")
     567                      .dwattr $C$DW$84, DW_AT_TI_symbol_name("_USER_computeFlux_pu_to_VpHz_sf")
     568                      .dwattr $C$DW$84, DW_AT_type(*$C$DW$T$31)
     569                      .dwattr $C$DW$84, DW_AT_declaration
     570                      .dwattr $C$DW$84, DW_AT_external
     571                      .dwendtag $C$DW$84
     572              
     573                      .global _ctrlHandle
     574 00000004       _ctrlHandle:    .usect  ".ebss",2,1,1
     575              $C$DW$85        .dwtag  DW_TAG_variable
     576                      .dwattr $C$DW$85, DW_AT_name("ctrlHandle")
     577                      .dwattr $C$DW$85, DW_AT_TI_symbol_name("_ctrlHandle")
     578                      .dwattr $C$DW$85, DW_AT_location[DW_OP_addr _ctrlHandle]
     579                      .dwattr $C$DW$85, DW_AT_type(*$C$DW$T$201)
     580                      .dwattr $C$DW$85, DW_AT_external
     581              
     582                      .global _halHandle
     583 00000000       _halHandle:     .usect  "rom_accessed_data",2,1,1
     584              $C$DW$86        .dwtag  DW_TAG_variable
     585                      .dwattr $C$DW$86, DW_AT_name("halHandle")
     586                      .dwattr $C$DW$86, DW_AT_TI_symbol_name("_halHandle")
     587                      .dwattr $C$DW$86, DW_AT_location[DW_OP_addr _halHandle]
     588                      .dwattr $C$DW$86, DW_AT_type(*$C$DW$T$252)
     589                      .dwattr $C$DW$86, DW_AT_external
     590              
     591              
     592              $C$DW$87        .dwtag  DW_TAG_subprogram
     593                      .dwattr $C$DW$87, DW_AT_name("labs")
     594                      .dwattr $C$DW$87, DW_AT_TI_symbol_name("_labs")
     595                      .dwattr $C$DW$87, DW_AT_type(*$C$DW$T$12)
     596                      .dwattr $C$DW$87, DW_AT_declaration
     597                      .dwattr $C$DW$87, DW_AT_external
     598              $C$DW$88        .dwtag  DW_TAG_formal_parameter
     599                      .dwattr $C$DW$88, DW_AT_type(*$C$DW$T$12)
     600              
     601                      .dwendtag $C$DW$87
     602              
     603                      .global _gMaxCurrentSlope
     604 00000006       _gMaxCurrentSlope:      .usect  ".ebss",2,1,1
     605              $C$DW$89        .dwtag  DW_TAG_variable
     606                      .dwattr $C$DW$89, DW_AT_name("gMaxCurrentSlope")
TMS320C2000 Assembler PC v15.12.3 Sun Oct 30 14:01:37 2016

Tools Copyright (c) 1996-2015 Texas Instruments Incorporated
C:\Users\MaCHaDo\AppData\Local\Temp\0057210                          PAGE   13

     607                      .dwattr $C$DW$89, DW_AT_TI_symbol_name("_gMaxCurrentSlope")
     608                      .dwattr $C$DW$89, DW_AT_location[DW_OP_addr _gMaxCurrentSlope]
     609                      .dwattr $C$DW$89, DW_AT_type(*$C$DW$T$31)
     610                      .dwattr $C$DW$89, DW_AT_external
     611              
     612                      .global _gFlux_pu_to_Wb_sf
     613 00000008       _gFlux_pu_to_Wb_sf:     .usect  ".ebss",2,1,1
     614              $C$DW$90        .dwtag  DW_TAG_variable
     615                      .dwattr $C$DW$90, DW_AT_name("gFlux_pu_to_Wb_sf")
     616                      .dwattr $C$DW$90, DW_AT_TI_symbol_name("_gFlux_pu_to_Wb_sf")
     617                      .dwattr $C$DW$90, DW_AT_location[DW_OP_addr _gFlux_pu_to_Wb_sf]
     618                      .dwattr $C$DW$90, DW_AT_type(*$C$DW$T$31)
     619                      .dwattr $C$DW$90, DW_AT_external
     620              
     621              $C$DW$91        .dwtag  DW_TAG_variable
     622                      .dwattr $C$DW$91, DW_AT_name("switch_ram_load")
     623                      .dwattr $C$DW$91, DW_AT_TI_symbol_name("_switch_ram_load")
     624                      .dwattr $C$DW$91, DW_AT_type(*$C$DW$T$274)
     625                      .dwattr $C$DW$91, DW_AT_declaration
     626                      .dwattr $C$DW$91, DW_AT_external
     627              
     628                      .global _gTorque_Ls_Id_Iq_pu_to_Nm_sf
     629 0000000a       _gTorque_Ls_Id_Iq_pu_to_Nm_sf:  .usect  ".ebss",2,1,1
     630              $C$DW$92        .dwtag  DW_TAG_variable
     631                      .dwattr $C$DW$92, DW_AT_name("gTorque_Ls_Id_Iq_pu_to_Nm_sf")
     632                      .dwattr $C$DW$92, DW_AT_TI_symbol_name("_gTorque_Ls_Id_Iq_pu_to_Nm_sf")
     633                      .dwattr $C$DW$92, DW_AT_location[DW_OP_addr _gTorque_Ls_Id_Iq_pu_to_Nm_sf]
     634                      .dwattr $C$DW$92, DW_AT_type(*$C$DW$T$31)
     635                      .dwattr $C$DW$92, DW_AT_external
     636              
     637                      .global _gFlux_pu_to_VpHz_sf
     638 0000000c       _gFlux_pu_to_VpHz_sf:   .usect  ".ebss",2,1,1
     639              $C$DW$93        .dwtag  DW_TAG_variable
     640                      .dwattr $C$DW$93, DW_AT_name("gFlux_pu_to_VpHz_sf")
     641                      .dwattr $C$DW$93, DW_AT_TI_symbol_name("_gFlux_pu_to_VpHz_sf")
     642                      .dwattr $C$DW$93, DW_AT_location[DW_OP_addr _gFlux_pu_to_VpHz_sf]
     643                      .dwattr $C$DW$93, DW_AT_type(*$C$DW$T$31)
     644                      .dwattr $C$DW$93, DW_AT_external
     645              
     646                      .global _gTorque_Flux_Iq_pu_to_Nm_sf
     647 0000000e       _gTorque_Flux_Iq_pu_to_Nm_sf:   .usect  ".ebss",2,1,1
     648              $C$DW$94        .dwtag  DW_TAG_variable
     649                      .dwattr $C$DW$94, DW_AT_name("gTorque_Flux_Iq_pu_to_Nm_sf")
     650                      .dwattr $C$DW$94, DW_AT_TI_symbol_name("_gTorque_Flux_Iq_pu_to_Nm_sf")
     651                      .dwattr $C$DW$94, DW_AT_location[DW_OP_addr _gTorque_Flux_Iq_pu_to_Nm_sf]
     652                      .dwattr $C$DW$94, DW_AT_type(*$C$DW$T$31)
     653                      .dwattr $C$DW$94, DW_AT_external
     654              
     655              $C$DW$95        .dwtag  DW_TAG_variable
     656                      .dwattr $C$DW$95, DW_AT_name("econst_end")
     657                      .dwattr $C$DW$95, DW_AT_TI_symbol_name("_econst_end")
     658                      .dwattr $C$DW$95, DW_AT_type(*$C$DW$T$274)
     659                      .dwattr $C$DW$95, DW_AT_declaration
     660                      .dwattr $C$DW$95, DW_AT_external
     661              
TMS320C2000 Assembler PC v15.12.3 Sun Oct 30 14:01:37 2016

Tools Copyright (c) 1996-2015 Texas Instruments Incorporated
C:\Users\MaCHaDo\AppData\Local\Temp\0057210                          PAGE   14

     662              $C$DW$96        .dwtag  DW_TAG_variable
     663                      .dwattr $C$DW$96, DW_AT_name("econst_start")
     664                      .dwattr $C$DW$96, DW_AT_TI_symbol_name("_econst_start")
     665                      .dwattr $C$DW$96, DW_AT_type(*$C$DW$T$274)
     666                      .dwattr $C$DW$96, DW_AT_declaration
     667                      .dwattr $C$DW$96, DW_AT_external
     668              
     669              $C$DW$97        .dwtag  DW_TAG_variable
     670                      .dwattr $C$DW$97, DW_AT_name("switch_start")
     671                      .dwattr $C$DW$97, DW_AT_TI_symbol_name("_switch_start")
     672                      .dwattr $C$DW$97, DW_AT_type(*$C$DW$T$274)
     673                      .dwattr $C$DW$97, DW_AT_declaration
     674                      .dwattr $C$DW$97, DW_AT_external
     675              
     676              $C$DW$98        .dwtag  DW_TAG_variable
     677                      .dwattr $C$DW$98, DW_AT_name("econst_ram_load")
     678                      .dwattr $C$DW$98, DW_AT_TI_symbol_name("_econst_ram_load")
     679                      .dwattr $C$DW$98, DW_AT_type(*$C$DW$T$274)
     680                      .dwattr $C$DW$98, DW_AT_declaration
     681                      .dwattr $C$DW$98, DW_AT_external
     682              
     683              $C$DW$99        .dwtag  DW_TAG_variable
     684                      .dwattr $C$DW$99, DW_AT_name("switch_end")
     685                      .dwattr $C$DW$99, DW_AT_TI_symbol_name("_switch_end")
     686                      .dwattr $C$DW$99, DW_AT_type(*$C$DW$T$274)
     687                      .dwattr $C$DW$99, DW_AT_declaration
     688                      .dwattr $C$DW$99, DW_AT_external
     689              
     690              
     691              $C$DW$100       .dwtag  DW_TAG_subprogram
     692                      .dwattr $C$DW$100, DW_AT_name("USER_computeTorque_Nm")
     693                      .dwattr $C$DW$100, DW_AT_TI_symbol_name("_USER_computeTorque_Nm")
     694                      .dwattr $C$DW$100, DW_AT_type(*$C$DW$T$31)
     695                      .dwattr $C$DW$100, DW_AT_declaration
     696                      .dwattr $C$DW$100, DW_AT_external
     697              $C$DW$101       .dwtag  DW_TAG_formal_parameter
     698                      .dwattr $C$DW$101, DW_AT_type(*$C$DW$T$201)
     699              
     700              $C$DW$102       .dwtag  DW_TAG_formal_parameter
     701                      .dwattr $C$DW$102, DW_AT_type(*$C$DW$T$280)
     702              
     703              $C$DW$103       .dwtag  DW_TAG_formal_parameter
     704                      .dwattr $C$DW$103, DW_AT_type(*$C$DW$T$280)
     705              
     706                      .dwendtag $C$DW$100
     707              
     708              
     709              $C$DW$104       .dwtag  DW_TAG_subprogram
     710                      .dwattr $C$DW$104, DW_AT_name("EST_getSpeed_krpm")
     711                      .dwattr $C$DW$104, DW_AT_TI_symbol_name("_EST_getSpeed_krpm")
     712                      .dwattr $C$DW$104, DW_AT_type(*$C$DW$T$31)
     713                      .dwattr $C$DW$104, DW_AT_declaration
     714                      .dwattr $C$DW$104, DW_AT_external
     715              $C$DW$105       .dwtag  DW_TAG_formal_parameter
     716                      .dwattr $C$DW$105, DW_AT_type(*$C$DW$T$46)
TMS320C2000 Assembler PC v15.12.3 Sun Oct 30 14:01:37 2016

Tools Copyright (c) 1996-2015 Texas Instruments Incorporated
C:\Users\MaCHaDo\AppData\Local\Temp\0057210                          PAGE   15

     717              
     718                      .dwendtag $C$DW$104
     719              
     720              
     721              $C$DW$106       .dwtag  DW_TAG_subprogram
     722                      .dwattr $C$DW$106, DW_AT_name("EST_getRr_Ohm")
     723                      .dwattr $C$DW$106, DW_AT_TI_symbol_name("_EST_getRr_Ohm")
     724                      .dwattr $C$DW$106, DW_AT_type(*$C$DW$T$67)
     725                      .dwattr $C$DW$106, DW_AT_declaration
     726                      .dwattr $C$DW$106, DW_AT_external
     727              $C$DW$107       .dwtag  DW_TAG_formal_parameter
     728                      .dwattr $C$DW$107, DW_AT_type(*$C$DW$T$46)
     729              
     730                      .dwendtag $C$DW$106
     731              
     732              
     733              $C$DW$108       .dwtag  DW_TAG_subprogram
     734                      .dwattr $C$DW$108, DW_AT_name("EST_getMaxCurrentSlope_pu")
     735                      .dwattr $C$DW$108, DW_AT_TI_symbol_name("_EST_getMaxCurrentSlope_pu")
     736                      .dwattr $C$DW$108, DW_AT_type(*$C$DW$T$31)
     737                      .dwattr $C$DW$108, DW_AT_declaration
     738                      .dwattr $C$DW$108, DW_AT_external
     739              $C$DW$109       .dwtag  DW_TAG_formal_parameter
     740                      .dwattr $C$DW$109, DW_AT_type(*$C$DW$T$46)
     741              
     742                      .dwendtag $C$DW$108
     743              
     744              
     745              $C$DW$110       .dwtag  DW_TAG_subprogram
     746                      .dwattr $C$DW$110, DW_AT_name("HAL_init")
     747                      .dwattr $C$DW$110, DW_AT_TI_symbol_name("_HAL_init")
     748                      .dwattr $C$DW$110, DW_AT_type(*$C$DW$T$252)
     749                      .dwattr $C$DW$110, DW_AT_declaration
     750                      .dwattr $C$DW$110, DW_AT_external
     751              $C$DW$111       .dwtag  DW_TAG_formal_parameter
     752                      .dwattr $C$DW$111, DW_AT_type(*$C$DW$T$3)
     753              
     754              $C$DW$112       .dwtag  DW_TAG_formal_parameter
     755                      .dwattr $C$DW$112, DW_AT_type(*$C$DW$T$234)
     756              
     757                      .dwendtag $C$DW$110
     758              
     759              
     760              $C$DW$113       .dwtag  DW_TAG_subprogram
     761                      .dwattr $C$DW$113, DW_AT_name("USER_computeTorque_Ls_Id_Iq_pu_to_Nm_sf")
     762                      .dwattr $C$DW$113, DW_AT_TI_symbol_name("_USER_computeTorque_Ls_Id_Iq_pu_to_Nm_sf")
     763                      .dwattr $C$DW$113, DW_AT_type(*$C$DW$T$31)
     764                      .dwattr $C$DW$113, DW_AT_declaration
     765                      .dwattr $C$DW$113, DW_AT_external
     766                      .dwendtag $C$DW$113
     767              
     768              
     769              $C$DW$114       .dwtag  DW_TAG_subprogram
     770                      .dwattr $C$DW$114, DW_AT_name("EST_getRs_Ohm")
     771                      .dwattr $C$DW$114, DW_AT_TI_symbol_name("_EST_getRs_Ohm")
TMS320C2000 Assembler PC v15.12.3 Sun Oct 30 14:01:37 2016

Tools Copyright (c) 1996-2015 Texas Instruments Incorporated
C:\Users\MaCHaDo\AppData\Local\Temp\0057210                          PAGE   16

     772                      .dwattr $C$DW$114, DW_AT_type(*$C$DW$T$67)
     773                      .dwattr $C$DW$114, DW_AT_declaration
     774                      .dwattr $C$DW$114, DW_AT_external
     775              $C$DW$115       .dwtag  DW_TAG_formal_parameter
     776                      .dwattr $C$DW$115, DW_AT_type(*$C$DW$T$46)
     777              
     778                      .dwendtag $C$DW$114
     779              
     780              
     781              $C$DW$116       .dwtag  DW_TAG_subprogram
     782                      .dwattr $C$DW$116, DW_AT_name("CTRL_initCtrl")
     783                      .dwattr $C$DW$116, DW_AT_TI_symbol_name("_CTRL_initCtrl")
     784                      .dwattr $C$DW$116, DW_AT_type(*$C$DW$T$201)
     785                      .dwattr $C$DW$116, DW_AT_declaration
     786                      .dwattr $C$DW$116, DW_AT_external
     787              $C$DW$117       .dwtag  DW_TAG_formal_parameter
     788                      .dwattr $C$DW$117, DW_AT_type(*$C$DW$T$232)
     789              
     790              $C$DW$118       .dwtag  DW_TAG_formal_parameter
     791                      .dwattr $C$DW$118, DW_AT_type(*$C$DW$T$3)
     792              
     793              $C$DW$119       .dwtag  DW_TAG_formal_parameter
     794                      .dwattr $C$DW$119, DW_AT_type(*$C$DW$T$234)
     795              
     796                      .dwendtag $C$DW$116
     797              
     798              
     799              $C$DW$120       .dwtag  DW_TAG_subprogram
     800                      .dwattr $C$DW$120, DW_AT_name("EST_getFlux_VpHz")
     801                      .dwattr $C$DW$120, DW_AT_TI_symbol_name("_EST_getFlux_VpHz")
     802                      .dwattr $C$DW$120, DW_AT_type(*$C$DW$T$67)
     803                      .dwattr $C$DW$120, DW_AT_declaration
     804                      .dwattr $C$DW$120, DW_AT_external
     805              $C$DW$121       .dwtag  DW_TAG_formal_parameter
     806                      .dwattr $C$DW$121, DW_AT_type(*$C$DW$T$46)
     807              
     808                      .dwendtag $C$DW$120
     809              
     810              
     811              $C$DW$122       .dwtag  DW_TAG_subprogram
     812                      .dwattr $C$DW$122, DW_AT_name("EST_getIdRated")
     813                      .dwattr $C$DW$122, DW_AT_TI_symbol_name("_EST_getIdRated")
     814                      .dwattr $C$DW$122, DW_AT_type(*$C$DW$T$67)
     815                      .dwattr $C$DW$122, DW_AT_declaration
     816                      .dwattr $C$DW$122, DW_AT_external
     817              $C$DW$123       .dwtag  DW_TAG_formal_parameter
     818                      .dwattr $C$DW$123, DW_AT_type(*$C$DW$T$46)
     819              
     820                      .dwendtag $C$DW$122
     821              
     822              
     823              $C$DW$124       .dwtag  DW_TAG_subprogram
     824                      .dwattr $C$DW$124, DW_AT_name("__IQsat")
     825                      .dwattr $C$DW$124, DW_AT_TI_symbol_name("___IQsat")
     826                      .dwattr $C$DW$124, DW_AT_type(*$C$DW$T$12)
TMS320C2000 Assembler PC v15.12.3 Sun Oct 30 14:01:37 2016

Tools Copyright (c) 1996-2015 Texas Instruments Incorporated
C:\Users\MaCHaDo\AppData\Local\Temp\0057210                          PAGE   17

     827                      .dwattr $C$DW$124, DW_AT_declaration
     828                      .dwattr $C$DW$124, DW_AT_external
     829              $C$DW$125       .dwtag  DW_TAG_formal_parameter
     830                      .dwattr $C$DW$125, DW_AT_type(*$C$DW$T$12)
     831              
     832              $C$DW$126       .dwtag  DW_TAG_formal_parameter
     833                      .dwattr $C$DW$126, DW_AT_type(*$C$DW$T$12)
     834              
     835              $C$DW$127       .dwtag  DW_TAG_formal_parameter
     836                      .dwattr $C$DW$127, DW_AT_type(*$C$DW$T$12)
     837              
     838                      .dwendtag $C$DW$124
     839              
     840              
     841              $C$DW$128       .dwtag  DW_TAG_subprogram
     842                      .dwattr $C$DW$128, DW_AT_name("USER_computeFlux")
     843                      .dwattr $C$DW$128, DW_AT_TI_symbol_name("_USER_computeFlux")
     844                      .dwattr $C$DW$128, DW_AT_type(*$C$DW$T$31)
     845                      .dwattr $C$DW$128, DW_AT_declaration
     846                      .dwattr $C$DW$128, DW_AT_external
     847              $C$DW$129       .dwtag  DW_TAG_formal_parameter
     848                      .dwattr $C$DW$129, DW_AT_type(*$C$DW$T$201)
     849              
     850              $C$DW$130       .dwtag  DW_TAG_formal_parameter
     851                      .dwattr $C$DW$130, DW_AT_type(*$C$DW$T$280)
     852              
     853                      .dwendtag $C$DW$128
     854              
     855              
     856              $C$DW$131       .dwtag  DW_TAG_subprogram
     857                      .dwattr $C$DW$131, DW_AT_name("__IQmpy")
     858                      .dwattr $C$DW$131, DW_AT_TI_symbol_name("___IQmpy")
     859                      .dwattr $C$DW$131, DW_AT_type(*$C$DW$T$12)
     860                      .dwattr $C$DW$131, DW_AT_declaration
     861                      .dwattr $C$DW$131, DW_AT_external
     862              $C$DW$132       .dwtag  DW_TAG_formal_parameter
     863                      .dwattr $C$DW$132, DW_AT_type(*$C$DW$T$12)
     864              
     865              $C$DW$133       .dwtag  DW_TAG_formal_parameter
     866                      .dwattr $C$DW$133, DW_AT_type(*$C$DW$T$12)
     867              
     868              $C$DW$134       .dwtag  DW_TAG_formal_parameter
     869                      .dwattr $C$DW$134, DW_AT_type(*$C$DW$T$10)
     870              
     871                      .dwendtag $C$DW$131
     872              
     873              
     874              $C$DW$135       .dwtag  DW_TAG_subprogram
     875                      .dwattr $C$DW$135, DW_AT_name("EST_getLs_q_H")
     876                      .dwattr $C$DW$135, DW_AT_TI_symbol_name("_EST_getLs_q_H")
     877                      .dwattr $C$DW$135, DW_AT_type(*$C$DW$T$67)
     878                      .dwattr $C$DW$135, DW_AT_declaration
     879                      .dwattr $C$DW$135, DW_AT_external
     880              $C$DW$136       .dwtag  DW_TAG_formal_parameter
     881                      .dwattr $C$DW$136, DW_AT_type(*$C$DW$T$46)
TMS320C2000 Assembler PC v15.12.3 Sun Oct 30 14:01:37 2016

Tools Copyright (c) 1996-2015 Texas Instruments Incorporated
C:\Users\MaCHaDo\AppData\Local\Temp\0057210                          PAGE   18

     882              
     883                      .dwendtag $C$DW$135
     884              
     885              
     886              $C$DW$137       .dwtag  DW_TAG_subprogram
     887                      .dwattr $C$DW$137, DW_AT_name("EST_getLs_d_H")
     888                      .dwattr $C$DW$137, DW_AT_TI_symbol_name("_EST_getLs_d_H")
     889                      .dwattr $C$DW$137, DW_AT_type(*$C$DW$T$67)
     890                      .dwattr $C$DW$137, DW_AT_declaration
     891                      .dwattr $C$DW$137, DW_AT_external
     892              $C$DW$138       .dwtag  DW_TAG_formal_parameter
     893                      .dwattr $C$DW$138, DW_AT_type(*$C$DW$T$46)
     894              
     895                      .dwendtag $C$DW$137
     896              
     897                      .global _gPwmData
     898 00000010       _gPwmData:      .usect  ".ebss",6,1,1
     899              $C$DW$139       .dwtag  DW_TAG_variable
     900                      .dwattr $C$DW$139, DW_AT_name("gPwmData")
     901                      .dwattr $C$DW$139, DW_AT_TI_symbol_name("_gPwmData")
     902                      .dwattr $C$DW$139, DW_AT_location[DW_OP_addr _gPwmData]
     903                      .dwattr $C$DW$139, DW_AT_type(*$C$DW$T$256)
     904                      .dwattr $C$DW$139, DW_AT_external
     905              
     906                      .global _gAdcData
     907 00000016       _gAdcData:      .usect  ".ebss",16,1,1
     908              $C$DW$140       .dwtag  DW_TAG_variable
     909                      .dwattr $C$DW$140, DW_AT_name("gAdcData")
     910                      .dwattr $C$DW$140, DW_AT_TI_symbol_name("_gAdcData")
     911                      .dwattr $C$DW$140, DW_AT_location[DW_OP_addr _gAdcData]
     912                      .dwattr $C$DW$140, DW_AT_type(*$C$DW$T$145)
     913                      .dwattr $C$DW$140, DW_AT_external
     914              
     915                      .global _gDrvSpi8301Vars
     916 00000026       _gDrvSpi8301Vars:       .usect  ".ebss",24,1,0
     917              $C$DW$141       .dwtag  DW_TAG_variable
     918                      .dwattr $C$DW$141, DW_AT_name("gDrvSpi8301Vars")
     919                      .dwattr $C$DW$141, DW_AT_TI_symbol_name("_gDrvSpi8301Vars")
     920                      .dwattr $C$DW$141, DW_AT_location[DW_OP_addr _gDrvSpi8301Vars]
     921                      .dwattr $C$DW$141, DW_AT_type(*$C$DW$T$242)
     922                      .dwattr $C$DW$141, DW_AT_external
     923              
     924                      .global _gMotorVars
     925 00000040       _gMotorVars:    .usect  ".ebss",106,1,1
     926              $C$DW$142       .dwtag  DW_TAG_variable
     927                      .dwattr $C$DW$142, DW_AT_name("gMotorVars")
     928                      .dwattr $C$DW$142, DW_AT_TI_symbol_name("_gMotorVars")
     929                      .dwattr $C$DW$142, DW_AT_location[DW_OP_addr _gMotorVars]
     930                      .dwattr $C$DW$142, DW_AT_type(*$C$DW$T$260)
     931                      .dwattr $C$DW$142, DW_AT_external
     932              
     933                      .global _gUserParams
     934 00000040       _gUserParams:   .usect  "rom_accessed_data",176,1,1
     935              $C$DW$143       .dwtag  DW_TAG_variable
     936                      .dwattr $C$DW$143, DW_AT_name("gUserParams")
TMS320C2000 Assembler PC v15.12.3 Sun Oct 30 14:01:37 2016

Tools Copyright (c) 1996-2015 Texas Instruments Incorporated
C:\Users\MaCHaDo\AppData\Local\Temp\0057210                          PAGE   19

     937                      .dwattr $C$DW$143, DW_AT_TI_symbol_name("_gUserParams")
     938                      .dwattr $C$DW$143, DW_AT_location[DW_OP_addr _gUserParams]
     939                      .dwattr $C$DW$143, DW_AT_type(*$C$DW$T$206)
     940                      .dwattr $C$DW$143, DW_AT_external
     941              
     942              $C$DW$144       .dwtag  DW_TAG_variable
     943                      .dwattr $C$DW$144, DW_AT_name("hal")
     944                      .dwattr $C$DW$144, DW_AT_TI_symbol_name("_hal")
     945                      .dwattr $C$DW$144, DW_AT_type(*$C$DW$T$249)
     946                      .dwattr $C$DW$144, DW_AT_declaration
     947                      .dwattr $C$DW$144, DW_AT_external
     948              
     949                      .global _ctrl
     950 00000100       _ctrl:  .usect  "rom_accessed_data",264,1,1
     951              $C$DW$145       .dwtag  DW_TAG_variable
     952                      .dwattr $C$DW$145, DW_AT_name("ctrl")
     953                      .dwattr $C$DW$145, DW_AT_TI_symbol_name("_ctrl")
     954                      .dwattr $C$DW$145, DW_AT_location[DW_OP_addr _ctrl]
     955                      .dwattr $C$DW$145, DW_AT_type(*$C$DW$T$229)
     956                      .dwattr $C$DW$145, DW_AT_external
     957              
     958              ;       C:\ti\ccsv6\tools\compiler\c2000_15.12.3.LTS\bin\opt2000.exe C:\\Users\\MaCHaDo\\AppData\\Local\\Temp
     959              ;       C:\ti\ccsv6\tools\compiler\c2000_15.12.3.LTS\bin\ac2000.exe -@C:\\Users\\MaCHaDo\\AppData\\Local\\Tem
     960 00000000               .sect   ".text"
     961                      .clink
     962                      .global _updateIqRef
     963              
     964              $C$DW$146       .dwtag  DW_TAG_subprogram
     965                      .dwattr $C$DW$146, DW_AT_name("updateIqRef")
     966                      .dwattr $C$DW$146, DW_AT_low_pc(_updateIqRef)
     967                      .dwattr $C$DW$146, DW_AT_high_pc(0x00)
     968                      .dwattr $C$DW$146, DW_AT_TI_symbol_name("_updateIqRef")
     969                      .dwattr $C$DW$146, DW_AT_external
     970                      .dwattr $C$DW$146, DW_AT_TI_begin_file("../main.c")
     971                      .dwattr $C$DW$146, DW_AT_TI_begin_line(0x22c)
     972                      .dwattr $C$DW$146, DW_AT_TI_begin_column(0x06)
     973                      .dwattr $C$DW$146, DW_AT_TI_max_frame_size(-6)
     974                      .dwpsn  file "../main.c",line 557,column 1,is_stmt,address _updateIqRef,isa 0
     975              
     976                      .dwfde $C$DW$CIE, _updateIqRef
     977              $C$DW$147       .dwtag  DW_TAG_formal_parameter
     978                      .dwattr $C$DW$147, DW_AT_name("handle")
     979                      .dwattr $C$DW$147, DW_AT_TI_symbol_name("_handle")
     980                      .dwattr $C$DW$147, DW_AT_type(*$C$DW$T$201)
     981                      .dwattr $C$DW$147, DW_AT_location[DW_OP_reg12]
     982              
     983              
     984              ;***************************************************************
     985              ;* FNAME: _updateIqRef                  FR SIZE:   4           *
     986              ;*                                                             *
     987              ;* FUNCTION ENVIRONMENT                                        *
     988              ;*                                                             *
     989              ;* FUNCTION PROPERTIES                                         *
     990              ;*                            0 Parameter,  0 Auto,  4 SOE     *
     991              ;***************************************************************
TMS320C2000 Assembler PC v15.12.3 Sun Oct 30 14:01:37 2016

Tools Copyright (c) 1996-2015 Texas Instruments Incorporated
C:\Users\MaCHaDo\AppData\Local\Temp\0057210                          PAGE   20

     992              
     993              _updateIqRef:
     994              ;* AR1   assigned to _iq_ref
     995              $C$DW$148       .dwtag  DW_TAG_variable
     996                      .dwattr $C$DW$148, DW_AT_name("iq_ref")
     997                      .dwattr $C$DW$148, DW_AT_TI_symbol_name("_iq_ref")
     998                      .dwattr $C$DW$148, DW_AT_type(*$C$DW$T$31)
     999                      .dwattr $C$DW$148, DW_AT_location[DW_OP_reg6]
    1000              
    1001              ;* AR2   assigned to _handle
    1002              $C$DW$149       .dwtag  DW_TAG_variable
    1003                      .dwattr $C$DW$149, DW_AT_name("handle")
    1004                      .dwattr $C$DW$149, DW_AT_TI_symbol_name("_handle")
    1005                      .dwattr $C$DW$149, DW_AT_type(*$C$DW$T$231)
    1006                      .dwattr $C$DW$149, DW_AT_location[DW_OP_reg8]
    1007              
    1008                      .dwcfi  cfa_offset, -2
    1009                      .dwcfi  save_reg_to_mem, 26, 0
    1010 00000000 761F-         MOVW      DP,#_gMotorVars+20    ; [CPU_U] 
         00000001 0001 
    1011 00000002 B2BD          MOVL      *SP++,XAR1            ; [CPU_] 
    1012                      .dwcfi  save_reg_to_mem, 7, 2
    1013                      .dwcfi  cfa_offset, -4
    1014                      .dwpsn  file "../main.c",line 558,column 14,is_stmt,isa 0
    1015 00000003 8714-         MOVL      XT,@_gMotorVars+20    ; [CPU_] |558| 
    1016 00000004 AABD          MOVL      *SP++,XAR2            ; [CPU_] 
    1017                      .dwcfi  save_reg_to_mem, 9, 4
    1018                      .dwcfi  cfa_offset, -6
    1019                      .dwpsn  file "../main.c",line 557,column 1,is_stmt,isa 0
    1020 00000005 86A4          MOVL      XAR2,XAR4             ; [CPU_] |557| 
    1021                      .dwpsn  file "../main.c",line 558,column 14,is_stmt,isa 0
    1022 00000006 8F0C          MOVL      XAR4,#838860          ; [CPU_U] |558| 
         00000007 CCCC 
    1023 00000008 5605          IMPYL     P,XT,XAR4             ; [CPU_] |558| 
         00000009 00A4 
    1024 0000000a 5663          QMPYL     ACC,XT,XAR4           ; [CPU_] |558| 
         0000000b 00A4 
    1025                      .dwpsn  file "../main.c",line 561,column 3,is_stmt,isa 0
    1026 0000000c 8F02          MOVL      XAR4,#167772          ; [CPU_U] |561| 
         0000000d 8F5C 
    1027                      .dwpsn  file "../main.c",line 558,column 14,is_stmt,isa 0
    1028 0000000e 56A7          LSL64     ACC:P,#8              ; [CPU_] |558| 
    1029 0000000f 8BA9          MOVL      XAR1,ACC              ; [CPU_] |558| 
    1030                      .dwpsn  file "../main.c",line 561,column 3,is_stmt,isa 0
    1031 00000010 061E-         MOVL      ACC,@_gMotorVars+30   ; [CPU_] |561| 
    1032 00000011 FF56          ABS       ACC                   ; [CPU_] |561| 
    1033 00000012 0FA4          CMPL      ACC,XAR4              ; [CPU_] |561| 
    1034 00000013 6310          B         $C$L3,GEQ             ; [CPU_] |561| 
    1035                      ; branchcc occurs ; [] |561| 
    1036 00000014 B2A9          MOVL      ACC,XAR1              ; [CPU_] 
    1037                      .dwpsn  file "../main.c",line 563,column 7,is_stmt,isa 0
    1038 00000015 6407          B         $C$L1,LT              ; [CPU_] |563| 
    1039                      ; branchcc occurs ; [] |563| 
    1040                      .dwpsn  file "../main.c",line 567,column 12,is_stmt,isa 0
    1041 00000016 FF58          TEST      ACC                   ; [CPU_] |567| 
TMS320C2000 Assembler PC v15.12.3 Sun Oct 30 14:01:37 2016

Tools Copyright (c) 1996-2015 Texas Instruments Incorporated
C:\Users\MaCHaDo\AppData\Local\Temp\0057210                          PAGE   21

    1042 00000017 650C          B         $C$L3,LEQ             ; [CPU_] |567| 
    1043                      ; branchcc occurs ; [] |567| 
    1044                      .dwpsn  file "../main.c",line 569,column 11,is_stmt,isa 0
    1045 00000018 8F42          MOVL      XAR5,#167772          ; [CPU_U] |569| 
         00000019 8F5C 
    1046 0000001a A0A9          MOVL      ACC,XAR5              ; [CPU_] |569| 
    1047 0000001b 6F05          B         $C$L2,UNC             ; [CPU_] |569| 
    1048                      ; branch occurs ; [] |569| 
    1049 0000001c       $C$L1:    
    1050                      .dwpsn  file "../main.c",line 565,column 11,is_stmt,isa 0
    1051 0000001c 28A9          MOV       AL,#28836             ; [CPU_] |565| 
         0000001d 70A4 
    1052 0000001e 28A8          MOV       AH,#65533             ; [CPU_] |565| 
         0000001f FFFD 
    1053 00000020       $C$L2:    
    1054 00000020 8AA2          MOVL      XAR4,XAR2             ; [CPU_] |565| 
    1055              $C$DW$150       .dwtag  DW_TAG_TI_branch
    1056                      .dwattr $C$DW$150, DW_AT_low_pc(0x00)
    1057                      .dwattr $C$DW$150, DW_AT_name("_CTRL_setSpd_ref_krpm")
    1058                      .dwattr $C$DW$150, DW_AT_TI_call
    1059              
    1060 00000021 7640!         LCR       #_CTRL_setSpd_ref_krpm ; [CPU_] |565| 
         00000022 0000 
    1061                      ; call occurs [#_CTRL_setSpd_ref_krpm] ; [] |565| 
    1062 00000023       $C$L3:    
    1063                      .dwpsn  file "D:/Users/MaCHaDo/Documents/GitHub/LegStrong/modules/include/ctrl.h",line 1439,column 3,
    1064 00000023 D0E4          MOVB      XAR0,#228             ; [CPU_] |1439| 
    1065 00000024 B292          MOVL      *+XAR2[AR0],XAR1      ; [CPU_] |1439| 
    1066 00000025 86BE          MOVL      XAR2,*--SP            ; [CPU_] 
    1067                      .dwcfi  cfa_offset, -4
    1068                      .dwcfi  restore_reg, 9
    1069 00000026 8BBE          MOVL      XAR1,*--SP            ; [CPU_] 
    1070                      .dwcfi  cfa_offset, -2
    1071                      .dwcfi  restore_reg, 7
    1072              $C$DW$151       .dwtag  DW_TAG_TI_branch
    1073                      .dwattr $C$DW$151, DW_AT_low_pc(0x00)
    1074                      .dwattr $C$DW$151, DW_AT_TI_return
    1075              
    1076 00000027 0006          LRETR     ; [CPU_] 
    1077                      ; return occurs ; [] 
    1078                      .dwattr $C$DW$146, DW_AT_TI_end_file("../main.c")
    1079                      .dwattr $C$DW$146, DW_AT_TI_end_line(0x241)
    1080                      .dwattr $C$DW$146, DW_AT_TI_end_column(0x01)
    1081                      .dwendentry
    1082                      .dwendtag $C$DW$146
    1083              
    1084 00000028               .sect   ".text"
    1085                      .clink
    1086                      .global _updateGlobalVariables_motor
    1087              
    1088              $C$DW$152       .dwtag  DW_TAG_subprogram
    1089                      .dwattr $C$DW$152, DW_AT_name("updateGlobalVariables_motor")
    1090                      .dwattr $C$DW$152, DW_AT_low_pc(_updateGlobalVariables_motor)
    1091                      .dwattr $C$DW$152, DW_AT_high_pc(0x00)
    1092                      .dwattr $C$DW$152, DW_AT_TI_symbol_name("_updateGlobalVariables_motor")
TMS320C2000 Assembler PC v15.12.3 Sun Oct 30 14:01:37 2016

Tools Copyright (c) 1996-2015 Texas Instruments Incorporated
C:\Users\MaCHaDo\AppData\Local\Temp\0057210                          PAGE   22

    1093                      .dwattr $C$DW$152, DW_AT_external
    1094                      .dwattr $C$DW$152, DW_AT_TI_begin_file("../main.c")
    1095                      .dwattr $C$DW$152, DW_AT_TI_begin_line(0x1fb)
    1096                      .dwattr $C$DW$152, DW_AT_TI_begin_column(0x06)
    1097                      .dwattr $C$DW$152, DW_AT_TI_max_frame_size(-6)
    1098                      .dwpsn  file "../main.c",line 508,column 1,is_stmt,address _updateGlobalVariables_motor,isa 0
    1099              
    1100                      .dwfde $C$DW$CIE, _updateGlobalVariables_motor
    1101              $C$DW$153       .dwtag  DW_TAG_formal_parameter
    1102                      .dwattr $C$DW$153, DW_AT_name("handle")
    1103                      .dwattr $C$DW$153, DW_AT_TI_symbol_name("_handle")
    1104                      .dwattr $C$DW$153, DW_AT_type(*$C$DW$T$201)
    1105                      .dwattr $C$DW$153, DW_AT_location[DW_OP_reg12]
    1106              
    1107              
    1108              ;***************************************************************
    1109              ;* FNAME: _updateGlobalVariables_motor  FR SIZE:   4           *
    1110              ;*                                                             *
    1111              ;* FUNCTION ENVIRONMENT                                        *
    1112              ;*                                                             *
    1113              ;* FUNCTION PROPERTIES                                         *
    1114              ;*                            2 Parameter,  0 Auto,  2 SOE     *
    1115              ;***************************************************************
    1116              
    1117              _updateGlobalVariables_motor:
    1118              ;* AR1   assigned to _handle
    1119              $C$DW$154       .dwtag  DW_TAG_variable
    1120                      .dwattr $C$DW$154, DW_AT_name("handle")
    1121                      .dwattr $C$DW$154, DW_AT_TI_symbol_name("_handle")
    1122                      .dwattr $C$DW$154, DW_AT_type(*$C$DW$T$231)
    1123                      .dwattr $C$DW$154, DW_AT_location[DW_OP_reg6]
    1124              
    1125                      .dwcfi  cfa_offset, -2
    1126                      .dwcfi  save_reg_to_mem, 26, 0
    1127 00000028 B2BD          MOVL      *SP++,XAR1            ; [CPU_] 
    1128                      .dwcfi  save_reg_to_mem, 7, 2
    1129                      .dwcfi  cfa_offset, -4
    1130 00000029 FE02          ADDB      SP,#2                 ; [CPU_U] 
    1131                      .dwcfi  cfa_offset, -6
    1132 0000002a 8BA4          MOVL      XAR1,XAR4             ; [CPU_] |508| 
    1133                      .dwpsn  file "../main.c",line 512,column 3,is_stmt,isa 0
    1134 0000002b D018          MOVB      XAR0,#24              ; [CPU_] |512| 
    1135 0000002c 8A91          MOVL      XAR4,*+XAR1[AR0]      ; [CPU_] |512| 
    1136              $C$DW$155       .dwtag  DW_TAG_TI_branch
    1137                      .dwattr $C$DW$155, DW_AT_low_pc(0x00)
    1138                      .dwattr $C$DW$155, DW_AT_name("_EST_getSpeed_krpm")
    1139                      .dwattr $C$DW$155, DW_AT_TI_call
    1140              
    1141 0000002d 7640!         LCR       #_EST_getSpeed_krpm   ; [CPU_] |512| 
         0000002e 0000 
    1142                      ; call occurs [#_EST_getSpeed_krpm] ; [] |512| 
    1143 0000002f 761F-         MOVW      DP,#_gMotorVars+30    ; [CPU_U] 
         00000030 0001 
    1144 00000031 1E1E-         MOVL      @_gMotorVars+30,ACC   ; [CPU_] |512| 
    1145 00000032 761F-         MOVW      DP,#_gTorque_Ls_Id_Iq_pu_to_Nm_sf ; [CPU_U] 
TMS320C2000 Assembler PC v15.12.3 Sun Oct 30 14:01:37 2016

Tools Copyright (c) 1996-2015 Texas Instruments Incorporated
C:\Users\MaCHaDo\AppData\Local\Temp\0057210                          PAGE   23

         00000033 0000 
    1146                      .dwpsn  file "../main.c",line 515,column 3,is_stmt,isa 0
    1147 00000034 8AA1          MOVL      XAR4,XAR1             ; [CPU_] |515| 
    1148 00000035 060A-         MOVL      ACC,@_gTorque_Ls_Id_Iq_pu_to_Nm_sf ; [CPU_] |515| 
    1149 00000036 1E42          MOVL      *-SP[2],ACC           ; [CPU_] |515| 
    1150 00000037 060E-         MOVL      ACC,@_gTorque_Flux_Iq_pu_to_Nm_sf ; [CPU_] |515| 
    1151              $C$DW$156       .dwtag  DW_TAG_TI_branch
    1152                      .dwattr $C$DW$156, DW_AT_low_pc(0x00)
    1153                      .dwattr $C$DW$156, DW_AT_name("_USER_computeTorque_Nm")
    1154                      .dwattr $C$DW$156, DW_AT_TI_call
    1155              
    1156 00000038 7640!         LCR       #_USER_computeTorque_Nm ; [CPU_] |515| 
         00000039 0000 
    1157                      ; call occurs [#_USER_computeTorque_Nm] ; [] |515| 
    1158 0000003a 761F-         MOVW      DP,#_gMotorVars+40    ; [CPU_U] 
         0000003b 0001 
    1159                      .dwpsn  file "../main.c",line 518,column 3,is_stmt,isa 0
    1160 0000003c D018          MOVB      XAR0,#24              ; [CPU_] |518| 
    1161                      .dwpsn  file "../main.c",line 515,column 3,is_stmt,isa 0
    1162 0000003d 1E28-         MOVL      @_gMotorVars+40,ACC   ; [CPU_] |515| 
    1163                      .dwpsn  file "../main.c",line 518,column 3,is_stmt,isa 0
    1164 0000003e 8A91          MOVL      XAR4,*+XAR1[AR0]      ; [CPU_] |518| 
    1165              $C$DW$157       .dwtag  DW_TAG_TI_branch
    1166                      .dwattr $C$DW$157, DW_AT_low_pc(0x00)
    1167                      .dwattr $C$DW$157, DW_AT_name("_EST_getIdRated")
    1168                      .dwattr $C$DW$157, DW_AT_TI_call
    1169              
    1170 0000003f 7640!         LCR       #_EST_getIdRated      ; [CPU_] |518| 
         00000040 0000 
    1171                      ; call occurs [#_EST_getIdRated] ; [] |518| 
    1172 00000041 761F-         MOVW      DP,#_gMotorVars+42    ; [CPU_U] 
         00000042 0001 
    1173                      .dwpsn  file "../main.c",line 521,column 3,is_stmt,isa 0
    1174 00000043 D018          MOVB      XAR0,#24              ; [CPU_] |521| 
    1175                      .dwpsn  file "../main.c",line 518,column 3,is_stmt,isa 0
    1176 00000044 1E2A-         MOVL      @_gMotorVars+42,ACC   ; [CPU_] |518| 
    1177                      .dwpsn  file "../main.c",line 521,column 3,is_stmt,isa 0
    1178 00000045 8A91          MOVL      XAR4,*+XAR1[AR0]      ; [CPU_] |521| 
    1179              $C$DW$158       .dwtag  DW_TAG_TI_branch
    1180                      .dwattr $C$DW$158, DW_AT_low_pc(0x00)
    1181                      .dwattr $C$DW$158, DW_AT_name("_EST_getRr_Ohm")
    1182                      .dwattr $C$DW$158, DW_AT_TI_call
    1183              
    1184 00000046 7640!         LCR       #_EST_getRr_Ohm       ; [CPU_] |521| 
         00000047 0000 
    1185                      ; call occurs [#_EST_getRr_Ohm] ; [] |521| 
    1186 00000048 761F-         MOVW      DP,#_gMotorVars+44    ; [CPU_U] 
         00000049 0001 
    1187                      .dwpsn  file "../main.c",line 524,column 3,is_stmt,isa 0
    1188 0000004a D018          MOVB      XAR0,#24              ; [CPU_] |524| 
    1189                      .dwpsn  file "../main.c",line 521,column 3,is_stmt,isa 0
    1190 0000004b 1E2C-         MOVL      @_gMotorVars+44,ACC   ; [CPU_] |521| 
    1191                      .dwpsn  file "../main.c",line 524,column 3,is_stmt,isa 0
    1192 0000004c 8A91          MOVL      XAR4,*+XAR1[AR0]      ; [CPU_] |524| 
    1193              $C$DW$159       .dwtag  DW_TAG_TI_branch
TMS320C2000 Assembler PC v15.12.3 Sun Oct 30 14:01:37 2016

Tools Copyright (c) 1996-2015 Texas Instruments Incorporated
C:\Users\MaCHaDo\AppData\Local\Temp\0057210                          PAGE   24

    1194                      .dwattr $C$DW$159, DW_AT_low_pc(0x00)
    1195                      .dwattr $C$DW$159, DW_AT_name("_EST_getRs_Ohm")
    1196                      .dwattr $C$DW$159, DW_AT_TI_call
    1197              
    1198 0000004d 7640!         LCR       #_EST_getRs_Ohm       ; [CPU_] |524| 
         0000004e 0000 
    1199                      ; call occurs [#_EST_getRs_Ohm] ; [] |524| 
    1200 0000004f 761F-         MOVW      DP,#_gMotorVars+46    ; [CPU_U] 
         00000050 0001 
    1201                      .dwpsn  file "../main.c",line 527,column 3,is_stmt,isa 0
    1202 00000051 D018          MOVB      XAR0,#24              ; [CPU_] |527| 
    1203                      .dwpsn  file "../main.c",line 524,column 3,is_stmt,isa 0
    1204 00000052 1E2E-         MOVL      @_gMotorVars+46,ACC   ; [CPU_] |524| 
    1205                      .dwpsn  file "../main.c",line 527,column 3,is_stmt,isa 0
    1206 00000053 8A91          MOVL      XAR4,*+XAR1[AR0]      ; [CPU_] |527| 
    1207              $C$DW$160       .dwtag  DW_TAG_TI_branch
    1208                      .dwattr $C$DW$160, DW_AT_low_pc(0x00)
    1209                      .dwattr $C$DW$160, DW_AT_name("_EST_getLs_d_H")
    1210                      .dwattr $C$DW$160, DW_AT_TI_call
    1211              
    1212 00000054 7640!         LCR       #_EST_getLs_d_H       ; [CPU_] |527| 
         00000055 0000 
    1213                      ; call occurs [#_EST_getLs_d_H] ; [] |527| 
    1214 00000056 761F-         MOVW      DP,#_gMotorVars+50    ; [CPU_U] 
         00000057 0001 
    1215                      .dwpsn  file "../main.c",line 530,column 3,is_stmt,isa 0
    1216 00000058 D018          MOVB      XAR0,#24              ; [CPU_] |530| 
    1217                      .dwpsn  file "../main.c",line 527,column 3,is_stmt,isa 0
    1218 00000059 1E32-         MOVL      @_gMotorVars+50,ACC   ; [CPU_] |527| 
    1219                      .dwpsn  file "../main.c",line 530,column 3,is_stmt,isa 0
    1220 0000005a 8A91          MOVL      XAR4,*+XAR1[AR0]      ; [CPU_] |530| 
    1221              $C$DW$161       .dwtag  DW_TAG_TI_branch
    1222                      .dwattr $C$DW$161, DW_AT_low_pc(0x00)
    1223                      .dwattr $C$DW$161, DW_AT_name("_EST_getLs_q_H")
    1224                      .dwattr $C$DW$161, DW_AT_TI_call
    1225              
    1226 0000005b 7640!         LCR       #_EST_getLs_q_H       ; [CPU_] |530| 
         0000005c 0000 
    1227                      ; call occurs [#_EST_getLs_q_H] ; [] |530| 
    1228 0000005d 761F-         MOVW      DP,#_gMotorVars+52    ; [CPU_U] 
         0000005e 0001 
    1229                      .dwpsn  file "../main.c",line 533,column 3,is_stmt,isa 0
    1230 0000005f D018          MOVB      XAR0,#24              ; [CPU_] |533| 
    1231                      .dwpsn  file "../main.c",line 530,column 3,is_stmt,isa 0
    1232 00000060 1E34-         MOVL      @_gMotorVars+52,ACC   ; [CPU_] |530| 
    1233                      .dwpsn  file "../main.c",line 533,column 3,is_stmt,isa 0
    1234 00000061 8A91          MOVL      XAR4,*+XAR1[AR0]      ; [CPU_] |533| 
    1235              $C$DW$162       .dwtag  DW_TAG_TI_branch
    1236                      .dwattr $C$DW$162, DW_AT_low_pc(0x00)
    1237                      .dwattr $C$DW$162, DW_AT_name("_EST_getFlux_VpHz")
    1238                      .dwattr $C$DW$162, DW_AT_TI_call
    1239              
    1240 00000062 7640!         LCR       #_EST_getFlux_VpHz    ; [CPU_] |533| 
         00000063 0000 
    1241                      ; call occurs [#_EST_getFlux_VpHz] ; [] |533| 
TMS320C2000 Assembler PC v15.12.3 Sun Oct 30 14:01:37 2016

Tools Copyright (c) 1996-2015 Texas Instruments Incorporated
C:\Users\MaCHaDo\AppData\Local\Temp\0057210                          PAGE   25

    1242 00000064 761F-         MOVW      DP,#_gMotorVars+54    ; [CPU_U] 
         00000065 0001 
    1243 00000066 1E36-         MOVL      @_gMotorVars+54,ACC   ; [CPU_] |533| 
    1244                      .dwpsn  file "../main.c",line 536,column 3,is_stmt,isa 0
    1245 00000067 8AA1          MOVL      XAR4,XAR1             ; [CPU_] |536| 
    1246 00000068 761F-         MOVW      DP,#_gFlux_pu_to_Wb_sf ; [CPU_U] 
         00000069 0000 
    1247 0000006a 0608-         MOVL      ACC,@_gFlux_pu_to_Wb_sf ; [CPU_] |536| 
    1248              $C$DW$163       .dwtag  DW_TAG_TI_branch
    1249                      .dwattr $C$DW$163, DW_AT_low_pc(0x00)
    1250                      .dwattr $C$DW$163, DW_AT_name("_USER_computeFlux")
    1251                      .dwattr $C$DW$163, DW_AT_TI_call
    1252              
    1253 0000006b 7640!         LCR       #_USER_computeFlux    ; [CPU_] |536| 
         0000006c 0000 
    1254                      ; call occurs [#_USER_computeFlux] ; [] |536| 
    1255 0000006d 761F-         MOVW      DP,#_gMotorVars+38    ; [CPU_U] 
         0000006e 0001 
    1256                      .dwpsn  file "../main.c",line 542,column 3,is_stmt,isa 0
    1257 0000006f D018          MOVB      XAR0,#24              ; [CPU_] |542| 
    1258                      .dwpsn  file "../main.c",line 536,column 3,is_stmt,isa 0
    1259 00000070 1E26-         MOVL      @_gMotorVars+38,ACC   ; [CPU_] |536| 
    1260                      .dwpsn  file "../main.c",line 539,column 3,is_stmt,isa 0
    1261 00000071 92E1          MOV       AL,*+XAR1[4]          ; [CPU_] |539| 
    1262 00000072 960A-         MOV       @_gMotorVars+10,AL    ; [CPU_] |539| 
    1263                      .dwpsn  file "../main.c",line 542,column 3,is_stmt,isa 0
    1264 00000073 8A91          MOVL      XAR4,*+XAR1[AR0]      ; [CPU_] |542| 
    1265              $C$DW$164       .dwtag  DW_TAG_TI_branch
    1266                      .dwattr $C$DW$164, DW_AT_low_pc(0x00)
    1267                      .dwattr $C$DW$164, DW_AT_name("_EST_getState")
    1268                      .dwattr $C$DW$164, DW_AT_TI_call
    1269              
    1270 00000074 7640!         LCR       #_EST_getState        ; [CPU_] |542| 
         00000075 0000 
    1271                      ; call occurs [#_EST_getState] ; [] |542| 
    1272 00000076 761F-         MOVW      DP,#_gMotorVars+11    ; [CPU_U] 
         00000077 0001 
    1273                      .dwpsn  file "../main.c",line 545,column 3,is_stmt,isa 0
    1274 00000078 8F19          MOVL      XAR4,#1677721         ; [CPU_U] |545| 
         00000079 9999 
    1275                      .dwpsn  file "../main.c",line 542,column 3,is_stmt,isa 0
    1276 0000007a 960B-         MOV       @_gMotorVars+11,AL    ; [CPU_] |542| 
    1277 0000007b 761F-         MOVW      DP,#_gAdcData+12      ; [CPU_U] 
         0000007c 0000 
    1278                      .dwpsn  file "../main.c",line 545,column 3,is_stmt,isa 0
    1279 0000007d 8722-         MOVL      XT,@_gAdcData+12      ; [CPU_] |545| 
    1280 0000007e 761F-         MOVW      DP,#_gMotorVars+84    ; [CPU_U] 
         0000007f 0002 
    1281 00000080 5663          QMPYL     ACC,XT,XAR4           ; [CPU_] |545| 
         00000081 00A4 
    1282 00000082 5605          IMPYL     P,XT,XAR4             ; [CPU_] |545| 
         00000083 00A4 
    1283 00000084 56A7          LSL64     ACC:P,#8              ; [CPU_] |545| 
    1284 00000085 1E14-         MOVL      @_gMotorVars+84,ACC   ; [CPU_] |545| 
    1285 00000086 761F-         MOVW      DP,#_gAdcData+14      ; [CPU_U] 
TMS320C2000 Assembler PC v15.12.3 Sun Oct 30 14:01:37 2016

Tools Copyright (c) 1996-2015 Texas Instruments Incorporated
C:\Users\MaCHaDo\AppData\Local\Temp\0057210                          PAGE   26

         00000087 0000 
    1286                      .dwpsn  file "../main.c",line 549,column 3,is_stmt,isa 0
    1287 00000088 FF2F          MOV       ACC,#14784 << 15      ; [CPU_] |549| 
         00000089 39C0 
    1288 0000008a 8724-         MOVL      XT,@_gAdcData+14      ; [CPU_] |549| 
    1289 0000008b 5605          IMPYL     P,XT,ACC              ; [CPU_] |549| 
         0000008c 00A9 
    1290 0000008d 5663          QMPYL     ACC,XT,ACC            ; [CPU_] |549| 
         0000008e 00A9 
    1291 0000008f FE82          SUBB      SP,#2                 ; [CPU_U] 
    1292                      .dwcfi  cfa_offset, -4
    1293 00000090 56A7          LSL64     ACC:P,#8              ; [CPU_] |549| 
    1294 00000091 8BBE          MOVL      XAR1,*--SP            ; [CPU_] 
    1295                      .dwcfi  cfa_offset, -2
    1296                      .dwcfi  restore_reg, 7
    1297 00000092 761F-         MOVW      DP,#_gMotorVars+86    ; [CPU_U] 
         00000093 0002 
    1298 00000094 1E16-         MOVL      @_gMotorVars+86,ACC   ; [CPU_] |549| 
    1299              $C$DW$165       .dwtag  DW_TAG_TI_branch
    1300                      .dwattr $C$DW$165, DW_AT_low_pc(0x00)
    1301                      .dwattr $C$DW$165, DW_AT_TI_return
    1302              
    1303 00000095 0006          LRETR     ; [CPU_] 
    1304                      ; return occurs ; [] 
    1305                      .dwattr $C$DW$152, DW_AT_TI_end_file("../main.c")
    1306                      .dwattr $C$DW$152, DW_AT_TI_end_line(0x229)
    1307                      .dwattr $C$DW$152, DW_AT_TI_end_column(0x01)
    1308                      .dwendentry
    1309                      .dwendtag $C$DW$152
    1310              
    1311 00000000               .sect   ".text:retain"
    1312                      .retain
    1313                      .retainrefs
    1314                      .global _sciaRxFifoIsr
    1315              
    1316              $C$DW$166       .dwtag  DW_TAG_subprogram
    1317                      .dwattr $C$DW$166, DW_AT_name("sciaRxFifoIsr")
    1318                      .dwattr $C$DW$166, DW_AT_low_pc(_sciaRxFifoIsr)
    1319                      .dwattr $C$DW$166, DW_AT_high_pc(0x00)
    1320                      .dwattr $C$DW$166, DW_AT_TI_symbol_name("_sciaRxFifoIsr")
    1321                      .dwattr $C$DW$166, DW_AT_external
    1322                      .dwattr $C$DW$166, DW_AT_TI_begin_file("../main.c")
    1323                      .dwattr $C$DW$166, DW_AT_TI_begin_line(0x244)
    1324                      .dwattr $C$DW$166, DW_AT_TI_begin_column(0x10)
    1325                      .dwattr $C$DW$166, DW_AT_TI_interrupt
    1326                      .dwattr $C$DW$166, DW_AT_TI_max_frame_size(-14)
    1327                      .dwpsn  file "../main.c",line 581,column 1,is_stmt,address _sciaRxFifoIsr,isa 0
    1328              
    1329                      .dwfde $C$DW$CIE, _sciaRxFifoIsr
    1330              
    1331              ;***************************************************************
    1332              ;* FNAME: _sciaRxFifoIsr                FR SIZE:  12           *
    1333              ;*                                                             *
    1334              ;* FUNCTION ENVIRONMENT                                        *
    1335              ;*                                                             *
TMS320C2000 Assembler PC v15.12.3 Sun Oct 30 14:01:37 2016

Tools Copyright (c) 1996-2015 Texas Instruments Incorporated
C:\Users\MaCHaDo\AppData\Local\Temp\0057210                          PAGE   27

    1336              ;* FUNCTION PROPERTIES                                         *
    1337              ;*                            0 Parameter,  0 Auto, 12 SOE     *
    1338              ;***************************************************************
    1339              
    1340 00000000       _sciaRxFifoIsr:
    1341                      .dwcfi  cfa_offset, -2
    1342                      .dwcfi  save_reg_to_mem, 26, 0
    1343 00000000 761B          ASP       ; [CPU_] 
    1344 00000001 0005          PUSH      AR1H:AR0H             ; [CPU_] 
    1345                      .dwcfi  save_reg_to_mem, 5, 2
    1346                      .dwcfi  save_reg_to_mem, 7, 3
    1347                      .dwcfi  cfa_offset, -4
    1348 00000002 FF69          SPM       0                     ; [CPU_] 
    1349 00000003 ABBD          MOVL      *SP++,XT              ; [CPU_] 
    1350                      .dwcfi  save_reg_to_mem, 21, 4
    1351                      .dwcfi  save_reg_to_mem, 22, 5
    1352                      .dwcfi  cfa_offset, -6
    1353 00000004 A8BD          MOVL      *SP++,XAR4            ; [CPU_] 
    1354                      .dwcfi  save_reg_to_mem, 12, 6
    1355                      .dwcfi  save_reg_to_mem, 13, 7
    1356                      .dwcfi  cfa_offset, -8
    1357 00000005 A0BD          MOVL      *SP++,XAR5            ; [CPU_] 
    1358                      .dwcfi  save_reg_to_mem, 14, 8
    1359                      .dwcfi  save_reg_to_mem, 15, 9
    1360                      .dwcfi  cfa_offset, -10
    1361 00000006 C2BD          MOVL      *SP++,XAR6            ; [CPU_] 
    1362                      .dwcfi  save_reg_to_mem, 16, 10
    1363                      .dwcfi  save_reg_to_mem, 17, 11
    1364                      .dwcfi  cfa_offset, -12
    1365 00000007 C3BD          MOVL      *SP++,XAR7            ; [CPU_] 
    1366                      .dwcfi  save_reg_to_mem, 18, 12
    1367                      .dwcfi  save_reg_to_mem, 19, 13
    1368                      .dwcfi  cfa_offset, -14
    1369 00000008 2942          CLRC      PAGE0,OVM             ; [CPU_] 
    1370 00000009 5616          CLRC      AMODE                 ; [CPU_] 
    1371                      .dwpsn  file "../main.c",line 585,column 5,is_stmt,isa 0
    1372 0000000a 02C8          MOVB      ACC,#200              ; [CPU_] |585| 
    1373 0000000b 761F-         MOVW      DP,#_halHandle        ; [CPU_U] 
         0000000c 0000 
    1374 0000000d 0700-         ADDL      ACC,@_halHandle       ; [CPU_] |585| 
    1375 0000000e 8AA9          MOVL      XAR4,ACC              ; [CPU_] |585| 
    1376 0000000f 8AC4          MOVL      XAR4,*+XAR4[0]        ; [CPU_] |585| 
    1377              $C$DW$167       .dwtag  DW_TAG_TI_branch
    1378                      .dwattr $C$DW$167, DW_AT_low_pc(0x00)
    1379                      .dwattr $C$DW$167, DW_AT_name("_SCI_getRxFifoStatus")
    1380                      .dwattr $C$DW$167, DW_AT_TI_call
    1381              
    1382 00000010 7640!         LCR       #_SCI_getRxFifoStatus ; [CPU_] |585| 
         00000011 0000 
    1383                      ; call occurs [#_SCI_getRxFifoStatus] ; [] |585| 
    1384 00000012 5200          CMPB      AL,#0                 ; [CPU_] |585| 
    1385 00000013 6109          B         $C$L4,EQ              ; [CPU_] |585| 
    1386                      ; branchcc occurs ; [] |585| 
    1387                      .dwpsn  file "../main.c",line 588,column 3,is_stmt,isa 0
    1388 00000014 02C8          MOVB      ACC,#200              ; [CPU_] |588| 
TMS320C2000 Assembler PC v15.12.3 Sun Oct 30 14:01:37 2016

Tools Copyright (c) 1996-2015 Texas Instruments Incorporated
C:\Users\MaCHaDo\AppData\Local\Temp\0057210                          PAGE   28

    1389 00000015 761F-         MOVW      DP,#_halHandle        ; [CPU_U] 
         00000016 0000 
    1390 00000017 0700-         ADDL      ACC,@_halHandle       ; [CPU_] |588| 
    1391 00000018 8AA9          MOVL      XAR4,ACC              ; [CPU_] |588| 
    1392 00000019 8AC4          MOVL      XAR4,*+XAR4[0]        ; [CPU_] |588| 
    1393              $C$DW$168       .dwtag  DW_TAG_TI_branch
    1394                      .dwattr $C$DW$168, DW_AT_low_pc(0x00)
    1395                      .dwattr $C$DW$168, DW_AT_name("_SCI_getDataBlocking")
    1396                      .dwattr $C$DW$168, DW_AT_TI_call
    1397              
    1398 0000001a 7640!         LCR       #_SCI_getDataBlocking ; [CPU_] |588| 
         0000001b 0000 
    1399                      ; call occurs [#_SCI_getDataBlocking] ; [] |588| 
    1400 0000001c       $C$L4:    
    1401                      .dwpsn  file "../main.c",line 593,column 5,is_stmt,isa 0
    1402 0000001c 02C8          MOVB      ACC,#200              ; [CPU_] |593| 
    1403 0000001d 761F-         MOVW      DP,#_halHandle        ; [CPU_U] 
         0000001e 0000 
    1404 0000001f 0700-         ADDL      ACC,@_halHandle       ; [CPU_] |593| 
    1405 00000020 8AA9          MOVL      XAR4,ACC              ; [CPU_] |593| 
    1406 00000021 8AC4          MOVL      XAR4,*+XAR4[0]        ; [CPU_] |593| 
    1407              $C$DW$169       .dwtag  DW_TAG_TI_branch
    1408                      .dwattr $C$DW$169, DW_AT_low_pc(0x00)
    1409                      .dwattr $C$DW$169, DW_AT_name("_SCI_clearRxFifoOvf")
    1410                      .dwattr $C$DW$169, DW_AT_TI_call
    1411              
    1412 00000022 7640!         LCR       #_SCI_clearRxFifoOvf  ; [CPU_] |593| 
         00000023 0000 
    1413                      ; call occurs [#_SCI_clearRxFifoOvf] ; [] |593| 
    1414 00000024 761F-         MOVW      DP,#_halHandle        ; [CPU_U] 
         00000025 0000 
    1415                      .dwpsn  file "../main.c",line 595,column 5,is_stmt,isa 0
    1416 00000026 02C8          MOVB      ACC,#200              ; [CPU_] |595| 
    1417 00000027 0700-         ADDL      ACC,@_halHandle       ; [CPU_] |595| 
    1418 00000028 8AA9          MOVL      XAR4,ACC              ; [CPU_] |595| 
    1419 00000029 8AC4          MOVL      XAR4,*+XAR4[0]        ; [CPU_] |595| 
    1420              $C$DW$170       .dwtag  DW_TAG_TI_branch
    1421                      .dwattr $C$DW$170, DW_AT_low_pc(0x00)
    1422                      .dwattr $C$DW$170, DW_AT_name("_SCI_clearRxFifoInt")
    1423                      .dwattr $C$DW$170, DW_AT_TI_call
    1424              
    1425 0000002a 7640!         LCR       #_SCI_clearRxFifoInt  ; [CPU_] |595| 
         0000002b 0000 
    1426                      ; call occurs [#_SCI_clearRxFifoInt] ; [] |595| 
    1427 0000002c 761F-         MOVW      DP,#_halHandle        ; [CPU_U] 
         0000002d 0000 
    1428                      .dwpsn  file "D:/Users/MaCHaDo/Documents/GitHub/LegStrong/drivers/include/pie.h",line 757,column 5,is
    1429 0000002e 0278          MOVB      ACC,#120              ; [CPU_] |757| 
    1430 0000002f 0700-         ADDL      ACC,@_halHandle       ; [CPU_] |757| 
    1431 00000030 8AA9          MOVL      XAR4,ACC              ; [CPU_] |757| 
    1432 00000031 8AC4          MOVL      XAR4,*+XAR4[0]        ; [CPU_] |757| 
    1433 00000032 28CC          MOV       *+XAR4[1],#256        ; [CPU_] |757| 
         00000033 0100 
    1434 00000034 C5BE          MOVL      XAR7,*--SP            ; [CPU_] 
    1435                      .dwcfi  cfa_offset, -12
TMS320C2000 Assembler PC v15.12.3 Sun Oct 30 14:01:37 2016

Tools Copyright (c) 1996-2015 Texas Instruments Incorporated
C:\Users\MaCHaDo\AppData\Local\Temp\0057210                          PAGE   29

    1436                      .dwcfi  restore_reg, 18
    1437 00000035 C4BE          MOVL      XAR6,*--SP            ; [CPU_] 
    1438                      .dwcfi  cfa_offset, -10
    1439                      .dwcfi  restore_reg, 16
    1440 00000036 83BE          MOVL      XAR5,*--SP            ; [CPU_] 
    1441                      .dwcfi  cfa_offset, -8
    1442                      .dwcfi  restore_reg, 14
    1443 00000037 8ABE          MOVL      XAR4,*--SP            ; [CPU_] 
    1444                      .dwcfi  cfa_offset, -6
    1445                      .dwcfi  restore_reg, 12
    1446 00000038 87BE          MOVL      XT,*--SP              ; [CPU_] 
    1447                      .dwcfi  cfa_offset, -4
    1448                      .dwcfi  restore_reg, 22
    1449                      .dwcfi  restore_reg, 21
    1450 00000039 0003          POP       AR1H:AR0H             ; [CPU_] 
    1451                      .dwcfi  cfa_offset, -2
    1452                      .dwcfi  restore_reg, 5
    1453                      .dwcfi  restore_reg, 7
    1454 0000003a 7617          NASP      ; [CPU_] 
    1455              $C$DW$171       .dwtag  DW_TAG_TI_branch
    1456                      .dwattr $C$DW$171, DW_AT_low_pc(0x00)
    1457                      .dwattr $C$DW$171, DW_AT_TI_return
    1458              
    1459 0000003b 7602          IRET      ; [CPU_] 
    1460                      ; return occurs ; [] 
    1461                      .dwattr $C$DW$166, DW_AT_TI_end_file("../main.c")
    1462                      .dwattr $C$DW$166, DW_AT_TI_end_line(0x258)
    1463                      .dwattr $C$DW$166, DW_AT_TI_end_column(0x01)
    1464                      .dwendentry
    1465                      .dwendtag $C$DW$166
    1466              
    1467 00000000               .sect   "ramfuncs:retain"
    1468                      .retain
    1469                      .retainrefs
    1470                      .global _mainISR
    1471              
    1472              $C$DW$172       .dwtag  DW_TAG_subprogram
    1473                      .dwattr $C$DW$172, DW_AT_name("mainISR")
    1474                      .dwattr $C$DW$172, DW_AT_low_pc(_mainISR)
    1475                      .dwattr $C$DW$172, DW_AT_high_pc(0x00)
    1476                      .dwattr $C$DW$172, DW_AT_TI_symbol_name("_mainISR")
    1477                      .dwattr $C$DW$172, DW_AT_external
    1478                      .dwattr $C$DW$172, DW_AT_TI_begin_file("../main.c")
    1479                      .dwattr $C$DW$172, DW_AT_TI_begin_line(0x1d9)
    1480                      .dwattr $C$DW$172, DW_AT_TI_begin_column(0x10)
    1481                      .dwattr $C$DW$172, DW_AT_TI_interrupt
    1482                      .dwattr $C$DW$172, DW_AT_TI_max_frame_size(-20)
    1483                      .dwpsn  file "../main.c",line 474,column 1,is_stmt,address _mainISR,isa 0
    1484              
    1485                      .dwfde $C$DW$CIE, _mainISR
    1486              
    1487              ;***************************************************************
    1488              ;* FNAME: _mainISR                      FR SIZE:  18           *
    1489              ;*                                                             *
    1490              ;* FUNCTION ENVIRONMENT                                        *
TMS320C2000 Assembler PC v15.12.3 Sun Oct 30 14:01:37 2016

Tools Copyright (c) 1996-2015 Texas Instruments Incorporated
C:\Users\MaCHaDo\AppData\Local\Temp\0057210                          PAGE   30

    1491              ;*                                                             *
    1492              ;* FUNCTION PROPERTIES                                         *
    1493              ;*                            4 Parameter,  0 Auto, 14 SOE     *
    1494              ;***************************************************************
    1495              
    1496              _mainISR:
    1497              ;* AR4   assigned to $O$C1
    1498              ;* AR1   assigned to $O$C2
    1499              ;* AR5   assigned to $O$C3
    1500              ;* AR6   assigned to $O$C4
    1501              ;* AR4   assigned to $O$C5
    1502              ;* AR7   assigned to $O$C6
    1503              ;* AR7   assigned to $O$C7
    1504              ;* AR5   assigned to _obj
    1505              $C$DW$173       .dwtag  DW_TAG_variable
    1506                      .dwattr $C$DW$173, DW_AT_name("obj")
    1507                      .dwattr $C$DW$173, DW_AT_TI_symbol_name("_obj")
    1508                      .dwattr $C$DW$173, DW_AT_type(*$C$DW$T$250)
    1509                      .dwattr $C$DW$173, DW_AT_location[DW_OP_reg14]
    1510              
    1511              ;* AR2   assigned to _bus_current_sf
    1512              $C$DW$174       .dwtag  DW_TAG_variable
    1513                      .dwattr $C$DW$174, DW_AT_name("bus_current_sf")
    1514                      .dwattr $C$DW$174, DW_AT_TI_symbol_name("_bus_current_sf")
    1515                      .dwattr $C$DW$174, DW_AT_type(*$C$DW$T$31)
    1516                      .dwattr $C$DW$174, DW_AT_location[DW_OP_reg8]
    1517              
    1518              ;* AR4   assigned to _obj
    1519              $C$DW$175       .dwtag  DW_TAG_variable
    1520                      .dwattr $C$DW$175, DW_AT_name("obj")
    1521                      .dwattr $C$DW$175, DW_AT_TI_symbol_name("_obj")
    1522                      .dwattr $C$DW$175, DW_AT_type(*$C$DW$T$250)
    1523                      .dwattr $C$DW$175, DW_AT_location[DW_OP_reg12]
    1524              
    1525              ;* AR5   assigned to _pwm
    1526              $C$DW$176       .dwtag  DW_TAG_variable
    1527                      .dwattr $C$DW$176, DW_AT_name("pwm")
    1528                      .dwattr $C$DW$176, DW_AT_TI_symbol_name("_pwm")
    1529                      .dwattr $C$DW$176, DW_AT_type(*$C$DW$T$268)
    1530                      .dwattr $C$DW$176, DW_AT_location[DW_OP_reg14]
    1531              
    1532              ;* AR6   assigned to _period
    1533              $C$DW$177       .dwtag  DW_TAG_variable
    1534                      .dwattr $C$DW$177, DW_AT_name("period")
    1535                      .dwattr $C$DW$177, DW_AT_TI_symbol_name("_period")
    1536                      .dwattr $C$DW$177, DW_AT_type(*$C$DW$T$31)
    1537                      .dwattr $C$DW$177, DW_AT_location[DW_OP_reg16]
    1538              
    1539              ;* XT    assigned to _value
    1540              $C$DW$178       .dwtag  DW_TAG_variable
    1541                      .dwattr $C$DW$178, DW_AT_name("value")
    1542                      .dwattr $C$DW$178, DW_AT_TI_symbol_name("_value")
    1543                      .dwattr $C$DW$178, DW_AT_type(*$C$DW$T$31)
    1544                      .dwattr $C$DW$178, DW_AT_location[DW_OP_reg21]
    1545              
TMS320C2000 Assembler PC v15.12.3 Sun Oct 30 14:01:37 2016

Tools Copyright (c) 1996-2015 Texas Instruments Incorporated
C:\Users\MaCHaDo\AppData\Local\Temp\0057210                          PAGE   31

    1546              ;* XT    assigned to _value
    1547              $C$DW$179       .dwtag  DW_TAG_variable
    1548                      .dwattr $C$DW$179, DW_AT_name("value")
    1549                      .dwattr $C$DW$179, DW_AT_TI_symbol_name("_value")
    1550                      .dwattr $C$DW$179, DW_AT_type(*$C$DW$T$31)
    1551                      .dwattr $C$DW$179, DW_AT_location[DW_OP_reg21]
    1552              
    1553              ;* XT    assigned to _value
    1554              $C$DW$180       .dwtag  DW_TAG_variable
    1555                      .dwattr $C$DW$180, DW_AT_name("value")
    1556                      .dwattr $C$DW$180, DW_AT_TI_symbol_name("_value")
    1557                      .dwattr $C$DW$180, DW_AT_type(*$C$DW$T$31)
    1558                      .dwattr $C$DW$180, DW_AT_location[DW_OP_reg21]
    1559              
    1560              ;* XT    assigned to _value
    1561              $C$DW$181       .dwtag  DW_TAG_variable
    1562                      .dwattr $C$DW$181, DW_AT_name("value")
    1563                      .dwattr $C$DW$181, DW_AT_TI_symbol_name("_value")
    1564                      .dwattr $C$DW$181, DW_AT_type(*$C$DW$T$31)
    1565                      .dwattr $C$DW$181, DW_AT_location[DW_OP_reg21]
    1566              
    1567              ;* XT    assigned to _value
    1568              $C$DW$182       .dwtag  DW_TAG_variable
    1569                      .dwattr $C$DW$182, DW_AT_name("value")
    1570                      .dwattr $C$DW$182, DW_AT_TI_symbol_name("_value")
    1571                      .dwattr $C$DW$182, DW_AT_type(*$C$DW$T$31)
    1572                      .dwattr $C$DW$182, DW_AT_location[DW_OP_reg21]
    1573              
    1574              ;* XT    assigned to _value
    1575              $C$DW$183       .dwtag  DW_TAG_variable
    1576                      .dwattr $C$DW$183, DW_AT_name("value")
    1577                      .dwattr $C$DW$183, DW_AT_TI_symbol_name("_value")
    1578                      .dwattr $C$DW$183, DW_AT_type(*$C$DW$T$31)
    1579                      .dwattr $C$DW$183, DW_AT_location[DW_OP_reg21]
    1580              
    1581              ;* XT    assigned to _value
    1582              $C$DW$184       .dwtag  DW_TAG_variable
    1583                      .dwattr $C$DW$184, DW_AT_name("value")
    1584                      .dwattr $C$DW$184, DW_AT_TI_symbol_name("_value")
    1585                      .dwattr $C$DW$184, DW_AT_type(*$C$DW$T$31)
    1586                      .dwattr $C$DW$184, DW_AT_location[DW_OP_reg21]
    1587              
    1588              ;* XT    assigned to _value
    1589              $C$DW$185       .dwtag  DW_TAG_variable
    1590                      .dwattr $C$DW$185, DW_AT_name("value")
    1591                      .dwattr $C$DW$185, DW_AT_TI_symbol_name("_value")
    1592                      .dwattr $C$DW$185, DW_AT_type(*$C$DW$T$31)
    1593                      .dwattr $C$DW$185, DW_AT_location[DW_OP_reg21]
    1594              
    1595              ;* AR5   assigned to $O$v1
    1596                      .dwcfi  cfa_offset, -2
    1597                      .dwcfi  save_reg_to_mem, 26, 0
    1598 00000000 761B          ASP       ; [CPU_] 
    1599 00000001 0005          PUSH      AR1H:AR0H             ; [CPU_] 
    1600                      .dwcfi  save_reg_to_mem, 5, 2
TMS320C2000 Assembler PC v15.12.3 Sun Oct 30 14:01:37 2016

Tools Copyright (c) 1996-2015 Texas Instruments Incorporated
C:\Users\MaCHaDo\AppData\Local\Temp\0057210                          PAGE   32

    1601                      .dwcfi  save_reg_to_mem, 7, 3
    1602                      .dwcfi  cfa_offset, -4
    1603 00000002 ABBD          MOVL      *SP++,XT              ; [CPU_] 
    1604                      .dwcfi  save_reg_to_mem, 21, 4
    1605                      .dwcfi  save_reg_to_mem, 22, 5
    1606                      .dwcfi  cfa_offset, -6
    1607 00000003 AABD          MOVL      *SP++,XAR2            ; [CPU_] 
    1608                      .dwcfi  save_reg_to_mem, 8, 6
    1609                      .dwcfi  save_reg_to_mem, 9, 7
    1610                      .dwcfi  cfa_offset, -8
    1611 00000004 A8BD          MOVL      *SP++,XAR4            ; [CPU_] 
    1612                      .dwcfi  save_reg_to_mem, 12, 8
    1613                      .dwcfi  save_reg_to_mem, 13, 9
    1614                      .dwcfi  cfa_offset, -10
    1615 00000005 A0BD          MOVL      *SP++,XAR5            ; [CPU_] 
    1616                      .dwcfi  save_reg_to_mem, 14, 10
    1617                      .dwcfi  save_reg_to_mem, 15, 11
    1618                      .dwcfi  cfa_offset, -12
    1619 00000006 C2BD          MOVL      *SP++,XAR6            ; [CPU_] 
    1620                      .dwcfi  save_reg_to_mem, 16, 12
    1621                      .dwcfi  save_reg_to_mem, 17, 13
    1622                      .dwcfi  cfa_offset, -14
    1623 00000007 C3BD          MOVL      *SP++,XAR7            ; [CPU_] 
    1624                      .dwcfi  save_reg_to_mem, 18, 14
    1625                      .dwcfi  save_reg_to_mem, 19, 15
    1626                      .dwcfi  cfa_offset, -16
    1627 00000008 FE04          ADDB      SP,#4                 ; [CPU_U] 
    1628                      .dwcfi  cfa_offset, -20
    1629 00000009 FF69          SPM       0                     ; [CPU_] 
    1630 0000000a 2942          CLRC      PAGE0,OVM             ; [CPU_] 
    1631 0000000b 5616          CLRC      AMODE                 ; [CPU_] 
    1632 0000000c 761F-         MOVW      DP,#_halHandle        ; [CPU_U] 
         0000000d 0000 
    1633                      .dwpsn  file "../main.c",line 484,column 3,is_stmt,isa 0
    1634 0000000e 8300-         MOVL      XAR5,@_halHandle      ; [CPU_] |484| 
    1635                      .dwpsn  file "D:/Users/MaCHaDo/Documents/GitHub/LegStrong/drivers/include/adc.h",line 571,column 3,is
    1636 0000000f 8F00          MOVL      XAR4,#26117           ; [CPU_U] |571| 
         00000010 6605 
    1637 00000011 A8A9          MOVL      ACC,XAR4              ; [CPU_] |571| 
    1638 00000012 07C5          ADDL      ACC,*+XAR5[0]         ; [CPU_] |571| 
    1639 00000013 8AA9          MOVL      XAR4,ACC              ; [CPU_] |571| 
    1640                      .dwpsn  file "D:/Users/MaCHaDo/Documents/GitHub/LegStrong/drivers/include/pie.h",line 757,column 5,is
    1641 00000014 D078          MOVB      XAR0,#120             ; [CPU_] |757| 
    1642                      .dwpsn  file "D:/Users/MaCHaDo/Documents/GitHub/LegStrong/drivers/include/adc.h",line 571,column 3,is
    1643 00000015 56BF          MOVB      *+XAR4[0],#1,UNC      ; [CPU_] |571| 
         00000016 01C4 
    1644                      .dwpsn  file "D:/Users/MaCHaDo/Documents/GitHub/LegStrong/drivers/include/pie.h",line 757,column 5,is
    1645 00000017 8A95          MOVL      XAR4,*+XAR5[AR0]      ; [CPU_] |757| 
    1646                      .dwpsn  file "D:/Users/MaCHaDo/Documents/GitHub/LegStrong/modules/include/hal.h",line 370,column 3,is
    1647 00000018 D0A4          MOVB      XAR0,#164             ; [CPU_] |370| 
    1648                      .dwpsn  file "D:/Users/MaCHaDo/Documents/GitHub/LegStrong/drivers/include/pie.h",line 757,column 5,is
    1649 00000019 28CC          MOV       *+XAR4[1],#512        ; [CPU_] |757| 
         0000001a 0200 
    1650                      .dwpsn  file "D:/Users/MaCHaDo/Documents/GitHub/LegStrong/drivers/include/adc.h",line 684,column 3,is
    1651 0000001b 8AC5          MOVL      XAR4,*+XAR5[0]        ; [CPU_] |684| 
TMS320C2000 Assembler PC v15.12.3 Sun Oct 30 14:01:37 2016

Tools Copyright (c) 1996-2015 Texas Instruments Incorporated
C:\Users\MaCHaDo\AppData\Local\Temp\0057210                          PAGE   33

    1652                      .dwpsn  file "D:/Users/MaCHaDo/Documents/GitHub/LegStrong/modules/include/hal.h",line 370,column 3,is
    1653 0000001c 8695          MOVL      XAR2,*+XAR5[AR0]      ; [CPU_] |370| 
    1654                      .dwpsn  file "D:/Users/MaCHaDo/Documents/GitHub/LegStrong/modules/include/hal.h",line 540,column 3,is
    1655 0000001d 7680-         MOVL      XAR6,#_gAdcData       ; [CPU_U] |540| 
         0000001e 0016 
    1656                      .dwpsn  file "D:/Users/MaCHaDo/Documents/GitHub/LegStrong/modules/include/hal.h",line 539,column 3,is
    1657 0000001f D0A2          MOVB      XAR0,#162             ; [CPU_] |539| 
    1658                      .dwpsn  file "D:/Users/MaCHaDo/Documents/GitHub/LegStrong/drivers/include/adc.h",line 684,column 3,is
    1659 00000020 0ECC          MOVU      ACC,*+XAR4[1]         ; [CPU_] |684| 
    1660                      .dwpsn  file "D:/Users/MaCHaDo/Documents/GitHub/LegStrong/modules/include/hal.h",line 539,column 3,is
    1661 00000021 C595          MOVL      XAR7,*+XAR5[AR0]      ; [CPU_] |539| 
    1662 00000022 761F-         MOVW      DP,#_gAdcData+12      ; [CPU_U] 
         00000023 0000 
    1663                      .dwpsn  file "D:/Users/MaCHaDo/Documents/GitHub/LegStrong/drivers/include/adc.h",line 684,column 3,is
    1664 00000024 1EAC          MOVL      XT,ACC                ; [CPU_] |684| 
    1665                      .dwpsn  file "D:/Users/MaCHaDo/Documents/GitHub/LegStrong/modules/include/hal.h",line 539,column 3,is
    1666 00000025 D092          MOVB      XAR0,#146             ; [CPU_] |539| 
    1667 00000026 5605          IMPYL     P,XT,XAR7             ; [CPU_] |539| 
         00000027 00A7 
    1668 00000028 5663          QMPYL     ACC,XT,XAR7           ; [CPU_] |539| 
         00000029 00A7 
    1669 0000002a 568B          ASR64     ACC:P,#12             ; [CPU_] |539| 
    1670 0000002b A9A9          MOVL      ACC,P                 ; [CPU_] |539| 
    1671 0000002c 0395          SUBL      ACC,*+XAR5[AR0]       ; [CPU_] |539| 
    1672                      .dwpsn  file "D:/Users/MaCHaDo/Documents/GitHub/LegStrong/modules/include/hal.h",line 544,column 3,is
    1673 0000002d D094          MOVB      XAR0,#148             ; [CPU_] |544| 
    1674                      .dwpsn  file "D:/Users/MaCHaDo/Documents/GitHub/LegStrong/modules/include/hal.h",line 540,column 3,is
    1675 0000002e 1EC6          MOVL      *+XAR6[0],ACC         ; [CPU_] |540| 
    1676                      .dwpsn  file "D:/Users/MaCHaDo/Documents/GitHub/LegStrong/drivers/include/adc.h",line 684,column 3,is
    1677 0000002f 0ED4          MOVU      ACC,*+XAR4[2]         ; [CPU_] |684| 
    1678 00000030 1EAC          MOVL      XT,ACC                ; [CPU_] |684| 
    1679                      .dwpsn  file "D:/Users/MaCHaDo/Documents/GitHub/LegStrong/modules/include/hal.h",line 544,column 3,is
    1680 00000031 5663          QMPYL     ACC,XT,XAR7           ; [CPU_] |544| 
         00000032 00A7 
    1681 00000033 5605          IMPYL     P,XT,XAR7             ; [CPU_] |544| 
         00000034 00A7 
    1682 00000035 568B          ASR64     ACC:P,#12             ; [CPU_] |544| 
    1683 00000036 A9A9          MOVL      ACC,P                 ; [CPU_] |544| 
    1684 00000037 0395          SUBL      ACC,*+XAR5[AR0]       ; [CPU_] |544| 
    1685                      .dwpsn  file "D:/Users/MaCHaDo/Documents/GitHub/LegStrong/modules/include/hal.h",line 549,column 3,is
    1686 00000038 D096          MOVB      XAR0,#150             ; [CPU_] |549| 
    1687                      .dwpsn  file "D:/Users/MaCHaDo/Documents/GitHub/LegStrong/modules/include/hal.h",line 545,column 3,is
    1688 00000039 1ED6          MOVL      *+XAR6[2],ACC         ; [CPU_] |545| 
    1689                      .dwpsn  file "D:/Users/MaCHaDo/Documents/GitHub/LegStrong/drivers/include/adc.h",line 684,column 3,is
    1690 0000003a 0EDC          MOVU      ACC,*+XAR4[3]         ; [CPU_] |684| 
    1691 0000003b 1EAC          MOVL      XT,ACC                ; [CPU_] |684| 
    1692                      .dwpsn  file "D:/Users/MaCHaDo/Documents/GitHub/LegStrong/modules/include/hal.h",line 549,column 3,is
    1693 0000003c 5663          QMPYL     ACC,XT,XAR7           ; [CPU_] |549| 
         0000003d 00A7 
    1694 0000003e 5605          IMPYL     P,XT,XAR7             ; [CPU_] |549| 
         0000003f 00A7 
    1695 00000040 568B          ASR64     ACC:P,#12             ; [CPU_] |549| 
    1696 00000041 A9A9          MOVL      ACC,P                 ; [CPU_] |549| 
    1697 00000042 0395          SUBL      ACC,*+XAR5[AR0]       ; [CPU_] |549| 
    1698                      .dwpsn  file "D:/Users/MaCHaDo/Documents/GitHub/LegStrong/modules/include/hal.h",line 554,column 3,is
TMS320C2000 Assembler PC v15.12.3 Sun Oct 30 14:01:37 2016

Tools Copyright (c) 1996-2015 Texas Instruments Incorporated
C:\Users\MaCHaDo\AppData\Local\Temp\0057210                          PAGE   34

    1699 00000043 D0A6          MOVB      XAR0,#166             ; [CPU_] |554| 
    1700                      .dwpsn  file "D:/Users/MaCHaDo/Documents/GitHub/LegStrong/modules/include/hal.h",line 550,column 3,is
    1701 00000044 1EE6          MOVL      *+XAR6[4],ACC         ; [CPU_] |550| 
    1702                      .dwpsn  file "D:/Users/MaCHaDo/Documents/GitHub/LegStrong/drivers/include/adc.h",line 684,column 3,is
    1703 00000045 0EE4          MOVU      ACC,*+XAR4[4]         ; [CPU_] |684| 
    1704                      .dwpsn  file "D:/Users/MaCHaDo/Documents/GitHub/LegStrong/modules/include/hal.h",line 554,column 3,is
    1705 00000046 C595          MOVL      XAR7,*+XAR5[AR0]      ; [CPU_] |554| 
    1706                      .dwpsn  file "../main.c",line 492,column 3,is_stmt,isa 0
    1707 00000047 8D40-         MOVL      XAR1,#_gPwmData       ; [CPU_U] |492| 
         00000048 0010 
    1708                      .dwpsn  file "D:/Users/MaCHaDo/Documents/GitHub/LegStrong/drivers/include/adc.h",line 684,column 3,is
    1709 00000049 1EAC          MOVL      XT,ACC                ; [CPU_] |684| 
    1710                      .dwpsn  file "D:/Users/MaCHaDo/Documents/GitHub/LegStrong/modules/include/hal.h",line 554,column 3,is
    1711 0000004a D098          MOVB      XAR0,#152             ; [CPU_] |554| 
    1712 0000004b 5663          QMPYL     ACC,XT,XAR7           ; [CPU_] |554| 
         0000004c 00A7 
    1713 0000004d 5605          IMPYL     P,XT,XAR7             ; [CPU_] |554| 
         0000004e 00A7 
    1714 0000004f 568B          ASR64     ACC:P,#12             ; [CPU_] |554| 
    1715 00000050 A9A9          MOVL      ACC,P                 ; [CPU_] |554| 
    1716 00000051 0395          SUBL      ACC,*+XAR5[AR0]       ; [CPU_] |554| 
    1717                      .dwpsn  file "D:/Users/MaCHaDo/Documents/GitHub/LegStrong/modules/include/hal.h",line 559,column 3,is
    1718 00000052 D09A          MOVB      XAR0,#154             ; [CPU_] |559| 
    1719                      .dwpsn  file "D:/Users/MaCHaDo/Documents/GitHub/LegStrong/modules/include/hal.h",line 555,column 3,is
    1720 00000053 1EF6          MOVL      *+XAR6[6],ACC         ; [CPU_] |555| 
    1721                      .dwpsn  file "D:/Users/MaCHaDo/Documents/GitHub/LegStrong/drivers/include/adc.h",line 684,column 3,is
    1722 00000054 0EEC          MOVU      ACC,*+XAR4[5]         ; [CPU_] |684| 
    1723 00000055 1EAC          MOVL      XT,ACC                ; [CPU_] |684| 
    1724                      .dwpsn  file "D:/Users/MaCHaDo/Documents/GitHub/LegStrong/modules/include/hal.h",line 559,column 3,is
    1725 00000056 5663          QMPYL     ACC,XT,XAR7           ; [CPU_] |559| 
         00000057 00A7 
    1726 00000058 5605          IMPYL     P,XT,XAR7             ; [CPU_] |559| 
         00000059 00A7 
    1727 0000005a 568B          ASR64     ACC:P,#12             ; [CPU_] |559| 
    1728 0000005b A9A9          MOVL      ACC,P                 ; [CPU_] |559| 
    1729 0000005c 0395          SUBL      ACC,*+XAR5[AR0]       ; [CPU_] |559| 
    1730                      .dwpsn  file "D:/Users/MaCHaDo/Documents/GitHub/LegStrong/modules/include/hal.h",line 560,column 3,is
    1731 0000005d D008          MOVB      XAR0,#8               ; [CPU_] |560| 
    1732 0000005e 1E96          MOVL      *+XAR6[AR0],ACC       ; [CPU_] |560| 
    1733                      .dwpsn  file "D:/Users/MaCHaDo/Documents/GitHub/LegStrong/modules/include/hal.h",line 564,column 3,is
    1734 0000005f D09C          MOVB      XAR0,#156             ; [CPU_] |564| 
    1735                      .dwpsn  file "D:/Users/MaCHaDo/Documents/GitHub/LegStrong/drivers/include/adc.h",line 684,column 3,is
    1736 00000060 0EF4          MOVU      ACC,*+XAR4[6]         ; [CPU_] |684| 
    1737 00000061 1EAC          MOVL      XT,ACC                ; [CPU_] |684| 
    1738                      .dwpsn  file "D:/Users/MaCHaDo/Documents/GitHub/LegStrong/modules/include/hal.h",line 564,column 3,is
    1739 00000062 5663          QMPYL     ACC,XT,XAR7           ; [CPU_] |564| 
         00000063 00A7 
    1740 00000064 5605          IMPYL     P,XT,XAR7             ; [CPU_] |564| 
         00000065 00A7 
    1741 00000066 568B          ASR64     ACC:P,#12             ; [CPU_] |564| 
    1742 00000067 A9A9          MOVL      ACC,P                 ; [CPU_] |564| 
    1743 00000068 0395          SUBL      ACC,*+XAR5[AR0]       ; [CPU_] |564| 
    1744                      .dwpsn  file "D:/Users/MaCHaDo/Documents/GitHub/LegStrong/modules/include/hal.h",line 565,column 3,is
    1745 00000069 D00A          MOVB      XAR0,#10              ; [CPU_] |565| 
    1746 0000006a 1E96          MOVL      *+XAR6[AR0],ACC       ; [CPU_] |565| 
TMS320C2000 Assembler PC v15.12.3 Sun Oct 30 14:01:37 2016

Tools Copyright (c) 1996-2015 Texas Instruments Incorporated
C:\Users\MaCHaDo\AppData\Local\Temp\0057210                          PAGE   35

    1747                      .dwpsn  file "D:/Users/MaCHaDo/Documents/GitHub/LegStrong/drivers/include/adc.h",line 684,column 3,is
    1748 0000006b D008          MOVB      XAR0,#8               ; [CPU_] |684| 
    1749 0000006c 0EFC          MOVU      ACC,*+XAR4[7]         ; [CPU_] |684| 
    1750 0000006d 1EAC          MOVL      XT,ACC                ; [CPU_] |684| 
    1751                      .dwpsn  file "D:/Users/MaCHaDo/Documents/GitHub/LegStrong/modules/include/hal.h",line 569,column 3,is
    1752 0000006e 5663          QMPYL     ACC,XT,XAR7           ; [CPU_] |569| 
         0000006f 00A7 
    1753 00000070 5605          IMPYL     P,XT,XAR7             ; [CPU_] |569| 
         00000071 00A7 
    1754 00000072 568B          ASR64     ACC:P,#12             ; [CPU_] |569| 
    1755                      .dwpsn  file "D:/Users/MaCHaDo/Documents/GitHub/LegStrong/modules/include/hal.h",line 570,column 3,is
    1756 00000073 A922-         MOVL      @_gAdcData+12,P       ; [CPU_] |570| 
    1757                      .dwpsn  file "D:/Users/MaCHaDo/Documents/GitHub/LegStrong/drivers/include/adc.h",line 684,column 3,is
    1758 00000074 0E94          MOVU      ACC,*+XAR4[AR0]       ; [CPU_] |684| 
    1759                      .dwpsn  file "D:/Users/MaCHaDo/Documents/GitHub/LegStrong/modules/include/hal.h",line 574,column 3,is
    1760 00000075 D0A0          MOVB      XAR0,#160             ; [CPU_] |574| 
    1761                      .dwpsn  file "D:/Users/MaCHaDo/Documents/GitHub/LegStrong/drivers/include/adc.h",line 684,column 3,is
    1762 00000076 1EAC          MOVL      XT,ACC                ; [CPU_] |684| 
    1763                      .dwpsn  file "D:/Users/MaCHaDo/Documents/GitHub/LegStrong/modules/include/hal.h",line 574,column 3,is
    1764 00000077 5663          QMPYL     ACC,XT,XAR2           ; [CPU_] |574| 
         00000078 00A2 
    1765 00000079 5605          IMPYL     P,XT,XAR2             ; [CPU_] |574| 
         0000007a 00A2 
    1766                      .dwpsn  file "../main.c",line 492,column 3,is_stmt,isa 0
    1767 0000007b 8A04-         MOVL      XAR4,@_ctrlHandle     ; [CPU_] |492| 
    1768                      .dwpsn  file "D:/Users/MaCHaDo/Documents/GitHub/LegStrong/modules/include/hal.h",line 574,column 3,is
    1769 0000007c 568B          ASR64     ACC:P,#12             ; [CPU_] |574| 
    1770 0000007d 0695          MOVL      ACC,*+XAR5[AR0]       ; [CPU_] |574| 
    1771 0000007e 03AB          SUBL      ACC,P                 ; [CPU_] |574| 
    1772                      .dwpsn  file "../main.c",line 492,column 3,is_stmt,isa 0
    1773 0000007f C242          MOVL      *-SP[2],XAR6          ; [CPU_] |492| 
    1774                      .dwpsn  file "D:/Users/MaCHaDo/Documents/GitHub/LegStrong/modules/include/hal.h",line 575,column 3,is
    1775 00000080 1E24-         MOVL      @_gAdcData+14,ACC     ; [CPU_] |575| 
    1776                      .dwpsn  file "../main.c",line 492,column 3,is_stmt,isa 0
    1777 00000081 B244          MOVL      *-SP[4],XAR1          ; [CPU_] |492| 
    1778              $C$DW$186       .dwtag  DW_TAG_TI_branch
    1779                      .dwattr $C$DW$186, DW_AT_low_pc(0x00)
    1780                      .dwattr $C$DW$186, DW_AT_name("_CTRL_run")
    1781                      .dwattr $C$DW$186, DW_AT_TI_call
    1782              
    1783 00000082 7640!         LCR       #_CTRL_run            ; [CPU_] |492| 
         00000083 0000 
    1784                      ; call occurs [#_CTRL_run] ; [] |492| 
    1785 00000084 761F-         MOVW      DP,#_halHandle        ; [CPU_U] 
         00000085 0000 
    1786 00000086 3B01          SETC      SXM                   ; [CPU_] 
    1787                      .dwpsn  file "D:/Users/MaCHaDo/Documents/GitHub/LegStrong/modules/include/hal.h",line 1136,column 16,
    1788 00000087 8A00-         MOVL      XAR4,@_halHandle      ; [CPU_] |1136| 
    1789                      .dwpsn  file "D:/Users/MaCHaDo/Documents/GitHub/LegStrong/modules/include/hal.h",line 1147,column 7,i
    1790 00000088 D07C          MOVB      XAR0,#124             ; [CPU_] |1147| 
    1791                      .dwpsn  file "D:/Users/MaCHaDo/Documents/GitHub/LegStrong/modules/include/hal.h",line 1149,column 7,i
    1792 00000089 FF2F          MOV       ACC,#-512 << 15       ; [CPU_] |1149| 
         0000008a FE00 
    1793 0000008b 87C1          MOVL      XT,*+XAR1[0]          ; [CPU_] |1149| 
    1794                      .dwpsn  file "D:/Users/MaCHaDo/Documents/GitHub/LegStrong/modules/include/hal.h",line 1147,column 7,i
TMS320C2000 Assembler PC v15.12.3 Sun Oct 30 14:01:37 2016

Tools Copyright (c) 1996-2015 Texas Instruments Incorporated
C:\Users\MaCHaDo\AppData\Local\Temp\0057210                          PAGE   36

    1795 0000008c 8394          MOVL      XAR5,*+XAR4[AR0]      ; [CPU_] |1147| 
    1796                      .dwpsn  file "D:/Users/MaCHaDo/Documents/GitHub/LegStrong/modules/include/hal.h",line 1149,column 7,i
    1797 0000008d 5605          IMPYL     P,XT,ACC              ; [CPU_] |1149| 
         0000008e 00A9 
    1798 0000008f 5663          QMPYL     ACC,XT,ACC            ; [CPU_] |1149| 
         00000090 00A9 
    1799 00000091 56A7          LSL64     ACC:P,#8              ; [CPU_] |1149| 
    1800                      .dwpsn  file "D:/Users/MaCHaDo/Documents/GitHub/LegStrong/modules/include/hal.h",line 1148,column 7,i
    1801 00000092 88ED          MOVZ      AR6,*+XAR5[5]         ; [CPU_] |1148| 
    1802                      .dwpsn  file "D:/Users/MaCHaDo/Documents/GitHub/LegStrong/modules/include/hal.h",line 1149,column 7,i
    1803 00000093 2BAB          MOV       PL,#0                 ; [CPU_] |1149| 
    1804 00000094 28AA          MOV       PH,#128               ; [CPU_] |1149| 
         00000095 0080 
    1805 00000096 A9A7          MOVL      XAR7,P                ; [CPU_] |1149| 
    1806 00000097 D009          MOVB      XAR0,#9               ; [CPU_] |1149| 
    1807 00000098 2BAB          MOV       PL,#0                 ; [CPU_] |1149| 
    1808 00000099 28AA          MOV       PH,#65408             ; [CPU_] |1149| 
         0000009a FF80 
    1809 0000009b 5650          MINL      ACC,XAR7              ; [CPU_] |1149| 
         0000009c 00A7 
    1810 0000009d 5661          MAXL      ACC,P                 ; [CPU_] |1149| 
         0000009e 00AB 
    1811 0000009f B600          MOVB      XAR7,#0               ; [CPU_] |1149| 
    1812 000000a0 FF1F          ADD       ACC,#256 << 15        ; [CPU_] |1149| 
         000000a1 0100 
    1813 000000a2 1EAC          MOVL      XT,ACC                ; [CPU_] |1149| 
    1814 000000a3 5663          QMPYL     ACC,XT,XAR6           ; [CPU_] |1149| 
         000000a4 00A6 
    1815 000000a5 5605          IMPYL     P,XT,XAR6             ; [CPU_] |1149| 
         000000a6 00A6 
    1816 000000a7 56A7          LSL64     ACC:P,#8              ; [CPU_] |1149| 
    1817 000000a8 5650          MINL      ACC,XAR6              ; [CPU_] |1149| 
         000000a9 00A6 
    1818 000000aa 5661          MAXL      ACC,XAR7              ; [CPU_] |1149| 
         000000ab 00A7 
    1819 000000ac 9695          MOV       *+XAR5[AR0],AL        ; [CPU_] |1149| 
    1820                      .dwpsn  file "D:/Users/MaCHaDo/Documents/GitHub/LegStrong/modules/include/hal.h",line 1148,column 7,i
    1821 000000ad D07E          MOVB      XAR0,#126             ; [CPU_] |1148| 
    1822                      .dwpsn  file "D:/Users/MaCHaDo/Documents/GitHub/LegStrong/modules/include/hal.h",line 1149,column 7,i
    1823 000000ae FF2F          MOV       ACC,#-512 << 15       ; [CPU_] |1149| 
         000000af FE00 
    1824 000000b0 87D1          MOVL      XT,*+XAR1[2]          ; [CPU_] |1149| 
    1825                      .dwpsn  file "D:/Users/MaCHaDo/Documents/GitHub/LegStrong/modules/include/hal.h",line 1148,column 7,i
    1826 000000b1 8394          MOVL      XAR5,*+XAR4[AR0]      ; [CPU_] |1148| 
    1827                      .dwpsn  file "D:/Users/MaCHaDo/Documents/GitHub/LegStrong/modules/include/hal.h",line 1149,column 7,i
    1828 000000b2 5605          IMPYL     P,XT,ACC              ; [CPU_] |1149| 
         000000b3 00A9 
    1829 000000b4 5663          QMPYL     ACC,XT,ACC            ; [CPU_] |1149| 
         000000b5 00A9 
    1830 000000b6 56A7          LSL64     ACC:P,#8              ; [CPU_] |1149| 
    1831                      .dwpsn  file "D:/Users/MaCHaDo/Documents/GitHub/LegStrong/modules/include/hal.h",line 1148,column 7,i
    1832 000000b7 88ED          MOVZ      AR6,*+XAR5[5]         ; [CPU_] |1148| 
    1833                      .dwpsn  file "D:/Users/MaCHaDo/Documents/GitHub/LegStrong/modules/include/hal.h",line 1149,column 7,i
    1834 000000b8 2BAB          MOV       PL,#0                 ; [CPU_] |1149| 
    1835 000000b9 28AA          MOV       PH,#128               ; [CPU_] |1149| 
TMS320C2000 Assembler PC v15.12.3 Sun Oct 30 14:01:37 2016

Tools Copyright (c) 1996-2015 Texas Instruments Incorporated
C:\Users\MaCHaDo\AppData\Local\Temp\0057210                          PAGE   37

         000000ba 0080 
    1836 000000bb A9A7          MOVL      XAR7,P                ; [CPU_] |1149| 
    1837 000000bc D009          MOVB      XAR0,#9               ; [CPU_] |1149| 
    1838 000000bd 2BAB          MOV       PL,#0                 ; [CPU_] |1149| 
    1839 000000be 28AA          MOV       PH,#65408             ; [CPU_] |1149| 
         000000bf FF80 
    1840 000000c0 5650          MINL      ACC,XAR7              ; [CPU_] |1149| 
         000000c1 00A7 
    1841 000000c2 5661          MAXL      ACC,P                 ; [CPU_] |1149| 
         000000c3 00AB 
    1842 000000c4 B600          MOVB      XAR7,#0               ; [CPU_] |1149| 
    1843 000000c5 FF1F          ADD       ACC,#256 << 15        ; [CPU_] |1149| 
         000000c6 0100 
    1844 000000c7 1EAC          MOVL      XT,ACC                ; [CPU_] |1149| 
    1845 000000c8 5663          QMPYL     ACC,XT,XAR6           ; [CPU_] |1149| 
         000000c9 00A6 
    1846 000000ca 5605          IMPYL     P,XT,XAR6             ; [CPU_] |1149| 
         000000cb 00A6 
    1847 000000cc 56A7          LSL64     ACC:P,#8              ; [CPU_] |1149| 
    1848 000000cd 5650          MINL      ACC,XAR6              ; [CPU_] |1149| 
         000000ce 00A6 
    1849 000000cf 5661          MAXL      ACC,XAR7              ; [CPU_] |1149| 
         000000d0 00A7 
    1850 000000d1 9695          MOV       *+XAR5[AR0],AL        ; [CPU_] |1149| 
    1851                      .dwpsn  file "D:/Users/MaCHaDo/Documents/GitHub/LegStrong/modules/include/hal.h",line 1148,column 7,i
    1852 000000d2 D080          MOVB      XAR0,#128             ; [CPU_] |1148| 
    1853                      .dwpsn  file "D:\Users\MaCHaDo\Documents\GitHub\LegStrong\drivers\include\pwm.h",line 1717,column 3,i
    1854 000000d3 FF2F          MOV       ACC,#-512 << 15       ; [CPU_] |1717| 
         000000d4 FE00 
    1855 000000d5 87E1          MOVL      XT,*+XAR1[4]          ; [CPU_] |1717| 
    1856                      .dwpsn  file "D:/Users/MaCHaDo/Documents/GitHub/LegStrong/modules/include/hal.h",line 1148,column 7,i
    1857 000000d6 8A94          MOVL      XAR4,*+XAR4[AR0]      ; [CPU_] |1148| 
    1858                      .dwpsn  file "D:\Users\MaCHaDo\Documents\GitHub\LegStrong\drivers\include\pwm.h",line 1717,column 3,i
    1859 000000d7 5605          IMPYL     P,XT,ACC              ; [CPU_] |1717| 
         000000d8 00A9 
    1860 000000d9 5663          QMPYL     ACC,XT,ACC            ; [CPU_] |1717| 
         000000da 00A9 
    1861 000000db D009          MOVB      XAR0,#9               ; [CPU_] |1717| 
    1862 000000dc 56A7          LSL64     ACC:P,#8              ; [CPU_] |1717| 
    1863                      .dwpsn  file "D:/Users/MaCHaDo/Documents/GitHub/LegStrong/modules/include/hal.h",line 1148,column 7,i
    1864 000000dd 88EC          MOVZ      AR6,*+XAR4[5]         ; [CPU_] |1148| 
    1865                      .dwpsn  file "D:\Users\MaCHaDo\Documents\GitHub\LegStrong\drivers\include\pwm.h",line 1717,column 3,i
    1866 000000de 2BAB          MOV       PL,#0                 ; [CPU_] |1717| 
    1867 000000df 28AA          MOV       PH,#128               ; [CPU_] |1717| 
         000000e0 0080 
    1868 000000e1 A9A7          MOVL      XAR7,P                ; [CPU_] |1717| 
    1869 000000e2 761F-         MOVW      DP,#_ctrlHandle       ; [CPU_U] 
         000000e3 0000 
    1870 000000e4 2BAB          MOV       PL,#0                 ; [CPU_] |1717| 
    1871 000000e5 28AA          MOV       PH,#65408             ; [CPU_] |1717| 
         000000e6 FF80 
    1872 000000e7 5650          MINL      ACC,XAR7              ; [CPU_] |1717| 
         000000e8 00A7 
    1873 000000e9 5661          MAXL      ACC,P                 ; [CPU_] |1717| 
         000000ea 00AB 
TMS320C2000 Assembler PC v15.12.3 Sun Oct 30 14:01:37 2016

Tools Copyright (c) 1996-2015 Texas Instruments Incorporated
C:\Users\MaCHaDo\AppData\Local\Temp\0057210                          PAGE   38

    1874 000000eb B600          MOVB      XAR7,#0               ; [CPU_] |1717| 
    1875 000000ec FF1F          ADD       ACC,#256 << 15        ; [CPU_] |1717| 
         000000ed 0100 
    1876 000000ee 1EAC          MOVL      XT,ACC                ; [CPU_] |1717| 
    1877 000000ef 5663          QMPYL     ACC,XT,XAR6           ; [CPU_] |1717| 
         000000f0 00A6 
    1878 000000f1 5605          IMPYL     P,XT,XAR6             ; [CPU_] |1717| 
         000000f2 00A6 
    1879 000000f3 56A7          LSL64     ACC:P,#8              ; [CPU_] |1717| 
    1880 000000f4 5650          MINL      ACC,XAR6              ; [CPU_] |1717| 
         000000f5 00A6 
    1881 000000f6 5661          MAXL      ACC,XAR7              ; [CPU_] |1717| 
         000000f7 00A7 
    1882 000000f8 9694          MOV       *+XAR4[AR0],AL        ; [CPU_] |1717| 
    1883                      .dwpsn  file "../main.c",line 500,column 3,is_stmt,isa 0
    1884 000000f9 8A04-         MOVL      XAR4,@_ctrlHandle     ; [CPU_] |500| 
    1885              $C$DW$187       .dwtag  DW_TAG_TI_branch
    1886                      .dwattr $C$DW$187, DW_AT_low_pc(0x00)
    1887                      .dwattr $C$DW$187, DW_AT_name("_CTRL_setup")
    1888                      .dwattr $C$DW$187, DW_AT_TI_call
    1889              
    1890 000000fa 7640!         LCR       #_CTRL_setup          ; [CPU_] |500| 
         000000fb 0000 
    1891                      ; call occurs [#_CTRL_setup] ; [] |500| 
    1892 000000fc FE84          SUBB      SP,#4                 ; [CPU_U] 
    1893                      .dwcfi  cfa_offset, -16
    1894 000000fd C5BE          MOVL      XAR7,*--SP            ; [CPU_] 
    1895                      .dwcfi  cfa_offset, -14
    1896                      .dwcfi  restore_reg, 18
    1897 000000fe C4BE          MOVL      XAR6,*--SP            ; [CPU_] 
    1898                      .dwcfi  cfa_offset, -12
    1899                      .dwcfi  restore_reg, 16
    1900 000000ff 83BE          MOVL      XAR5,*--SP            ; [CPU_] 
    1901                      .dwcfi  cfa_offset, -10
    1902                      .dwcfi  restore_reg, 14
    1903 00000100 8ABE          MOVL      XAR4,*--SP            ; [CPU_] 
    1904                      .dwcfi  cfa_offset, -8
    1905                      .dwcfi  restore_reg, 12
    1906 00000101 86BE          MOVL      XAR2,*--SP            ; [CPU_] 
    1907                      .dwcfi  cfa_offset, -6
    1908                      .dwcfi  restore_reg, 8
    1909 00000102 87BE          MOVL      XT,*--SP              ; [CPU_] 
    1910                      .dwcfi  cfa_offset, -4
    1911                      .dwcfi  restore_reg, 22
    1912                      .dwcfi  restore_reg, 21
    1913 00000103 0003          POP       AR1H:AR0H             ; [CPU_] 
    1914                      .dwcfi  cfa_offset, -2
    1915                      .dwcfi  restore_reg, 5
    1916                      .dwcfi  restore_reg, 7
    1917 00000104 7617          NASP      ; [CPU_] 
    1918              $C$DW$188       .dwtag  DW_TAG_TI_branch
    1919                      .dwattr $C$DW$188, DW_AT_low_pc(0x00)
    1920                      .dwattr $C$DW$188, DW_AT_TI_return
    1921              
    1922 00000105 7602          IRET      ; [CPU_] 
TMS320C2000 Assembler PC v15.12.3 Sun Oct 30 14:01:37 2016

Tools Copyright (c) 1996-2015 Texas Instruments Incorporated
C:\Users\MaCHaDo\AppData\Local\Temp\0057210                          PAGE   39

    1923                      ; return occurs ; [] 
    1924                      .dwattr $C$DW$172, DW_AT_TI_end_file("../main.c")
    1925                      .dwattr $C$DW$172, DW_AT_TI_end_line(0x1f8)
    1926                      .dwattr $C$DW$172, DW_AT_TI_end_column(0x01)
    1927                      .dwendentry
    1928                      .dwendtag $C$DW$172
    1929              
    1930 00000096               .sect   ".text"
    1931                      .clink
    1932                      .global _main
    1933              
    1934              $C$DW$189       .dwtag  DW_TAG_subprogram
    1935                      .dwattr $C$DW$189, DW_AT_name("main")
    1936                      .dwattr $C$DW$189, DW_AT_low_pc(_main)
    1937                      .dwattr $C$DW$189, DW_AT_high_pc(0x00)
    1938                      .dwattr $C$DW$189, DW_AT_TI_symbol_name("_main")
    1939                      .dwattr $C$DW$189, DW_AT_external
    1940                      .dwattr $C$DW$189, DW_AT_TI_begin_file("../main.c")
    1941                      .dwattr $C$DW$189, DW_AT_TI_begin_line(0x88)
    1942                      .dwattr $C$DW$189, DW_AT_TI_begin_column(0x06)
    1943                      .dwattr $C$DW$189, DW_AT_TI_max_frame_size(-20)
    1944                      .dwpsn  file "../main.c",line 137,column 1,is_stmt,address _main,isa 0
    1945              
    1946                      .dwfde $C$DW$CIE, _main
    1947              
    1948              ;***************************************************************
    1949              ;* FNAME: _main                         FR SIZE:  18           *
    1950              ;*                                                             *
    1951              ;* FUNCTION ENVIRONMENT                                        *
    1952              ;*                                                             *
    1953              ;* FUNCTION PROPERTIES                                         *
    1954              ;*                            2 Parameter, 10 Auto,  6 SOE     *
    1955              ;***************************************************************
    1956              
    1957              _main:
    1958              ;* AR6   assigned to $O$C14
    1959              ;* AR5   assigned to $O$C15
    1960              ;* AR7   assigned to $O$C16
    1961              ;* AR6   assigned to $O$C17
    1962              ;* AR6   assigned to $O$C19
    1963              ;* AR6   assigned to $O$C21
    1964              ;* AL    assigned to $O$U160
    1965              ;* AR3   assigned to $O$K67
    1966              ;* AR5   assigned to _pie
    1967              $C$DW$190       .dwtag  DW_TAG_variable
    1968                      .dwattr $C$DW$190, DW_AT_name("pie")
    1969                      .dwattr $C$DW$190, DW_AT_TI_symbol_name("_pie")
    1970                      .dwattr $C$DW$190, DW_AT_type(*$C$DW$T$266)
    1971                      .dwattr $C$DW$190, DW_AT_location[DW_OP_reg14]
    1972              
    1973              ;* AR5   assigned to _obj
    1974              $C$DW$191       .dwtag  DW_TAG_variable
    1975                      .dwattr $C$DW$191, DW_AT_name("obj")
    1976                      .dwattr $C$DW$191, DW_AT_TI_symbol_name("_obj")
    1977                      .dwattr $C$DW$191, DW_AT_type(*$C$DW$T$250)
TMS320C2000 Assembler PC v15.12.3 Sun Oct 30 14:01:37 2016

Tools Copyright (c) 1996-2015 Texas Instruments Incorporated
C:\Users\MaCHaDo\AppData\Local\Temp\0057210                          PAGE   40

    1978                      .dwattr $C$DW$191, DW_AT_location[DW_OP_reg14]
    1979              
    1980              ;* AL    assigned to _state
    1981              $C$DW$192       .dwtag  DW_TAG_variable
    1982                      .dwattr $C$DW$192, DW_AT_name("state")
    1983                      .dwattr $C$DW$192, DW_AT_TI_symbol_name("_state")
    1984                      .dwattr $C$DW$192, DW_AT_type(*$C$DW$T$69)
    1985                      .dwattr $C$DW$192, DW_AT_location[DW_OP_reg0]
    1986              
    1987              ;* AL    assigned to _state
    1988              $C$DW$193       .dwtag  DW_TAG_variable
    1989                      .dwattr $C$DW$193, DW_AT_name("state")
    1990                      .dwattr $C$DW$193, DW_AT_TI_symbol_name("_state")
    1991                      .dwattr $C$DW$193, DW_AT_type(*$C$DW$T$69)
    1992                      .dwattr $C$DW$193, DW_AT_location[DW_OP_reg0]
    1993              
    1994              ;* AR4   assigned to _obj
    1995              $C$DW$194       .dwtag  DW_TAG_variable
    1996                      .dwattr $C$DW$194, DW_AT_name("obj")
    1997                      .dwattr $C$DW$194, DW_AT_TI_symbol_name("_obj")
    1998                      .dwattr $C$DW$194, DW_AT_type(*$C$DW$T$250)
    1999                      .dwattr $C$DW$194, DW_AT_location[DW_OP_reg12]
    2000              
    2001              ;* AH    assigned to _state
    2002              $C$DW$195       .dwtag  DW_TAG_variable
    2003                      .dwattr $C$DW$195, DW_AT_name("state")
    2004                      .dwattr $C$DW$195, DW_AT_TI_symbol_name("_state")
    2005                      .dwattr $C$DW$195, DW_AT_type(*$C$DW$T$69)
    2006                      .dwattr $C$DW$195, DW_AT_location[DW_OP_reg1]
    2007              
    2008              ;* AR5   assigned to _obj
    2009              $C$DW$196       .dwtag  DW_TAG_variable
    2010                      .dwattr $C$DW$196, DW_AT_name("obj")
    2011                      .dwattr $C$DW$196, DW_AT_TI_symbol_name("_obj")
    2012                      .dwattr $C$DW$196, DW_AT_type(*$C$DW$T$250)
    2013                      .dwattr $C$DW$196, DW_AT_location[DW_OP_reg14]
    2014              
    2015              ;* AR5   assigned to _handle
    2016              $C$DW$197       .dwtag  DW_TAG_variable
    2017                      .dwattr $C$DW$197, DW_AT_name("handle")
    2018                      .dwattr $C$DW$197, DW_AT_TI_symbol_name("_handle")
    2019                      .dwattr $C$DW$197, DW_AT_type(*$C$DW$T$252)
    2020                      .dwattr $C$DW$197, DW_AT_location[DW_OP_reg14]
    2021              
    2022              ;* AR7   assigned to _obj
    2023              $C$DW$198       .dwtag  DW_TAG_variable
    2024                      .dwattr $C$DW$198, DW_AT_name("obj")
    2025                      .dwattr $C$DW$198, DW_AT_TI_symbol_name("_obj")
    2026                      .dwattr $C$DW$198, DW_AT_type(*$C$DW$T$250)
    2027                      .dwattr $C$DW$198, DW_AT_location[DW_OP_reg18]
    2028              
    2029              ;* AR5   assigned to _obj
    2030              $C$DW$199       .dwtag  DW_TAG_variable
    2031                      .dwattr $C$DW$199, DW_AT_name("obj")
    2032                      .dwattr $C$DW$199, DW_AT_TI_symbol_name("_obj")
TMS320C2000 Assembler PC v15.12.3 Sun Oct 30 14:01:37 2016

Tools Copyright (c) 1996-2015 Texas Instruments Incorporated
C:\Users\MaCHaDo\AppData\Local\Temp\0057210                          PAGE   41

    2033                      .dwattr $C$DW$199, DW_AT_type(*$C$DW$T$250)
    2034                      .dwattr $C$DW$199, DW_AT_location[DW_OP_reg14]
    2035              
    2036              ;* AR6   assigned to _state
    2037              $C$DW$200       .dwtag  DW_TAG_variable
    2038                      .dwattr $C$DW$200, DW_AT_name("state")
    2039                      .dwattr $C$DW$200, DW_AT_TI_symbol_name("_state")
    2040                      .dwattr $C$DW$200, DW_AT_type(*$C$DW$T$69)
    2041                      .dwattr $C$DW$200, DW_AT_location[DW_OP_reg16]
    2042              
    2043              ;* AR5   assigned to _obj
    2044              $C$DW$201       .dwtag  DW_TAG_variable
    2045                      .dwattr $C$DW$201, DW_AT_name("obj")
    2046                      .dwattr $C$DW$201, DW_AT_TI_symbol_name("_obj")
    2047                      .dwattr $C$DW$201, DW_AT_type(*$C$DW$T$250)
    2048                      .dwattr $C$DW$201, DW_AT_location[DW_OP_reg14]
    2049              
    2050              $C$DW$202       .dwtag  DW_TAG_variable
    2051                      .dwattr $C$DW$202, DW_AT_name("ctrlState")
    2052                      .dwattr $C$DW$202, DW_AT_TI_symbol_name("_ctrlState")
    2053                      .dwattr $C$DW$202, DW_AT_type(*$C$DW$T$39)
    2054                      .dwattr $C$DW$202, DW_AT_location[DW_OP_breg20 -7]
    2055              
    2056              ;* AL    assigned to _flag_ctrlStateChanged
    2057              $C$DW$203       .dwtag  DW_TAG_variable
    2058                      .dwattr $C$DW$203, DW_AT_name("flag_ctrlStateChanged")
    2059                      .dwattr $C$DW$203, DW_AT_TI_symbol_name("_flag_ctrlStateChanged")
    2060                      .dwattr $C$DW$203, DW_AT_type(*$C$DW$T$69)
    2061                      .dwattr $C$DW$203, DW_AT_location[DW_OP_reg0]
    2062              
    2063              ;* AR1   assigned to _obj
    2064              $C$DW$204       .dwtag  DW_TAG_variable
    2065                      .dwattr $C$DW$204, DW_AT_name("obj")
    2066                      .dwattr $C$DW$204, DW_AT_TI_symbol_name("_obj")
    2067                      .dwattr $C$DW$204, DW_AT_type(*$C$DW$T$230)
    2068                      .dwattr $C$DW$204, DW_AT_location[DW_OP_reg6]
    2069              
    2070              ;* T     assigned to _cnt
    2071              $C$DW$205       .dwtag  DW_TAG_variable
    2072                      .dwattr $C$DW$205, DW_AT_name("cnt")
    2073                      .dwattr $C$DW$205, DW_AT_TI_symbol_name("_cnt")
    2074                      .dwattr $C$DW$205, DW_AT_type(*$C$DW$T$32)
    2075                      .dwattr $C$DW$205, DW_AT_location[DW_OP_reg22]
    2076              
    2077              ;* AH    assigned to _cnt
    2078              $C$DW$206       .dwtag  DW_TAG_variable
    2079                      .dwattr $C$DW$206, DW_AT_name("cnt")
    2080                      .dwattr $C$DW$206, DW_AT_TI_symbol_name("_cnt")
    2081                      .dwattr $C$DW$206, DW_AT_type(*$C$DW$T$32)
    2082                      .dwattr $C$DW$206, DW_AT_location[DW_OP_reg1]
    2083              
    2084              ;* T     assigned to _cnt
    2085              $C$DW$207       .dwtag  DW_TAG_variable
    2086                      .dwattr $C$DW$207, DW_AT_name("cnt")
    2087                      .dwattr $C$DW$207, DW_AT_TI_symbol_name("_cnt")
TMS320C2000 Assembler PC v15.12.3 Sun Oct 30 14:01:37 2016

Tools Copyright (c) 1996-2015 Texas Instruments Incorporated
C:\Users\MaCHaDo\AppData\Local\Temp\0057210                          PAGE   42

    2088                      .dwattr $C$DW$207, DW_AT_type(*$C$DW$T$32)
    2089                      .dwattr $C$DW$207, DW_AT_location[DW_OP_reg22]
    2090              
    2091              ;* AL    assigned to _bias
    2092              $C$DW$208       .dwtag  DW_TAG_variable
    2093                      .dwattr $C$DW$208, DW_AT_name("bias")
    2094                      .dwattr $C$DW$208, DW_AT_TI_symbol_name("_bias")
    2095                      .dwattr $C$DW$208, DW_AT_type(*$C$DW$T$31)
    2096                      .dwattr $C$DW$208, DW_AT_location[DW_OP_reg0]
    2097              
    2098              ;* AL    assigned to _bias
    2099              $C$DW$209       .dwtag  DW_TAG_variable
    2100                      .dwattr $C$DW$209, DW_AT_name("bias")
    2101                      .dwattr $C$DW$209, DW_AT_TI_symbol_name("_bias")
    2102                      .dwattr $C$DW$209, DW_AT_type(*$C$DW$T$31)
    2103                      .dwattr $C$DW$209, DW_AT_location[DW_OP_reg0]
    2104              
    2105              ;* AR1   assigned to $O$K33
    2106              ;* AR5   assigned to $O$K33
    2107              ;* AR2   assigned to $O$K33
    2108              ;* AR6   assigned to $O$K33
    2109              ;* AR1   assigned to $O$K33
    2110              ;* AR4   assigned to $O$v1
    2111              ;* AR4   assigned to $O$v1
    2112              ;* AR4   assigned to $O$v1
    2113              ;* AR4   assigned to $O$v1
    2114              ;* AR4   assigned to $O$v2
    2115              ;* AR4   assigned to $O$v2
    2116              ;* AR4   assigned to $O$v2
    2117              ;* AR5   assigned to $O$v2
    2118              $C$DW$210       .dwtag  DW_TAG_variable
    2119                      .dwattr $C$DW$210, DW_AT_name("version")
    2120                      .dwattr $C$DW$210, DW_AT_TI_symbol_name("_version")
    2121                      .dwattr $C$DW$210, DW_AT_type(*$C$DW$T$37)
    2122                      .dwattr $C$DW$210, DW_AT_location[DW_OP_breg20 -6]
    2123              
    2124                      .dwcfi  cfa_offset, -2
    2125                      .dwcfi  save_reg_to_mem, 26, 0
    2126 00000096 B2BD          MOVL      *SP++,XAR1            ; [CPU_] 
    2127                      .dwcfi  save_reg_to_mem, 7, 2
    2128                      .dwcfi  cfa_offset, -4
    2129 00000097 AABD          MOVL      *SP++,XAR2            ; [CPU_] 
    2130                      .dwcfi  save_reg_to_mem, 9, 4
    2131                      .dwcfi  cfa_offset, -6
    2132 00000098 A2BD          MOVL      *SP++,XAR3            ; [CPU_] 
    2133                      .dwcfi  save_reg_to_mem, 11, 6
    2134                      .dwcfi  cfa_offset, -8
    2135 00000099 FE0C          ADDB      SP,#12                ; [CPU_U] 
    2136                      .dwcfi  cfa_offset, -20
    2137                      .dwpsn  file "../main.c",line 150,column 3,is_stmt,isa 0
    2138 0000009a 8F00!         MOVL      XAR4,#_RamfuncsRunStart ; [CPU_U] |150| 
         0000009b 0000 
    2139 0000009c 8F40!         MOVL      XAR5,#_RamfuncsLoadEnd ; [CPU_U] |150| 
         0000009d 0000 
    2140 0000009e A842          MOVL      *-SP[2],XAR4          ; [CPU_] |150| 
TMS320C2000 Assembler PC v15.12.3 Sun Oct 30 14:01:37 2016

Tools Copyright (c) 1996-2015 Texas Instruments Incorporated
C:\Users\MaCHaDo\AppData\Local\Temp\0057210                          PAGE   43

    2141 0000009f 8F00!         MOVL      XAR4,#_RamfuncsLoadStart ; [CPU_U] |150| 
         000000a0 0000 
    2142              $C$DW$211       .dwtag  DW_TAG_TI_branch
    2143                      .dwattr $C$DW$211, DW_AT_low_pc(0x00)
    2144                      .dwattr $C$DW$211, DW_AT_name("_memCopy")
    2145                      .dwattr $C$DW$211, DW_AT_TI_call
    2146              
    2147 000000a1 7640!         LCR       #_memCopy             ; [CPU_] |150| 
         000000a2 0000 
    2148                      ; call occurs [#_memCopy] ; [] |150| 
    2149 000000a3 761F!         MOVW      DP,#_econst_start     ; [CPU_U] 
         000000a4 0000 
    2150                      .dwpsn  file "../main.c",line 154,column 5,is_stmt,isa 0
    2151 000000a5 8A00!         MOVL      XAR4,@_econst_start   ; [CPU_] |154| 
    2152 000000a6 761F!         MOVW      DP,#_econst_end       ; [CPU_U] 
         000000a7 0000 
    2153 000000a8 0EC4          MOVU      ACC,*+XAR4[0]         ; [CPU_] |154| 
    2154 000000a9 8A00!         MOVL      XAR4,@_econst_end     ; [CPU_] |154| 
    2155 000000aa 88C4          MOVZ      AR6,*+XAR4[0]         ; [CPU_] |154| 
    2156 000000ab 0FA6          CMPL      ACC,XAR6              ; [CPU_] |154| 
    2157 000000ac 610A          B         $C$L5,EQ              ; [CPU_] |154| 
    2158                      ; branchcc occurs ; [] |154| 
    2159                      .dwpsn  file "../main.c",line 156,column 9,is_stmt,isa 0
    2160 000000ad 8F00!         MOVL      XAR4,#_econst_ram_load ; [CPU_U] |156| 
         000000ae 0000 
    2161 000000af 8F40!         MOVL      XAR5,#_econst_end     ; [CPU_U] |156| 
         000000b0 0000 
    2162 000000b1 A842          MOVL      *-SP[2],XAR4          ; [CPU_] |156| 
    2163 000000b2 8F00!         MOVL      XAR4,#_econst_start   ; [CPU_U] |156| 
         000000b3 0000 
    2164              $C$DW$212       .dwtag  DW_TAG_TI_branch
    2165                      .dwattr $C$DW$212, DW_AT_low_pc(0x00)
    2166                      .dwattr $C$DW$212, DW_AT_name("_memCopy")
    2167                      .dwattr $C$DW$212, DW_AT_TI_call
    2168              
    2169 000000b4 7640!         LCR       #_memCopy             ; [CPU_] |156| 
         000000b5 0000 
    2170                      ; call occurs [#_memCopy] ; [] |156| 
    2171 000000b6       $C$L5:    
    2172 000000b6 761F!         MOVW      DP,#_switch_start     ; [CPU_U] 
         000000b7 0000 
    2173                      .dwpsn  file "../main.c",line 160,column 5,is_stmt,isa 0
    2174 000000b8 8A00!         MOVL      XAR4,@_switch_start   ; [CPU_] |160| 
    2175 000000b9 761F!         MOVW      DP,#_switch_end       ; [CPU_U] 
         000000ba 0000 
    2176 000000bb 0EC4          MOVU      ACC,*+XAR4[0]         ; [CPU_] |160| 
    2177 000000bc 8A00!         MOVL      XAR4,@_switch_end     ; [CPU_] |160| 
    2178 000000bd 88C4          MOVZ      AR6,*+XAR4[0]         ; [CPU_] |160| 
    2179 000000be 0FA6          CMPL      ACC,XAR6              ; [CPU_] |160| 
    2180 000000bf 610A          B         $C$L6,EQ              ; [CPU_] |160| 
    2181                      ; branchcc occurs ; [] |160| 
    2182                      .dwpsn  file "../main.c",line 162,column 9,is_stmt,isa 0
    2183 000000c0 8F00!         MOVL      XAR4,#_switch_ram_load ; [CPU_U] |162| 
         000000c1 0000 
    2184 000000c2 8F40!         MOVL      XAR5,#_switch_end     ; [CPU_U] |162| 
TMS320C2000 Assembler PC v15.12.3 Sun Oct 30 14:01:37 2016

Tools Copyright (c) 1996-2015 Texas Instruments Incorporated
C:\Users\MaCHaDo\AppData\Local\Temp\0057210                          PAGE   44

         000000c3 0000 
    2185 000000c4 A842          MOVL      *-SP[2],XAR4          ; [CPU_] |162| 
    2186 000000c5 8F00!         MOVL      XAR4,#_switch_start   ; [CPU_U] |162| 
         000000c6 0000 
    2187              $C$DW$213       .dwtag  DW_TAG_TI_branch
    2188                      .dwattr $C$DW$213, DW_AT_low_pc(0x00)
    2189                      .dwattr $C$DW$213, DW_AT_name("_memCopy")
    2190                      .dwattr $C$DW$213, DW_AT_TI_call
    2191              
    2192 000000c7 7640!         LCR       #_memCopy             ; [CPU_] |162| 
         000000c8 0000 
    2193                      ; call occurs [#_memCopy] ; [] |162| 
    2194 000000c9       $C$L6:    
    2195                      .dwpsn  file "../main.c",line 169,column 3,is_stmt,isa 0
    2196 000000c9 8F00!         MOVL      XAR4,#_hal            ; [CPU_U] |169| 
         000000ca 0000 
    2197 000000cb 02DA          MOVB      ACC,#218              ; [CPU_] |169| 
    2198              $C$DW$214       .dwtag  DW_TAG_TI_branch
    2199                      .dwattr $C$DW$214, DW_AT_low_pc(0x00)
    2200                      .dwattr $C$DW$214, DW_AT_name("_HAL_init")
    2201                      .dwattr $C$DW$214, DW_AT_TI_call
    2202              
    2203 000000cc 7640!         LCR       #_HAL_init            ; [CPU_] |169| 
         000000cd 0000 
    2204                      ; call occurs [#_HAL_init] ; [] |169| 
    2205                      .dwpsn  file "../main.c",line 174,column 3,is_stmt,isa 0
    2206 000000ce 8D40-         MOVL      XAR1,#_gUserParams    ; [CPU_U] |174| 
         000000cf 0040 
    2207 000000d0 761F-         MOVW      DP,#_halHandle        ; [CPU_U] 
         000000d1 0000 
    2208 000000d2 B24C          MOVL      *-SP[12],XAR1         ; [CPU_] |174| 
    2209                      .dwpsn  file "../main.c",line 169,column 3,is_stmt,isa 0
    2210 000000d3 A800-         MOVL      @_halHandle,XAR4      ; [CPU_] |169| 
    2211                      .dwpsn  file "../main.c",line 174,column 3,is_stmt,isa 0
    2212 000000d4 8AA1          MOVL      XAR4,XAR1             ; [CPU_] |174| 
    2213              $C$DW$215       .dwtag  DW_TAG_TI_branch
    2214                      .dwattr $C$DW$215, DW_AT_low_pc(0x00)
    2215                      .dwattr $C$DW$215, DW_AT_name("_USER_checkForErrors")
    2216                      .dwattr $C$DW$215, DW_AT_TI_call
    2217              
    2218 000000d5 7640!         LCR       #_USER_checkForErrors ; [CPU_] |174| 
         000000d6 0000 
    2219                      ; call occurs [#_USER_checkForErrors] ; [] |174| 
    2220                      .dwpsn  file "../main.c",line 179,column 3,is_stmt,isa 0
    2221 000000d7 8AA1          MOVL      XAR4,XAR1             ; [CPU_] |179| 
    2222              $C$DW$216       .dwtag  DW_TAG_TI_branch
    2223                      .dwattr $C$DW$216, DW_AT_low_pc(0x00)
    2224                      .dwattr $C$DW$216, DW_AT_name("_USER_getErrorCode")
    2225                      .dwattr $C$DW$216, DW_AT_TI_call
    2226              
    2227 000000d8 7640!         LCR       #_USER_getErrorCode   ; [CPU_] |179| 
         000000d9 0000 
    2228                      ; call occurs [#_USER_getErrorCode] ; [] |179| 
    2229 000000da 8D40-         MOVL      XAR1,#_gMotorVars     ; [CPU_U] |179| 
         000000db 0040 
TMS320C2000 Assembler PC v15.12.3 Sun Oct 30 14:01:37 2016

Tools Copyright (c) 1996-2015 Texas Instruments Incorporated
C:\Users\MaCHaDo\AppData\Local\Temp\0057210                          PAGE   45

    2230 000000dc D00C          MOVB      XAR0,#12              ; [CPU_] |179| 
    2231 000000dd 9691          MOV       *+XAR1[AR0],AL        ; [CPU_] |179| 
    2232                      .dwpsn  file "../main.c",line 184,column 3,is_stmt,isa 0
    2233 000000de D00C          MOVB      XAR0,#12              ; [CPU_] |184| 
    2234 000000df 9291          MOV       AL,*+XAR1[AR0]        ; [CPU_] |184| 
    2235 000000e0 FFE0          B         $C$L26,NEQ            ; [CPU_] |184| 
         000000e1 0240 
    2236                      ; branchcc occurs ; [] |184| 
    2237 000000e2 864C          MOVL      XAR2,*-SP[12]         ; [CPU_] 
    2238                      .dwpsn  file "../main.c",line 194,column 3,is_stmt,isa 0
    2239 000000e3 8AA2          MOVL      XAR4,XAR2             ; [CPU_] |194| 
    2240              $C$DW$217       .dwtag  DW_TAG_TI_branch
    2241                      .dwattr $C$DW$217, DW_AT_low_pc(0x00)
    2242                      .dwattr $C$DW$217, DW_AT_name("_USER_setParams")
    2243                      .dwattr $C$DW$217, DW_AT_TI_call
    2244              
    2245 000000e4 7640!         LCR       #_USER_setParams      ; [CPU_] |194| 
         000000e5 0000 
    2246                      ; call occurs [#_USER_setParams] ; [] |194| 
    2247 000000e6 761F-         MOVW      DP,#_halHandle        ; [CPU_U] 
         000000e7 0000 
    2248                      .dwpsn  file "../main.c",line 198,column 3,is_stmt,isa 0
    2249 000000e8 8A00-         MOVL      XAR4,@_halHandle      ; [CPU_] |198| 
    2250 000000e9 83A2          MOVL      XAR5,XAR2             ; [CPU_] |198| 
    2251              $C$DW$218       .dwtag  DW_TAG_TI_branch
    2252                      .dwattr $C$DW$218, DW_AT_low_pc(0x00)
    2253                      .dwattr $C$DW$218, DW_AT_name("_HAL_setParams")
    2254                      .dwattr $C$DW$218, DW_AT_TI_call
    2255              
    2256 000000ea 7640!         LCR       #_HAL_setParams       ; [CPU_] |198| 
         000000eb 0000 
    2257                      ; call occurs [#_HAL_setParams] ; [] |198| 
    2258                      .dwpsn  file "../main.c",line 207,column 3,is_stmt,isa 0
    2259 000000ec D500          MOVB      XAR5,#0               ; [CPU_] |207| 
    2260 000000ed 7680          MOVL      XAR6,#264             ; [CPU_U] |207| 
         000000ee 0108 
    2261 000000ef 8F00-         MOVL      XAR4,#_ctrl           ; [CPU_U] |207| 
         000000f0 0100 
    2262 000000f1 06A6          MOVL      ACC,XAR6              ; [CPU_] |207| 
    2263              $C$DW$219       .dwtag  DW_TAG_TI_branch
    2264                      .dwattr $C$DW$219, DW_AT_low_pc(0x00)
    2265                      .dwattr $C$DW$219, DW_AT_name("_CTRL_initCtrl")
    2266                      .dwattr $C$DW$219, DW_AT_TI_call
    2267              
    2268 000000f2 7640!         LCR       #_CTRL_initCtrl       ; [CPU_] |207| 
         000000f3 0000 
    2269                      ; call occurs [#_CTRL_initCtrl] ; [] |207| 
    2270                      .dwpsn  file "../main.c",line 215,column 5,is_stmt,isa 0
    2271 000000f4 5DAD          MOVZ      AR5,SP                ; [CPU_] |215| 
    2272 000000f5 761F-         MOVW      DP,#_ctrlHandle       ; [CPU_U] 
         000000f6 0000 
    2273                      .dwpsn  file "../main.c",line 207,column 3,is_stmt,isa 0
    2274 000000f7 A804-         MOVL      @_ctrlHandle,XAR4     ; [CPU_] |207| 
    2275                      .dwpsn  file "../main.c",line 215,column 5,is_stmt,isa 0
    2276 000000f8 DD86          SUBB      XAR5,#6               ; [CPU_U] |215| 
TMS320C2000 Assembler PC v15.12.3 Sun Oct 30 14:01:37 2016

Tools Copyright (c) 1996-2015 Texas Instruments Incorporated
C:\Users\MaCHaDo\AppData\Local\Temp\0057210                          PAGE   46

    2277 000000f9 5DA5          MOVZ      AR5,AR5               ; [CPU_] |215| 
    2278              $C$DW$220       .dwtag  DW_TAG_TI_branch
    2279                      .dwattr $C$DW$220, DW_AT_low_pc(0x00)
    2280                      .dwattr $C$DW$220, DW_AT_name("_CTRL_getVersion")
    2281                      .dwattr $C$DW$220, DW_AT_TI_call
    2282              
    2283 000000fa 7640!         LCR       #_CTRL_getVersion     ; [CPU_] |215| 
         000000fb 0000 
    2284                      ; call occurs [#_CTRL_getVersion] ; [] |215| 
    2285                      .dwpsn  file "../main.c",line 217,column 5,is_stmt,isa 0
    2286 000000fc 5CAD          MOVZ      AR4,SP                ; [CPU_] |217| 
    2287 000000fd DC86          SUBB      XAR4,#6               ; [CPU_U] |217| 
    2288 000000fe 80A4          MOVZ      AR7,AR4               ; [CPU_] |217| 
    2289 000000ff D90D          ADDB      XAR1,#13              ; [CPU_] |217| 
    2290 00000100 761F-         MOVW      DP,#_ctrlHandle       ; [CPU_U] 
         00000101 0000 
    2291                      .dwpsn  file "../main.c",line 222,column 3,is_stmt,isa 0
    2292 00000102 83A2          MOVL      XAR5,XAR2             ; [CPU_] |222| 
    2293                      .dwpsn  file "../main.c",line 217,column 5,is_stmt,isa 0
    2294 00000103 F603          RPT       #3
    2295 00000104 2481  ||     PREAD     *XAR1++,*XAR7         ; [CPU_] |217| 
    2296                      .dwpsn  file "../main.c",line 222,column 3,is_stmt,isa 0
    2297 00000105 8A04-         MOVL      XAR4,@_ctrlHandle     ; [CPU_] |222| 
    2298              $C$DW$221       .dwtag  DW_TAG_TI_branch
    2299                      .dwattr $C$DW$221, DW_AT_low_pc(0x00)
    2300                      .dwattr $C$DW$221, DW_AT_name("_CTRL_setParams")
    2301                      .dwattr $C$DW$221, DW_AT_TI_call
    2302              
    2303 00000106 7640!         LCR       #_CTRL_setParams      ; [CPU_] |222| 
         00000107 0000 
    2304                      ; call occurs [#_CTRL_setParams] ; [] |222| 
    2305 00000108 761F-         MOVW      DP,#_halHandle        ; [CPU_U] 
         00000109 0000 
    2306                      .dwpsn  file "../main.c",line 226,column 3,is_stmt,isa 0
    2307 0000010a 8A00-         MOVL      XAR4,@_halHandle      ; [CPU_] |226| 
    2308              $C$DW$222       .dwtag  DW_TAG_TI_branch
    2309                      .dwattr $C$DW$222, DW_AT_low_pc(0x00)
    2310                      .dwattr $C$DW$222, DW_AT_name("_HAL_setupFaults")
    2311                      .dwattr $C$DW$222, DW_AT_TI_call
    2312              
    2313 0000010b 7640!         LCR       #_HAL_setupFaults     ; [CPU_] |226| 
         0000010c 0000 
    2314                      ; call occurs [#_HAL_setupFaults] ; [] |226| 
    2315 0000010d 761F-         MOVW      DP,#_halHandle        ; [CPU_U] 
         0000010e 0000 
    2316                      .dwpsn  file "../main.c",line 230,column 3,is_stmt,isa 0
    2317 0000010f 8A00-         MOVL      XAR4,@_halHandle      ; [CPU_] |230| 
    2318                      .dwpsn  file "D:/Users/MaCHaDo/Documents/GitHub/LegStrong/modules/include/hal.h",line 505,column 16,i
    2319 00000110 D078          MOVB      XAR0,#120             ; [CPU_] |505| 
    2320 00000111 8394          MOVL      XAR5,*+XAR4[AR0]      ; [CPU_] |505| 
    2321 00000112 7622   EALLOW
    2322                      .dwpsn  file "D:/Users/MaCHaDo/Documents/GitHub/LegStrong/modules/include/hal.h",line 510,column 3,is
    2323 00000113 D0F0          MOVB      XAR0,#240             ; [CPU_] |510| 
    2324 00000114 7680+         MOVL      XAR6,#_mainISR        ; [CPU_U] |510| 
         00000115 0000 
TMS320C2000 Assembler PC v15.12.3 Sun Oct 30 14:01:37 2016

Tools Copyright (c) 1996-2015 Texas Instruments Incorporated
C:\Users\MaCHaDo\AppData\Local\Temp\0057210                          PAGE   47

    2325 00000116 C295          MOVL      *+XAR5[AR0],XAR6      ; [CPU_] |510| 
    2326                      .dwpsn  file "D:/Users/MaCHaDo/Documents/GitHub/LegStrong/modules/include/hal.h",line 511,column 3,is
    2327 00000117 D0E0          MOVB      XAR0,#224             ; [CPU_] |511| 
    2328 00000118 7680+         MOVL      XAR6,#_sciaRxFifoIsr  ; [CPU_U] |511| 
         00000119 0000 
    2329 0000011a C295          MOVL      *+XAR5[AR0],XAR6      ; [CPU_] |511| 
    2330 0000011b 761A   EDIS
    2331 0000011c FF69          SPM       #0                    ; [CPU_] 
    2332                      .dwpsn  file "../main.c",line 234,column 3,is_stmt,isa 0
    2333              $C$DW$223       .dwtag  DW_TAG_TI_branch
    2334                      .dwattr $C$DW$223, DW_AT_low_pc(0x00)
    2335                      .dwattr $C$DW$223, DW_AT_name("_HAL_enableAdcInts")
    2336                      .dwattr $C$DW$223, DW_AT_TI_call
    2337              
    2338 0000011d 7640!         LCR       #_HAL_enableAdcInts   ; [CPU_] |234| 
         0000011e 0000 
    2339                      ; call occurs [#_HAL_enableAdcInts] ; [] |234| 
    2340 0000011f 761F-         MOVW      DP,#_halHandle        ; [CPU_U] 
         00000120 0000 
    2341                      .dwpsn  file "../main.c",line 238,column 3,is_stmt,isa 0
    2342 00000121 8A00-         MOVL      XAR4,@_halHandle      ; [CPU_] |238| 
    2343              $C$DW$224       .dwtag  DW_TAG_TI_branch
    2344                      .dwattr $C$DW$224, DW_AT_low_pc(0x00)
    2345                      .dwattr $C$DW$224, DW_AT_name("_HAL_enableGlobalInts")
    2346                      .dwattr $C$DW$224, DW_AT_TI_call
    2347              
    2348 00000122 7640!         LCR       #_HAL_enableGlobalInts ; [CPU_] |238| 
         00000123 0000 
    2349                      ; call occurs [#_HAL_enableGlobalInts] ; [] |238| 
    2350 00000124 761F-         MOVW      DP,#_halHandle        ; [CPU_U] 
         00000125 0000 
    2351                      .dwpsn  file "../main.c",line 242,column 3,is_stmt,isa 0
    2352 00000126 8A00-         MOVL      XAR4,@_halHandle      ; [CPU_] |242| 
    2353              $C$DW$225       .dwtag  DW_TAG_TI_branch
    2354                      .dwattr $C$DW$225, DW_AT_low_pc(0x00)
    2355                      .dwattr $C$DW$225, DW_AT_name("_HAL_enableDebugInt")
    2356                      .dwattr $C$DW$225, DW_AT_TI_call
    2357              
    2358 00000127 7640!         LCR       #_HAL_enableDebugInt  ; [CPU_] |242| 
         00000128 0000 
    2359                      ; call occurs [#_HAL_enableDebugInt] ; [] |242| 
    2360 00000129 761F-         MOVW      DP,#_halHandle        ; [CPU_U] 
         0000012a 0000 
    2361                      .dwpsn  file "../main.c",line 246,column 3,is_stmt,isa 0
    2362 0000012b 8A00-         MOVL      XAR4,@_halHandle      ; [CPU_] |246| 
    2363                      .dwpsn  file "D:/Users/MaCHaDo/Documents/GitHub/LegStrong/modules/include/hal.h",line 243,column 16,i
    2364 0000012c 83A4          MOVL      XAR5,XAR4             ; [CPU_] |243| 
    2365 0000012d DD7E          ADDB      XAR5,#126             ; [CPU_] |243| 
    2366 0000012e 7622   EALLOW
    2367                      .dwpsn  file "D:\Users\MaCHaDo\Documents\GitHub\LegStrong\drivers\include\pwm.h",line 1567,column 5,i
    2368 0000012f D07C          MOVB      XAR0,#124             ; [CPU_] |1567| 
    2369 00000130 0218          MOVB      ACC,#24               ; [CPU_] |1567| 
    2370 00000131 0794          ADDL      ACC,*+XAR4[AR0]       ; [CPU_] |1567| 
    2371 00000132 1EA6          MOVL      XAR6,ACC              ; [CPU_] |1567| 
    2372 00000133 1AC6          OR        *+XAR6[0],#0x0004     ; [CPU_] |1567| 
TMS320C2000 Assembler PC v15.12.3 Sun Oct 30 14:01:37 2016

Tools Copyright (c) 1996-2015 Texas Instruments Incorporated
C:\Users\MaCHaDo\AppData\Local\Temp\0057210                          PAGE   48

         00000134 0004 
    2373 00000135 761A   EDIS
    2374 00000136 7622   EALLOW
    2375 00000137 0218          MOVB      ACC,#24               ; [CPU_] |1567| 
    2376 00000138 07C5          ADDL      ACC,*+XAR5[0]         ; [CPU_] |1567| 
    2377 00000139 1EA6          MOVL      XAR6,ACC              ; [CPU_] |1567| 
    2378 0000013a 1AC6          OR        *+XAR6[0],#0x0004     ; [CPU_] |1567| 
         0000013b 0004 
    2379 0000013c 761A   EDIS
    2380 0000013d 7622   EALLOW
    2381 0000013e 0218          MOVB      ACC,#24               ; [CPU_] |1567| 
    2382 0000013f 07D5          ADDL      ACC,*+XAR5[2]         ; [CPU_] |1567| 
    2383 00000140 83A9          MOVL      XAR5,ACC              ; [CPU_] |1567| 
    2384 00000141 1AC5          OR        *+XAR5[0],#0x0004     ; [CPU_] |1567| 
         00000142 0004 
    2385 00000143 761A   EDIS
    2386 00000144 FF69          SPM       #0                    ; [CPU_] 
    2387                      .dwpsn  file "../main.c",line 251,column 3,is_stmt,isa 0
    2388              $C$DW$226       .dwtag  DW_TAG_TI_branch
    2389                      .dwattr $C$DW$226, DW_AT_low_pc(0x00)
    2390                      .dwattr $C$DW$226, DW_AT_name("_HAL_enableDrv")
    2391                      .dwattr $C$DW$226, DW_AT_TI_call
    2392              
    2393 00000145 7640!         LCR       #_HAL_enableDrv       ; [CPU_] |251| 
         00000146 0000 
    2394                      ; call occurs [#_HAL_enableDrv] ; [] |251| 
    2395                      .dwpsn  file "../main.c",line 253,column 3,is_stmt,isa 0
    2396 00000147 8DC0-         MOVL      XAR3,#_gDrvSpi8301Vars ; [CPU_U] |253| 
         00000148 0026 
    2397 00000149 761F-         MOVW      DP,#_halHandle        ; [CPU_U] 
         0000014a 0000 
    2398 0000014b 83A3          MOVL      XAR5,XAR3             ; [CPU_] |253| 
    2399 0000014c 8A00-         MOVL      XAR4,@_halHandle      ; [CPU_] |253| 
    2400              $C$DW$227       .dwtag  DW_TAG_TI_branch
    2401                      .dwattr $C$DW$227, DW_AT_low_pc(0x00)
    2402                      .dwattr $C$DW$227, DW_AT_name("_HAL_setupDrvSpi")
    2403                      .dwattr $C$DW$227, DW_AT_TI_call
    2404              
    2405 0000014d 7640!         LCR       #_HAL_setupDrvSpi     ; [CPU_] |253| 
         0000014e 0000 
    2406                      ; call occurs [#_HAL_setupDrvSpi] ; [] |253| 
    2407 0000014f 761F-         MOVW      DP,#_ctrlHandle       ; [CPU_U] 
         00000150 0000 
    2408                      .dwpsn  file "D:/Users/MaCHaDo/Documents/GitHub/LegStrong/modules/include/ctrl.h",line 1246,column 3,
    2409 00000151 02F1          MOVB      ACC,#241              ; [CPU_] |1246| 
    2410 00000152 0704-         ADDL      ACC,@_ctrlHandle      ; [CPU_] |1246| 
    2411 00000153 8AA9          MOVL      XAR4,ACC              ; [CPU_] |1246| 
    2412 00000154 56BF          MOVB      *+XAR4[0],#1,UNC      ; [CPU_] |1246| 
         00000155 01C4 
    2413                      .dwpsn  file "../main.c",line 273,column 3,is_stmt,isa 0
    2414              $C$DW$228       .dwtag  DW_TAG_TI_branch
    2415                      .dwattr $C$DW$228, DW_AT_low_pc(0x00)
    2416                      .dwattr $C$DW$228, DW_AT_name("_USER_computeFlux_pu_to_Wb_sf")
    2417                      .dwattr $C$DW$228, DW_AT_TI_call
    2418              
TMS320C2000 Assembler PC v15.12.3 Sun Oct 30 14:01:37 2016

Tools Copyright (c) 1996-2015 Texas Instruments Incorporated
C:\Users\MaCHaDo\AppData\Local\Temp\0057210                          PAGE   49

    2419 00000156 7640!         LCR       #_USER_computeFlux_pu_to_Wb_sf ; [CPU_] |273| 
         00000157 0000 
    2420                      ; call occurs [#_USER_computeFlux_pu_to_Wb_sf] ; [] |273| 
    2421 00000158 761F-         MOVW      DP,#_gFlux_pu_to_Wb_sf ; [CPU_U] 
         00000159 0000 
    2422 0000015a 1E08-         MOVL      @_gFlux_pu_to_Wb_sf,ACC ; [CPU_] |273| 
    2423                      .dwpsn  file "../main.c",line 274,column 3,is_stmt,isa 0
    2424              $C$DW$229       .dwtag  DW_TAG_TI_branch
    2425                      .dwattr $C$DW$229, DW_AT_low_pc(0x00)
    2426                      .dwattr $C$DW$229, DW_AT_name("_USER_computeFlux_pu_to_VpHz_sf")
    2427                      .dwattr $C$DW$229, DW_AT_TI_call
    2428              
    2429 0000015b 7640!         LCR       #_USER_computeFlux_pu_to_VpHz_sf ; [CPU_] |274| 
         0000015c 0000 
    2430                      ; call occurs [#_USER_computeFlux_pu_to_VpHz_sf] ; [] |274| 
    2431 0000015d 761F-         MOVW      DP,#_gFlux_pu_to_VpHz_sf ; [CPU_U] 
         0000015e 0000 
    2432 0000015f 1E0C-         MOVL      @_gFlux_pu_to_VpHz_sf,ACC ; [CPU_] |274| 
    2433                      .dwpsn  file "../main.c",line 275,column 3,is_stmt,isa 0
    2434              $C$DW$230       .dwtag  DW_TAG_TI_branch
    2435                      .dwattr $C$DW$230, DW_AT_low_pc(0x00)
    2436                      .dwattr $C$DW$230, DW_AT_name("_USER_computeTorque_Ls_Id_Iq_pu_to_Nm_sf")
    2437                      .dwattr $C$DW$230, DW_AT_TI_call
    2438              
    2439 00000160 7640!         LCR       #_USER_computeTorque_Ls_Id_Iq_pu_to_Nm_sf ; [CPU_] |275| 
         00000161 0000 
    2440                      ; call occurs [#_USER_computeTorque_Ls_Id_Iq_pu_to_Nm_sf] ; [] |275| 
    2441 00000162 761F-         MOVW      DP,#_gTorque_Ls_Id_Iq_pu_to_Nm_sf ; [CPU_U] 
         00000163 0000 
    2442 00000164 1E0A-         MOVL      @_gTorque_Ls_Id_Iq_pu_to_Nm_sf,ACC ; [CPU_] |275| 
    2443                      .dwpsn  file "../main.c",line 276,column 3,is_stmt,isa 0
    2444              $C$DW$231       .dwtag  DW_TAG_TI_branch
    2445                      .dwattr $C$DW$231, DW_AT_low_pc(0x00)
    2446                      .dwattr $C$DW$231, DW_AT_name("_USER_computeTorque_Flux_Iq_pu_to_Nm_sf")
    2447                      .dwattr $C$DW$231, DW_AT_TI_call
    2448              
    2449 00000165 7640!         LCR       #_USER_computeTorque_Flux_Iq_pu_to_Nm_sf ; [CPU_] |276| 
         00000166 0000 
    2450                      ; call occurs [#_USER_computeTorque_Flux_Iq_pu_to_Nm_sf] ; [] |276| 
    2451 00000167 761F-         MOVW      DP,#_gTorque_Flux_Iq_pu_to_Nm_sf ; [CPU_U] 
         00000168 0000 
    2452 00000169 1E0E-         MOVL      @_gTorque_Flux_Iq_pu_to_Nm_sf,ACC ; [CPU_] |276| 
    2453 0000016a       $C$L7:    
    2454                      .dwpsn  file "../main.c",line 282,column 11,is_stmt,isa 0
    2455 0000016a 8F40-         MOVL      XAR5,#_gMotorVars     ; [CPU_U] |282| 
         0000016b 0040 
    2456 0000016c 92C5          MOV       AL,*+XAR5[0]          ; [CPU_] |282| 
    2457 0000016d 61FD          B         $C$L7,EQ              ; [CPU_] |282| 
    2458                      ; branchcc occurs ; [] |282| 
    2459 0000016e 761F-         MOVW      DP,#_ctrlHandle       ; [CPU_U] 
         0000016f 0000 
    2460                      .dwpsn  file "../main.c",line 285,column 5,is_stmt,isa 0
    2461 00000170 8A04-         MOVL      XAR4,@_ctrlHandle     ; [CPU_] |285| 
    2462                      .dwpsn  file "D:/Users/MaCHaDo/Documents/GitHub/LegStrong/modules/include/ctrl.h",line 1288,column 3,
    2463 00000171 D0F4          MOVB      XAR0,#244             ; [CPU_] |1288| 
TMS320C2000 Assembler PC v15.12.3 Sun Oct 30 14:01:37 2016

Tools Copyright (c) 1996-2015 Texas Instruments Incorporated
C:\Users\MaCHaDo\AppData\Local\Temp\0057210                          PAGE   50

    2464 00000172 2B94          MOV       *+XAR4[AR0],#0        ; [CPU_] |1288| 
    2465                      .dwpsn  file "../main.c",line 288,column 5,is_stmt,isa 0
    2466 00000173 92C5          MOV       AL,*+XAR5[0]          ; [CPU_] |288| 
    2467 00000174 FFE1          B         $C$L25,EQ             ; [CPU_] |288| 
         00000175 0188 
    2468                      ; branchcc occurs ; [] |288| 
    2469 00000176       $C$L8:    
    2470 00000176 761F-         MOVW      DP,#_ctrlHandle       ; [CPU_U] 
         00000177 0000 
    2471                      .dwpsn  file "../main.c",line 296,column 9,is_stmt,isa 0
    2472 00000178 8D80-         MOVL      XAR2,#_gMotorVars     ; [CPU_U] |296| 
         00000179 0040 
    2473                      .dwpsn  file "../main.c",line 290,column 23,is_stmt,isa 0
    2474 0000017a 8B04-         MOVL      XAR1,@_ctrlHandle     ; [CPU_] |290| 
    2475                      .dwpsn  file "../main.c",line 293,column 9,is_stmt,isa 0
    2476 0000017b 0A00-         INC       @_gCounter_updateGlobals ; [CPU_] |293| 
    2477                      .dwpsn  file "D:/Users/MaCHaDo/Documents/GitHub/LegStrong/modules/include/ctrl.h",line 1304,column 3,
    2478 0000017c D0F5          MOVB      XAR0,#245             ; [CPU_] |1304| 
    2479                      .dwpsn  file "../main.c",line 296,column 9,is_stmt,isa 0
    2480 0000017d 92F2          MOV       AL,*+XAR2[6]          ; [CPU_] |296| 
    2481                      .dwpsn  file "D:/Users/MaCHaDo/Documents/GitHub/LegStrong/modules/include/ctrl.h",line 1304,column 3,
    2482 0000017e 9691          MOV       *+XAR1[AR0],AL        ; [CPU_] |1304| 
    2483                      .dwpsn  file "../main.c",line 299,column 9,is_stmt,isa 0
    2484 0000017f D018          MOVB      XAR0,#24              ; [CPU_] |299| 
    2485 00000180 92EA          MOV       AL,*+XAR2[5]          ; [CPU_] |299| 
    2486 00000181 8A91          MOVL      XAR4,*+XAR1[AR0]      ; [CPU_] |299| 
    2487              $C$DW$232       .dwtag  DW_TAG_TI_branch
    2488                      .dwattr $C$DW$232, DW_AT_low_pc(0x00)
    2489                      .dwattr $C$DW$232, DW_AT_name("_EST_setFlag_enableRsRecalc")
    2490                      .dwattr $C$DW$232, DW_AT_TI_call
    2491              
    2492 00000182 7640!         LCR       #_EST_setFlag_enableRsRecalc ; [CPU_] |299| 
         00000183 0000 
    2493                      ; call occurs [#_EST_setFlag_enableRsRecalc] ; [] |299| 
    2494 00000184 761F-         MOVW      DP,#_ctrlHandle       ; [CPU_U] 
         00000185 0000 
    2495                      .dwpsn  file "../main.c",line 302,column 9,is_stmt,isa 0
    2496 00000186 8A04-         MOVL      XAR4,@_ctrlHandle     ; [CPU_] |302| 
    2497                      .dwpsn  file "D:/Users/MaCHaDo/Documents/GitHub/LegStrong/modules/include/ctrl.h",line 1275,column 3,
    2498 00000187 D0F3          MOVB      XAR0,#243             ; [CPU_] |1275| 
    2499                      .dwpsn  file "../main.c",line 302,column 9,is_stmt,isa 0
    2500 00000188 92FA          MOV       AL,*+XAR2[7]          ; [CPU_] |302| 
    2501                      .dwpsn  file "D:/Users/MaCHaDo/Documents/GitHub/LegStrong/modules/include/ctrl.h",line 1275,column 3,
    2502 00000189 9694          MOV       *+XAR4[AR0],AL        ; [CPU_] |1275| 
    2503                      .dwpsn  file "D:/Users/MaCHaDo/Documents/GitHub/LegStrong/modules/include/ctrl.h",line 1060,column 3,
    2504 0000018a 92E4          MOV       AL,*+XAR4[4]          ; [CPU_] |1060| 
    2505 0000018b FFE1          B         $C$L20,EQ             ; [CPU_] |1060| 
         0000018c 00FD 
    2506                      ; branchcc occurs ; [] |1060| 
    2507                      .dwpsn  file "../main.c",line 319,column 40,is_stmt,isa 0
    2508              $C$DW$233       .dwtag  DW_TAG_TI_branch
    2509                      .dwattr $C$DW$233, DW_AT_low_pc(0x00)
    2510                      .dwattr $C$DW$233, DW_AT_name("_CTRL_updateState")
    2511                      .dwattr $C$DW$233, DW_AT_TI_call
    2512              
TMS320C2000 Assembler PC v15.12.3 Sun Oct 30 14:01:37 2016

Tools Copyright (c) 1996-2015 Texas Instruments Incorporated
C:\Users\MaCHaDo\AppData\Local\Temp\0057210                          PAGE   51

    2513 0000018d 7640!         LCR       #_CTRL_updateState    ; [CPU_] |319| 
         0000018e 0000 
    2514                      ; call occurs [#_CTRL_updateState] ; [] |319| 
    2515 0000018f 761F-         MOVW      DP,#_ctrlHandle       ; [CPU_U] 
         00000190 0000 
    2516                      .dwpsn  file "../main.c",line 322,column 13,is_stmt,isa 0
    2517 00000191 8A04-         MOVL      XAR4,@_ctrlHandle     ; [CPU_] |322| 
    2518 00000192 93CA          MOV       AH,*+XAR2[1]          ; [CPU_] |322| 
    2519                      .dwpsn  file "D:/Users/MaCHaDo/Documents/GitHub/LegStrong/modules/include/ctrl.h",line 1218,column 3,
    2520 00000193 D0F0          MOVB      XAR0,#240             ; [CPU_] |1218| 
    2521                      .dwpsn  file "../main.c",line 324,column 13,is_stmt,isa 0
    2522 00000194 5200          CMPB      AL,#0                 ; [CPU_] |324| 
    2523                      .dwpsn  file "D:/Users/MaCHaDo/Documents/GitHub/LegStrong/modules/include/ctrl.h",line 1218,column 3,
    2524 00000195 9794          MOV       *+XAR4[AR0],AH        ; [CPU_] |1218| 
    2525                      .dwpsn  file "../main.c",line 324,column 13,is_stmt,isa 0
    2526 00000196 FFE1          B         $C$L21,EQ             ; [CPU_] |324| 
         00000197 0112 
    2527                      ; branchcc occurs ; [] |324| 
    2528                      .dwpsn  file "D:/Users/MaCHaDo/Documents/GitHub/LegStrong/modules/include/ctrl.h",line 771,column 3,i
    2529 00000198 92E4          MOV       AL,*+XAR4[4]          ; [CPU_] |771| 
    2530 00000199 9647          MOV       *-SP[7],AL            ; [CPU_] |771| 
    2531 0000019a 5202          CMPB      AL,#2                 ; [CPU_] |771| 
    2532 0000019b FFE1          B         $C$L17,EQ             ; [CPU_] |771| 
         0000019c 00C2 
    2533                      ; branchcc occurs ; [] |771| 
    2534                      .dwpsn  file "../main.c",line 333,column 22,is_stmt,isa 0
    2535 0000019d 5203          CMPB      AL,#3                 ; [CPU_] |333| 
    2536 0000019e 6122          B         $C$L9,EQ              ; [CPU_] |333| 
    2537                      ; branchcc occurs ; [] |333| 
    2538                      .dwpsn  file "../main.c",line 367,column 22,is_stmt,isa 0
    2539 0000019f 5201          CMPB      AL,#1                 ; [CPU_] |367| 
    2540 000001a0 FFE0          B         $C$L19,NEQ            ; [CPU_] |367| 
         000001a1 00D8 
    2541                      ; branchcc occurs ; [] |367| 
    2542 000001a2 761F-         MOVW      DP,#_halHandle        ; [CPU_U] 
         000001a3 0000 
    2543                      .dwpsn  file "D:/Users/MaCHaDo/Documents/GitHub/LegStrong/modules/include/hal.h",line 243,column 16,i
    2544 000001a4 C400-         MOVL      XAR6,@_halHandle      ; [CPU_] |243| 
    2545 000001a5 83A6          MOVL      XAR5,XAR6             ; [CPU_] |243| 
    2546 000001a6 DD7E          ADDB      XAR5,#126             ; [CPU_] |243| 
    2547 000001a7 7622   EALLOW
    2548                      .dwpsn  file "D:\Users\MaCHaDo\Documents\GitHub\LegStrong\drivers\include\pwm.h",line 1567,column 5,i
    2549 000001a8 D07C          MOVB      XAR0,#124             ; [CPU_] |1567| 
    2550 000001a9 0218          MOVB      ACC,#24               ; [CPU_] |1567| 
    2551 000001aa 0796          ADDL      ACC,*+XAR6[AR0]       ; [CPU_] |1567| 
    2552 000001ab 1EA6          MOVL      XAR6,ACC              ; [CPU_] |1567| 
    2553 000001ac 1AC6          OR        *+XAR6[0],#0x0004     ; [CPU_] |1567| 
         000001ad 0004 
    2554 000001ae 761A   EDIS
    2555 000001af 7622   EALLOW
    2556 000001b0 0218          MOVB      ACC,#24               ; [CPU_] |1567| 
    2557 000001b1 07C5          ADDL      ACC,*+XAR5[0]         ; [CPU_] |1567| 
    2558 000001b2 1EA6          MOVL      XAR6,ACC              ; [CPU_] |1567| 
    2559 000001b3 1AC6          OR        *+XAR6[0],#0x0004     ; [CPU_] |1567| 
         000001b4 0004 
TMS320C2000 Assembler PC v15.12.3 Sun Oct 30 14:01:37 2016

Tools Copyright (c) 1996-2015 Texas Instruments Incorporated
C:\Users\MaCHaDo\AppData\Local\Temp\0057210                          PAGE   52

    2560 000001b5 761A   EDIS
    2561 000001b6 7622   EALLOW
    2562 000001b7 0218          MOVB      ACC,#24               ; [CPU_] |1567| 
    2563 000001b8 07D5          ADDL      ACC,*+XAR5[2]         ; [CPU_] |1567| 
    2564 000001b9 83A9          MOVL      XAR5,ACC              ; [CPU_] |1567| 
    2565 000001ba 1AC5          OR        *+XAR5[0],#0x0004     ; [CPU_] |1567| 
         000001bb 0004 
    2566 000001bc 761A   EDIS
    2567                      .dwpsn  file "../main.c",line 371,column 21,is_stmt,isa 0
    2568 000001bd 2BCA          MOV       *+XAR2[1],#0          ; [CPU_] |371| 
    2569 000001be FFEF          B         $C$L19,UNC            ; [CPU_] |371| 
         000001bf 00BA 
    2570                      ; branch occurs ; [] |371| 
    2571 000001c0       $C$L9:    
    2572 000001c0 761F-         MOVW      DP,#_gMotorVars+7     ; [CPU_U] 
         000001c1 0001 
    2573                      .dwpsn  file "../main.c",line 335,column 21,is_stmt,isa 0
    2574 000001c2 9207-         MOV       AL,@_gMotorVars+7     ; [CPU_] |335| 
    2575 000001c3 5201          CMPB      AL,#1                 ; [CPU_] |335| 
    2576 000001c4 6049          B         $C$L15,NEQ            ; [CPU_] |335| 
    2577                      ; branchcc occurs ; [] |335| 
    2578 000001c5 761F-         MOVW      DP,#_halHandle        ; [CPU_U] 
         000001c6 0000 
    2579                      .dwpsn  file "../main.c",line 338,column 23,is_stmt,isa 0
    2580 000001c7 8300-         MOVL      XAR5,@_halHandle      ; [CPU_] |338| 
    2581                      .dwpsn  file "D:/Users/MaCHaDo/Documents/GitHub/LegStrong/modules/include/hal.h",line 1070,column 16,
    2582 000001c8 C5A5          MOVL      XAR7,XAR5             ; [CPU_] |1070| 
    2583                      .dwpsn  file "D:/Users/MaCHaDo/Documents/GitHub/LegStrong/modules/include/hal.h",line 1075,column 13,
    2584 000001c9 D0A8          MOVB      XAR0,#168             ; [CPU_] |1075| 
    2585 000001ca 9297          MOV       AL,*+XAR7[AR0]        ; [CPU_] |1075| 
    2586 000001cb 611C          B         $C$L11,EQ             ; [CPU_] |1075| 
    2587                      ; branchcc occurs ; [] |1075| 
    2588                      .dwpsn  file "D:/Users/MaCHaDo/Documents/GitHub/LegStrong/modules/include/hal.h",line 1075,column 7,i
    2589 000001cc 2BAC          MOV       T,#0                  ; [CPU_] |1075| 
    2590 000001cd 2901          CLRC      SXM                   ; [CPU_] 
    2591 000001ce       $C$L10:    
    2592 000001ce 92AC          MOV       AL,T                  ; [CPU_] 
    2593                      .dwpsn  file "D:/Users/MaCHaDo/Documents/GitHub/LegStrong/modules/include/hal.h",line 341,column 3,is
    2594 000001cf 5603          MOV       ACC,AL << 1           ; [CPU_] |341| 
         000001d0 01A9 
    2595 000001d1 1E4A          MOVL      *-SP[10],ACC          ; [CPU_] |341| 
    2596 000001d2 C44A          MOVL      XAR6,*-SP[10]         ; [CPU_] |341| 
    2597                      .dwpsn  file "D:/Users/MaCHaDo/Documents/GitHub/LegStrong/modules/include/hal.h",line 1079,column 7,i
    2598 000001d3 86A7          MOVL      XAR2,XAR7             ; [CPU_] |1079| 
    2599                      .dwpsn  file "D:/Users/MaCHaDo/Documents/GitHub/LegStrong/modules/include/hal.h",line 341,column 3,is
    2600 000001d4 A0A9          MOVL      ACC,XAR5              ; [CPU_] |341| 
    2601 000001d5 5601          ADDL      XAR6,ACC              ; [CPU_] |341| 
         000001d6 00A6 
    2602                      .dwpsn  file "D:/Users/MaCHaDo/Documents/GitHub/LegStrong/modules/include/hal.h",line 1079,column 7,i
    2603 000001d7 064A          MOVL      ACC,*-SP[10]          ; [CPU_] |1079| 
    2604 000001d8 5601          ADDL      XAR2,ACC              ; [CPU_] |1079| 
         000001d9 00A2 
    2605                      .dwpsn  file "D:/Users/MaCHaDo/Documents/GitHub/LegStrong/modules/include/hal.h",line 341,column 3,is
    2606 000001da D092          MOVB      XAR0,#146             ; [CPU_] |341| 
    2607 000001db 0696          MOVL      ACC,*+XAR6[AR0]       ; [CPU_] |341| 
TMS320C2000 Assembler PC v15.12.3 Sun Oct 30 14:01:37 2016

Tools Copyright (c) 1996-2015 Texas Instruments Incorporated
C:\Users\MaCHaDo\AppData\Local\Temp\0057210                          PAGE   53

    2608                      .dwpsn  file "D:/Users/MaCHaDo/Documents/GitHub/LegStrong/modules/include/hal.h",line 1079,column 7,i
    2609 000001dc D00A          MOVB      XAR0,#10              ; [CPU_] |1079| 
    2610 000001dd 8E92          MOVL      XAR0,*+XAR2[AR0]      ; [CPU_] |1079| 
    2611 000001de 07C0          ADDL      ACC,*+XAR0[0]         ; [CPU_] |1079| 
    2612                      .dwpsn  file "D:/Users/MaCHaDo/Documents/GitHub/LegStrong/modules/include/hal.h",line 763,column 7,is
    2613 000001df D092          MOVB      XAR0,#146             ; [CPU_] |763| 
    2614 000001e0 1E96          MOVL      *+XAR6[AR0],ACC       ; [CPU_] |763| 
    2615                      .dwpsn  file "D:/Users/MaCHaDo/Documents/GitHub/LegStrong/modules/include/hal.h",line 1075,column 13,
    2616 000001e1 92AC          MOV       AL,T                  ; [CPU_] |1075| 
    2617 000001e2 D0A8          MOVB      XAR0,#168             ; [CPU_] |1075| 
    2618 000001e3 9C01          ADDB      AL,#1                 ; [CPU_] |1075| 
    2619 000001e4 2DA9          MOV       T,AL                  ; [CPU_] |1075| 
    2620 000001e5 5495          CMP       AL,*+XAR5[AR0]        ; [CPU_] |1075| 
    2621 000001e6 68E8          B         $C$L10,LO             ; [CPU_] |1075| 
    2622                      ; branchcc occurs ; [] |1075| 
    2623 000001e7       $C$L11:    
    2624 000001e7 D0A9          MOVB      XAR0,#169             ; [CPU_] 
    2625 000001e8 9295          MOV       AL,*+XAR5[AR0]        ; [CPU_] 
    2626 000001e9 6105          B         $C$L13,EQ             ; [CPU_] 
    2627                      ; branchcc occurs ; [] 
    2628                      .dwpsn  file "D:/Users/MaCHaDo/Documents/GitHub/LegStrong/modules/include/hal.h",line 1085,column 7,i
    2629 000001ea 9B00          MOVB      AH,#0                 ; [CPU_] |1085| 
    2630 000001eb       $C$L12:    
    2631                      .dwpsn  file "D:/Users/MaCHaDo/Documents/GitHub/LegStrong/modules/include/hal.h",line 1085,column 13,
    2632 000001eb 9D01          ADDB      AH,#1                 ; [CPU_] |1085| 
    2633 000001ec 54A8          CMP       AL,AH                 ; [CPU_] |1085| 
    2634 000001ed 66FE          B         $C$L12,HI             ; [CPU_] |1085| 
    2635                      ; branchcc occurs ; [] |1085| 
    2636 000001ee       $C$L13:    
    2637                      .dwpsn  file "D:/Users/MaCHaDo/Documents/GitHub/LegStrong/modules/include/hal.h",line 1094,column 13,
    2638 000001ee D0AA          MOVB      XAR0,#170             ; [CPU_] |1094| 
    2639 000001ef 9295          MOV       AL,*+XAR5[AR0]        ; [CPU_] |1094| 
    2640 000001f0 6142          B         $C$L16,EQ             ; [CPU_] |1094| 
    2641                      ; branchcc occurs ; [] |1094| 
    2642                      .dwpsn  file "D:/Users/MaCHaDo/Documents/GitHub/LegStrong/modules/include/hal.h",line 1094,column 7,i
    2643 000001f1 2BAC          MOV       T,#0                  ; [CPU_] |1094| 
    2644 000001f2 2901          CLRC      SXM                   ; [CPU_] 
    2645 000001f3       $C$L14:    
    2646 000001f3 92AC          MOV       AL,T                  ; [CPU_] 
    2647                      .dwpsn  file "D:/Users/MaCHaDo/Documents/GitHub/LegStrong/modules/include/hal.h",line 341,column 3,is
    2648 000001f4 5603          MOV       ACC,AL << 1           ; [CPU_] |341| 
         000001f5 01A9 
    2649 000001f6 1E4A          MOVL      *-SP[10],ACC          ; [CPU_] |341| 
    2650 000001f7 C44A          MOVL      XAR6,*-SP[10]         ; [CPU_] |341| 
    2651                      .dwpsn  file "D:/Users/MaCHaDo/Documents/GitHub/LegStrong/modules/include/hal.h",line 1098,column 7,i
    2652 000001f8 86A7          MOVL      XAR2,XAR7             ; [CPU_] |1098| 
    2653                      .dwpsn  file "D:/Users/MaCHaDo/Documents/GitHub/LegStrong/modules/include/hal.h",line 341,column 3,is
    2654 000001f9 A0A9          MOVL      ACC,XAR5              ; [CPU_] |341| 
    2655 000001fa 5601          ADDL      XAR6,ACC              ; [CPU_] |341| 
         000001fb 00A6 
    2656                      .dwpsn  file "D:/Users/MaCHaDo/Documents/GitHub/LegStrong/modules/include/hal.h",line 1098,column 7,i
    2657 000001fc 064A          MOVL      ACC,*-SP[10]          ; [CPU_] |1098| 
    2658 000001fd 5601          ADDL      XAR2,ACC              ; [CPU_] |1098| 
         000001fe 00A2 
    2659                      .dwpsn  file "D:/Users/MaCHaDo/Documents/GitHub/LegStrong/modules/include/hal.h",line 341,column 3,is
TMS320C2000 Assembler PC v15.12.3 Sun Oct 30 14:01:37 2016

Tools Copyright (c) 1996-2015 Texas Instruments Incorporated
C:\Users\MaCHaDo\AppData\Local\Temp\0057210                          PAGE   54

    2660 000001ff D098          MOVB      XAR0,#152             ; [CPU_] |341| 
    2661 00000200 0696          MOVL      ACC,*+XAR6[AR0]       ; [CPU_] |341| 
    2662                      .dwpsn  file "D:/Users/MaCHaDo/Documents/GitHub/LegStrong/modules/include/hal.h",line 1098,column 7,i
    2663 00000201 D040          MOVB      XAR0,#64              ; [CPU_] |1098| 
    2664 00000202 8E92          MOVL      XAR0,*+XAR2[AR0]      ; [CPU_] |1098| 
    2665 00000203 07C0          ADDL      ACC,*+XAR0[0]         ; [CPU_] |1098| 
    2666                      .dwpsn  file "D:/Users/MaCHaDo/Documents/GitHub/LegStrong/modules/include/hal.h",line 767,column 7,is
    2667 00000204 D098          MOVB      XAR0,#152             ; [CPU_] |767| 
    2668 00000205 1E96          MOVL      *+XAR6[AR0],ACC       ; [CPU_] |767| 
    2669                      .dwpsn  file "D:/Users/MaCHaDo/Documents/GitHub/LegStrong/modules/include/hal.h",line 1094,column 13,
    2670 00000206 92AC          MOV       AL,T                  ; [CPU_] |1094| 
    2671 00000207 D0AA          MOVB      XAR0,#170             ; [CPU_] |1094| 
    2672 00000208 9C01          ADDB      AL,#1                 ; [CPU_] |1094| 
    2673 00000209 2DA9          MOV       T,AL                  ; [CPU_] |1094| 
    2674 0000020a 5495          CMP       AL,*+XAR5[AR0]        ; [CPU_] |1094| 
    2675 0000020b 68E8          B         $C$L14,LO             ; [CPU_] |1094| 
    2676                      ; branchcc occurs ; [] |1094| 
    2677 0000020c 6F26          B         $C$L16,UNC            ; [CPU_] |1094| 
    2678                      ; branch occurs ; [] |1094| 
    2679 0000020d       $C$L15:    
    2680 0000020d 761F-         MOVW      DP,#_halHandle        ; [CPU_U] 
         0000020e 0000 
    2681                      .dwpsn  file "../main.c",line 343,column 23,is_stmt,isa 0
    2682 0000020f 8300-         MOVL      XAR5,@_halHandle      ; [CPU_] |343| 
    2683                      .dwpsn  file "D:/Users/MaCHaDo/Documents/GitHub/LegStrong/modules/include/hal.h",line 763,column 7,is
    2684 00000210 D092          MOVB      XAR0,#146             ; [CPU_] |763| 
    2685 00000211 28A9          MOV       AL,#44334             ; [CPU_] |763| 
         00000212 AD2E 
    2686 00000213 28A8          MOV       AH,#261               ; [CPU_] |763| 
         00000214 0105 
    2687 00000215 1E95          MOVL      *+XAR5[AR0],ACC       ; [CPU_] |763| 
    2688 00000216 D094          MOVB      XAR0,#148             ; [CPU_] |763| 
    2689 00000217 28A9          MOV       AL,#314               ; [CPU_] |763| 
         00000218 013A 
    2690 00000219 1E95          MOVL      *+XAR5[AR0],ACC       ; [CPU_] |763| 
    2691 0000021a D096          MOVB      XAR0,#150             ; [CPU_] |763| 
    2692 0000021b 28A9          MOV       AL,#59192             ; [CPU_] |763| 
         0000021c E738 
    2693 0000021d 9BF7          MOV       AH,#247               ; [CPU_] |763| 
    2694 0000021e 1E95          MOVL      *+XAR5[AR0],ACC       ; [CPU_] |763| 
    2695                      .dwpsn  file "D:/Users/MaCHaDo/Documents/GitHub/LegStrong/modules/include/hal.h",line 771,column 7,is
    2696 0000021f D0A0          MOVB      XAR0,#160             ; [CPU_] |771| 
    2697 00000220 28A9          MOV       AL,#11019             ; [CPU_] |771| 
         00000221 2B0B 
    2698 00000222 9BFB          MOV       AH,#251               ; [CPU_] |771| 
    2699 00000223 1E95          MOVL      *+XAR5[AR0],ACC       ; [CPU_] |771| 
    2700                      .dwpsn  file "D:/Users/MaCHaDo/Documents/GitHub/LegStrong/modules/include/hal.h",line 767,column 7,is
    2701 00000224 D098          MOVB      XAR0,#152             ; [CPU_] |767| 
    2702 00000225 28A9          MOV       AL,#40146             ; [CPU_] |767| 
         00000226 9CD2 
    2703 00000227 9B4C          MOV       AH,#76                ; [CPU_] |767| 
    2704 00000228 1E95          MOVL      *+XAR5[AR0],ACC       ; [CPU_] |767| 
    2705 00000229 D09A          MOVB      XAR0,#154             ; [CPU_] |767| 
    2706 0000022a 28A9          MOV       AL,#1458              ; [CPU_] |767| 
         0000022b 05B2 
TMS320C2000 Assembler PC v15.12.3 Sun Oct 30 14:01:37 2016

Tools Copyright (c) 1996-2015 Texas Instruments Incorporated
C:\Users\MaCHaDo\AppData\Local\Temp\0057210                          PAGE   55

    2707 0000022c 1E95          MOVL      *+XAR5[AR0],ACC       ; [CPU_] |767| 
    2708 0000022d D09C          MOVB      XAR0,#156             ; [CPU_] |767| 
    2709 0000022e 28A9          MOV       AL,#49868             ; [CPU_] |767| 
         0000022f C2CC 
    2710 00000230 9B4B          MOV       AH,#75                ; [CPU_] |767| 
    2711 00000231 1E95          MOVL      *+XAR5[AR0],ACC       ; [CPU_] |767| 
    2712 00000232       $C$L16:    
    2713                      .dwpsn  file "../main.c",line 355,column 21,is_stmt,isa 0
    2714 00000232 D092          MOVB      XAR0,#146             ; [CPU_] |355| 
    2715 00000233 7680-         MOVL      XAR6,#_gMotorVars+94  ; [CPU_U] |355| 
         00000234 009E 
    2716 00000235 0695          MOVL      ACC,*+XAR5[AR0]       ; [CPU_] |355| 
    2717                      .dwpsn  file "../main.c",line 356,column 21,is_stmt,isa 0
    2718 00000236 D094          MOVB      XAR0,#148             ; [CPU_] |356| 
    2719                      .dwpsn  file "../main.c",line 355,column 21,is_stmt,isa 0
    2720 00000237 1EC6          MOVL      *+XAR6[0],ACC         ; [CPU_] |355| 
    2721                      .dwpsn  file "../main.c",line 356,column 21,is_stmt,isa 0
    2722 00000238 0695          MOVL      ACC,*+XAR5[AR0]       ; [CPU_] |356| 
    2723                      .dwpsn  file "../main.c",line 357,column 21,is_stmt,isa 0
    2724 00000239 D096          MOVB      XAR0,#150             ; [CPU_] |357| 
    2725                      .dwpsn  file "../main.c",line 356,column 21,is_stmt,isa 0
    2726 0000023a 1ED6          MOVL      *+XAR6[2],ACC         ; [CPU_] |356| 
    2727                      .dwpsn  file "../main.c",line 357,column 21,is_stmt,isa 0
    2728 0000023b 0695          MOVL      ACC,*+XAR5[AR0]       ; [CPU_] |357| 
    2729                      .dwpsn  file "../main.c",line 360,column 21,is_stmt,isa 0
    2730 0000023c D098          MOVB      XAR0,#152             ; [CPU_] |360| 
    2731                      .dwpsn  file "../main.c",line 357,column 21,is_stmt,isa 0
    2732 0000023d 1EE6          MOVL      *+XAR6[4],ACC         ; [CPU_] |357| 
    2733                      .dwpsn  file "../main.c",line 360,column 21,is_stmt,isa 0
    2734 0000023e 0695          MOVL      ACC,*+XAR5[AR0]       ; [CPU_] |360| 
    2735                      .dwpsn  file "../main.c",line 361,column 21,is_stmt,isa 0
    2736 0000023f D09A          MOVB      XAR0,#154             ; [CPU_] |361| 
    2737                      .dwpsn  file "../main.c",line 360,column 21,is_stmt,isa 0
    2738 00000240 1EF6          MOVL      *+XAR6[6],ACC         ; [CPU_] |360| 
    2739                      .dwpsn  file "../main.c",line 361,column 21,is_stmt,isa 0
    2740 00000241 0695          MOVL      ACC,*+XAR5[AR0]       ; [CPU_] |361| 
    2741 00000242 D008          MOVB      XAR0,#8               ; [CPU_] |361| 
    2742 00000243 1E96          MOVL      *+XAR6[AR0],ACC       ; [CPU_] |361| 
    2743                      .dwpsn  file "../main.c",line 362,column 21,is_stmt,isa 0
    2744 00000244 D09C          MOVB      XAR0,#156             ; [CPU_] |362| 
    2745 00000245 0695          MOVL      ACC,*+XAR5[AR0]       ; [CPU_] |362| 
    2746 00000246 D00A          MOVB      XAR0,#10              ; [CPU_] |362| 
    2747 00000247 1E96          MOVL      *+XAR6[AR0],ACC       ; [CPU_] |362| 
    2748 00000248 7622   EALLOW
    2749                      .dwpsn  file "D:\Users\MaCHaDo\Documents\GitHub\LegStrong\drivers\include\pwm.h",line 951,column 5,is
    2750 00000249 D07C          MOVB      XAR0,#124             ; [CPU_] |951| 
    2751 0000024a 0217          MOVB      ACC,#23               ; [CPU_] |951| 
    2752 0000024b 0795          ADDL      ACC,*+XAR5[AR0]       ; [CPU_] |951| 
    2753 0000024c 1EA6          MOVL      XAR6,ACC              ; [CPU_] |951| 
    2754 0000024d 56BF          MOVB      *+XAR6[0],#4,UNC      ; [CPU_] |951| 
         0000024e 04C6 
    2755 0000024f 761A   EDIS
    2756 00000250 7622   EALLOW
    2757 00000251 D07E          MOVB      XAR0,#126             ; [CPU_] |951| 
    2758 00000252 0217          MOVB      ACC,#23               ; [CPU_] |951| 
TMS320C2000 Assembler PC v15.12.3 Sun Oct 30 14:01:37 2016

Tools Copyright (c) 1996-2015 Texas Instruments Incorporated
C:\Users\MaCHaDo\AppData\Local\Temp\0057210                          PAGE   56

    2759 00000253 0795          ADDL      ACC,*+XAR5[AR0]       ; [CPU_] |951| 
    2760 00000254 1EA6          MOVL      XAR6,ACC              ; [CPU_] |951| 
    2761 00000255 56BF          MOVB      *+XAR6[0],#4,UNC      ; [CPU_] |951| 
         00000256 04C6 
    2762 00000257 761A   EDIS
    2763 00000258 7622   EALLOW
    2764 00000259 D080          MOVB      XAR0,#128             ; [CPU_] |951| 
    2765 0000025a 0217          MOVB      ACC,#23               ; [CPU_] |951| 
    2766 0000025b 0795          ADDL      ACC,*+XAR5[AR0]       ; [CPU_] |951| 
    2767                      .dwpsn  file "D:\Users\MaCHaDo\Documents\GitHub\LegStrong\drivers\include\pwm.h",line 955,column 5,is
    2768 0000025c 6F18          B         $C$L18,UNC            ; [CPU_] |955| 
    2769                      ; branch occurs ; [] |955| 
    2770 0000025d       $C$L17:    
    2771 0000025d 761F-         MOVW      DP,#_halHandle        ; [CPU_U] 
         0000025e 0000 
    2772                      .dwpsn  file "D:/Users/MaCHaDo/Documents/GitHub/LegStrong/modules/include/hal.h",line 285,column 16,i
    2773 0000025f C500-         MOVL      XAR7,@_halHandle      ; [CPU_] |285| 
    2774 00000260 83A7          MOVL      XAR5,XAR7             ; [CPU_] |285| 
    2775 00000261 DD7E          ADDB      XAR5,#126             ; [CPU_] |285| 
    2776 00000262 7622   EALLOW
    2777                      .dwpsn  file "D:\Users\MaCHaDo\Documents\GitHub\LegStrong\drivers\include\pwm.h",line 951,column 5,is
    2778 00000263 D07C          MOVB      XAR0,#124             ; [CPU_] |951| 
    2779 00000264 0217          MOVB      ACC,#23               ; [CPU_] |951| 
    2780 00000265 0797          ADDL      ACC,*+XAR7[AR0]       ; [CPU_] |951| 
    2781 00000266 1EA6          MOVL      XAR6,ACC              ; [CPU_] |951| 
    2782 00000267 56BF          MOVB      *+XAR6[0],#4,UNC      ; [CPU_] |951| 
         00000268 04C6 
    2783 00000269 761A   EDIS
    2784 0000026a 7622   EALLOW
    2785 0000026b 0217          MOVB      ACC,#23               ; [CPU_] |951| 
    2786 0000026c 07C5          ADDL      ACC,*+XAR5[0]         ; [CPU_] |951| 
    2787 0000026d 1EA6          MOVL      XAR6,ACC              ; [CPU_] |951| 
    2788 0000026e 56BF          MOVB      *+XAR6[0],#4,UNC      ; [CPU_] |951| 
         0000026f 04C6 
    2789 00000270 761A   EDIS
    2790 00000271 7622   EALLOW
    2791 00000272 0217          MOVB      ACC,#23               ; [CPU_] |951| 
    2792 00000273 07D5          ADDL      ACC,*+XAR5[2]         ; [CPU_] |951| 
    2793 00000274       $C$L18:    
    2794 00000274 83A9          MOVL      XAR5,ACC              ; [CPU_] |951| 
    2795 00000275 56BF          MOVB      *+XAR5[0],#4,UNC      ; [CPU_] |951| 
         00000276 04C5 
    2796 00000277 761A   EDIS
    2797 00000278       $C$L19:    
    2798                      .dwpsn  file "../main.c",line 374,column 17,is_stmt,isa 0
    2799 00000278 D0F5          MOVB      XAR0,#245             ; [CPU_] |374| 
    2800 00000279 9294          MOV       AL,*+XAR4[AR0]        ; [CPU_] |374| 
    2801 0000027a 5201          CMPB      AL,#1                 ; [CPU_] |374| 
    2802 0000027b 602D          B         $C$L21,NEQ            ; [CPU_] |374| 
    2803                      ; branchcc occurs ; [] |374| 
    2804 0000027c 9247          MOV       AL,*-SP[7]            ; [CPU_] 
    2805 0000027d 5201          CMPB      AL,#1                 ; [CPU_] |374| 
    2806 0000027e 692A          B         $C$L21,LOS            ; [CPU_] |374| 
    2807                      ; branchcc occurs ; [] |374| 
    2808 0000027f 761F-         MOVW      DP,#_gMotorVars+16    ; [CPU_U] 
TMS320C2000 Assembler PC v15.12.3 Sun Oct 30 14:01:37 2016

Tools Copyright (c) 1996-2015 Texas Instruments Incorporated
C:\Users\MaCHaDo\AppData\Local\Temp\0057210                          PAGE   57

         00000280 0001 
    2809 00000281 9210-         MOV       AL,@_gMotorVars+16    ; [CPU_] |374| 
    2810 00000282 5206          CMPB      AL,#6                 ; [CPU_] |374| 
    2811 00000283 6025          B         $C$L21,NEQ            ; [CPU_] |374| 
    2812                      ; branchcc occurs ; [] |374| 
    2813 00000284 FF69          SPM       #0                    ; [CPU_] 
    2814                      .dwpsn  file "../main.c",line 379,column 21,is_stmt,isa 0
    2815              $C$DW$234       .dwtag  DW_TAG_TI_branch
    2816                      .dwattr $C$DW$234, DW_AT_low_pc(0x00)
    2817                      .dwattr $C$DW$234, DW_AT_name("_USER_softwareUpdate1p6")
    2818                      .dwattr $C$DW$234, DW_AT_TI_call
    2819              
    2820 00000285 7640!         LCR       #_USER_softwareUpdate1p6 ; [CPU_] |379| 
         00000286 0000 
    2821                      ; call occurs [#_USER_softwareUpdate1p6] ; [] |379| 
    2822 00000287 6F21          B         $C$L21,UNC            ; [CPU_] |379| 
    2823                      ; branch occurs ; [] |379| 
    2824 00000288       $C$L20:    
    2825                      .dwpsn  file "D:/Users/MaCHaDo/Documents/GitHub/LegStrong/modules/include/ctrl.h",line 1218,column 3,
    2826 00000288 D0F0          MOVB      XAR0,#240             ; [CPU_] |1218| 
    2827 00000289 761F-         MOVW      DP,#_gMotorVars       ; [CPU_U] 
         0000028a 0001 
    2828 0000028b 2B94          MOV       *+XAR4[AR0],#0        ; [CPU_] |1218| 
    2829                      .dwpsn  file "../main.c",line 311,column 13,is_stmt,isa 0
    2830 0000028c 2B00-         MOV       @_gMotorVars,#0       ; [CPU_] |311| 
    2831 0000028d 761F-         MOVW      DP,#_halHandle        ; [CPU_U] 
         0000028e 0000 
    2832                      .dwpsn  file "D:/Users/MaCHaDo/Documents/GitHub/LegStrong/modules/include/hal.h",line 243,column 16,i
    2833 0000028f 8300-         MOVL      XAR5,@_halHandle      ; [CPU_] |243| 
    2834 00000290 8AA5          MOVL      XAR4,XAR5             ; [CPU_] |243| 
    2835 00000291 DC7E          ADDB      XAR4,#126             ; [CPU_] |243| 
    2836 00000292 7622   EALLOW
    2837                      .dwpsn  file "D:\Users\MaCHaDo\Documents\GitHub\LegStrong\drivers\include\pwm.h",line 1567,column 5,i
    2838 00000293 0218          MOVB      ACC,#24               ; [CPU_] |1567| 
    2839 00000294 D07C          MOVB      XAR0,#124             ; [CPU_] |1567| 
    2840 00000295 0795          ADDL      ACC,*+XAR5[AR0]       ; [CPU_] |1567| 
    2841 00000296 83A9          MOVL      XAR5,ACC              ; [CPU_] |1567| 
    2842 00000297 1AC5          OR        *+XAR5[0],#0x0004     ; [CPU_] |1567| 
         00000298 0004 
    2843 00000299 761A   EDIS
    2844 0000029a 7622   EALLOW
    2845 0000029b 0218          MOVB      ACC,#24               ; [CPU_] |1567| 
    2846 0000029c 07C4          ADDL      ACC,*+XAR4[0]         ; [CPU_] |1567| 
    2847 0000029d 83A9          MOVL      XAR5,ACC              ; [CPU_] |1567| 
    2848 0000029e 1AC5          OR        *+XAR5[0],#0x0004     ; [CPU_] |1567| 
         0000029f 0004 
    2849 000002a0 761A   EDIS
    2850 000002a1 7622   EALLOW
    2851 000002a2 0218          MOVB      ACC,#24               ; [CPU_] |1567| 
    2852 000002a3 07D4          ADDL      ACC,*+XAR4[2]         ; [CPU_] |1567| 
    2853 000002a4 8AA9          MOVL      XAR4,ACC              ; [CPU_] |1567| 
    2854 000002a5 1AC4          OR        *+XAR4[0],#0x0004     ; [CPU_] |1567| 
         000002a6 0004 
    2855 000002a7 761A   EDIS
    2856 000002a8       $C$L21:    
TMS320C2000 Assembler PC v15.12.3 Sun Oct 30 14:01:37 2016

Tools Copyright (c) 1996-2015 Texas Instruments Incorporated
C:\Users\MaCHaDo\AppData\Local\Temp\0057210                          PAGE   58

    2857                      .dwpsn  file "../main.c",line 387,column 9,is_stmt,isa 0
    2858 000002a8 D018          MOVB      XAR0,#24              ; [CPU_] |387| 
    2859 000002a9 FF69          SPM       #0                    ; [CPU_] 
    2860 000002aa 8A91          MOVL      XAR4,*+XAR1[AR0]      ; [CPU_] |387| 
    2861              $C$DW$235       .dwtag  DW_TAG_TI_branch
    2862                      .dwattr $C$DW$235, DW_AT_low_pc(0x00)
    2863                      .dwattr $C$DW$235, DW_AT_name("_EST_isMotorIdentified")
    2864                      .dwattr $C$DW$235, DW_AT_TI_call
    2865              
    2866 000002ab 7640!         LCR       #_EST_isMotorIdentified ; [CPU_] |387| 
         000002ac 0000 
    2867                      ; call occurs [#_EST_isMotorIdentified] ; [] |387| 
    2868 000002ad 5200          CMPB      AL,#0                 ; [CPU_] |387| 
    2869 000002ae 6115          B         $C$L22,EQ             ; [CPU_] |387| 
    2870                      ; branchcc occurs ; [] |387| 
    2871                      .dwpsn  file "../main.c",line 390,column 13,is_stmt,isa 0
    2872 000002af D018          MOVB      XAR0,#24              ; [CPU_] |390| 
    2873 000002b0 761F-         MOVW      DP,#_gMaxCurrentSlope ; [CPU_U] 
         000002b1 0000 
    2874 000002b2 8A91          MOVL      XAR4,*+XAR1[AR0]      ; [CPU_] |390| 
    2875 000002b3 0606-         MOVL      ACC,@_gMaxCurrentSlope ; [CPU_] |390| 
    2876              $C$DW$236       .dwtag  DW_TAG_TI_branch
    2877                      .dwattr $C$DW$236, DW_AT_low_pc(0x00)
    2878                      .dwattr $C$DW$236, DW_AT_name("_EST_setMaxCurrentSlope_pu")
    2879                      .dwattr $C$DW$236, DW_AT_TI_call
    2880              
    2881 000002b4 7640!         LCR       #_EST_setMaxCurrentSlope_pu ; [CPU_] |390| 
         000002b5 0000 
    2882                      ; call occurs [#_EST_setMaxCurrentSlope_pu] ; [] |390| 
    2883 000002b6 761F-         MOVW      DP,#_gMotorVars+2     ; [CPU_U] 
         000002b7 0001 
    2884                      .dwpsn  file "../main.c",line 391,column 13,is_stmt,isa 0
    2885 000002b8 56BF-         MOVB      @_gMotorVars+2,#1,UNC ; [CPU_] |391| 
         000002b9 0102 
    2886 000002ba 761F-         MOVW      DP,#_Flag_Latch_softwareUpdate ; [CPU_U] 
         000002bb 0000 
    2887                      .dwpsn  file "../main.c",line 394,column 13,is_stmt,isa 0
    2888 000002bc 9201-         MOV       AL,@_Flag_Latch_softwareUpdate ; [CPU_] |394| 
    2889 000002bd 6111          B         $C$L23,EQ             ; [CPU_] |394| 
    2890                      ; branchcc occurs ; [] |394| 
    2891                      .dwpsn  file "../main.c",line 396,column 15,is_stmt,isa 0
    2892 000002be 2B01-         MOV       @_Flag_Latch_softwareUpdate,#0 ; [CPU_] |396| 
    2893                      .dwpsn  file "../main.c",line 398,column 15,is_stmt,isa 0
    2894 000002bf 8A04-         MOVL      XAR4,@_ctrlHandle     ; [CPU_] |398| 
    2895              $C$DW$237       .dwtag  DW_TAG_TI_branch
    2896                      .dwattr $C$DW$237, DW_AT_low_pc(0x00)
    2897                      .dwattr $C$DW$237, DW_AT_name("_USER_calcPIgains")
    2898                      .dwattr $C$DW$237, DW_AT_TI_call
    2899              
    2900 000002c0 7640!         LCR       #_USER_calcPIgains    ; [CPU_] |398| 
         000002c1 0000 
    2901                      ; call occurs [#_USER_calcPIgains] ; [] |398| 
    2902                      .dwpsn  file "../main.c",line 412,column 9,is_stmt,isa 0
    2903 000002c2 6F0C          B         $C$L23,UNC            ; [CPU_] |412| 
    2904                      ; branch occurs ; [] |412| 
TMS320C2000 Assembler PC v15.12.3 Sun Oct 30 14:01:37 2016

Tools Copyright (c) 1996-2015 Texas Instruments Incorporated
C:\Users\MaCHaDo\AppData\Local\Temp\0057210                          PAGE   59

    2905 000002c3       $C$L22:    
    2906 000002c3 761F-         MOVW      DP,#_Flag_Latch_softwareUpdate ; [CPU_U] 
         000002c4 0000 
    2907                      .dwpsn  file "../main.c",line 407,column 13,is_stmt,isa 0
    2908 000002c5 D018          MOVB      XAR0,#24              ; [CPU_] |407| 
    2909                      .dwpsn  file "../main.c",line 404,column 13,is_stmt,isa 0
    2910 000002c6 56BF-         MOVB      @_Flag_Latch_softwareUpdate,#1,UNC ; [CPU_] |404| 
         000002c7 0101 
    2911                      .dwpsn  file "../main.c",line 407,column 13,is_stmt,isa 0
    2912 000002c8 8A91          MOVL      XAR4,*+XAR1[AR0]      ; [CPU_] |407| 
    2913              $C$DW$238       .dwtag  DW_TAG_TI_branch
    2914                      .dwattr $C$DW$238, DW_AT_low_pc(0x00)
    2915                      .dwattr $C$DW$238, DW_AT_name("_EST_getMaxCurrentSlope_pu")
    2916                      .dwattr $C$DW$238, DW_AT_TI_call
    2917              
    2918 000002c9 7640!         LCR       #_EST_getMaxCurrentSlope_pu ; [CPU_] |407| 
         000002ca 0000 
    2919                      ; call occurs [#_EST_getMaxCurrentSlope_pu] ; [] |407| 
    2920 000002cb 761F-         MOVW      DP,#_gMaxCurrentSlope ; [CPU_U] 
         000002cc 0000 
    2921 000002cd 1E06-         MOVL      @_gMaxCurrentSlope,ACC ; [CPU_] |407| 
    2922 000002ce       $C$L23:    
    2923 000002ce 761F-         MOVW      DP,#_gCounter_updateGlobals ; [CPU_U] 
         000002cf 0000 
    2924                      .dwpsn  file "../main.c",line 412,column 9,is_stmt,isa 0
    2925 000002d0 9200-         MOV       AL,@_gCounter_updateGlobals ; [CPU_] |412| 
    2926 000002d1 6105          B         $C$L24,EQ             ; [CPU_] |412| 
    2927                      ; branchcc occurs ; [] |412| 
    2928                      .dwpsn  file "../main.c",line 415,column 13,is_stmt,isa 0
    2929 000002d2 2B00-         MOV       @_gCounter_updateGlobals,#0 ; [CPU_] |415| 
    2930                      .dwpsn  file "../main.c",line 417,column 13,is_stmt,isa 0
    2931 000002d3 8A04-         MOVL      XAR4,@_ctrlHandle     ; [CPU_] |417| 
    2932              $C$DW$239       .dwtag  DW_TAG_TI_branch
    2933                      .dwattr $C$DW$239, DW_AT_low_pc(0x00)
    2934                      .dwattr $C$DW$239, DW_AT_name("_updateGlobalVariables_motor")
    2935                      .dwattr $C$DW$239, DW_AT_TI_call
    2936              
    2937 000002d4 7640'         LCR       #_updateGlobalVariables_motor ; [CPU_] |417| 
         000002d5 0028 
    2938                      ; call occurs [#_updateGlobalVariables_motor] ; [] |417| 
    2939 000002d6       $C$L24:    
    2940 000002d6 761F-         MOVW      DP,#_ctrlHandle       ; [CPU_U] 
         000002d7 0000 
    2941                      .dwpsn  file "../main.c",line 421,column 9,is_stmt,isa 0
    2942 000002d8 8A04-         MOVL      XAR4,@_ctrlHandle     ; [CPU_] |421| 
    2943              $C$DW$240       .dwtag  DW_TAG_TI_branch
    2944                      .dwattr $C$DW$240, DW_AT_low_pc(0x00)
    2945                      .dwattr $C$DW$240, DW_AT_name("_updateIqRef")
    2946                      .dwattr $C$DW$240, DW_AT_TI_call
    2947              
    2948 000002d9 7640'         LCR       #_updateIqRef         ; [CPU_] |421| 
         000002da 0000 
    2949                      ; call occurs [#_updateIqRef] ; [] |421| 
    2950                      .dwpsn  file "../main.c",line 424,column 9,is_stmt,isa 0
    2951 000002db D018          MOVB      XAR0,#24              ; [CPU_] |424| 
TMS320C2000 Assembler PC v15.12.3 Sun Oct 30 14:01:37 2016

Tools Copyright (c) 1996-2015 Texas Instruments Incorporated
C:\Users\MaCHaDo\AppData\Local\Temp\0057210                          PAGE   60

    2952 000002dc 8A91          MOVL      XAR4,*+XAR1[AR0]      ; [CPU_] |424| 
    2953 000002dd 8D40-         MOVL      XAR1,#_gMotorVars     ; [CPU_U] |424| 
         000002de 0040 
    2954 000002df 92D9          MOV       AL,*+XAR1[3]          ; [CPU_] |424| 
    2955              $C$DW$241       .dwtag  DW_TAG_TI_branch
    2956                      .dwattr $C$DW$241, DW_AT_low_pc(0x00)
    2957                      .dwattr $C$DW$241, DW_AT_name("_EST_setFlag_enableForceAngle")
    2958                      .dwattr $C$DW$241, DW_AT_TI_call
    2959              
    2960 000002e0 7640!         LCR       #_EST_setFlag_enableForceAngle ; [CPU_] |424| 
         000002e1 0000 
    2961                      ; call occurs [#_EST_setFlag_enableForceAngle] ; [] |424| 
    2962                      .dwpsn  file "../main.c",line 427,column 9,is_stmt,isa 0
    2963 000002e2 D008          MOVB      XAR0,#8               ; [CPU_] |427| 
    2964 000002e3 761F-         MOVW      DP,#_ctrlHandle       ; [CPU_U] 
         000002e4 0000 
    2965                      .dwpsn  file "D:/Users/MaCHaDo/Documents/GitHub/LegStrong/modules/include/ctrl.h",line 1262,column 3,
    2966 000002e5 02F2          MOVB      ACC,#242              ; [CPU_] |1262| 
    2967                      .dwpsn  file "../main.c",line 427,column 9,is_stmt,isa 0
    2968 000002e6 8891          MOVZ      AR6,*+XAR1[AR0]       ; [CPU_] |427| 
    2969                      .dwpsn  file "D:/Users/MaCHaDo/Documents/GitHub/LegStrong/modules/include/ctrl.h",line 1262,column 3,
    2970 000002e7 0704-         ADDL      ACC,@_ctrlHandle      ; [CPU_] |1262| 
    2971 000002e8 8AA9          MOVL      XAR4,ACC              ; [CPU_] |1262| 
    2972 000002e9 761F-         MOVW      DP,#_halHandle        ; [CPU_U] 
         000002ea 0000 
    2973                      .dwpsn  file "../main.c",line 430,column 9,is_stmt,isa 0
    2974 000002eb 83A3          MOVL      XAR5,XAR3             ; [CPU_] |430| 
    2975                      .dwpsn  file "D:/Users/MaCHaDo/Documents/GitHub/LegStrong/modules/include/ctrl.h",line 1262,column 3,
    2976 000002ec 7EC4          MOV       *+XAR4[0],AR6         ; [CPU_] |1262| 
    2977                      .dwpsn  file "../main.c",line 430,column 9,is_stmt,isa 0
    2978 000002ed 8A00-         MOVL      XAR4,@_halHandle      ; [CPU_] |430| 
    2979              $C$DW$242       .dwtag  DW_TAG_TI_branch
    2980                      .dwattr $C$DW$242, DW_AT_low_pc(0x00)
    2981                      .dwattr $C$DW$242, DW_AT_name("_HAL_writeDrvData")
    2982                      .dwattr $C$DW$242, DW_AT_TI_call
    2983              
    2984 000002ee 7640!         LCR       #_HAL_writeDrvData    ; [CPU_] |430| 
         000002ef 0000 
    2985                      ; call occurs [#_HAL_writeDrvData] ; [] |430| 
    2986 000002f0 761F-         MOVW      DP,#_halHandle        ; [CPU_U] 
         000002f1 0000 
    2987                      .dwpsn  file "../main.c",line 432,column 9,is_stmt,isa 0
    2988 000002f2 83A3          MOVL      XAR5,XAR3             ; [CPU_] |432| 
    2989 000002f3 8A00-         MOVL      XAR4,@_halHandle      ; [CPU_] |432| 
    2990              $C$DW$243       .dwtag  DW_TAG_TI_branch
    2991                      .dwattr $C$DW$243, DW_AT_low_pc(0x00)
    2992                      .dwattr $C$DW$243, DW_AT_name("_HAL_readDrvData")
    2993                      .dwattr $C$DW$243, DW_AT_TI_call
    2994              
    2995 000002f4 7640!         LCR       #_HAL_readDrvData     ; [CPU_] |432| 
         000002f5 0000 
    2996                      ; call occurs [#_HAL_readDrvData] ; [] |432| 
    2997                      .dwpsn  file "../main.c",line 288,column 5,is_stmt,isa 0
    2998 000002f6 92C1          MOV       AL,*+XAR1[0]          ; [CPU_] |288| 
    2999 000002f7 FFE0          B         $C$L8,NEQ             ; [CPU_] |288| 
TMS320C2000 Assembler PC v15.12.3 Sun Oct 30 14:01:37 2016

Tools Copyright (c) 1996-2015 Texas Instruments Incorporated
C:\Users\MaCHaDo\AppData\Local\Temp\0057210                          PAGE   61

         000002f8 FE7F 
    3000                      ; branchcc occurs ; [] |288| 
    3001 000002f9 761F-         MOVW      DP,#_ctrlHandle       ; [CPU_U] 
         000002fa 0000 
    3002 000002fb 8A04-         MOVL      XAR4,@_ctrlHandle     ; [CPU_] 
    3003 000002fc       $C$L25:    
    3004 000002fc 761F-         MOVW      DP,#_halHandle        ; [CPU_U] 
         000002fd 0000 
    3005                      .dwpsn  file "D:/Users/MaCHaDo/Documents/GitHub/LegStrong/modules/include/hal.h",line 243,column 16,i
    3006 000002fe C400-         MOVL      XAR6,@_halHandle      ; [CPU_] |243| 
    3007 000002ff 83A6          MOVL      XAR5,XAR6             ; [CPU_] |243| 
    3008 00000300 DD7E          ADDB      XAR5,#126             ; [CPU_] |243| 
    3009 00000301 7622   EALLOW
    3010                      .dwpsn  file "D:\Users\MaCHaDo\Documents\GitHub\LegStrong\drivers\include\pwm.h",line 1567,column 5,i
    3011 00000302 D07C          MOVB      XAR0,#124             ; [CPU_] |1567| 
    3012 00000303 0218          MOVB      ACC,#24               ; [CPU_] |1567| 
    3013 00000304 0796          ADDL      ACC,*+XAR6[AR0]       ; [CPU_] |1567| 
    3014 00000305 1EA6          MOVL      XAR6,ACC              ; [CPU_] |1567| 
    3015 00000306 1AC6          OR        *+XAR6[0],#0x0004     ; [CPU_] |1567| 
         00000307 0004 
    3016 00000308 761A   EDIS
    3017 00000309 7622   EALLOW
    3018 0000030a 0218          MOVB      ACC,#24               ; [CPU_] |1567| 
    3019 0000030b 07C5          ADDL      ACC,*+XAR5[0]         ; [CPU_] |1567| 
    3020 0000030c 1EA6          MOVL      XAR6,ACC              ; [CPU_] |1567| 
    3021 0000030d 1AC6          OR        *+XAR6[0],#0x0004     ; [CPU_] |1567| 
         0000030e 0004 
    3022 0000030f 761A   EDIS
    3023 00000310 7622   EALLOW
    3024 00000311 0218          MOVB      ACC,#24               ; [CPU_] |1567| 
    3025 00000312 07D5          ADDL      ACC,*+XAR5[2]         ; [CPU_] |1567| 
    3026 00000313 83A9          MOVL      XAR5,ACC              ; [CPU_] |1567| 
    3027 00000314 1AC5          OR        *+XAR5[0],#0x0004     ; [CPU_] |1567| 
         00000315 0004 
    3028 00000316 761A   EDIS
    3029 00000317 FF69          SPM       #0                    ; [CPU_] 
    3030                      .dwpsn  file "../main.c",line 465,column 5,is_stmt,isa 0
    3031 00000318 834C          MOVL      XAR5,*-SP[12]         ; [CPU_] |465| 
    3032              $C$DW$244       .dwtag  DW_TAG_TI_branch
    3033                      .dwattr $C$DW$244, DW_AT_low_pc(0x00)
    3034                      .dwattr $C$DW$244, DW_AT_name("_CTRL_setParams")
    3035                      .dwattr $C$DW$244, DW_AT_TI_call
    3036              
    3037 00000319 7640!         LCR       #_CTRL_setParams      ; [CPU_] |465| 
         0000031a 0000 
    3038                      ; call occurs [#_CTRL_setParams] ; [] |465| 
    3039 0000031b 761F-         MOVW      DP,#_gMotorVars+1     ; [CPU_U] 
         0000031c 0001 
    3040                      .dwpsn  file "../main.c",line 466,column 5,is_stmt,isa 0
    3041 0000031d 2B01-         MOV       @_gMotorVars+1,#0     ; [CPU_] |466| 
    3042                      .dwpsn  file "../main.c",line 468,column 3,is_stmt,isa 0
    3043 0000031e FFEF          B         $C$L7,UNC             ; [CPU_] |468| 
         0000031f FE4C 
    3044                      ; branch occurs ; [] |468| 
    3045 00000320       $C$L26:    
TMS320C2000 Assembler PC v15.12.3 Sun Oct 30 14:01:37 2016

Tools Copyright (c) 1996-2015 Texas Instruments Incorporated
C:\Users\MaCHaDo\AppData\Local\Temp\0057210                          PAGE   62

    3046 00000320 761F-         MOVW      DP,#_gMotorVars       ; [CPU_U] 
         00000321 0001 
    3047                      .dwpsn  file "../main.c",line 188,column 11,is_stmt,isa 0
    3048 00000322 2B00-         MOV       @_gMotorVars,#0       ; [CPU_] |188| 
    3049                      .dwpsn  file "../main.c",line 189,column 9,is_stmt,isa 0
    3050 00000323 6FFD          B         $C$L26,UNC            ; [CPU_] |189| 
    3051                      ; branch occurs ; [] |189| 
    3052                      .dwattr $C$DW$189, DW_AT_TI_end_file("../main.c")
    3053                      .dwattr $C$DW$189, DW_AT_TI_end_line(0x1d6)
    3054                      .dwattr $C$DW$189, DW_AT_TI_end_column(0x01)
    3055                      .dwendentry
    3056                      .dwendtag $C$DW$189
    3057              
    3058              ;**************************************************************
    3059              ;* UNDEFINED EXTERNAL REFERENCES                              *
    3060              ;**************************************************************
    3061                      .global _CTRL_setup
    3062                      .global _CTRL_setParams
    3063                      .global _CTRL_setSpd_ref_krpm
    3064                      .global _HAL_enableDebugInt
    3065                      .global _HAL_enableGlobalInts
    3066                      .global _HAL_enableAdcInts
    3067                      .global _CTRL_run
    3068                      .global _CTRL_getVersion
    3069                      .global _HAL_setupDrvSpi
    3070                      .global _HAL_writeDrvData
    3071                      .global _HAL_readDrvData
    3072                      .global _HAL_setupFaults
    3073                      .global _HAL_setParams
    3074                      .global _HAL_enableDrv
    3075                      .global _EST_setMaxCurrentSlope_pu
    3076                      .global _USER_setParams
    3077                      .global _EST_setFlag_enableRsRecalc
    3078                      .global _USER_checkForErrors
    3079                      .global _USER_softwareUpdate1p6
    3080                      .global _SCI_clearRxFifoOvf
    3081                      .global _memCopy
    3082                      .global _EST_setFlag_enableForceAngle
    3083                      .global _SCI_clearRxFifoInt
    3084                      .global _USER_calcPIgains
    3085                      .global _EST_isMotorIdentified
    3086                      .global _EST_getState
    3087                      .global _USER_getErrorCode
    3088                      .global _CTRL_updateState
    3089                      .global _SCI_getDataBlocking
    3090                      .global _SCI_getRxFifoStatus
    3091                      .global _RamfuncsLoadStart
    3092                      .global _RamfuncsRunStart
    3093                      .global _USER_computeTorque_Flux_Iq_pu_to_Nm_sf
    3094                      .global _RamfuncsLoadEnd
    3095                      .global _USER_computeFlux_pu_to_Wb_sf
    3096                      .global _USER_computeFlux_pu_to_VpHz_sf
    3097                      .global _switch_ram_load
    3098                      .global _econst_end
    3099                      .global _econst_start
TMS320C2000 Assembler PC v15.12.3 Sun Oct 30 14:01:37 2016

Tools Copyright (c) 1996-2015 Texas Instruments Incorporated
C:\Users\MaCHaDo\AppData\Local\Temp\0057210                          PAGE   63

    3100                      .global _switch_start
    3101                      .global _econst_ram_load
    3102                      .global _switch_end
    3103                      .global _USER_computeTorque_Nm
    3104                      .global _EST_getSpeed_krpm
    3105                      .global _EST_getRr_Ohm
    3106                      .global _EST_getMaxCurrentSlope_pu
    3107                      .global _HAL_init
    3108                      .global _USER_computeTorque_Ls_Id_Iq_pu_to_Nm_sf
    3109                      .global _EST_getRs_Ohm
    3110                      .global _CTRL_initCtrl
    3111                      .global _EST_getFlux_VpHz
    3112                      .global _EST_getIdRated
    3113                      .global _USER_computeFlux
    3114                      .global _EST_getLs_q_H
    3115                      .global _EST_getLs_d_H
    3116                      .global _hal
    3117              
    3118              ;***************************************************************
    3119              ;* TYPE INFORMATION                                            *
    3120              ;***************************************************************
    3121              
    3122              $C$DW$T$38      .dwtag  DW_TAG_enumeration_type
    3123                      .dwattr $C$DW$T$38, DW_AT_byte_size(0x01)
    3124              $C$DW$245       .dwtag  DW_TAG_enumerator
    3125                      .dwattr $C$DW$245, DW_AT_name("CTRL_State_Error")
    3126                      .dwattr $C$DW$245, DW_AT_const_value(0x00)
    3127              
    3128              $C$DW$246       .dwtag  DW_TAG_enumerator
    3129                      .dwattr $C$DW$246, DW_AT_name("CTRL_State_Idle")
    3130                      .dwattr $C$DW$246, DW_AT_const_value(0x01)
    3131              
    3132              $C$DW$247       .dwtag  DW_TAG_enumerator
    3133                      .dwattr $C$DW$247, DW_AT_name("CTRL_State_OffLine")
    3134                      .dwattr $C$DW$247, DW_AT_const_value(0x02)
    3135              
    3136              $C$DW$248       .dwtag  DW_TAG_enumerator
    3137                      .dwattr $C$DW$248, DW_AT_name("CTRL_State_OnLine")
    3138                      .dwattr $C$DW$248, DW_AT_const_value(0x03)
    3139              
    3140              $C$DW$249       .dwtag  DW_TAG_enumerator
    3141                      .dwattr $C$DW$249, DW_AT_name("CTRL_numStates")
    3142                      .dwattr $C$DW$249, DW_AT_const_value(0x04)
    3143              
    3144                      .dwendtag $C$DW$T$38
    3145              
    3146              $C$DW$T$39      .dwtag  DW_TAG_typedef
    3147                      .dwattr $C$DW$T$39, DW_AT_name("CTRL_State_e")
    3148                      .dwattr $C$DW$T$39, DW_AT_type(*$C$DW$T$38)
    3149                      .dwattr $C$DW$T$39, DW_AT_language(DW_LANG_C)
    3150              
    3151              
    3152              $C$DW$T$40      .dwtag  DW_TAG_enumeration_type
    3153                      .dwattr $C$DW$T$40, DW_AT_byte_size(0x01)
    3154              $C$DW$250       .dwtag  DW_TAG_enumerator
TMS320C2000 Assembler PC v15.12.3 Sun Oct 30 14:01:37 2016

Tools Copyright (c) 1996-2015 Texas Instruments Incorporated
C:\Users\MaCHaDo\AppData\Local\Temp\0057210                          PAGE   64

    3155                      .dwattr $C$DW$250, DW_AT_name("CTRL_ErrorCode_NoError")
    3156                      .dwattr $C$DW$250, DW_AT_const_value(0x00)
    3157              
    3158              $C$DW$251       .dwtag  DW_TAG_enumerator
    3159                      .dwattr $C$DW$251, DW_AT_name("CTRL_ErrorCode_IdClip")
    3160                      .dwattr $C$DW$251, DW_AT_const_value(0x01)
    3161              
    3162              $C$DW$252       .dwtag  DW_TAG_enumerator
    3163                      .dwattr $C$DW$252, DW_AT_name("CTRL_ErrorCode_EstError")
    3164                      .dwattr $C$DW$252, DW_AT_const_value(0x02)
    3165              
    3166              $C$DW$253       .dwtag  DW_TAG_enumerator
    3167                      .dwattr $C$DW$253, DW_AT_name("CTRL_numErrorCodes")
    3168                      .dwattr $C$DW$253, DW_AT_const_value(0x03)
    3169              
    3170                      .dwendtag $C$DW$T$40
    3171              
    3172              $C$DW$T$41      .dwtag  DW_TAG_typedef
    3173                      .dwattr $C$DW$T$41, DW_AT_name("CTRL_ErrorCode_e")
    3174                      .dwattr $C$DW$T$41, DW_AT_type(*$C$DW$T$40)
    3175                      .dwattr $C$DW$T$41, DW_AT_language(DW_LANG_C)
    3176              
    3177              
    3178              $C$DW$T$71      .dwtag  DW_TAG_enumeration_type
    3179                      .dwattr $C$DW$T$71, DW_AT_byte_size(0x01)
    3180              $C$DW$254       .dwtag  DW_TAG_enumerator
    3181                      .dwattr $C$DW$254, DW_AT_name("CTRL_TargetProc_2806x")
    3182                      .dwattr $C$DW$254, DW_AT_const_value(0x00)
    3183              
    3184              $C$DW$255       .dwtag  DW_TAG_enumerator
    3185                      .dwattr $C$DW$255, DW_AT_name("CTRL_TargetProc_2805x")
    3186                      .dwattr $C$DW$255, DW_AT_const_value(0x01)
    3187              
    3188              $C$DW$256       .dwtag  DW_TAG_enumerator
    3189                      .dwattr $C$DW$256, DW_AT_name("CTRL_TargetProc_2803x")
    3190                      .dwattr $C$DW$256, DW_AT_const_value(0x02)
    3191              
    3192              $C$DW$257       .dwtag  DW_TAG_enumerator
    3193                      .dwattr $C$DW$257, DW_AT_name("CTRL_TargetProc_2802x")
    3194                      .dwattr $C$DW$257, DW_AT_const_value(0x03)
    3195              
    3196              $C$DW$258       .dwtag  DW_TAG_enumerator
    3197                      .dwattr $C$DW$258, DW_AT_name("CTRL_TargetProc_Unknown")
    3198                      .dwattr $C$DW$258, DW_AT_const_value(0x04)
    3199              
    3200                      .dwendtag $C$DW$T$71
    3201              
    3202              $C$DW$T$72      .dwtag  DW_TAG_typedef
    3203                      .dwattr $C$DW$T$72, DW_AT_name("CTRL_TargetProc_e")
    3204                      .dwattr $C$DW$T$72, DW_AT_type(*$C$DW$T$71)
    3205                      .dwattr $C$DW$T$72, DW_AT_language(DW_LANG_C)
    3206              
    3207              
    3208              $C$DW$T$78      .dwtag  DW_TAG_enumeration_type
    3209                      .dwattr $C$DW$T$78, DW_AT_byte_size(0x01)
TMS320C2000 Assembler PC v15.12.3 Sun Oct 30 14:01:37 2016

Tools Copyright (c) 1996-2015 Texas Instruments Incorporated
C:\Users\MaCHaDo\AppData\Local\Temp\0057210                          PAGE   65

    3210              $C$DW$259       .dwtag  DW_TAG_enumerator
    3211                      .dwattr $C$DW$259, DW_AT_name("GPIO_Number_0")
    3212                      .dwattr $C$DW$259, DW_AT_const_value(0x00)
    3213              
    3214              $C$DW$260       .dwtag  DW_TAG_enumerator
    3215                      .dwattr $C$DW$260, DW_AT_name("GPIO_Number_1")
    3216                      .dwattr $C$DW$260, DW_AT_const_value(0x01)
    3217              
    3218              $C$DW$261       .dwtag  DW_TAG_enumerator
    3219                      .dwattr $C$DW$261, DW_AT_name("GPIO_Number_2")
    3220                      .dwattr $C$DW$261, DW_AT_const_value(0x02)
    3221              
    3222              $C$DW$262       .dwtag  DW_TAG_enumerator
    3223                      .dwattr $C$DW$262, DW_AT_name("GPIO_Number_3")
    3224                      .dwattr $C$DW$262, DW_AT_const_value(0x03)
    3225              
    3226              $C$DW$263       .dwtag  DW_TAG_enumerator
    3227                      .dwattr $C$DW$263, DW_AT_name("GPIO_Number_4")
    3228                      .dwattr $C$DW$263, DW_AT_const_value(0x04)
    3229              
    3230              $C$DW$264       .dwtag  DW_TAG_enumerator
    3231                      .dwattr $C$DW$264, DW_AT_name("GPIO_Number_5")
    3232                      .dwattr $C$DW$264, DW_AT_const_value(0x05)
    3233              
    3234              $C$DW$265       .dwtag  DW_TAG_enumerator
    3235                      .dwattr $C$DW$265, DW_AT_name("GPIO_Number_6")
    3236                      .dwattr $C$DW$265, DW_AT_const_value(0x06)
    3237              
    3238              $C$DW$266       .dwtag  DW_TAG_enumerator
    3239                      .dwattr $C$DW$266, DW_AT_name("GPIO_Number_7")
    3240                      .dwattr $C$DW$266, DW_AT_const_value(0x07)
    3241              
    3242              $C$DW$267       .dwtag  DW_TAG_enumerator
    3243                      .dwattr $C$DW$267, DW_AT_name("GPIO_Rsvd_8")
    3244                      .dwattr $C$DW$267, DW_AT_const_value(0x08)
    3245              
    3246              $C$DW$268       .dwtag  DW_TAG_enumerator
    3247                      .dwattr $C$DW$268, DW_AT_name("GPIO_Rsvd_9")
    3248                      .dwattr $C$DW$268, DW_AT_const_value(0x09)
    3249              
    3250              $C$DW$269       .dwtag  DW_TAG_enumerator
    3251                      .dwattr $C$DW$269, DW_AT_name("GPIO_Rsvd_10")
    3252                      .dwattr $C$DW$269, DW_AT_const_value(0x0a)
    3253              
    3254              $C$DW$270       .dwtag  DW_TAG_enumerator
    3255                      .dwattr $C$DW$270, DW_AT_name("GPIO_Rsvd_11")
    3256                      .dwattr $C$DW$270, DW_AT_const_value(0x0b)
    3257              
    3258              $C$DW$271       .dwtag  DW_TAG_enumerator
    3259                      .dwattr $C$DW$271, DW_AT_name("GPIO_Number_12")
    3260                      .dwattr $C$DW$271, DW_AT_const_value(0x0c)
    3261              
    3262              $C$DW$272       .dwtag  DW_TAG_enumerator
    3263                      .dwattr $C$DW$272, DW_AT_name("GPIO_Rsvd_13")
    3264                      .dwattr $C$DW$272, DW_AT_const_value(0x0d)
TMS320C2000 Assembler PC v15.12.3 Sun Oct 30 14:01:37 2016

Tools Copyright (c) 1996-2015 Texas Instruments Incorporated
C:\Users\MaCHaDo\AppData\Local\Temp\0057210                          PAGE   66

    3265              
    3266              $C$DW$273       .dwtag  DW_TAG_enumerator
    3267                      .dwattr $C$DW$273, DW_AT_name("GPIO_Rsvd_14")
    3268                      .dwattr $C$DW$273, DW_AT_const_value(0x0e)
    3269              
    3270              $C$DW$274       .dwtag  DW_TAG_enumerator
    3271                      .dwattr $C$DW$274, DW_AT_name("GPIO_Rsvd_15")
    3272                      .dwattr $C$DW$274, DW_AT_const_value(0x0f)
    3273              
    3274              $C$DW$275       .dwtag  DW_TAG_enumerator
    3275                      .dwattr $C$DW$275, DW_AT_name("GPIO_Number_16")
    3276                      .dwattr $C$DW$275, DW_AT_const_value(0x10)
    3277              
    3278              $C$DW$276       .dwtag  DW_TAG_enumerator
    3279                      .dwattr $C$DW$276, DW_AT_name("GPIO_Number_17")
    3280                      .dwattr $C$DW$276, DW_AT_const_value(0x11)
    3281              
    3282              $C$DW$277       .dwtag  DW_TAG_enumerator
    3283                      .dwattr $C$DW$277, DW_AT_name("GPIO_Number_18")
    3284                      .dwattr $C$DW$277, DW_AT_const_value(0x12)
    3285              
    3286              $C$DW$278       .dwtag  DW_TAG_enumerator
    3287                      .dwattr $C$DW$278, DW_AT_name("GPIO_Number_19")
    3288                      .dwattr $C$DW$278, DW_AT_const_value(0x13)
    3289              
    3290              $C$DW$279       .dwtag  DW_TAG_enumerator
    3291                      .dwattr $C$DW$279, DW_AT_name("GPIO_Rsvd_20")
    3292                      .dwattr $C$DW$279, DW_AT_const_value(0x14)
    3293              
    3294              $C$DW$280       .dwtag  DW_TAG_enumerator
    3295                      .dwattr $C$DW$280, DW_AT_name("GPIO_Rsvd_21")
    3296                      .dwattr $C$DW$280, DW_AT_const_value(0x15)
    3297              
    3298              $C$DW$281       .dwtag  DW_TAG_enumerator
    3299                      .dwattr $C$DW$281, DW_AT_name("GPIO_Rsvd_22")
    3300                      .dwattr $C$DW$281, DW_AT_const_value(0x16)
    3301              
    3302              $C$DW$282       .dwtag  DW_TAG_enumerator
