TMS320C2000 Assembler PC v15.12.3 Tue Sep 20 20:30:18 2016

Tools Copyright (c) 1996-2015 Texas Instruments Incorporated
C:\Users\MaCHaDo\AppData\Local\Temp\1790010                          PAGE    1

       1              ;***************************************************************
       2              ;* TMS320C2000 C/C++ Codegen                   PC v15.12.3.LTS *
       3              ;* Date/Time created: Tue Sep 20 20:30:18 2016                 *
       4              ;***************************************************************
       5                      .compiler_opts --abi=coffabi --float_support=softlib --hll_source=on --mem_model:code=flat --mem_mode
       6        0002  FP      .set    XAR2
       7              
       8              $C$DW$CU        .dwtag  DW_TAG_compile_unit
       9                      .dwattr $C$DW$CU, DW_AT_name("../modules/source/filter_fo.c")
      10                      .dwattr $C$DW$CU, DW_AT_producer("TI TMS320C2000 C/C++ Codegen PC v15.12.3.LTS Copyright (c) 1996-201
      11                      .dwattr $C$DW$CU, DW_AT_TI_version(0x01)
      12                      .dwattr $C$DW$CU, DW_AT_comp_dir("D:\Users\MaCHaDo\Dropbox\Legstrong\drv8301\legstrong\LegStrong\Debu
      13              ;       C:\ti\ccsv6\tools\compiler\c2000_15.12.3.LTS\bin\opt2000.exe C:\\Users\\MaCHaDo\\AppData\\Local\\Temp
      14              ;       C:\ti\ccsv6\tools\compiler\c2000_15.12.3.LTS\bin\ac2000.exe -@C:\\Users\\MaCHaDo\\AppData\\Local\\Tem
      15 00000000               .sect   ".text"
      16                      .clink
      17                      .global _FILTER_FO_setNumCoeffs
      18              
      19              $C$DW$1 .dwtag  DW_TAG_subprogram
      20                      .dwattr $C$DW$1, DW_AT_name("FILTER_FO_setNumCoeffs")
      21                      .dwattr $C$DW$1, DW_AT_low_pc(_FILTER_FO_setNumCoeffs)
      22                      .dwattr $C$DW$1, DW_AT_high_pc(0x00)
      23                      .dwattr $C$DW$1, DW_AT_TI_symbol_name("_FILTER_FO_setNumCoeffs")
      24                      .dwattr $C$DW$1, DW_AT_external
      25                      .dwattr $C$DW$1, DW_AT_TI_begin_file("../modules/source/filter_fo.c")
      26                      .dwattr $C$DW$1, DW_AT_TI_begin_line(0x85)
      27                      .dwattr $C$DW$1, DW_AT_TI_begin_column(0x06)
      28                      .dwattr $C$DW$1, DW_AT_TI_max_frame_size(-2)
      29                      .dwpsn  file "../modules/source/filter_fo.c",line 134,column 1,is_stmt,address _FILTER_FO_setNumCoeff
      30              
      31                      .dwfde $C$DW$CIE, _FILTER_FO_setNumCoeffs
      32              $C$DW$2 .dwtag  DW_TAG_formal_parameter
      33                      .dwattr $C$DW$2, DW_AT_name("handle")
      34                      .dwattr $C$DW$2, DW_AT_TI_symbol_name("_handle")
      35                      .dwattr $C$DW$2, DW_AT_type(*$C$DW$T$25)
      36                      .dwattr $C$DW$2, DW_AT_location[DW_OP_reg12]
      37              
      38              $C$DW$3 .dwtag  DW_TAG_formal_parameter
      39                      .dwattr $C$DW$3, DW_AT_name("b0")
      40                      .dwattr $C$DW$3, DW_AT_TI_symbol_name("_b0")
      41                      .dwattr $C$DW$3, DW_AT_type(*$C$DW$T$36)
      42                      .dwattr $C$DW$3, DW_AT_location[DW_OP_reg0]
      43              
      44              $C$DW$4 .dwtag  DW_TAG_formal_parameter
      45                      .dwattr $C$DW$4, DW_AT_name("b1")
      46                      .dwattr $C$DW$4, DW_AT_TI_symbol_name("_b1")
      47                      .dwattr $C$DW$4, DW_AT_type(*$C$DW$T$36)
      48                      .dwattr $C$DW$4, DW_AT_location[DW_OP_breg20 -4]
      49              
      50              
      51              ;***************************************************************
      52              ;* FNAME: _FILTER_FO_setNumCoeffs       FR SIZE:   0           *
      53              ;*                                                             *
      54              ;* FUNCTION ENVIRONMENT                                        *
      55              ;*                                                             *
TMS320C2000 Assembler PC v15.12.3 Tue Sep 20 20:30:18 2016

Tools Copyright (c) 1996-2015 Texas Instruments Incorporated
C:\Users\MaCHaDo\AppData\Local\Temp\1790010                          PAGE    2

      56              ;* FUNCTION PROPERTIES                                         *
      57              ;*                            0 Parameter,  0 Auto,  0 SOE     *
      58              ;***************************************************************
      59              
      60              _FILTER_FO_setNumCoeffs:
      61              ;* AR4   assigned to _handle
      62              $C$DW$5 .dwtag  DW_TAG_variable
      63                      .dwattr $C$DW$5, DW_AT_name("handle")
      64                      .dwattr $C$DW$5, DW_AT_TI_symbol_name("_handle")
      65                      .dwattr $C$DW$5, DW_AT_type(*$C$DW$T$26)
      66                      .dwattr $C$DW$5, DW_AT_location[DW_OP_reg12]
      67              
      68              ;* AL    assigned to _b0
      69              $C$DW$6 .dwtag  DW_TAG_variable
      70                      .dwattr $C$DW$6, DW_AT_name("b0")
      71                      .dwattr $C$DW$6, DW_AT_TI_symbol_name("_b0")
      72                      .dwattr $C$DW$6, DW_AT_type(*$C$DW$T$36)
      73                      .dwattr $C$DW$6, DW_AT_location[DW_OP_reg0]
      74              
      75              ;* AR6   assigned to _b1
      76              $C$DW$7 .dwtag  DW_TAG_variable
      77                      .dwattr $C$DW$7, DW_AT_name("b1")
      78                      .dwattr $C$DW$7, DW_AT_TI_symbol_name("_b1")
      79                      .dwattr $C$DW$7, DW_AT_type(*$C$DW$T$36)
      80                      .dwattr $C$DW$7, DW_AT_location[DW_OP_reg16]
      81              
      82                      .dwcfi  cfa_offset, -2
      83                      .dwcfi  save_reg_to_mem, 26, 0
      84 00000000 C444          MOVL      XAR6,*-SP[4]          ; [CPU_] |134| 
      85                      .dwpsn  file "../modules/source/filter_fo.c",line 138,column 3,is_stmt,isa 0
      86 00000001 1ED4          MOVL      *+XAR4[2],ACC         ; [CPU_] |138| 
      87                      .dwpsn  file "../modules/source/filter_fo.c",line 139,column 3,is_stmt,isa 0
      88 00000002 C2E4          MOVL      *+XAR4[4],XAR6        ; [CPU_] |139| 
      89              $C$DW$8 .dwtag  DW_TAG_TI_branch
      90                      .dwattr $C$DW$8, DW_AT_low_pc(0x00)
      91                      .dwattr $C$DW$8, DW_AT_TI_return
      92              
      93 00000003 0006          LRETR     ; [CPU_] 
      94                      ; return occurs ; [] 
      95                      .dwattr $C$DW$1, DW_AT_TI_end_file("../modules/source/filter_fo.c")
      96                      .dwattr $C$DW$1, DW_AT_TI_end_line(0x8e)
      97                      .dwattr $C$DW$1, DW_AT_TI_end_column(0x01)
      98                      .dwendentry
      99                      .dwendtag $C$DW$1
     100              
     101 00000004               .sect   ".text"
     102                      .clink
     103                      .global _FILTER_FO_setInitialConditions
     104              
     105              $C$DW$9 .dwtag  DW_TAG_subprogram
     106                      .dwattr $C$DW$9, DW_AT_name("FILTER_FO_setInitialConditions")
     107                      .dwattr $C$DW$9, DW_AT_low_pc(_FILTER_FO_setInitialConditions)
     108                      .dwattr $C$DW$9, DW_AT_high_pc(0x00)
     109                      .dwattr $C$DW$9, DW_AT_TI_symbol_name("_FILTER_FO_setInitialConditions")
     110                      .dwattr $C$DW$9, DW_AT_external
TMS320C2000 Assembler PC v15.12.3 Tue Sep 20 20:30:18 2016

Tools Copyright (c) 1996-2015 Texas Instruments Incorporated
C:\Users\MaCHaDo\AppData\Local\Temp\1790010                          PAGE    3

     111                      .dwattr $C$DW$9, DW_AT_TI_begin_file("../modules/source/filter_fo.c")
     112                      .dwattr $C$DW$9, DW_AT_TI_begin_line(0x78)
     113                      .dwattr $C$DW$9, DW_AT_TI_begin_column(0x06)
     114                      .dwattr $C$DW$9, DW_AT_TI_max_frame_size(-2)
     115                      .dwpsn  file "../modules/source/filter_fo.c",line 121,column 1,is_stmt,address _FILTER_FO_setInitialC
     116              
     117                      .dwfde $C$DW$CIE, _FILTER_FO_setInitialConditions
     118              $C$DW$10        .dwtag  DW_TAG_formal_parameter
     119                      .dwattr $C$DW$10, DW_AT_name("handle")
     120                      .dwattr $C$DW$10, DW_AT_TI_symbol_name("_handle")
     121                      .dwattr $C$DW$10, DW_AT_type(*$C$DW$T$25)
     122                      .dwattr $C$DW$10, DW_AT_location[DW_OP_reg12]
     123              
     124              $C$DW$11        .dwtag  DW_TAG_formal_parameter
     125                      .dwattr $C$DW$11, DW_AT_name("x1")
     126                      .dwattr $C$DW$11, DW_AT_TI_symbol_name("_x1")
     127                      .dwattr $C$DW$11, DW_AT_type(*$C$DW$T$36)
     128                      .dwattr $C$DW$11, DW_AT_location[DW_OP_reg0]
     129              
     130              $C$DW$12        .dwtag  DW_TAG_formal_parameter
     131                      .dwattr $C$DW$12, DW_AT_name("y1")
     132                      .dwattr $C$DW$12, DW_AT_TI_symbol_name("_y1")
     133                      .dwattr $C$DW$12, DW_AT_type(*$C$DW$T$36)
     134                      .dwattr $C$DW$12, DW_AT_location[DW_OP_breg20 -4]
     135              
     136              
     137              ;***************************************************************
     138              ;* FNAME: _FILTER_FO_setInitialConditions FR SIZE:   0           *
     139              ;*                                                             *
     140              ;* FUNCTION ENVIRONMENT                                        *
     141              ;*                                                             *
     142              ;* FUNCTION PROPERTIES                                         *
     143              ;*                            0 Parameter,  0 Auto,  0 SOE     *
     144              ;***************************************************************
     145              
     146              _FILTER_FO_setInitialConditions:
     147              ;* AR4   assigned to _handle
     148              $C$DW$13        .dwtag  DW_TAG_variable
     149                      .dwattr $C$DW$13, DW_AT_name("handle")
     150                      .dwattr $C$DW$13, DW_AT_TI_symbol_name("_handle")
     151                      .dwattr $C$DW$13, DW_AT_type(*$C$DW$T$26)
     152                      .dwattr $C$DW$13, DW_AT_location[DW_OP_reg12]
     153              
     154              ;* AL    assigned to _x1
     155              $C$DW$14        .dwtag  DW_TAG_variable
     156                      .dwattr $C$DW$14, DW_AT_name("x1")
     157                      .dwattr $C$DW$14, DW_AT_TI_symbol_name("_x1")
     158                      .dwattr $C$DW$14, DW_AT_type(*$C$DW$T$36)
     159                      .dwattr $C$DW$14, DW_AT_location[DW_OP_reg0]
     160              
     161              ;* AR6   assigned to _y1
     162              $C$DW$15        .dwtag  DW_TAG_variable
     163                      .dwattr $C$DW$15, DW_AT_name("y1")
     164                      .dwattr $C$DW$15, DW_AT_TI_symbol_name("_y1")
     165                      .dwattr $C$DW$15, DW_AT_type(*$C$DW$T$36)
TMS320C2000 Assembler PC v15.12.3 Tue Sep 20 20:30:18 2016

Tools Copyright (c) 1996-2015 Texas Instruments Incorporated
C:\Users\MaCHaDo\AppData\Local\Temp\1790010                          PAGE    4

     166                      .dwattr $C$DW$15, DW_AT_location[DW_OP_reg16]
     167              
     168                      .dwcfi  cfa_offset, -2
     169                      .dwcfi  save_reg_to_mem, 26, 0
     170 00000004 C444          MOVL      XAR6,*-SP[4]          ; [CPU_] |121| 
     171                      .dwpsn  file "../modules/source/filter_fo.c",line 127,column 3,is_stmt,isa 0
     172 00000005 D008          MOVB      XAR0,#8               ; [CPU_] |127| 
     173                      .dwpsn  file "../modules/source/filter_fo.c",line 125,column 3,is_stmt,isa 0
     174 00000006 1EF4          MOVL      *+XAR4[6],ACC         ; [CPU_] |125| 
     175                      .dwpsn  file "../modules/source/filter_fo.c",line 127,column 3,is_stmt,isa 0
     176 00000007 C294          MOVL      *+XAR4[AR0],XAR6      ; [CPU_] |127| 
     177              $C$DW$16        .dwtag  DW_TAG_TI_branch
     178                      .dwattr $C$DW$16, DW_AT_low_pc(0x00)
     179                      .dwattr $C$DW$16, DW_AT_TI_return
     180              
     181 00000008 0006          LRETR     ; [CPU_] 
     182                      ; return occurs ; [] 
     183                      .dwattr $C$DW$9, DW_AT_TI_end_file("../modules/source/filter_fo.c")
     184                      .dwattr $C$DW$9, DW_AT_TI_end_line(0x82)
     185                      .dwattr $C$DW$9, DW_AT_TI_end_column(0x01)
     186                      .dwendentry
     187                      .dwendtag $C$DW$9
     188              
     189 00000009               .sect   ".text"
     190                      .clink
     191                      .global _FILTER_FO_setDenCoeffs
     192              
     193              $C$DW$17        .dwtag  DW_TAG_subprogram
     194                      .dwattr $C$DW$17, DW_AT_name("FILTER_FO_setDenCoeffs")
     195                      .dwattr $C$DW$17, DW_AT_low_pc(_FILTER_FO_setDenCoeffs)
     196                      .dwattr $C$DW$17, DW_AT_high_pc(0x00)
     197                      .dwattr $C$DW$17, DW_AT_TI_symbol_name("_FILTER_FO_setDenCoeffs")
     198                      .dwattr $C$DW$17, DW_AT_external
     199                      .dwattr $C$DW$17, DW_AT_TI_begin_file("../modules/source/filter_fo.c")
     200                      .dwattr $C$DW$17, DW_AT_TI_begin_line(0x6d)
     201                      .dwattr $C$DW$17, DW_AT_TI_begin_column(0x06)
     202                      .dwattr $C$DW$17, DW_AT_TI_max_frame_size(-2)
     203                      .dwpsn  file "../modules/source/filter_fo.c",line 110,column 1,is_stmt,address _FILTER_FO_setDenCoeff
     204              
     205                      .dwfde $C$DW$CIE, _FILTER_FO_setDenCoeffs
     206              $C$DW$18        .dwtag  DW_TAG_formal_parameter
     207                      .dwattr $C$DW$18, DW_AT_name("handle")
     208                      .dwattr $C$DW$18, DW_AT_TI_symbol_name("_handle")
     209                      .dwattr $C$DW$18, DW_AT_type(*$C$DW$T$25)
     210                      .dwattr $C$DW$18, DW_AT_location[DW_OP_reg12]
     211              
     212              $C$DW$19        .dwtag  DW_TAG_formal_parameter
     213                      .dwattr $C$DW$19, DW_AT_name("a1")
     214                      .dwattr $C$DW$19, DW_AT_TI_symbol_name("_a1")
     215                      .dwattr $C$DW$19, DW_AT_type(*$C$DW$T$36)
     216                      .dwattr $C$DW$19, DW_AT_location[DW_OP_reg0]
     217              
     218              
     219              ;***************************************************************
     220              ;* FNAME: _FILTER_FO_setDenCoeffs       FR SIZE:   0           *
TMS320C2000 Assembler PC v15.12.3 Tue Sep 20 20:30:18 2016

Tools Copyright (c) 1996-2015 Texas Instruments Incorporated
C:\Users\MaCHaDo\AppData\Local\Temp\1790010                          PAGE    5

     221              ;*                                                             *
     222              ;* FUNCTION ENVIRONMENT                                        *
     223              ;*                                                             *
     224              ;* FUNCTION PROPERTIES                                         *
     225              ;*                            0 Parameter,  0 Auto,  0 SOE     *
     226              ;***************************************************************
     227              
     228              _FILTER_FO_setDenCoeffs:
     229              ;* AR4   assigned to _handle
     230              $C$DW$20        .dwtag  DW_TAG_variable
     231                      .dwattr $C$DW$20, DW_AT_name("handle")
     232                      .dwattr $C$DW$20, DW_AT_TI_symbol_name("_handle")
     233                      .dwattr $C$DW$20, DW_AT_type(*$C$DW$T$26)
     234                      .dwattr $C$DW$20, DW_AT_location[DW_OP_reg12]
     235              
     236              ;* AL    assigned to _a1
     237              $C$DW$21        .dwtag  DW_TAG_variable
     238                      .dwattr $C$DW$21, DW_AT_name("a1")
     239                      .dwattr $C$DW$21, DW_AT_TI_symbol_name("_a1")
     240                      .dwattr $C$DW$21, DW_AT_type(*$C$DW$T$36)
     241                      .dwattr $C$DW$21, DW_AT_location[DW_OP_reg0]
     242              
     243                      .dwcfi  cfa_offset, -2
     244                      .dwcfi  save_reg_to_mem, 26, 0
     245                      .dwpsn  file "../modules/source/filter_fo.c",line 114,column 3,is_stmt,isa 0
     246 00000009 1EC4          MOVL      *+XAR4[0],ACC         ; [CPU_] |114| 
     247              $C$DW$22        .dwtag  DW_TAG_TI_branch
     248                      .dwattr $C$DW$22, DW_AT_low_pc(0x00)
     249                      .dwattr $C$DW$22, DW_AT_TI_return
     250              
     251 0000000a 0006          LRETR     ; [CPU_] 
     252                      ; return occurs ; [] 
     253                      .dwattr $C$DW$17, DW_AT_TI_end_file("../modules/source/filter_fo.c")
     254                      .dwattr $C$DW$17, DW_AT_TI_end_line(0x75)
     255                      .dwattr $C$DW$17, DW_AT_TI_end_column(0x01)
     256                      .dwendentry
     257                      .dwendtag $C$DW$17
     258              
     259 0000000b               .sect   ".text"
     260                      .clink
     261                      .global _FILTER_FO_init
     262              
     263              $C$DW$23        .dwtag  DW_TAG_subprogram
     264                      .dwattr $C$DW$23, DW_AT_name("FILTER_FO_init")
     265                      .dwattr $C$DW$23, DW_AT_low_pc(_FILTER_FO_init)
     266                      .dwattr $C$DW$23, DW_AT_high_pc(0x00)
     267                      .dwattr $C$DW$23, DW_AT_TI_symbol_name("_FILTER_FO_init")
     268                      .dwattr $C$DW$23, DW_AT_external
     269                      .dwattr $C$DW$23, DW_AT_type(*$C$DW$T$25)
     270                      .dwattr $C$DW$23, DW_AT_TI_begin_file("../modules/source/filter_fo.c")
     271                      .dwattr $C$DW$23, DW_AT_TI_begin_line(0x5e)
     272                      .dwattr $C$DW$23, DW_AT_TI_begin_column(0x12)
     273                      .dwattr $C$DW$23, DW_AT_TI_max_frame_size(-2)
     274                      .dwpsn  file "../modules/source/filter_fo.c",line 95,column 1,is_stmt,address _FILTER_FO_init,isa 0
     275              
TMS320C2000 Assembler PC v15.12.3 Tue Sep 20 20:30:18 2016

Tools Copyright (c) 1996-2015 Texas Instruments Incorporated
C:\Users\MaCHaDo\AppData\Local\Temp\1790010                          PAGE    6

     276                      .dwfde $C$DW$CIE, _FILTER_FO_init
     277              $C$DW$24        .dwtag  DW_TAG_formal_parameter
     278                      .dwattr $C$DW$24, DW_AT_name("pMemory")
     279                      .dwattr $C$DW$24, DW_AT_TI_symbol_name("_pMemory")
     280                      .dwattr $C$DW$24, DW_AT_type(*$C$DW$T$3)
     281                      .dwattr $C$DW$24, DW_AT_location[DW_OP_reg12]
     282              
     283              $C$DW$25        .dwtag  DW_TAG_formal_parameter
     284                      .dwattr $C$DW$25, DW_AT_name("numBytes")
     285                      .dwattr $C$DW$25, DW_AT_TI_symbol_name("_numBytes")
     286                      .dwattr $C$DW$25, DW_AT_type(*$C$DW$T$28)
     287                      .dwattr $C$DW$25, DW_AT_location[DW_OP_reg0]
     288              
     289              
     290              ;***************************************************************
     291              ;* FNAME: _FILTER_FO_init               FR SIZE:   0           *
     292              ;*                                                             *
     293              ;* FUNCTION ENVIRONMENT                                        *
     294              ;*                                                             *
     295              ;* FUNCTION PROPERTIES                                         *
     296              ;*                            0 Parameter,  0 Auto,  0 SOE     *
     297              ;***************************************************************
     298              
     299              _FILTER_FO_init:
     300              ;* AR6   assigned to _numBytes
     301              $C$DW$26        .dwtag  DW_TAG_variable
     302                      .dwattr $C$DW$26, DW_AT_name("numBytes")
     303                      .dwattr $C$DW$26, DW_AT_TI_symbol_name("_numBytes")
     304                      .dwattr $C$DW$26, DW_AT_type(*$C$DW$T$28)
     305                      .dwattr $C$DW$26, DW_AT_location[DW_OP_reg16]
     306              
     307                      .dwcfi  cfa_offset, -2
     308                      .dwcfi  save_reg_to_mem, 26, 0
     309 0000000b 1EA6          MOVL      XAR6,ACC              ; [CPU_] |95| 
     310                      .dwpsn  file "../modules/source/filter_fo.c",line 100,column 5,is_stmt,isa 0
     311 0000000c 020A          MOVB      ACC,#10               ; [CPU_] |100| 
     312 0000000d 0FA6          CMPL      ACC,XAR6              ; [CPU_] |100| 
     313 0000000e 6902          B         $C$L1,LOS             ; [CPU_] |100| 
     314                      ; branchcc occurs ; [] |100| 
     315 0000000f D400          MOVB      XAR4,#0               ; [CPU_] |100| 
     316              $C$L1:    
     317              $C$DW$27        .dwtag  DW_TAG_TI_branch
     318                      .dwattr $C$DW$27, DW_AT_low_pc(0x00)
     319                      .dwattr $C$DW$27, DW_AT_TI_return
     320              
     321 00000010 0006          LRETR     ; [CPU_] 
     322                      ; return occurs ; [] 
     323                      .dwattr $C$DW$23, DW_AT_TI_end_file("../modules/source/filter_fo.c")
     324                      .dwattr $C$DW$23, DW_AT_TI_end_line(0x6a)
     325                      .dwattr $C$DW$23, DW_AT_TI_end_column(0x01)
     326                      .dwendentry
     327                      .dwendtag $C$DW$23
     328              
     329 00000011               .sect   ".text"
     330                      .clink
TMS320C2000 Assembler PC v15.12.3 Tue Sep 20 20:30:18 2016

Tools Copyright (c) 1996-2015 Texas Instruments Incorporated
C:\Users\MaCHaDo\AppData\Local\Temp\1790010                          PAGE    7

     331                      .global _FILTER_FO_getNumCoeffs
     332              
     333              $C$DW$28        .dwtag  DW_TAG_subprogram
     334                      .dwattr $C$DW$28, DW_AT_name("FILTER_FO_getNumCoeffs")
     335                      .dwattr $C$DW$28, DW_AT_low_pc(_FILTER_FO_getNumCoeffs)
     336                      .dwattr $C$DW$28, DW_AT_high_pc(0x00)
     337                      .dwattr $C$DW$28, DW_AT_TI_symbol_name("_FILTER_FO_getNumCoeffs")
     338                      .dwattr $C$DW$28, DW_AT_external
     339                      .dwattr $C$DW$28, DW_AT_TI_begin_file("../modules/source/filter_fo.c")
     340                      .dwattr $C$DW$28, DW_AT_TI_begin_line(0x52)
     341                      .dwattr $C$DW$28, DW_AT_TI_begin_column(0x06)
     342                      .dwattr $C$DW$28, DW_AT_TI_max_frame_size(-2)
     343                      .dwpsn  file "../modules/source/filter_fo.c",line 83,column 1,is_stmt,address _FILTER_FO_getNumCoeffs
     344              
     345                      .dwfde $C$DW$CIE, _FILTER_FO_getNumCoeffs
     346              $C$DW$29        .dwtag  DW_TAG_formal_parameter
     347                      .dwattr $C$DW$29, DW_AT_name("handle")
     348                      .dwattr $C$DW$29, DW_AT_TI_symbol_name("_handle")
     349                      .dwattr $C$DW$29, DW_AT_type(*$C$DW$T$25)
     350                      .dwattr $C$DW$29, DW_AT_location[DW_OP_reg12]
     351              
     352              $C$DW$30        .dwtag  DW_TAG_formal_parameter
     353                      .dwattr $C$DW$30, DW_AT_name("pb0")
     354                      .dwattr $C$DW$30, DW_AT_TI_symbol_name("_pb0")
     355                      .dwattr $C$DW$30, DW_AT_type(*$C$DW$T$33)
     356                      .dwattr $C$DW$30, DW_AT_location[DW_OP_reg14]
     357              
     358              $C$DW$31        .dwtag  DW_TAG_formal_parameter
     359                      .dwattr $C$DW$31, DW_AT_name("pb1")
     360                      .dwattr $C$DW$31, DW_AT_TI_symbol_name("_pb1")
     361                      .dwattr $C$DW$31, DW_AT_type(*$C$DW$T$33)
     362                      .dwattr $C$DW$31, DW_AT_location[DW_OP_breg20 -4]
     363              
     364              
     365              ;***************************************************************
     366              ;* FNAME: _FILTER_FO_getNumCoeffs       FR SIZE:   0           *
     367              ;*                                                             *
     368              ;* FUNCTION ENVIRONMENT                                        *
     369              ;*                                                             *
     370              ;* FUNCTION PROPERTIES                                         *
     371              ;*                            0 Parameter,  0 Auto,  0 SOE     *
     372              ;***************************************************************
     373              
     374              _FILTER_FO_getNumCoeffs:
     375              ;* AR4   assigned to _handle
     376              $C$DW$32        .dwtag  DW_TAG_variable
     377                      .dwattr $C$DW$32, DW_AT_name("handle")
     378                      .dwattr $C$DW$32, DW_AT_TI_symbol_name("_handle")
     379                      .dwattr $C$DW$32, DW_AT_type(*$C$DW$T$26)
     380                      .dwattr $C$DW$32, DW_AT_location[DW_OP_reg12]
     381              
     382              ;* AR5   assigned to _pb0
     383              $C$DW$33        .dwtag  DW_TAG_variable
     384                      .dwattr $C$DW$33, DW_AT_name("pb0")
     385                      .dwattr $C$DW$33, DW_AT_TI_symbol_name("_pb0")
TMS320C2000 Assembler PC v15.12.3 Tue Sep 20 20:30:18 2016

Tools Copyright (c) 1996-2015 Texas Instruments Incorporated
C:\Users\MaCHaDo\AppData\Local\Temp\1790010                          PAGE    8

     386                      .dwattr $C$DW$33, DW_AT_type(*$C$DW$T$42)
     387                      .dwattr $C$DW$33, DW_AT_location[DW_OP_reg14]
     388              
     389              ;* AR6   assigned to _pb1
     390              $C$DW$34        .dwtag  DW_TAG_variable
     391                      .dwattr $C$DW$34, DW_AT_name("pb1")
     392                      .dwattr $C$DW$34, DW_AT_TI_symbol_name("_pb1")
     393                      .dwattr $C$DW$34, DW_AT_type(*$C$DW$T$42)
     394                      .dwattr $C$DW$34, DW_AT_location[DW_OP_reg16]
     395              
     396                      .dwcfi  cfa_offset, -2
     397                      .dwcfi  save_reg_to_mem, 26, 0
     398 00000011 C444          MOVL      XAR6,*-SP[4]          ; [CPU_] |83| 
     399                      .dwpsn  file "../modules/source/filter_fo.c",line 87,column 3,is_stmt,isa 0
     400 00000012 06D4          MOVL      ACC,*+XAR4[2]         ; [CPU_] |87| 
     401 00000013 1EC5          MOVL      *+XAR5[0],ACC         ; [CPU_] |87| 
     402                      .dwpsn  file "../modules/source/filter_fo.c",line 88,column 3,is_stmt,isa 0
     403 00000014 06E4          MOVL      ACC,*+XAR4[4]         ; [CPU_] |88| 
     404 00000015 1EC6          MOVL      *+XAR6[0],ACC         ; [CPU_] |88| 
     405              $C$DW$35        .dwtag  DW_TAG_TI_branch
     406                      .dwattr $C$DW$35, DW_AT_low_pc(0x00)
     407                      .dwattr $C$DW$35, DW_AT_TI_return
     408              
     409 00000016 0006          LRETR     ; [CPU_] 
     410                      ; return occurs ; [] 
     411                      .dwattr $C$DW$28, DW_AT_TI_end_file("../modules/source/filter_fo.c")
     412                      .dwattr $C$DW$28, DW_AT_TI_end_line(0x5b)
     413                      .dwattr $C$DW$28, DW_AT_TI_end_column(0x01)
     414                      .dwendentry
     415                      .dwendtag $C$DW$28
     416              
     417 00000017               .sect   ".text"
     418                      .clink
     419                      .global _FILTER_FO_getInitialConditions
     420              
     421              $C$DW$36        .dwtag  DW_TAG_subprogram
     422                      .dwattr $C$DW$36, DW_AT_name("FILTER_FO_getInitialConditions")
     423                      .dwattr $C$DW$36, DW_AT_low_pc(_FILTER_FO_getInitialConditions)
     424                      .dwattr $C$DW$36, DW_AT_high_pc(0x00)
     425                      .dwattr $C$DW$36, DW_AT_TI_symbol_name("_FILTER_FO_getInitialConditions")
     426                      .dwattr $C$DW$36, DW_AT_external
     427                      .dwattr $C$DW$36, DW_AT_TI_begin_file("../modules/source/filter_fo.c")
     428                      .dwattr $C$DW$36, DW_AT_TI_begin_line(0x45)
     429                      .dwattr $C$DW$36, DW_AT_TI_begin_column(0x06)
     430                      .dwattr $C$DW$36, DW_AT_TI_max_frame_size(-2)
     431                      .dwpsn  file "../modules/source/filter_fo.c",line 70,column 1,is_stmt,address _FILTER_FO_getInitialCo
     432              
     433                      .dwfde $C$DW$CIE, _FILTER_FO_getInitialConditions
     434              $C$DW$37        .dwtag  DW_TAG_formal_parameter
     435                      .dwattr $C$DW$37, DW_AT_name("handle")
     436                      .dwattr $C$DW$37, DW_AT_TI_symbol_name("_handle")
     437                      .dwattr $C$DW$37, DW_AT_type(*$C$DW$T$25)
     438                      .dwattr $C$DW$37, DW_AT_location[DW_OP_reg12]
     439              
     440              $C$DW$38        .dwtag  DW_TAG_formal_parameter
TMS320C2000 Assembler PC v15.12.3 Tue Sep 20 20:30:18 2016

Tools Copyright (c) 1996-2015 Texas Instruments Incorporated
C:\Users\MaCHaDo\AppData\Local\Temp\1790010                          PAGE    9

     441                      .dwattr $C$DW$38, DW_AT_name("px1")
     442                      .dwattr $C$DW$38, DW_AT_TI_symbol_name("_px1")
     443                      .dwattr $C$DW$38, DW_AT_type(*$C$DW$T$33)
     444                      .dwattr $C$DW$38, DW_AT_location[DW_OP_reg14]
     445              
     446              $C$DW$39        .dwtag  DW_TAG_formal_parameter
     447                      .dwattr $C$DW$39, DW_AT_name("py1")
     448                      .dwattr $C$DW$39, DW_AT_TI_symbol_name("_py1")
     449                      .dwattr $C$DW$39, DW_AT_type(*$C$DW$T$33)
     450                      .dwattr $C$DW$39, DW_AT_location[DW_OP_breg20 -4]
     451              
     452              
     453              ;***************************************************************
     454              ;* FNAME: _FILTER_FO_getInitialConditions FR SIZE:   0           *
     455              ;*                                                             *
     456              ;* FUNCTION ENVIRONMENT                                        *
     457              ;*                                                             *
     458              ;* FUNCTION PROPERTIES                                         *
     459              ;*                            0 Parameter,  0 Auto,  0 SOE     *
     460              ;***************************************************************
     461              
     462              _FILTER_FO_getInitialConditions:
     463              ;* AR4   assigned to _handle
     464              $C$DW$40        .dwtag  DW_TAG_variable
     465                      .dwattr $C$DW$40, DW_AT_name("handle")
     466                      .dwattr $C$DW$40, DW_AT_TI_symbol_name("_handle")
     467                      .dwattr $C$DW$40, DW_AT_type(*$C$DW$T$26)
     468                      .dwattr $C$DW$40, DW_AT_location[DW_OP_reg12]
     469              
     470              ;* AR5   assigned to _px1
     471              $C$DW$41        .dwtag  DW_TAG_variable
     472                      .dwattr $C$DW$41, DW_AT_name("px1")
     473                      .dwattr $C$DW$41, DW_AT_TI_symbol_name("_px1")
     474                      .dwattr $C$DW$41, DW_AT_type(*$C$DW$T$42)
     475                      .dwattr $C$DW$41, DW_AT_location[DW_OP_reg14]
     476              
     477              ;* AR6   assigned to _py1
     478              $C$DW$42        .dwtag  DW_TAG_variable
     479                      .dwattr $C$DW$42, DW_AT_name("py1")
     480                      .dwattr $C$DW$42, DW_AT_TI_symbol_name("_py1")
     481                      .dwattr $C$DW$42, DW_AT_type(*$C$DW$T$42)
     482                      .dwattr $C$DW$42, DW_AT_location[DW_OP_reg16]
     483              
     484                      .dwcfi  cfa_offset, -2
     485                      .dwcfi  save_reg_to_mem, 26, 0
     486 00000017 C444          MOVL      XAR6,*-SP[4]          ; [CPU_] |70| 
     487                      .dwpsn  file "../modules/source/filter_fo.c",line 74,column 3,is_stmt,isa 0
     488 00000018 06F4          MOVL      ACC,*+XAR4[6]         ; [CPU_] |74| 
     489                      .dwpsn  file "../modules/source/filter_fo.c",line 76,column 3,is_stmt,isa 0
     490 00000019 D008          MOVB      XAR0,#8               ; [CPU_] |76| 
     491                      .dwpsn  file "../modules/source/filter_fo.c",line 74,column 3,is_stmt,isa 0
     492 0000001a 1EC5          MOVL      *+XAR5[0],ACC         ; [CPU_] |74| 
     493                      .dwpsn  file "../modules/source/filter_fo.c",line 76,column 3,is_stmt,isa 0
     494 0000001b 0694          MOVL      ACC,*+XAR4[AR0]       ; [CPU_] |76| 
     495 0000001c 1EC6          MOVL      *+XAR6[0],ACC         ; [CPU_] |76| 
TMS320C2000 Assembler PC v15.12.3 Tue Sep 20 20:30:18 2016

Tools Copyright (c) 1996-2015 Texas Instruments Incorporated
C:\Users\MaCHaDo\AppData\Local\Temp\1790010                          PAGE   10

     496              $C$DW$43        .dwtag  DW_TAG_TI_branch
     497                      .dwattr $C$DW$43, DW_AT_low_pc(0x00)
     498                      .dwattr $C$DW$43, DW_AT_TI_return
     499              
     500 0000001d 0006          LRETR     ; [CPU_] 
     501                      ; return occurs ; [] 
     502                      .dwattr $C$DW$36, DW_AT_TI_end_file("../modules/source/filter_fo.c")
     503                      .dwattr $C$DW$36, DW_AT_TI_end_line(0x4f)
     504                      .dwattr $C$DW$36, DW_AT_TI_end_column(0x01)
     505                      .dwendentry
     506                      .dwendtag $C$DW$36
     507              
     508 0000001e               .sect   ".text"
     509                      .clink
     510                      .global _FILTER_FO_getDenCoeffs
     511              
     512              $C$DW$44        .dwtag  DW_TAG_subprogram
     513                      .dwattr $C$DW$44, DW_AT_name("FILTER_FO_getDenCoeffs")
     514                      .dwattr $C$DW$44, DW_AT_low_pc(_FILTER_FO_getDenCoeffs)
     515                      .dwattr $C$DW$44, DW_AT_high_pc(0x00)
     516                      .dwattr $C$DW$44, DW_AT_TI_symbol_name("_FILTER_FO_getDenCoeffs")
     517                      .dwattr $C$DW$44, DW_AT_external
     518                      .dwattr $C$DW$44, DW_AT_TI_begin_file("../modules/source/filter_fo.c")
     519                      .dwattr $C$DW$44, DW_AT_TI_begin_line(0x3a)
     520                      .dwattr $C$DW$44, DW_AT_TI_begin_column(0x06)
     521                      .dwattr $C$DW$44, DW_AT_TI_max_frame_size(-2)
     522                      .dwpsn  file "../modules/source/filter_fo.c",line 59,column 1,is_stmt,address _FILTER_FO_getDenCoeffs
     523              
     524                      .dwfde $C$DW$CIE, _FILTER_FO_getDenCoeffs
     525              $C$DW$45        .dwtag  DW_TAG_formal_parameter
     526                      .dwattr $C$DW$45, DW_AT_name("handle")
     527                      .dwattr $C$DW$45, DW_AT_TI_symbol_name("_handle")
     528                      .dwattr $C$DW$45, DW_AT_type(*$C$DW$T$25)
     529                      .dwattr $C$DW$45, DW_AT_location[DW_OP_reg12]
     530              
     531              $C$DW$46        .dwtag  DW_TAG_formal_parameter
     532                      .dwattr $C$DW$46, DW_AT_name("pa1")
     533                      .dwattr $C$DW$46, DW_AT_TI_symbol_name("_pa1")
     534                      .dwattr $C$DW$46, DW_AT_type(*$C$DW$T$33)
     535                      .dwattr $C$DW$46, DW_AT_location[DW_OP_reg14]
     536              
     537              
     538              ;***************************************************************
     539              ;* FNAME: _FILTER_FO_getDenCoeffs       FR SIZE:   0           *
     540              ;*                                                             *
     541              ;* FUNCTION ENVIRONMENT                                        *
     542              ;*                                                             *
     543              ;* FUNCTION PROPERTIES                                         *
     544              ;*                            0 Parameter,  0 Auto,  0 SOE     *
     545              ;***************************************************************
     546              
     547              _FILTER_FO_getDenCoeffs:
     548              ;* AR4   assigned to _handle
     549              $C$DW$47        .dwtag  DW_TAG_variable
     550                      .dwattr $C$DW$47, DW_AT_name("handle")
TMS320C2000 Assembler PC v15.12.3 Tue Sep 20 20:30:18 2016

Tools Copyright (c) 1996-2015 Texas Instruments Incorporated
C:\Users\MaCHaDo\AppData\Local\Temp\1790010                          PAGE   11

     551                      .dwattr $C$DW$47, DW_AT_TI_symbol_name("_handle")
     552                      .dwattr $C$DW$47, DW_AT_type(*$C$DW$T$26)
     553                      .dwattr $C$DW$47, DW_AT_location[DW_OP_reg12]
     554              
     555              ;* AR5   assigned to _pa1
     556              $C$DW$48        .dwtag  DW_TAG_variable
     557                      .dwattr $C$DW$48, DW_AT_name("pa1")
     558                      .dwattr $C$DW$48, DW_AT_TI_symbol_name("_pa1")
     559                      .dwattr $C$DW$48, DW_AT_type(*$C$DW$T$42)
     560                      .dwattr $C$DW$48, DW_AT_location[DW_OP_reg14]
     561              
     562                      .dwcfi  cfa_offset, -2
     563                      .dwcfi  save_reg_to_mem, 26, 0
     564                      .dwpsn  file "../modules/source/filter_fo.c",line 63,column 3,is_stmt,isa 0
     565 0000001e 06C4          MOVL      ACC,*+XAR4[0]         ; [CPU_] |63| 
     566 0000001f 1EC5          MOVL      *+XAR5[0],ACC         ; [CPU_] |63| 
     567              $C$DW$49        .dwtag  DW_TAG_TI_branch
     568                      .dwattr $C$DW$49, DW_AT_low_pc(0x00)
     569                      .dwattr $C$DW$49, DW_AT_TI_return
     570              
     571 00000020 0006          LRETR     ; [CPU_] 
     572                      ; return occurs ; [] 
     573                      .dwattr $C$DW$44, DW_AT_TI_end_file("../modules/source/filter_fo.c")
     574                      .dwattr $C$DW$44, DW_AT_TI_end_line(0x42)
     575                      .dwattr $C$DW$44, DW_AT_TI_end_column(0x01)
     576                      .dwendentry
     577                      .dwendtag $C$DW$44
     578              
     579              
     580              ;***************************************************************
     581              ;* TYPE INFORMATION                                            *
     582              ;***************************************************************
     583              
     584              $C$DW$T$21      .dwtag  DW_TAG_structure_type
     585                      .dwattr $C$DW$T$21, DW_AT_name("_FILTER_FO_")
     586                      .dwattr $C$DW$T$21, DW_AT_byte_size(0x0a)
     587              $C$DW$50        .dwtag  DW_TAG_member
     588                      .dwattr $C$DW$50, DW_AT_type(*$C$DW$T$20)
     589                      .dwattr $C$DW$50, DW_AT_name("a1")
     590                      .dwattr $C$DW$50, DW_AT_TI_symbol_name("_a1")
     591                      .dwattr $C$DW$50, DW_AT_data_member_location[DW_OP_plus_uconst 0x0]
     592                      .dwattr $C$DW$50, DW_AT_accessibility(DW_ACCESS_public)
     593              
     594              $C$DW$51        .dwtag  DW_TAG_member
     595                      .dwattr $C$DW$51, DW_AT_type(*$C$DW$T$20)
     596                      .dwattr $C$DW$51, DW_AT_name("b0")
     597                      .dwattr $C$DW$51, DW_AT_TI_symbol_name("_b0")
     598                      .dwattr $C$DW$51, DW_AT_data_member_location[DW_OP_plus_uconst 0x2]
     599                      .dwattr $C$DW$51, DW_AT_accessibility(DW_ACCESS_public)
     600              
     601              $C$DW$52        .dwtag  DW_TAG_member
     602                      .dwattr $C$DW$52, DW_AT_type(*$C$DW$T$20)
     603                      .dwattr $C$DW$52, DW_AT_name("b1")
     604                      .dwattr $C$DW$52, DW_AT_TI_symbol_name("_b1")
     605                      .dwattr $C$DW$52, DW_AT_data_member_location[DW_OP_plus_uconst 0x4]
TMS320C2000 Assembler PC v15.12.3 Tue Sep 20 20:30:18 2016

Tools Copyright (c) 1996-2015 Texas Instruments Incorporated
C:\Users\MaCHaDo\AppData\Local\Temp\1790010                          PAGE   12

     606                      .dwattr $C$DW$52, DW_AT_accessibility(DW_ACCESS_public)
     607              
     608              $C$DW$53        .dwtag  DW_TAG_member
     609                      .dwattr $C$DW$53, DW_AT_type(*$C$DW$T$20)
     610                      .dwattr $C$DW$53, DW_AT_name("x1")
     611                      .dwattr $C$DW$53, DW_AT_TI_symbol_name("_x1")
     612                      .dwattr $C$DW$53, DW_AT_data_member_location[DW_OP_plus_uconst 0x6]
     613                      .dwattr $C$DW$53, DW_AT_accessibility(DW_ACCESS_public)
     614              
     615              $C$DW$54        .dwtag  DW_TAG_member
     616                      .dwattr $C$DW$54, DW_AT_type(*$C$DW$T$20)
     617                      .dwattr $C$DW$54, DW_AT_name("y1")
     618                      .dwattr $C$DW$54, DW_AT_TI_symbol_name("_y1")
     619                      .dwattr $C$DW$54, DW_AT_data_member_location[DW_OP_plus_uconst 0x8]
     620                      .dwattr $C$DW$54, DW_AT_accessibility(DW_ACCESS_public)
     621              
     622                      .dwendtag $C$DW$T$21
     623              
     624              $C$DW$T$22      .dwtag  DW_TAG_typedef
     625                      .dwattr $C$DW$T$22, DW_AT_name("FILTER_FO_Obj")
     626                      .dwattr $C$DW$T$22, DW_AT_type(*$C$DW$T$21)
     627                      .dwattr $C$DW$T$22, DW_AT_language(DW_LANG_C)
     628              
     629              
     630              $C$DW$T$19      .dwtag  DW_TAG_structure_type
     631                      .dwattr $C$DW$T$19, DW_AT_name("_FILTER_FO_Obj_")
     632                      .dwattr $C$DW$T$19, DW_AT_declaration
     633                      .dwendtag $C$DW$T$19
     634              
     635              $C$DW$T$24      .dwtag  DW_TAG_pointer_type
     636                      .dwattr $C$DW$T$24, DW_AT_type(*$C$DW$T$19)
     637                      .dwattr $C$DW$T$24, DW_AT_address_class(0x20)
     638              
     639              $C$DW$T$25      .dwtag  DW_TAG_typedef
     640                      .dwattr $C$DW$T$25, DW_AT_name("FILTER_FO_Handle")
     641                      .dwattr $C$DW$T$25, DW_AT_type(*$C$DW$T$24)
     642                      .dwattr $C$DW$T$25, DW_AT_language(DW_LANG_C)
     643              
     644              $C$DW$55        .dwtag  DW_TAG_TI_far_type
     645                      .dwattr $C$DW$55, DW_AT_type(*$C$DW$T$25)
     646              
     647              $C$DW$T$26      .dwtag  DW_TAG_const_type
     648                      .dwattr $C$DW$T$26, DW_AT_type(*$C$DW$55)
     649              
     650              $C$DW$T$2       .dwtag  DW_TAG_unspecified_type
     651                      .dwattr $C$DW$T$2, DW_AT_name("void")
     652              
     653              $C$DW$T$3       .dwtag  DW_TAG_pointer_type
     654                      .dwattr $C$DW$T$3, DW_AT_type(*$C$DW$T$2)
     655                      .dwattr $C$DW$T$3, DW_AT_address_class(0x20)
     656              
     657              $C$DW$T$4       .dwtag  DW_TAG_base_type
     658                      .dwattr $C$DW$T$4, DW_AT_encoding(DW_ATE_boolean)
     659                      .dwattr $C$DW$T$4, DW_AT_name("bool")
     660                      .dwattr $C$DW$T$4, DW_AT_byte_size(0x01)
TMS320C2000 Assembler PC v15.12.3 Tue Sep 20 20:30:18 2016

Tools Copyright (c) 1996-2015 Texas Instruments Incorporated
C:\Users\MaCHaDo\AppData\Local\Temp\1790010                          PAGE   13

     661              
     662              $C$DW$T$5       .dwtag  DW_TAG_base_type
     663                      .dwattr $C$DW$T$5, DW_AT_encoding(DW_ATE_signed_char)
     664                      .dwattr $C$DW$T$5, DW_AT_name("signed char")
     665                      .dwattr $C$DW$T$5, DW_AT_byte_size(0x01)
     666              
     667              $C$DW$T$6       .dwtag  DW_TAG_base_type
     668                      .dwattr $C$DW$T$6, DW_AT_encoding(DW_ATE_unsigned_char)
     669                      .dwattr $C$DW$T$6, DW_AT_name("unsigned char")
     670                      .dwattr $C$DW$T$6, DW_AT_byte_size(0x01)
     671              
     672              $C$DW$T$7       .dwtag  DW_TAG_base_type
     673                      .dwattr $C$DW$T$7, DW_AT_encoding(DW_ATE_signed_char)
     674                      .dwattr $C$DW$T$7, DW_AT_name("wchar_t")
     675                      .dwattr $C$DW$T$7, DW_AT_byte_size(0x01)
     676              
     677              $C$DW$T$8       .dwtag  DW_TAG_base_type
     678                      .dwattr $C$DW$T$8, DW_AT_encoding(DW_ATE_signed)
     679                      .dwattr $C$DW$T$8, DW_AT_name("short")
     680                      .dwattr $C$DW$T$8, DW_AT_byte_size(0x01)
     681              
     682              $C$DW$T$9       .dwtag  DW_TAG_base_type
     683                      .dwattr $C$DW$T$9, DW_AT_encoding(DW_ATE_unsigned)
     684                      .dwattr $C$DW$T$9, DW_AT_name("unsigned short")
     685                      .dwattr $C$DW$T$9, DW_AT_byte_size(0x01)
     686              
     687              $C$DW$T$10      .dwtag  DW_TAG_base_type
     688                      .dwattr $C$DW$T$10, DW_AT_encoding(DW_ATE_signed)
     689                      .dwattr $C$DW$T$10, DW_AT_name("int")
     690                      .dwattr $C$DW$T$10, DW_AT_byte_size(0x01)
     691              
     692              $C$DW$T$11      .dwtag  DW_TAG_base_type
     693                      .dwattr $C$DW$T$11, DW_AT_encoding(DW_ATE_unsigned)
     694                      .dwattr $C$DW$T$11, DW_AT_name("unsigned int")
     695                      .dwattr $C$DW$T$11, DW_AT_byte_size(0x01)
     696              
     697              $C$DW$T$12      .dwtag  DW_TAG_base_type
     698                      .dwattr $C$DW$T$12, DW_AT_encoding(DW_ATE_signed)
     699                      .dwattr $C$DW$T$12, DW_AT_name("long")
     700                      .dwattr $C$DW$T$12, DW_AT_byte_size(0x02)
     701              
     702              $C$DW$T$20      .dwtag  DW_TAG_typedef
     703                      .dwattr $C$DW$T$20, DW_AT_name("_iq")
     704                      .dwattr $C$DW$T$20, DW_AT_type(*$C$DW$T$12)
     705                      .dwattr $C$DW$T$20, DW_AT_language(DW_LANG_C)
     706              
     707              $C$DW$T$33      .dwtag  DW_TAG_pointer_type
     708                      .dwattr $C$DW$T$33, DW_AT_type(*$C$DW$T$20)
     709                      .dwattr $C$DW$T$33, DW_AT_address_class(0x20)
     710              
     711              $C$DW$56        .dwtag  DW_TAG_TI_far_type
     712                      .dwattr $C$DW$56, DW_AT_type(*$C$DW$T$33)
     713              
     714              $C$DW$T$42      .dwtag  DW_TAG_const_type
     715                      .dwattr $C$DW$T$42, DW_AT_type(*$C$DW$56)
TMS320C2000 Assembler PC v15.12.3 Tue Sep 20 20:30:18 2016

Tools Copyright (c) 1996-2015 Texas Instruments Incorporated
C:\Users\MaCHaDo\AppData\Local\Temp\1790010                          PAGE   14

     716              
     717              $C$DW$57        .dwtag  DW_TAG_TI_far_type
     718                      .dwattr $C$DW$57, DW_AT_type(*$C$DW$T$20)
     719              
     720              $C$DW$T$36      .dwtag  DW_TAG_const_type
     721                      .dwattr $C$DW$T$36, DW_AT_type(*$C$DW$57)
     722              
     723              $C$DW$T$13      .dwtag  DW_TAG_base_type
     724                      .dwattr $C$DW$T$13, DW_AT_encoding(DW_ATE_unsigned)
     725                      .dwattr $C$DW$T$13, DW_AT_name("unsigned long")
     726                      .dwattr $C$DW$T$13, DW_AT_byte_size(0x02)
     727              
     728              $C$DW$T$27      .dwtag  DW_TAG_typedef
     729                      .dwattr $C$DW$T$27, DW_AT_name("size_t")
     730                      .dwattr $C$DW$T$27, DW_AT_type(*$C$DW$T$13)
     731                      .dwattr $C$DW$T$27, DW_AT_language(DW_LANG_C)
     732              
     733              $C$DW$58        .dwtag  DW_TAG_TI_far_type
     734                      .dwattr $C$DW$58, DW_AT_type(*$C$DW$T$27)
     735              
     736              $C$DW$T$28      .dwtag  DW_TAG_const_type
     737                      .dwattr $C$DW$T$28, DW_AT_type(*$C$DW$58)
     738              
     739              $C$DW$T$14      .dwtag  DW_TAG_base_type
     740                      .dwattr $C$DW$T$14, DW_AT_encoding(DW_ATE_signed)
     741                      .dwattr $C$DW$T$14, DW_AT_name("long long")
     742                      .dwattr $C$DW$T$14, DW_AT_byte_size(0x04)
     743              
     744              $C$DW$T$15      .dwtag  DW_TAG_base_type
     745                      .dwattr $C$DW$T$15, DW_AT_encoding(DW_ATE_unsigned)
     746                      .dwattr $C$DW$T$15, DW_AT_name("unsigned long long")
     747                      .dwattr $C$DW$T$15, DW_AT_byte_size(0x04)
     748              
     749              $C$DW$T$16      .dwtag  DW_TAG_base_type
     750                      .dwattr $C$DW$T$16, DW_AT_encoding(DW_ATE_float)
     751                      .dwattr $C$DW$T$16, DW_AT_name("float")
     752                      .dwattr $C$DW$T$16, DW_AT_byte_size(0x02)
     753              
     754              $C$DW$T$17      .dwtag  DW_TAG_base_type
     755                      .dwattr $C$DW$T$17, DW_AT_encoding(DW_ATE_float)
     756                      .dwattr $C$DW$T$17, DW_AT_name("double")
     757                      .dwattr $C$DW$T$17, DW_AT_byte_size(0x02)
     758              
     759              $C$DW$T$18      .dwtag  DW_TAG_base_type
     760                      .dwattr $C$DW$T$18, DW_AT_encoding(DW_ATE_float)
     761                      .dwattr $C$DW$T$18, DW_AT_name("long double")
     762                      .dwattr $C$DW$T$18, DW_AT_byte_size(0x04)
     763              
     764                      .dwattr $C$DW$CU, DW_AT_language(DW_LANG_C)
     765              
     766              ;***************************************************************
     767              ;* DWARF CIE ENTRIES                                           *
     768              ;***************************************************************
     769              
     770              $C$DW$CIE       .dwcie 26
TMS320C2000 Assembler PC v15.12.3 Tue Sep 20 20:30:18 2016

Tools Copyright (c) 1996-2015 Texas Instruments Incorporated
C:\Users\MaCHaDo\AppData\Local\Temp\1790010                          PAGE   15

     771                      .dwcfi  cfa_register, 20
     772                      .dwcfi  cfa_offset, 0
     773                      .dwcfi  undefined, 0
     774                      .dwcfi  undefined, 1
     775                      .dwcfi  undefined, 2
     776                      .dwcfi  undefined, 3
     777                      .dwcfi  undefined, 20
     778                      .dwcfi  undefined, 21
     779                      .dwcfi  undefined, 22
     780                      .dwcfi  undefined, 23
     781                      .dwcfi  undefined, 24
     782                      .dwcfi  undefined, 25
     783                      .dwcfi  undefined, 26
     784                      .dwcfi  same_value, 28
     785                      .dwcfi  undefined, 29
     786                      .dwcfi  undefined, 30
     787                      .dwcfi  undefined, 31
     788                      .dwcfi  undefined, 32
     789                      .dwcfi  undefined, 33
     790                      .dwcfi  undefined, 34
     791                      .dwcfi  undefined, 35
     792                      .dwcfi  undefined, 36
     793                      .dwcfi  undefined, 37
     794                      .dwcfi  undefined, 38
     795                      .dwcfi  undefined, 75
     796                      .dwcfi  undefined, 76
     797                      .dwcfi  undefined, 77
     798                      .dwcfi  undefined, 4
     799                      .dwcfi  undefined, 5
     800                      .dwcfi  same_value, 6
     801                      .dwcfi  same_value, 7
     802                      .dwcfi  same_value, 8
     803                      .dwcfi  same_value, 9
     804                      .dwcfi  same_value, 10
     805                      .dwcfi  same_value, 11
     806                      .dwcfi  undefined, 12
     807                      .dwcfi  undefined, 13
     808                      .dwcfi  undefined, 14
     809                      .dwcfi  undefined, 15
     810                      .dwcfi  undefined, 16
     811                      .dwcfi  undefined, 17
     812                      .dwcfi  undefined, 18
     813                      .dwcfi  undefined, 19
     814                      .dwendentry
     815              
     816              ;***************************************************************
     817              ;* DWARF REGISTER MAP                                          *
     818              ;***************************************************************
     819              
     820              $C$DW$59        .dwtag  DW_TAG_TI_assign_register
     821                      .dwattr $C$DW$59, DW_AT_name("AL")
     822                      .dwattr $C$DW$59, DW_AT_location[DW_OP_reg0]
     823              
     824              $C$DW$60        .dwtag  DW_TAG_TI_assign_register
     825                      .dwattr $C$DW$60, DW_AT_name("AH")
TMS320C2000 Assembler PC v15.12.3 Tue Sep 20 20:30:18 2016

Tools Copyright (c) 1996-2015 Texas Instruments Incorporated
C:\Users\MaCHaDo\AppData\Local\Temp\1790010                          PAGE   16

     826                      .dwattr $C$DW$60, DW_AT_location[DW_OP_reg1]
     827              
     828              $C$DW$61        .dwtag  DW_TAG_TI_assign_register
     829                      .dwattr $C$DW$61, DW_AT_name("PL")
     830                      .dwattr $C$DW$61, DW_AT_location[DW_OP_reg2]
     831              
     832              $C$DW$62        .dwtag  DW_TAG_TI_assign_register
     833                      .dwattr $C$DW$62, DW_AT_name("PH")
     834                      .dwattr $C$DW$62, DW_AT_location[DW_OP_reg3]
     835              
     836              $C$DW$63        .dwtag  DW_TAG_TI_assign_register
     837                      .dwattr $C$DW$63, DW_AT_name("SP")
     838                      .dwattr $C$DW$63, DW_AT_location[DW_OP_reg20]
     839              
     840              $C$DW$64        .dwtag  DW_TAG_TI_assign_register
     841                      .dwattr $C$DW$64, DW_AT_name("XT")
     842                      .dwattr $C$DW$64, DW_AT_location[DW_OP_reg21]
     843              
     844              $C$DW$65        .dwtag  DW_TAG_TI_assign_register
     845                      .dwattr $C$DW$65, DW_AT_name("T")
     846                      .dwattr $C$DW$65, DW_AT_location[DW_OP_reg22]
     847              
     848              $C$DW$66        .dwtag  DW_TAG_TI_assign_register
     849                      .dwattr $C$DW$66, DW_AT_name("ST0")
     850                      .dwattr $C$DW$66, DW_AT_location[DW_OP_reg23]
     851              
     852              $C$DW$67        .dwtag  DW_TAG_TI_assign_register
     853                      .dwattr $C$DW$67, DW_AT_name("ST1")
     854                      .dwattr $C$DW$67, DW_AT_location[DW_OP_reg24]
     855              
     856              $C$DW$68        .dwtag  DW_TAG_TI_assign_register
     857                      .dwattr $C$DW$68, DW_AT_name("PC")
     858                      .dwattr $C$DW$68, DW_AT_location[DW_OP_reg25]
     859              
     860              $C$DW$69        .dwtag  DW_TAG_TI_assign_register
     861                      .dwattr $C$DW$69, DW_AT_name("RPC")
     862                      .dwattr $C$DW$69, DW_AT_location[DW_OP_reg26]
     863              
     864              $C$DW$70        .dwtag  DW_TAG_TI_assign_register
     865                      .dwattr $C$DW$70, DW_AT_name("FP")
     866                      .dwattr $C$DW$70, DW_AT_location[DW_OP_reg28]
     867              
     868              $C$DW$71        .dwtag  DW_TAG_TI_assign_register
     869                      .dwattr $C$DW$71, DW_AT_name("DP")
     870                      .dwattr $C$DW$71, DW_AT_location[DW_OP_reg29]
     871              
     872              $C$DW$72        .dwtag  DW_TAG_TI_assign_register
     873                      .dwattr $C$DW$72, DW_AT_name("SXM")
     874                      .dwattr $C$DW$72, DW_AT_location[DW_OP_reg30]
     875              
     876              $C$DW$73        .dwtag  DW_TAG_TI_assign_register
     877                      .dwattr $C$DW$73, DW_AT_name("PM")
     878                      .dwattr $C$DW$73, DW_AT_location[DW_OP_reg31]
     879              
     880              $C$DW$74        .dwtag  DW_TAG_TI_assign_register
TMS320C2000 Assembler PC v15.12.3 Tue Sep 20 20:30:18 2016

Tools Copyright (c) 1996-2015 Texas Instruments Incorporated
C:\Users\MaCHaDo\AppData\Local\Temp\1790010                          PAGE   17

     881                      .dwattr $C$DW$74, DW_AT_name("OVM")
     882                      .dwattr $C$DW$74, DW_AT_location[DW_OP_regx 0x20]
     883              
     884              $C$DW$75        .dwtag  DW_TAG_TI_assign_register
     885                      .dwattr $C$DW$75, DW_AT_name("PAGE0")
     886                      .dwattr $C$DW$75, DW_AT_location[DW_OP_regx 0x21]
     887              
     888              $C$DW$76        .dwtag  DW_TAG_TI_assign_register
     889                      .dwattr $C$DW$76, DW_AT_name("AMODE")
     890                      .dwattr $C$DW$76, DW_AT_location[DW_OP_regx 0x22]
     891              
     892              $C$DW$77        .dwtag  DW_TAG_TI_assign_register
     893                      .dwattr $C$DW$77, DW_AT_name("INTM")
     894                      .dwattr $C$DW$77, DW_AT_location[DW_OP_regx 0x23]
     895              
     896              $C$DW$78        .dwtag  DW_TAG_TI_assign_register
     897                      .dwattr $C$DW$78, DW_AT_name("IFR")
     898                      .dwattr $C$DW$78, DW_AT_location[DW_OP_regx 0x24]
     899              
     900              $C$DW$79        .dwtag  DW_TAG_TI_assign_register
     901                      .dwattr $C$DW$79, DW_AT_name("IER")
     902                      .dwattr $C$DW$79, DW_AT_location[DW_OP_regx 0x25]
     903              
     904              $C$DW$80        .dwtag  DW_TAG_TI_assign_register
     905                      .dwattr $C$DW$80, DW_AT_name("V")
     906                      .dwattr $C$DW$80, DW_AT_location[DW_OP_regx 0x26]
     907              
     908              $C$DW$81        .dwtag  DW_TAG_TI_assign_register
     909                      .dwattr $C$DW$81, DW_AT_name("PSEUDOH")
     910                      .dwattr $C$DW$81, DW_AT_location[DW_OP_regx 0x4c]
     911              
     912              $C$DW$82        .dwtag  DW_TAG_TI_assign_register
     913                      .dwattr $C$DW$82, DW_AT_name("VOL")
     914                      .dwattr $C$DW$82, DW_AT_location[DW_OP_regx 0x4d]
     915              
     916              $C$DW$83        .dwtag  DW_TAG_TI_assign_register
     917                      .dwattr $C$DW$83, DW_AT_name("AR0")
     918                      .dwattr $C$DW$83, DW_AT_location[DW_OP_reg4]
     919              
     920              $C$DW$84        .dwtag  DW_TAG_TI_assign_register
     921                      .dwattr $C$DW$84, DW_AT_name("XAR0")
     922                      .dwattr $C$DW$84, DW_AT_location[DW_OP_reg5]
     923              
     924              $C$DW$85        .dwtag  DW_TAG_TI_assign_register
     925                      .dwattr $C$DW$85, DW_AT_name("AR1")
     926                      .dwattr $C$DW$85, DW_AT_location[DW_OP_reg6]
     927              
     928              $C$DW$86        .dwtag  DW_TAG_TI_assign_register
     929                      .dwattr $C$DW$86, DW_AT_name("XAR1")
     930                      .dwattr $C$DW$86, DW_AT_location[DW_OP_reg7]
     931              
     932              $C$DW$87        .dwtag  DW_TAG_TI_assign_register
     933                      .dwattr $C$DW$87, DW_AT_name("AR2")
     934                      .dwattr $C$DW$87, DW_AT_location[DW_OP_reg8]
     935              
TMS320C2000 Assembler PC v15.12.3 Tue Sep 20 20:30:18 2016

Tools Copyright (c) 1996-2015 Texas Instruments Incorporated
C:\Users\MaCHaDo\AppData\Local\Temp\1790010                          PAGE   18

     936              $C$DW$88        .dwtag  DW_TAG_TI_assign_register
     937                      .dwattr $C$DW$88, DW_AT_name("XAR2")
     938                      .dwattr $C$DW$88, DW_AT_location[DW_OP_reg9]
     939              
     940              $C$DW$89        .dwtag  DW_TAG_TI_assign_register
     941                      .dwattr $C$DW$89, DW_AT_name("AR3")
     942                      .dwattr $C$DW$89, DW_AT_location[DW_OP_reg10]
     943              
     944              $C$DW$90        .dwtag  DW_TAG_TI_assign_register
     945                      .dwattr $C$DW$90, DW_AT_name("XAR3")
     946                      .dwattr $C$DW$90, DW_AT_location[DW_OP_reg11]
     947              
     948              $C$DW$91        .dwtag  DW_TAG_TI_assign_register
     949                      .dwattr $C$DW$91, DW_AT_name("AR4")
     950                      .dwattr $C$DW$91, DW_AT_location[DW_OP_reg12]
     951              
     952              $C$DW$92        .dwtag  DW_TAG_TI_assign_register
     953                      .dwattr $C$DW$92, DW_AT_name("XAR4")
     954                      .dwattr $C$DW$92, DW_AT_location[DW_OP_reg13]
     955              
     956              $C$DW$93        .dwtag  DW_TAG_TI_assign_register
     957                      .dwattr $C$DW$93, DW_AT_name("AR5")
     958                      .dwattr $C$DW$93, DW_AT_location[DW_OP_reg14]
     959              
     960              $C$DW$94        .dwtag  DW_TAG_TI_assign_register
     961                      .dwattr $C$DW$94, DW_AT_name("XAR5")
     962                      .dwattr $C$DW$94, DW_AT_location[DW_OP_reg15]
     963              
     964              $C$DW$95        .dwtag  DW_TAG_TI_assign_register
     965                      .dwattr $C$DW$95, DW_AT_name("AR6")
     966                      .dwattr $C$DW$95, DW_AT_location[DW_OP_reg16]
     967              
     968              $C$DW$96        .dwtag  DW_TAG_TI_assign_register
     969                      .dwattr $C$DW$96, DW_AT_name("XAR6")
     970                      .dwattr $C$DW$96, DW_AT_location[DW_OP_reg17]
     971              
     972              $C$DW$97        .dwtag  DW_TAG_TI_assign_register
     973                      .dwattr $C$DW$97, DW_AT_name("AR7")
     974                      .dwattr $C$DW$97, DW_AT_location[DW_OP_reg18]
     975              
     976              $C$DW$98        .dwtag  DW_TAG_TI_assign_register
     977                      .dwattr $C$DW$98, DW_AT_name("XAR7")
     978                      .dwattr $C$DW$98, DW_AT_location[DW_OP_reg19]
     979              
     980                      .dwendtag $C$DW$CU
     981              

No Assembly Errors, No Assembly Warnings
