TMS320C2000 Assembler PC v15.12.3 Sun Oct 30 14:02:12 2016

Tools Copyright (c) 1996-2015 Texas Instruments Incorporated
C:\Users\MaCHaDo\AppData\Local\Temp\4595610                          PAGE    1

       1              ;***************************************************************
       2              ;* TMS320C2000 C/C++ Codegen                   PC v15.12.3.LTS *
       3              ;* Date/Time created: Sun Oct 30 14:02:12 2016                 *
       4              ;***************************************************************
       5                      .compiler_opts --abi=coffabi --float_support=softlib --hll_source=on --mem_model:code=flat --mem_mode
       6        0002  FP      .set    XAR2
       7              
       8              $C$DW$CU        .dwtag  DW_TAG_compile_unit
       9                      .dwattr $C$DW$CU, DW_AT_name("../modules/source/memCopy.c")
      10                      .dwattr $C$DW$CU, DW_AT_producer("TI TMS320C2000 C/C++ Codegen PC v15.12.3.LTS Copyright (c) 1996-201
      11                      .dwattr $C$DW$CU, DW_AT_TI_version(0x01)
      12                      .dwattr $C$DW$CU, DW_AT_comp_dir("D:\Users\MaCHaDo\Documents\GitHub\LegStrong\Debug")
      13              ;       C:\ti\ccsv6\tools\compiler\c2000_15.12.3.LTS\bin\opt2000.exe C:\\Users\\MaCHaDo\\AppData\\Local\\Temp
      14              ;       C:\ti\ccsv6\tools\compiler\c2000_15.12.3.LTS\bin\ac2000.exe -@C:\\Users\\MaCHaDo\\AppData\\Local\\Tem
      15 00000000               .sect   ".text"
      16                      .clink
      17                      .global _memCopy
      18              
      19              $C$DW$1 .dwtag  DW_TAG_subprogram
      20                      .dwattr $C$DW$1, DW_AT_name("memCopy")
      21                      .dwattr $C$DW$1, DW_AT_low_pc(_memCopy)
      22                      .dwattr $C$DW$1, DW_AT_high_pc(0x00)
      23                      .dwattr $C$DW$1, DW_AT_TI_symbol_name("_memCopy")
      24                      .dwattr $C$DW$1, DW_AT_external
      25                      .dwattr $C$DW$1, DW_AT_TI_begin_file("../modules/source/memCopy.c")
      26                      .dwattr $C$DW$1, DW_AT_TI_begin_line(0x38)
      27                      .dwattr $C$DW$1, DW_AT_TI_begin_column(0x06)
      28                      .dwattr $C$DW$1, DW_AT_TI_max_frame_size(-2)
      29                      .dwpsn  file "../modules/source/memCopy.c",line 57,column 1,is_stmt,address _memCopy,isa 0
      30              
      31                      .dwfde $C$DW$CIE, _memCopy
      32              $C$DW$2 .dwtag  DW_TAG_formal_parameter
      33                      .dwattr $C$DW$2, DW_AT_name("srcStartAddr")
      34                      .dwattr $C$DW$2, DW_AT_TI_symbol_name("_srcStartAddr")
      35                      .dwattr $C$DW$2, DW_AT_type(*$C$DW$T$20)
      36                      .dwattr $C$DW$2, DW_AT_location[DW_OP_reg12]
      37              
      38              $C$DW$3 .dwtag  DW_TAG_formal_parameter
      39                      .dwattr $C$DW$3, DW_AT_name("srcEndAddr")
      40                      .dwattr $C$DW$3, DW_AT_TI_symbol_name("_srcEndAddr")
      41                      .dwattr $C$DW$3, DW_AT_type(*$C$DW$T$20)
      42                      .dwattr $C$DW$3, DW_AT_location[DW_OP_reg14]
      43              
      44              $C$DW$4 .dwtag  DW_TAG_formal_parameter
      45                      .dwattr $C$DW$4, DW_AT_name("dstAddr")
      46                      .dwattr $C$DW$4, DW_AT_TI_symbol_name("_dstAddr")
      47                      .dwattr $C$DW$4, DW_AT_type(*$C$DW$T$20)
      48                      .dwattr $C$DW$4, DW_AT_location[DW_OP_breg20 -4]
      49              
      50              
      51              ;***************************************************************
      52              ;* FNAME: _memCopy                      FR SIZE:   0           *
      53              ;*                                                             *
      54              ;* FUNCTION ENVIRONMENT                                        *
      55              ;*                                                             *
TMS320C2000 Assembler PC v15.12.3 Sun Oct 30 14:02:12 2016

Tools Copyright (c) 1996-2015 Texas Instruments Incorporated
C:\Users\MaCHaDo\AppData\Local\Temp\4595610                          PAGE    2

      56              ;* FUNCTION PROPERTIES                                         *
      57              ;*                            0 Parameter,  0 Auto,  0 SOE     *
      58              ;***************************************************************
      59              
      60              _memCopy:
      61              ;* AR5   assigned to _dstAddr
      62              $C$DW$5 .dwtag  DW_TAG_variable
      63                      .dwattr $C$DW$5, DW_AT_name("dstAddr")
      64                      .dwattr $C$DW$5, DW_AT_TI_symbol_name("_dstAddr")
      65                      .dwattr $C$DW$5, DW_AT_type(*$C$DW$T$20)
      66                      .dwattr $C$DW$5, DW_AT_location[DW_OP_reg14]
      67              
      68              ;* AL    assigned to _srcEndAddr
      69              $C$DW$6 .dwtag  DW_TAG_variable
      70                      .dwattr $C$DW$6, DW_AT_name("srcEndAddr")
      71                      .dwattr $C$DW$6, DW_AT_TI_symbol_name("_srcEndAddr")
      72                      .dwattr $C$DW$6, DW_AT_type(*$C$DW$T$24)
      73                      .dwattr $C$DW$6, DW_AT_location[DW_OP_reg0]
      74              
      75              ;* AR7   assigned to _srcStartAddr
      76              $C$DW$7 .dwtag  DW_TAG_variable
      77                      .dwattr $C$DW$7, DW_AT_name("srcStartAddr")
      78                      .dwattr $C$DW$7, DW_AT_TI_symbol_name("_srcStartAddr")
      79                      .dwattr $C$DW$7, DW_AT_type(*$C$DW$T$20)
      80                      .dwattr $C$DW$7, DW_AT_location[DW_OP_reg18]
      81              
      82              ;* AR4   assigned to $O$L1
      83                      .dwcfi  cfa_offset, -2
      84                      .dwcfi  save_reg_to_mem, 26, 0
      85 00000000 C5A4          MOVL      XAR7,XAR4             ; [CPU_] |57| 
      86 00000001 A0A9          MOVL      ACC,XAR5              ; [CPU_] |57| 
      87 00000002 8344          MOVL      XAR5,*-SP[4]          ; [CPU_] |57| 
      88                      .dwpsn  file "../modules/source/memCopy.c",line 59,column 9,is_stmt,isa 0
      89 00000003 0FA7          CMPL      ACC,XAR7              ; [CPU_] |59| 
      90 00000004 680B          B         $C$L2,LO              ; [CPU_] |59| 
      91                      ; branchcc occurs ; [] |59| 
      92 00000005 03A7          SUBL      ACC,XAR7              ; [CPU_] 
      93 00000006 8AA9          MOVL      XAR4,ACC              ; [CPU_] 
      94 00000007       $C$L1:    
      95                      .dwpsn  file "../modules/source/memCopy.c",line 61,column 7,is_stmt,isa 0
      96 00000007 92C7          MOV       AL,*XAR7              ; [CPU_] |61| 
      97 00000008 9685          MOV       *XAR5++,AL            ; [CPU_] |61| 
      98                      .dwpsn  file "../modules/source/memCopy.c",line 59,column 9,is_stmt,isa 0
      99 00000009 DC81          SUBB      XAR4,#1               ; [CPU_] |59| 
     100 0000000a 0200          MOVB      ACC,#0                ; [CPU_] |59| 
     101                      .dwpsn  file "../modules/source/memCopy.c",line 61,column 7,is_stmt,isa 0
     102 0000000b DF01          ADDB      XAR7,#1               ; [CPU_] |61| 
     103                      .dwpsn  file "../modules/source/memCopy.c",line 59,column 9,is_stmt,isa 0
     104 0000000c 1901          SUBB      ACC,#1                ; [CPU_] |59| 
     105 0000000d 0FA4          CMPL      ACC,XAR4              ; [CPU_] |59| 
     106 0000000e 60F9          B         $C$L1,NEQ             ; [CPU_] |59| 
     107                      ; branchcc occurs ; [] |59| 
     108              $C$L2:    
     109              $C$DW$8 .dwtag  DW_TAG_TI_branch
     110                      .dwattr $C$DW$8, DW_AT_low_pc(0x00)
TMS320C2000 Assembler PC v15.12.3 Sun Oct 30 14:02:12 2016

Tools Copyright (c) 1996-2015 Texas Instruments Incorporated
C:\Users\MaCHaDo\AppData\Local\Temp\4595610                          PAGE    3

     111                      .dwattr $C$DW$8, DW_AT_TI_return
     112              
     113 0000000f 0006          LRETR     ; [CPU_] 
     114                      ; return occurs ; [] 
     115                      .dwattr $C$DW$1, DW_AT_TI_end_file("../modules/source/memCopy.c")
     116                      .dwattr $C$DW$1, DW_AT_TI_end_line(0x41)
     117                      .dwattr $C$DW$1, DW_AT_TI_end_column(0x01)
     118                      .dwendentry
     119                      .dwendtag $C$DW$1
     120              
     121              
     122              ;***************************************************************
     123              ;* TYPE INFORMATION                                            *
     124              ;***************************************************************
     125              $C$DW$T$2       .dwtag  DW_TAG_unspecified_type
     126                      .dwattr $C$DW$T$2, DW_AT_name("void")
     127              
     128              $C$DW$T$4       .dwtag  DW_TAG_base_type
     129                      .dwattr $C$DW$T$4, DW_AT_encoding(DW_ATE_boolean)
     130                      .dwattr $C$DW$T$4, DW_AT_name("bool")
     131                      .dwattr $C$DW$T$4, DW_AT_byte_size(0x01)
     132              
     133              $C$DW$T$5       .dwtag  DW_TAG_base_type
     134                      .dwattr $C$DW$T$5, DW_AT_encoding(DW_ATE_signed_char)
     135                      .dwattr $C$DW$T$5, DW_AT_name("signed char")
     136                      .dwattr $C$DW$T$5, DW_AT_byte_size(0x01)
     137              
     138              $C$DW$T$6       .dwtag  DW_TAG_base_type
     139                      .dwattr $C$DW$T$6, DW_AT_encoding(DW_ATE_unsigned_char)
     140                      .dwattr $C$DW$T$6, DW_AT_name("unsigned char")
     141                      .dwattr $C$DW$T$6, DW_AT_byte_size(0x01)
     142              
     143              $C$DW$T$7       .dwtag  DW_TAG_base_type
     144                      .dwattr $C$DW$T$7, DW_AT_encoding(DW_ATE_signed_char)
     145                      .dwattr $C$DW$T$7, DW_AT_name("wchar_t")
     146                      .dwattr $C$DW$T$7, DW_AT_byte_size(0x01)
     147              
     148              $C$DW$T$8       .dwtag  DW_TAG_base_type
     149                      .dwattr $C$DW$T$8, DW_AT_encoding(DW_ATE_signed)
     150                      .dwattr $C$DW$T$8, DW_AT_name("short")
     151                      .dwattr $C$DW$T$8, DW_AT_byte_size(0x01)
     152              
     153              $C$DW$T$9       .dwtag  DW_TAG_base_type
     154                      .dwattr $C$DW$T$9, DW_AT_encoding(DW_ATE_unsigned)
     155                      .dwattr $C$DW$T$9, DW_AT_name("unsigned short")
     156                      .dwattr $C$DW$T$9, DW_AT_byte_size(0x01)
     157              
     158              $C$DW$T$10      .dwtag  DW_TAG_base_type
     159                      .dwattr $C$DW$T$10, DW_AT_encoding(DW_ATE_signed)
     160                      .dwattr $C$DW$T$10, DW_AT_name("int")
     161                      .dwattr $C$DW$T$10, DW_AT_byte_size(0x01)
     162              
     163              $C$DW$T$11      .dwtag  DW_TAG_base_type
     164                      .dwattr $C$DW$T$11, DW_AT_encoding(DW_ATE_unsigned)
     165                      .dwattr $C$DW$T$11, DW_AT_name("unsigned int")
TMS320C2000 Assembler PC v15.12.3 Sun Oct 30 14:02:12 2016

Tools Copyright (c) 1996-2015 Texas Instruments Incorporated
C:\Users\MaCHaDo\AppData\Local\Temp\4595610                          PAGE    4

     166                      .dwattr $C$DW$T$11, DW_AT_byte_size(0x01)
     167              
     168              $C$DW$T$19      .dwtag  DW_TAG_typedef
     169                      .dwattr $C$DW$T$19, DW_AT_name("uint16_t")
     170                      .dwattr $C$DW$T$19, DW_AT_type(*$C$DW$T$11)
     171                      .dwattr $C$DW$T$19, DW_AT_language(DW_LANG_C)
     172              
     173              $C$DW$T$20      .dwtag  DW_TAG_pointer_type
     174                      .dwattr $C$DW$T$20, DW_AT_type(*$C$DW$T$19)
     175                      .dwattr $C$DW$T$20, DW_AT_address_class(0x20)
     176              
     177              $C$DW$9 .dwtag  DW_TAG_TI_far_type
     178                      .dwattr $C$DW$9, DW_AT_type(*$C$DW$T$20)
     179              
     180              $C$DW$T$24      .dwtag  DW_TAG_const_type
     181                      .dwattr $C$DW$T$24, DW_AT_type(*$C$DW$9)
     182              
     183              $C$DW$T$12      .dwtag  DW_TAG_base_type
     184                      .dwattr $C$DW$T$12, DW_AT_encoding(DW_ATE_signed)
     185                      .dwattr $C$DW$T$12, DW_AT_name("long")
     186                      .dwattr $C$DW$T$12, DW_AT_byte_size(0x02)
     187              
     188              $C$DW$T$13      .dwtag  DW_TAG_base_type
     189                      .dwattr $C$DW$T$13, DW_AT_encoding(DW_ATE_unsigned)
     190                      .dwattr $C$DW$T$13, DW_AT_name("unsigned long")
     191                      .dwattr $C$DW$T$13, DW_AT_byte_size(0x02)
     192              
     193              $C$DW$T$14      .dwtag  DW_TAG_base_type
     194                      .dwattr $C$DW$T$14, DW_AT_encoding(DW_ATE_signed)
     195                      .dwattr $C$DW$T$14, DW_AT_name("long long")
     196                      .dwattr $C$DW$T$14, DW_AT_byte_size(0x04)
     197              
     198              $C$DW$T$15      .dwtag  DW_TAG_base_type
     199                      .dwattr $C$DW$T$15, DW_AT_encoding(DW_ATE_unsigned)
     200                      .dwattr $C$DW$T$15, DW_AT_name("unsigned long long")
     201                      .dwattr $C$DW$T$15, DW_AT_byte_size(0x04)
     202              
     203              $C$DW$T$16      .dwtag  DW_TAG_base_type
     204                      .dwattr $C$DW$T$16, DW_AT_encoding(DW_ATE_float)
     205                      .dwattr $C$DW$T$16, DW_AT_name("float")
     206                      .dwattr $C$DW$T$16, DW_AT_byte_size(0x02)
     207              
     208              $C$DW$T$17      .dwtag  DW_TAG_base_type
     209                      .dwattr $C$DW$T$17, DW_AT_encoding(DW_ATE_float)
     210                      .dwattr $C$DW$T$17, DW_AT_name("double")
     211                      .dwattr $C$DW$T$17, DW_AT_byte_size(0x02)
     212              
     213              $C$DW$T$18      .dwtag  DW_TAG_base_type
     214                      .dwattr $C$DW$T$18, DW_AT_encoding(DW_ATE_float)
     215                      .dwattr $C$DW$T$18, DW_AT_name("long double")
     216                      .dwattr $C$DW$T$18, DW_AT_byte_size(0x04)
     217              
     218                      .dwattr $C$DW$CU, DW_AT_language(DW_LANG_C)
     219              
     220              ;***************************************************************
TMS320C2000 Assembler PC v15.12.3 Sun Oct 30 14:02:12 2016

Tools Copyright (c) 1996-2015 Texas Instruments Incorporated
C:\Users\MaCHaDo\AppData\Local\Temp\4595610                          PAGE    5

     221              ;* DWARF CIE ENTRIES                                           *
     222              ;***************************************************************
     223              
     224              $C$DW$CIE       .dwcie 26
     225                      .dwcfi  cfa_register, 20
     226                      .dwcfi  cfa_offset, 0
     227                      .dwcfi  undefined, 0
     228                      .dwcfi  undefined, 1
     229                      .dwcfi  undefined, 2
     230                      .dwcfi  undefined, 3
     231                      .dwcfi  undefined, 20
     232                      .dwcfi  undefined, 21
     233                      .dwcfi  undefined, 22
     234                      .dwcfi  undefined, 23
     235                      .dwcfi  undefined, 24
     236                      .dwcfi  undefined, 25
     237                      .dwcfi  undefined, 26
     238                      .dwcfi  same_value, 28
     239                      .dwcfi  undefined, 29
     240                      .dwcfi  undefined, 30
     241                      .dwcfi  undefined, 31
     242                      .dwcfi  undefined, 32
     243                      .dwcfi  undefined, 33
     244                      .dwcfi  undefined, 34
     245                      .dwcfi  undefined, 35
     246                      .dwcfi  undefined, 36
     247                      .dwcfi  undefined, 37
     248                      .dwcfi  undefined, 38
     249                      .dwcfi  undefined, 75
     250                      .dwcfi  undefined, 76
     251                      .dwcfi  undefined, 77
     252                      .dwcfi  undefined, 4
     253                      .dwcfi  undefined, 5
     254                      .dwcfi  same_value, 6
     255                      .dwcfi  same_value, 7
     256                      .dwcfi  same_value, 8
     257                      .dwcfi  same_value, 9
     258                      .dwcfi  same_value, 10
     259                      .dwcfi  same_value, 11
     260                      .dwcfi  undefined, 12
     261                      .dwcfi  undefined, 13
     262                      .dwcfi  undefined, 14
     263                      .dwcfi  undefined, 15
     264                      .dwcfi  undefined, 16
     265                      .dwcfi  undefined, 17
     266                      .dwcfi  undefined, 18
     267                      .dwcfi  undefined, 19
     268                      .dwendentry
     269              
     270              ;***************************************************************
     271              ;* DWARF REGISTER MAP                                          *
     272              ;***************************************************************
     273              
     274              $C$DW$10        .dwtag  DW_TAG_TI_assign_register
     275                      .dwattr $C$DW$10, DW_AT_name("AL")
TMS320C2000 Assembler PC v15.12.3 Sun Oct 30 14:02:12 2016

Tools Copyright (c) 1996-2015 Texas Instruments Incorporated
C:\Users\MaCHaDo\AppData\Local\Temp\4595610                          PAGE    6

     276                      .dwattr $C$DW$10, DW_AT_location[DW_OP_reg0]
     277              
     278              $C$DW$11        .dwtag  DW_TAG_TI_assign_register
     279                      .dwattr $C$DW$11, DW_AT_name("AH")
     280                      .dwattr $C$DW$11, DW_AT_location[DW_OP_reg1]
     281              
     282              $C$DW$12        .dwtag  DW_TAG_TI_assign_register
     283                      .dwattr $C$DW$12, DW_AT_name("PL")
     284                      .dwattr $C$DW$12, DW_AT_location[DW_OP_reg2]
     285              
     286              $C$DW$13        .dwtag  DW_TAG_TI_assign_register
     287                      .dwattr $C$DW$13, DW_AT_name("PH")
     288                      .dwattr $C$DW$13, DW_AT_location[DW_OP_reg3]
     289              
     290              $C$DW$14        .dwtag  DW_TAG_TI_assign_register
     291                      .dwattr $C$DW$14, DW_AT_name("SP")
     292                      .dwattr $C$DW$14, DW_AT_location[DW_OP_reg20]
     293              
     294              $C$DW$15        .dwtag  DW_TAG_TI_assign_register
     295                      .dwattr $C$DW$15, DW_AT_name("XT")
     296                      .dwattr $C$DW$15, DW_AT_location[DW_OP_reg21]
     297              
     298              $C$DW$16        .dwtag  DW_TAG_TI_assign_register
     299                      .dwattr $C$DW$16, DW_AT_name("T")
     300                      .dwattr $C$DW$16, DW_AT_location[DW_OP_reg22]
     301              
     302              $C$DW$17        .dwtag  DW_TAG_TI_assign_register
     303                      .dwattr $C$DW$17, DW_AT_name("ST0")
     304                      .dwattr $C$DW$17, DW_AT_location[DW_OP_reg23]
     305              
     306              $C$DW$18        .dwtag  DW_TAG_TI_assign_register
     307                      .dwattr $C$DW$18, DW_AT_name("ST1")
     308                      .dwattr $C$DW$18, DW_AT_location[DW_OP_reg24]
     309              
     310              $C$DW$19        .dwtag  DW_TAG_TI_assign_register
     311                      .dwattr $C$DW$19, DW_AT_name("PC")
     312                      .dwattr $C$DW$19, DW_AT_location[DW_OP_reg25]
     313              
     314              $C$DW$20        .dwtag  DW_TAG_TI_assign_register
     315                      .dwattr $C$DW$20, DW_AT_name("RPC")
     316                      .dwattr $C$DW$20, DW_AT_location[DW_OP_reg26]
     317              
     318              $C$DW$21        .dwtag  DW_TAG_TI_assign_register
     319                      .dwattr $C$DW$21, DW_AT_name("FP")
     320                      .dwattr $C$DW$21, DW_AT_location[DW_OP_reg28]
     321              
     322              $C$DW$22        .dwtag  DW_TAG_TI_assign_register
     323                      .dwattr $C$DW$22, DW_AT_name("DP")
     324                      .dwattr $C$DW$22, DW_AT_location[DW_OP_reg29]
     325              
     326              $C$DW$23        .dwtag  DW_TAG_TI_assign_register
     327                      .dwattr $C$DW$23, DW_AT_name("SXM")
     328                      .dwattr $C$DW$23, DW_AT_location[DW_OP_reg30]
     329              
     330              $C$DW$24        .dwtag  DW_TAG_TI_assign_register
TMS320C2000 Assembler PC v15.12.3 Sun Oct 30 14:02:12 2016

Tools Copyright (c) 1996-2015 Texas Instruments Incorporated
C:\Users\MaCHaDo\AppData\Local\Temp\4595610                          PAGE    7

     331                      .dwattr $C$DW$24, DW_AT_name("PM")
     332                      .dwattr $C$DW$24, DW_AT_location[DW_OP_reg31]
     333              
     334              $C$DW$25        .dwtag  DW_TAG_TI_assign_register
     335                      .dwattr $C$DW$25, DW_AT_name("OVM")
     336                      .dwattr $C$DW$25, DW_AT_location[DW_OP_regx 0x20]
     337              
     338              $C$DW$26        .dwtag  DW_TAG_TI_assign_register
     339                      .dwattr $C$DW$26, DW_AT_name("PAGE0")
     340                      .dwattr $C$DW$26, DW_AT_location[DW_OP_regx 0x21]
     341              
     342              $C$DW$27        .dwtag  DW_TAG_TI_assign_register
     343                      .dwattr $C$DW$27, DW_AT_name("AMODE")
     344                      .dwattr $C$DW$27, DW_AT_location[DW_OP_regx 0x22]
     345              
     346              $C$DW$28        .dwtag  DW_TAG_TI_assign_register
     347                      .dwattr $C$DW$28, DW_AT_name("INTM")
     348                      .dwattr $C$DW$28, DW_AT_location[DW_OP_regx 0x23]
     349              
     350              $C$DW$29        .dwtag  DW_TAG_TI_assign_register
     351                      .dwattr $C$DW$29, DW_AT_name("IFR")
     352                      .dwattr $C$DW$29, DW_AT_location[DW_OP_regx 0x24]
     353              
     354              $C$DW$30        .dwtag  DW_TAG_TI_assign_register
     355                      .dwattr $C$DW$30, DW_AT_name("IER")
     356                      .dwattr $C$DW$30, DW_AT_location[DW_OP_regx 0x25]
     357              
     358              $C$DW$31        .dwtag  DW_TAG_TI_assign_register
     359                      .dwattr $C$DW$31, DW_AT_name("V")
     360                      .dwattr $C$DW$31, DW_AT_location[DW_OP_regx 0x26]
     361              
     362              $C$DW$32        .dwtag  DW_TAG_TI_assign_register
     363                      .dwattr $C$DW$32, DW_AT_name("PSEUDOH")
     364                      .dwattr $C$DW$32, DW_AT_location[DW_OP_regx 0x4c]
     365              
     366              $C$DW$33        .dwtag  DW_TAG_TI_assign_register
     367                      .dwattr $C$DW$33, DW_AT_name("VOL")
     368                      .dwattr $C$DW$33, DW_AT_location[DW_OP_regx 0x4d]
     369              
     370              $C$DW$34        .dwtag  DW_TAG_TI_assign_register
     371                      .dwattr $C$DW$34, DW_AT_name("AR0")
     372                      .dwattr $C$DW$34, DW_AT_location[DW_OP_reg4]
     373              
     374              $C$DW$35        .dwtag  DW_TAG_TI_assign_register
     375                      .dwattr $C$DW$35, DW_AT_name("XAR0")
     376                      .dwattr $C$DW$35, DW_AT_location[DW_OP_reg5]
     377              
     378              $C$DW$36        .dwtag  DW_TAG_TI_assign_register
     379                      .dwattr $C$DW$36, DW_AT_name("AR1")
     380                      .dwattr $C$DW$36, DW_AT_location[DW_OP_reg6]
     381              
     382              $C$DW$37        .dwtag  DW_TAG_TI_assign_register
     383                      .dwattr $C$DW$37, DW_AT_name("XAR1")
     384                      .dwattr $C$DW$37, DW_AT_location[DW_OP_reg7]
     385              
TMS320C2000 Assembler PC v15.12.3 Sun Oct 30 14:02:12 2016

Tools Copyright (c) 1996-2015 Texas Instruments Incorporated
C:\Users\MaCHaDo\AppData\Local\Temp\4595610                          PAGE    8

     386              $C$DW$38        .dwtag  DW_TAG_TI_assign_register
     387                      .dwattr $C$DW$38, DW_AT_name("AR2")
     388                      .dwattr $C$DW$38, DW_AT_location[DW_OP_reg8]
     389              
     390              $C$DW$39        .dwtag  DW_TAG_TI_assign_register
     391                      .dwattr $C$DW$39, DW_AT_name("XAR2")
     392                      .dwattr $C$DW$39, DW_AT_location[DW_OP_reg9]
     393              
     394              $C$DW$40        .dwtag  DW_TAG_TI_assign_register
     395                      .dwattr $C$DW$40, DW_AT_name("AR3")
     396                      .dwattr $C$DW$40, DW_AT_location[DW_OP_reg10]
     397              
     398              $C$DW$41        .dwtag  DW_TAG_TI_assign_register
     399                      .dwattr $C$DW$41, DW_AT_name("XAR3")
     400                      .dwattr $C$DW$41, DW_AT_location[DW_OP_reg11]
     401              
     402              $C$DW$42        .dwtag  DW_TAG_TI_assign_register
     403                      .dwattr $C$DW$42, DW_AT_name("AR4")
     404                      .dwattr $C$DW$42, DW_AT_location[DW_OP_reg12]
     405              
     406              $C$DW$43        .dwtag  DW_TAG_TI_assign_register
     407                      .dwattr $C$DW$43, DW_AT_name("XAR4")
     408                      .dwattr $C$DW$43, DW_AT_location[DW_OP_reg13]
     409              
     410              $C$DW$44        .dwtag  DW_TAG_TI_assign_register
     411                      .dwattr $C$DW$44, DW_AT_name("AR5")
     412                      .dwattr $C$DW$44, DW_AT_location[DW_OP_reg14]
     413              
     414              $C$DW$45        .dwtag  DW_TAG_TI_assign_register
     415                      .dwattr $C$DW$45, DW_AT_name("XAR5")
     416                      .dwattr $C$DW$45, DW_AT_location[DW_OP_reg15]
     417              
     418              $C$DW$46        .dwtag  DW_TAG_TI_assign_register
     419                      .dwattr $C$DW$46, DW_AT_name("AR6")
     420                      .dwattr $C$DW$46, DW_AT_location[DW_OP_reg16]
     421              
     422              $C$DW$47        .dwtag  DW_TAG_TI_assign_register
     423                      .dwattr $C$DW$47, DW_AT_name("XAR6")
     424                      .dwattr $C$DW$47, DW_AT_location[DW_OP_reg17]
     425              
     426              $C$DW$48        .dwtag  DW_TAG_TI_assign_register
     427                      .dwattr $C$DW$48, DW_AT_name("AR7")
     428                      .dwattr $C$DW$48, DW_AT_location[DW_OP_reg18]
     429              
     430              $C$DW$49        .dwtag  DW_TAG_TI_assign_register
     431                      .dwattr $C$DW$49, DW_AT_name("XAR7")
     432                      .dwattr $C$DW$49, DW_AT_location[DW_OP_reg19]
     433              
     434                      .dwendtag $C$DW$CU
     435              

No Assembly Errors, No Assembly Warnings
