TMS320C2000 Assembler PC v15.12.3 Tue Sep 20 20:30:26 2016

Tools Copyright (c) 1996-2015 Texas Instruments Incorporated
C:\Users\MaCHaDo\AppData\Local\Temp\2092410                          PAGE    1

       1              ;***************************************************************
       2              ;* TMS320C2000 C/C++ Codegen                   PC v15.12.3.LTS *
       3              ;* Date/Time created: Tue Sep 20 20:30:26 2016                 *
       4              ;***************************************************************
       5                      .compiler_opts --abi=coffabi --float_support=softlib --hll_source=on --mem_model:code=flat --mem_mode
       6        0002  FP      .set    XAR2
       7              
       8              $C$DW$CU        .dwtag  DW_TAG_compile_unit
       9                      .dwattr $C$DW$CU, DW_AT_name("../modules/source/park.c")
      10                      .dwattr $C$DW$CU, DW_AT_producer("TI TMS320C2000 C/C++ Codegen PC v15.12.3.LTS Copyright (c) 1996-201
      11                      .dwattr $C$DW$CU, DW_AT_TI_version(0x01)
      12                      .dwattr $C$DW$CU, DW_AT_comp_dir("D:\Users\MaCHaDo\Dropbox\Legstrong\drv8301\legstrong\LegStrong\Debu
      13              ;       C:\ti\ccsv6\tools\compiler\c2000_15.12.3.LTS\bin\opt2000.exe C:\\Users\\MaCHaDo\\AppData\\Local\\Temp
      14              ;       C:\ti\ccsv6\tools\compiler\c2000_15.12.3.LTS\bin\ac2000.exe -@C:\\Users\\MaCHaDo\\AppData\\Local\\Tem
      15 00000000               .sect   ".text"
      16                      .clink
      17                      .global _PARK_init
      18              
      19              $C$DW$1 .dwtag  DW_TAG_subprogram
      20                      .dwattr $C$DW$1, DW_AT_name("PARK_init")
      21                      .dwattr $C$DW$1, DW_AT_low_pc(_PARK_init)
      22                      .dwattr $C$DW$1, DW_AT_high_pc(0x00)
      23                      .dwattr $C$DW$1, DW_AT_TI_symbol_name("_PARK_init")
      24                      .dwattr $C$DW$1, DW_AT_external
      25                      .dwattr $C$DW$1, DW_AT_type(*$C$DW$T$22)
      26                      .dwattr $C$DW$1, DW_AT_TI_begin_file("../modules/source/park.c")
      27                      .dwattr $C$DW$1, DW_AT_TI_begin_line(0x37)
      28                      .dwattr $C$DW$1, DW_AT_TI_begin_column(0x0d)
      29                      .dwattr $C$DW$1, DW_AT_TI_max_frame_size(-2)
      30                      .dwpsn  file "../modules/source/park.c",line 56,column 1,is_stmt,address _PARK_init,isa 0
      31              
      32                      .dwfde $C$DW$CIE, _PARK_init
      33              $C$DW$2 .dwtag  DW_TAG_formal_parameter
      34                      .dwattr $C$DW$2, DW_AT_name("pMemory")
      35                      .dwattr $C$DW$2, DW_AT_TI_symbol_name("_pMemory")
      36                      .dwattr $C$DW$2, DW_AT_type(*$C$DW$T$3)
      37                      .dwattr $C$DW$2, DW_AT_location[DW_OP_reg12]
      38              
      39              $C$DW$3 .dwtag  DW_TAG_formal_parameter
      40                      .dwattr $C$DW$3, DW_AT_name("numBytes")
      41                      .dwattr $C$DW$3, DW_AT_TI_symbol_name("_numBytes")
      42                      .dwattr $C$DW$3, DW_AT_type(*$C$DW$T$24)
      43                      .dwattr $C$DW$3, DW_AT_location[DW_OP_reg0]
      44              
      45              
      46              ;***************************************************************
      47              ;* FNAME: _PARK_init                    FR SIZE:   0           *
      48              ;*                                                             *
      49              ;* FUNCTION ENVIRONMENT                                        *
      50              ;*                                                             *
      51              ;* FUNCTION PROPERTIES                                         *
      52              ;*                            0 Parameter,  0 Auto,  0 SOE     *
      53              ;***************************************************************
      54              
      55              _PARK_init:
TMS320C2000 Assembler PC v15.12.3 Tue Sep 20 20:30:26 2016

Tools Copyright (c) 1996-2015 Texas Instruments Incorporated
C:\Users\MaCHaDo\AppData\Local\Temp\2092410                          PAGE    2

      56              ;* AR6   assigned to _numBytes
      57              $C$DW$4 .dwtag  DW_TAG_variable
      58                      .dwattr $C$DW$4, DW_AT_name("numBytes")
      59                      .dwattr $C$DW$4, DW_AT_TI_symbol_name("_numBytes")
      60                      .dwattr $C$DW$4, DW_AT_type(*$C$DW$T$24)
      61                      .dwattr $C$DW$4, DW_AT_location[DW_OP_reg16]
      62              
      63                      .dwcfi  cfa_offset, -2
      64                      .dwcfi  save_reg_to_mem, 26, 0
      65 00000000 1EA6          MOVL      XAR6,ACC              ; [CPU_] |56| 
      66                      .dwpsn  file "../modules/source/park.c",line 60,column 5,is_stmt,isa 0
      67 00000001 0204          MOVB      ACC,#4                ; [CPU_] |60| 
      68 00000002 0FA6          CMPL      ACC,XAR6              ; [CPU_] |60| 
      69 00000003 6902          B         $C$L1,LOS             ; [CPU_] |60| 
      70                      ; branchcc occurs ; [] |60| 
      71 00000004 D400          MOVB      XAR4,#0               ; [CPU_] |60| 
      72              $C$L1:    
      73              $C$DW$5 .dwtag  DW_TAG_TI_branch
      74                      .dwattr $C$DW$5, DW_AT_low_pc(0x00)
      75                      .dwattr $C$DW$5, DW_AT_TI_return
      76              
      77 00000005 0006          LRETR     ; [CPU_] 
      78                      ; return occurs ; [] 
      79                      .dwattr $C$DW$1, DW_AT_TI_end_file("../modules/source/park.c")
      80                      .dwattr $C$DW$1, DW_AT_TI_end_line(0x42)
      81                      .dwattr $C$DW$1, DW_AT_TI_end_column(0x01)
      82                      .dwendentry
      83                      .dwendtag $C$DW$1
      84              
      85              
      86              ;***************************************************************
      87              ;* TYPE INFORMATION                                            *
      88              ;***************************************************************
      89              
      90              $C$DW$T$20      .dwtag  DW_TAG_structure_type
      91                      .dwattr $C$DW$T$20, DW_AT_name("_PARK_Obj_")
      92                      .dwattr $C$DW$T$20, DW_AT_byte_size(0x04)
      93              $C$DW$6 .dwtag  DW_TAG_member
      94                      .dwattr $C$DW$6, DW_AT_type(*$C$DW$T$19)
      95                      .dwattr $C$DW$6, DW_AT_name("sinTh")
      96                      .dwattr $C$DW$6, DW_AT_TI_symbol_name("_sinTh")
      97                      .dwattr $C$DW$6, DW_AT_data_member_location[DW_OP_plus_uconst 0x0]
      98                      .dwattr $C$DW$6, DW_AT_accessibility(DW_ACCESS_public)
      99              
     100              $C$DW$7 .dwtag  DW_TAG_member
     101                      .dwattr $C$DW$7, DW_AT_type(*$C$DW$T$19)
     102                      .dwattr $C$DW$7, DW_AT_name("cosTh")
     103                      .dwattr $C$DW$7, DW_AT_TI_symbol_name("_cosTh")
     104                      .dwattr $C$DW$7, DW_AT_data_member_location[DW_OP_plus_uconst 0x2]
     105                      .dwattr $C$DW$7, DW_AT_accessibility(DW_ACCESS_public)
     106              
     107                      .dwendtag $C$DW$T$20
     108              
     109              $C$DW$T$21      .dwtag  DW_TAG_pointer_type
     110                      .dwattr $C$DW$T$21, DW_AT_type(*$C$DW$T$20)
TMS320C2000 Assembler PC v15.12.3 Tue Sep 20 20:30:26 2016

Tools Copyright (c) 1996-2015 Texas Instruments Incorporated
C:\Users\MaCHaDo\AppData\Local\Temp\2092410                          PAGE    3

     111                      .dwattr $C$DW$T$21, DW_AT_address_class(0x20)
     112              
     113              $C$DW$T$22      .dwtag  DW_TAG_typedef
     114                      .dwattr $C$DW$T$22, DW_AT_name("PARK_Handle")
     115                      .dwattr $C$DW$T$22, DW_AT_type(*$C$DW$T$21)
     116                      .dwattr $C$DW$T$22, DW_AT_language(DW_LANG_C)
     117              
     118              $C$DW$T$2       .dwtag  DW_TAG_unspecified_type
     119                      .dwattr $C$DW$T$2, DW_AT_name("void")
     120              
     121              $C$DW$T$3       .dwtag  DW_TAG_pointer_type
     122                      .dwattr $C$DW$T$3, DW_AT_type(*$C$DW$T$2)
     123                      .dwattr $C$DW$T$3, DW_AT_address_class(0x20)
     124              
     125              $C$DW$T$4       .dwtag  DW_TAG_base_type
     126                      .dwattr $C$DW$T$4, DW_AT_encoding(DW_ATE_boolean)
     127                      .dwattr $C$DW$T$4, DW_AT_name("bool")
     128                      .dwattr $C$DW$T$4, DW_AT_byte_size(0x01)
     129              
     130              $C$DW$T$5       .dwtag  DW_TAG_base_type
     131                      .dwattr $C$DW$T$5, DW_AT_encoding(DW_ATE_signed_char)
     132                      .dwattr $C$DW$T$5, DW_AT_name("signed char")
     133                      .dwattr $C$DW$T$5, DW_AT_byte_size(0x01)
     134              
     135              $C$DW$T$6       .dwtag  DW_TAG_base_type
     136                      .dwattr $C$DW$T$6, DW_AT_encoding(DW_ATE_unsigned_char)
     137                      .dwattr $C$DW$T$6, DW_AT_name("unsigned char")
     138                      .dwattr $C$DW$T$6, DW_AT_byte_size(0x01)
     139              
     140              $C$DW$T$7       .dwtag  DW_TAG_base_type
     141                      .dwattr $C$DW$T$7, DW_AT_encoding(DW_ATE_signed_char)
     142                      .dwattr $C$DW$T$7, DW_AT_name("wchar_t")
     143                      .dwattr $C$DW$T$7, DW_AT_byte_size(0x01)
     144              
     145              $C$DW$T$8       .dwtag  DW_TAG_base_type
     146                      .dwattr $C$DW$T$8, DW_AT_encoding(DW_ATE_signed)
     147                      .dwattr $C$DW$T$8, DW_AT_name("short")
     148                      .dwattr $C$DW$T$8, DW_AT_byte_size(0x01)
     149              
     150              $C$DW$T$9       .dwtag  DW_TAG_base_type
     151                      .dwattr $C$DW$T$9, DW_AT_encoding(DW_ATE_unsigned)
     152                      .dwattr $C$DW$T$9, DW_AT_name("unsigned short")
     153                      .dwattr $C$DW$T$9, DW_AT_byte_size(0x01)
     154              
     155              $C$DW$T$10      .dwtag  DW_TAG_base_type
     156                      .dwattr $C$DW$T$10, DW_AT_encoding(DW_ATE_signed)
     157                      .dwattr $C$DW$T$10, DW_AT_name("int")
     158                      .dwattr $C$DW$T$10, DW_AT_byte_size(0x01)
     159              
     160              $C$DW$T$11      .dwtag  DW_TAG_base_type
     161                      .dwattr $C$DW$T$11, DW_AT_encoding(DW_ATE_unsigned)
     162                      .dwattr $C$DW$T$11, DW_AT_name("unsigned int")
     163                      .dwattr $C$DW$T$11, DW_AT_byte_size(0x01)
     164              
     165              $C$DW$T$12      .dwtag  DW_TAG_base_type
TMS320C2000 Assembler PC v15.12.3 Tue Sep 20 20:30:26 2016

Tools Copyright (c) 1996-2015 Texas Instruments Incorporated
C:\Users\MaCHaDo\AppData\Local\Temp\2092410                          PAGE    4

     166                      .dwattr $C$DW$T$12, DW_AT_encoding(DW_ATE_signed)
     167                      .dwattr $C$DW$T$12, DW_AT_name("long")
     168                      .dwattr $C$DW$T$12, DW_AT_byte_size(0x02)
     169              
     170              $C$DW$T$19      .dwtag  DW_TAG_typedef
     171                      .dwattr $C$DW$T$19, DW_AT_name("_iq")
     172                      .dwattr $C$DW$T$19, DW_AT_type(*$C$DW$T$12)
     173                      .dwattr $C$DW$T$19, DW_AT_language(DW_LANG_C)
     174              
     175              $C$DW$T$13      .dwtag  DW_TAG_base_type
     176                      .dwattr $C$DW$T$13, DW_AT_encoding(DW_ATE_unsigned)
     177                      .dwattr $C$DW$T$13, DW_AT_name("unsigned long")
     178                      .dwattr $C$DW$T$13, DW_AT_byte_size(0x02)
     179              
     180              $C$DW$T$23      .dwtag  DW_TAG_typedef
     181                      .dwattr $C$DW$T$23, DW_AT_name("size_t")
     182                      .dwattr $C$DW$T$23, DW_AT_type(*$C$DW$T$13)
     183                      .dwattr $C$DW$T$23, DW_AT_language(DW_LANG_C)
     184              
     185              $C$DW$8 .dwtag  DW_TAG_TI_far_type
     186                      .dwattr $C$DW$8, DW_AT_type(*$C$DW$T$23)
     187              
     188              $C$DW$T$24      .dwtag  DW_TAG_const_type
     189                      .dwattr $C$DW$T$24, DW_AT_type(*$C$DW$8)
     190              
     191              $C$DW$T$14      .dwtag  DW_TAG_base_type
     192                      .dwattr $C$DW$T$14, DW_AT_encoding(DW_ATE_signed)
     193                      .dwattr $C$DW$T$14, DW_AT_name("long long")
     194                      .dwattr $C$DW$T$14, DW_AT_byte_size(0x04)
     195              
     196              $C$DW$T$15      .dwtag  DW_TAG_base_type
     197                      .dwattr $C$DW$T$15, DW_AT_encoding(DW_ATE_unsigned)
     198                      .dwattr $C$DW$T$15, DW_AT_name("unsigned long long")
     199                      .dwattr $C$DW$T$15, DW_AT_byte_size(0x04)
     200              
     201              $C$DW$T$16      .dwtag  DW_TAG_base_type
     202                      .dwattr $C$DW$T$16, DW_AT_encoding(DW_ATE_float)
     203                      .dwattr $C$DW$T$16, DW_AT_name("float")
     204                      .dwattr $C$DW$T$16, DW_AT_byte_size(0x02)
     205              
     206              $C$DW$T$17      .dwtag  DW_TAG_base_type
     207                      .dwattr $C$DW$T$17, DW_AT_encoding(DW_ATE_float)
     208                      .dwattr $C$DW$T$17, DW_AT_name("double")
     209                      .dwattr $C$DW$T$17, DW_AT_byte_size(0x02)
     210              
     211              $C$DW$T$18      .dwtag  DW_TAG_base_type
     212                      .dwattr $C$DW$T$18, DW_AT_encoding(DW_ATE_float)
     213                      .dwattr $C$DW$T$18, DW_AT_name("long double")
     214                      .dwattr $C$DW$T$18, DW_AT_byte_size(0x04)
     215              
     216                      .dwattr $C$DW$CU, DW_AT_language(DW_LANG_C)
     217              
     218              ;***************************************************************
     219              ;* DWARF CIE ENTRIES                                           *
     220              ;***************************************************************
TMS320C2000 Assembler PC v15.12.3 Tue Sep 20 20:30:26 2016

Tools Copyright (c) 1996-2015 Texas Instruments Incorporated
C:\Users\MaCHaDo\AppData\Local\Temp\2092410                          PAGE    5

     221              
     222              $C$DW$CIE       .dwcie 26
     223                      .dwcfi  cfa_register, 20
     224                      .dwcfi  cfa_offset, 0
     225                      .dwcfi  undefined, 0
     226                      .dwcfi  undefined, 1
     227                      .dwcfi  undefined, 2
     228                      .dwcfi  undefined, 3
     229                      .dwcfi  undefined, 20
     230                      .dwcfi  undefined, 21
     231                      .dwcfi  undefined, 22
     232                      .dwcfi  undefined, 23
     233                      .dwcfi  undefined, 24
     234                      .dwcfi  undefined, 25
     235                      .dwcfi  undefined, 26
     236                      .dwcfi  same_value, 28
     237                      .dwcfi  undefined, 29
     238                      .dwcfi  undefined, 30
     239                      .dwcfi  undefined, 31
     240                      .dwcfi  undefined, 32
     241                      .dwcfi  undefined, 33
     242                      .dwcfi  undefined, 34
     243                      .dwcfi  undefined, 35
     244                      .dwcfi  undefined, 36
     245                      .dwcfi  undefined, 37
     246                      .dwcfi  undefined, 38
     247                      .dwcfi  undefined, 75
     248                      .dwcfi  undefined, 76
     249                      .dwcfi  undefined, 77
     250                      .dwcfi  undefined, 4
     251                      .dwcfi  undefined, 5
     252                      .dwcfi  same_value, 6
     253                      .dwcfi  same_value, 7
     254                      .dwcfi  same_value, 8
     255                      .dwcfi  same_value, 9
     256                      .dwcfi  same_value, 10
     257                      .dwcfi  same_value, 11
     258                      .dwcfi  undefined, 12
     259                      .dwcfi  undefined, 13
     260                      .dwcfi  undefined, 14
     261                      .dwcfi  undefined, 15
     262                      .dwcfi  undefined, 16
     263                      .dwcfi  undefined, 17
     264                      .dwcfi  undefined, 18
     265                      .dwcfi  undefined, 19
     266                      .dwendentry
     267              
     268              ;***************************************************************
     269              ;* DWARF REGISTER MAP                                          *
     270              ;***************************************************************
     271              
     272              $C$DW$9 .dwtag  DW_TAG_TI_assign_register
     273                      .dwattr $C$DW$9, DW_AT_name("AL")
     274                      .dwattr $C$DW$9, DW_AT_location[DW_OP_reg0]
     275              
TMS320C2000 Assembler PC v15.12.3 Tue Sep 20 20:30:26 2016

Tools Copyright (c) 1996-2015 Texas Instruments Incorporated
C:\Users\MaCHaDo\AppData\Local\Temp\2092410                          PAGE    6

     276              $C$DW$10        .dwtag  DW_TAG_TI_assign_register
     277                      .dwattr $C$DW$10, DW_AT_name("AH")
     278                      .dwattr $C$DW$10, DW_AT_location[DW_OP_reg1]
     279              
     280              $C$DW$11        .dwtag  DW_TAG_TI_assign_register
     281                      .dwattr $C$DW$11, DW_AT_name("PL")
     282                      .dwattr $C$DW$11, DW_AT_location[DW_OP_reg2]
     283              
     284              $C$DW$12        .dwtag  DW_TAG_TI_assign_register
     285                      .dwattr $C$DW$12, DW_AT_name("PH")
     286                      .dwattr $C$DW$12, DW_AT_location[DW_OP_reg3]
     287              
     288              $C$DW$13        .dwtag  DW_TAG_TI_assign_register
     289                      .dwattr $C$DW$13, DW_AT_name("SP")
     290                      .dwattr $C$DW$13, DW_AT_location[DW_OP_reg20]
     291              
     292              $C$DW$14        .dwtag  DW_TAG_TI_assign_register
     293                      .dwattr $C$DW$14, DW_AT_name("XT")
     294                      .dwattr $C$DW$14, DW_AT_location[DW_OP_reg21]
     295              
     296              $C$DW$15        .dwtag  DW_TAG_TI_assign_register
     297                      .dwattr $C$DW$15, DW_AT_name("T")
     298                      .dwattr $C$DW$15, DW_AT_location[DW_OP_reg22]
     299              
     300              $C$DW$16        .dwtag  DW_TAG_TI_assign_register
     301                      .dwattr $C$DW$16, DW_AT_name("ST0")
     302                      .dwattr $C$DW$16, DW_AT_location[DW_OP_reg23]
     303              
     304              $C$DW$17        .dwtag  DW_TAG_TI_assign_register
     305                      .dwattr $C$DW$17, DW_AT_name("ST1")
     306                      .dwattr $C$DW$17, DW_AT_location[DW_OP_reg24]
     307              
     308              $C$DW$18        .dwtag  DW_TAG_TI_assign_register
     309                      .dwattr $C$DW$18, DW_AT_name("PC")
     310                      .dwattr $C$DW$18, DW_AT_location[DW_OP_reg25]
     311              
     312              $C$DW$19        .dwtag  DW_TAG_TI_assign_register
     313                      .dwattr $C$DW$19, DW_AT_name("RPC")
     314                      .dwattr $C$DW$19, DW_AT_location[DW_OP_reg26]
     315              
     316              $C$DW$20        .dwtag  DW_TAG_TI_assign_register
     317                      .dwattr $C$DW$20, DW_AT_name("FP")
     318                      .dwattr $C$DW$20, DW_AT_location[DW_OP_reg28]
     319              
     320              $C$DW$21        .dwtag  DW_TAG_TI_assign_register
     321                      .dwattr $C$DW$21, DW_AT_name("DP")
     322                      .dwattr $C$DW$21, DW_AT_location[DW_OP_reg29]
     323              
     324              $C$DW$22        .dwtag  DW_TAG_TI_assign_register
     325                      .dwattr $C$DW$22, DW_AT_name("SXM")
     326                      .dwattr $C$DW$22, DW_AT_location[DW_OP_reg30]
     327              
     328              $C$DW$23        .dwtag  DW_TAG_TI_assign_register
     329                      .dwattr $C$DW$23, DW_AT_name("PM")
     330                      .dwattr $C$DW$23, DW_AT_location[DW_OP_reg31]
TMS320C2000 Assembler PC v15.12.3 Tue Sep 20 20:30:26 2016

Tools Copyright (c) 1996-2015 Texas Instruments Incorporated
C:\Users\MaCHaDo\AppData\Local\Temp\2092410                          PAGE    7

     331              
     332              $C$DW$24        .dwtag  DW_TAG_TI_assign_register
     333                      .dwattr $C$DW$24, DW_AT_name("OVM")
     334                      .dwattr $C$DW$24, DW_AT_location[DW_OP_regx 0x20]
     335              
     336              $C$DW$25        .dwtag  DW_TAG_TI_assign_register
     337                      .dwattr $C$DW$25, DW_AT_name("PAGE0")
     338                      .dwattr $C$DW$25, DW_AT_location[DW_OP_regx 0x21]
     339              
     340              $C$DW$26        .dwtag  DW_TAG_TI_assign_register
     341                      .dwattr $C$DW$26, DW_AT_name("AMODE")
     342                      .dwattr $C$DW$26, DW_AT_location[DW_OP_regx 0x22]
     343              
     344              $C$DW$27        .dwtag  DW_TAG_TI_assign_register
     345                      .dwattr $C$DW$27, DW_AT_name("INTM")
     346                      .dwattr $C$DW$27, DW_AT_location[DW_OP_regx 0x23]
     347              
     348              $C$DW$28        .dwtag  DW_TAG_TI_assign_register
     349                      .dwattr $C$DW$28, DW_AT_name("IFR")
     350                      .dwattr $C$DW$28, DW_AT_location[DW_OP_regx 0x24]
     351              
     352              $C$DW$29        .dwtag  DW_TAG_TI_assign_register
     353                      .dwattr $C$DW$29, DW_AT_name("IER")
     354                      .dwattr $C$DW$29, DW_AT_location[DW_OP_regx 0x25]
     355              
     356              $C$DW$30        .dwtag  DW_TAG_TI_assign_register
     357                      .dwattr $C$DW$30, DW_AT_name("V")
     358                      .dwattr $C$DW$30, DW_AT_location[DW_OP_regx 0x26]
     359              
     360              $C$DW$31        .dwtag  DW_TAG_TI_assign_register
     361                      .dwattr $C$DW$31, DW_AT_name("PSEUDOH")
     362                      .dwattr $C$DW$31, DW_AT_location[DW_OP_regx 0x4c]
     363              
     364              $C$DW$32        .dwtag  DW_TAG_TI_assign_register
     365                      .dwattr $C$DW$32, DW_AT_name("VOL")
     366                      .dwattr $C$DW$32, DW_AT_location[DW_OP_regx 0x4d]
     367              
     368              $C$DW$33        .dwtag  DW_TAG_TI_assign_register
     369                      .dwattr $C$DW$33, DW_AT_name("AR0")
     370                      .dwattr $C$DW$33, DW_AT_location[DW_OP_reg4]
     371              
     372              $C$DW$34        .dwtag  DW_TAG_TI_assign_register
     373                      .dwattr $C$DW$34, DW_AT_name("XAR0")
     374                      .dwattr $C$DW$34, DW_AT_location[DW_OP_reg5]
     375              
     376              $C$DW$35        .dwtag  DW_TAG_TI_assign_register
     377                      .dwattr $C$DW$35, DW_AT_name("AR1")
     378                      .dwattr $C$DW$35, DW_AT_location[DW_OP_reg6]
     379              
     380              $C$DW$36        .dwtag  DW_TAG_TI_assign_register
     381                      .dwattr $C$DW$36, DW_AT_name("XAR1")
     382                      .dwattr $C$DW$36, DW_AT_location[DW_OP_reg7]
     383              
     384              $C$DW$37        .dwtag  DW_TAG_TI_assign_register
     385                      .dwattr $C$DW$37, DW_AT_name("AR2")
TMS320C2000 Assembler PC v15.12.3 Tue Sep 20 20:30:26 2016

Tools Copyright (c) 1996-2015 Texas Instruments Incorporated
C:\Users\MaCHaDo\AppData\Local\Temp\2092410                          PAGE    8

     386                      .dwattr $C$DW$37, DW_AT_location[DW_OP_reg8]
     387              
     388              $C$DW$38        .dwtag  DW_TAG_TI_assign_register
     389                      .dwattr $C$DW$38, DW_AT_name("XAR2")
     390                      .dwattr $C$DW$38, DW_AT_location[DW_OP_reg9]
     391              
     392              $C$DW$39        .dwtag  DW_TAG_TI_assign_register
     393                      .dwattr $C$DW$39, DW_AT_name("AR3")
     394                      .dwattr $C$DW$39, DW_AT_location[DW_OP_reg10]
     395              
     396              $C$DW$40        .dwtag  DW_TAG_TI_assign_register
     397                      .dwattr $C$DW$40, DW_AT_name("XAR3")
     398                      .dwattr $C$DW$40, DW_AT_location[DW_OP_reg11]
     399              
     400              $C$DW$41        .dwtag  DW_TAG_TI_assign_register
     401                      .dwattr $C$DW$41, DW_AT_name("AR4")
     402                      .dwattr $C$DW$41, DW_AT_location[DW_OP_reg12]
     403              
     404              $C$DW$42        .dwtag  DW_TAG_TI_assign_register
     405                      .dwattr $C$DW$42, DW_AT_name("XAR4")
     406                      .dwattr $C$DW$42, DW_AT_location[DW_OP_reg13]
     407              
     408              $C$DW$43        .dwtag  DW_TAG_TI_assign_register
     409                      .dwattr $C$DW$43, DW_AT_name("AR5")
     410                      .dwattr $C$DW$43, DW_AT_location[DW_OP_reg14]
     411              
     412              $C$DW$44        .dwtag  DW_TAG_TI_assign_register
     413                      .dwattr $C$DW$44, DW_AT_name("XAR5")
     414                      .dwattr $C$DW$44, DW_AT_location[DW_OP_reg15]
     415              
     416              $C$DW$45        .dwtag  DW_TAG_TI_assign_register
     417                      .dwattr $C$DW$45, DW_AT_name("AR6")
     418                      .dwattr $C$DW$45, DW_AT_location[DW_OP_reg16]
     419              
     420              $C$DW$46        .dwtag  DW_TAG_TI_assign_register
     421                      .dwattr $C$DW$46, DW_AT_name("XAR6")
     422                      .dwattr $C$DW$46, DW_AT_location[DW_OP_reg17]
     423              
     424              $C$DW$47        .dwtag  DW_TAG_TI_assign_register
     425                      .dwattr $C$DW$47, DW_AT_name("AR7")
     426                      .dwattr $C$DW$47, DW_AT_location[DW_OP_reg18]
     427              
     428              $C$DW$48        .dwtag  DW_TAG_TI_assign_register
     429                      .dwattr $C$DW$48, DW_AT_name("XAR7")
     430                      .dwattr $C$DW$48, DW_AT_location[DW_OP_reg19]
     431              
     432                      .dwendtag $C$DW$CU
     433              

No Assembly Errors, No Assembly Warnings
