TMS320C2000 Assembler PC v15.12.3 Sun Oct 30 14:02:16 2016

Tools Copyright (c) 1996-2015 Texas Instruments Incorporated
C:\Users\MaCHaDo\AppData\Local\Temp\4369610                          PAGE    1

       1              ;***************************************************************
       2              ;* TMS320C2000 C/C++ Codegen                   PC v15.12.3.LTS *
       3              ;* Date/Time created: Sun Oct 30 14:02:16 2016                 *
       4              ;***************************************************************
       5                      .compiler_opts --abi=coffabi --float_support=softlib --hll_source=on --mem_model:code=flat --mem_mode
       6        0002  FP      .set    XAR2
       7              
       8              $C$DW$CU        .dwtag  DW_TAG_compile_unit
       9                      .dwattr $C$DW$CU, DW_AT_name("../modules/source/pid.c")
      10                      .dwattr $C$DW$CU, DW_AT_producer("TI TMS320C2000 C/C++ Codegen PC v15.12.3.LTS Copyright (c) 1996-201
      11                      .dwattr $C$DW$CU, DW_AT_TI_version(0x01)
      12                      .dwattr $C$DW$CU, DW_AT_comp_dir("D:\Users\MaCHaDo\Documents\GitHub\LegStrong\Debug")
      13              ;       C:\ti\ccsv6\tools\compiler\c2000_15.12.3.LTS\bin\opt2000.exe C:\\Users\\MaCHaDo\\AppData\\Local\\Temp
      14              ;       C:\ti\ccsv6\tools\compiler\c2000_15.12.3.LTS\bin\ac2000.exe -@C:\\Users\\MaCHaDo\\AppData\\Local\\Tem
      15 00000000               .sect   ".text"
      16                      .clink
      17                      .global _PID_init
      18              
      19              $C$DW$1 .dwtag  DW_TAG_subprogram
      20                      .dwattr $C$DW$1, DW_AT_name("PID_init")
      21                      .dwattr $C$DW$1, DW_AT_low_pc(_PID_init)
      22                      .dwattr $C$DW$1, DW_AT_high_pc(0x00)
      23                      .dwattr $C$DW$1, DW_AT_TI_symbol_name("_PID_init")
      24                      .dwattr $C$DW$1, DW_AT_external
      25                      .dwattr $C$DW$1, DW_AT_type(*$C$DW$T$23)
      26                      .dwattr $C$DW$1, DW_AT_TI_begin_file("../modules/source/pid.c")
      27                      .dwattr $C$DW$1, DW_AT_TI_begin_line(0x38)
      28                      .dwattr $C$DW$1, DW_AT_TI_begin_column(0x0c)
      29                      .dwattr $C$DW$1, DW_AT_TI_max_frame_size(-2)
      30                      .dwpsn  file "../modules/source/pid.c",line 57,column 1,is_stmt,address _PID_init,isa 0
      31              
      32                      .dwfde $C$DW$CIE, _PID_init
      33              $C$DW$2 .dwtag  DW_TAG_formal_parameter
      34                      .dwattr $C$DW$2, DW_AT_name("pMemory")
      35                      .dwattr $C$DW$2, DW_AT_TI_symbol_name("_pMemory")
      36                      .dwattr $C$DW$2, DW_AT_type(*$C$DW$T$3)
      37                      .dwattr $C$DW$2, DW_AT_location[DW_OP_reg12]
      38              
      39              $C$DW$3 .dwtag  DW_TAG_formal_parameter
      40                      .dwattr $C$DW$3, DW_AT_name("numBytes")
      41                      .dwattr $C$DW$3, DW_AT_TI_symbol_name("_numBytes")
      42                      .dwattr $C$DW$3, DW_AT_type(*$C$DW$T$25)
      43                      .dwattr $C$DW$3, DW_AT_location[DW_OP_reg0]
      44              
      45              
      46              ;***************************************************************
      47              ;* FNAME: _PID_init                     FR SIZE:   0           *
      48              ;*                                                             *
      49              ;* FUNCTION ENVIRONMENT                                        *
      50              ;*                                                             *
      51              ;* FUNCTION PROPERTIES                                         *
      52              ;*                            0 Parameter,  0 Auto,  0 SOE     *
      53              ;***************************************************************
      54              
      55              _PID_init:
TMS320C2000 Assembler PC v15.12.3 Sun Oct 30 14:02:16 2016

Tools Copyright (c) 1996-2015 Texas Instruments Incorporated
C:\Users\MaCHaDo\AppData\Local\Temp\4369610                          PAGE    2

      56              ;* AR6   assigned to _numBytes
      57              $C$DW$4 .dwtag  DW_TAG_variable
      58                      .dwattr $C$DW$4, DW_AT_name("numBytes")
      59                      .dwattr $C$DW$4, DW_AT_TI_symbol_name("_numBytes")
      60                      .dwattr $C$DW$4, DW_AT_type(*$C$DW$T$25)
      61                      .dwattr $C$DW$4, DW_AT_location[DW_OP_reg16]
      62              
      63              ;* AR4   assigned to _pMemory
      64              $C$DW$5 .dwtag  DW_TAG_variable
      65                      .dwattr $C$DW$5, DW_AT_name("pMemory")
      66                      .dwattr $C$DW$5, DW_AT_TI_symbol_name("_pMemory")
      67                      .dwattr $C$DW$5, DW_AT_type(*$C$DW$T$28)
      68                      .dwattr $C$DW$5, DW_AT_location[DW_OP_reg12]
      69              
      70                      .dwcfi  cfa_offset, -2
      71                      .dwcfi  save_reg_to_mem, 26, 0
      72 00000000 1EA6          MOVL      XAR6,ACC              ; [CPU_] |57| 
      73                      .dwpsn  file "../modules/source/pid.c",line 61,column 3,is_stmt,isa 0
      74 00000001 0210          MOVB      ACC,#16               ; [CPU_] |61| 
      75 00000002 0FA6          CMPL      ACC,XAR6              ; [CPU_] |61| 
      76 00000003 6903          B         $C$L1,LOS             ; [CPU_] |61| 
      77                      ; branchcc occurs ; [] |61| 
      78                      .dwcfi  remember_state
      79                      .dwpsn  file "../modules/source/pid.c",line 62,column 5,is_stmt,isa 0
      80 00000004 D400          MOVB      XAR4,#0               ; [CPU_] |62| 
      81              $C$DW$6 .dwtag  DW_TAG_TI_branch
      82                      .dwattr $C$DW$6, DW_AT_low_pc(0x00)
      83                      .dwattr $C$DW$6, DW_AT_TI_return
      84              
      85 00000005 0006          LRETR     ; [CPU_] 
      86                      ; return occurs ; [] 
      87                      .dwcfi  restore_state
      88 00000006       $C$L1:    
      89                      .dwpsn  file "D:/Users/MaCHaDo/Documents/GitHub/LegStrong/modules/include/pid.h",line 413,column 3,is
      90 00000006 0200          MOVB      ACC,#0                ; [CPU_] |413| 
      91                      .dwpsn  file "D:/Users/MaCHaDo/Documents/GitHub/LegStrong/modules/include/pid.h",line 400,column 3,is
      92 00000007 D008          MOVB      XAR0,#8               ; [CPU_] |400| 
      93                      .dwpsn  file "D:/Users/MaCHaDo/Documents/GitHub/LegStrong/modules/include/pid.h",line 413,column 3,is
      94 00000008 1EF4          MOVL      *+XAR4[6],ACC         ; [CPU_] |413| 
      95                      .dwpsn  file "D:/Users/MaCHaDo/Documents/GitHub/LegStrong/modules/include/pid.h",line 400,column 3,is
      96 00000009 1E94          MOVL      *+XAR4[AR0],ACC       ; [CPU_] |400| 
      97                      .dwpsn  file "D:/Users/MaCHaDo/Documents/GitHub/LegStrong/modules/include/pid.h",line 290,column 3,is
      98 0000000a D00A          MOVB      XAR0,#10              ; [CPU_] |290| 
      99 0000000b 1E94          MOVL      *+XAR4[AR0],ACC       ; [CPU_] |290| 
     100              $C$DW$7 .dwtag  DW_TAG_TI_branch
     101                      .dwattr $C$DW$7, DW_AT_low_pc(0x00)
     102                      .dwattr $C$DW$7, DW_AT_TI_return
     103              
     104 0000000c 0006          LRETR     ; [CPU_] 
     105                      ; return occurs ; [] 
     106                      .dwattr $C$DW$1, DW_AT_TI_end_file("../modules/source/pid.c")
     107                      .dwattr $C$DW$1, DW_AT_TI_end_line(0x49)
     108                      .dwattr $C$DW$1, DW_AT_TI_end_column(0x01)
     109                      .dwendentry
     110                      .dwendtag $C$DW$1
TMS320C2000 Assembler PC v15.12.3 Sun Oct 30 14:02:16 2016

Tools Copyright (c) 1996-2015 Texas Instruments Incorporated
C:\Users\MaCHaDo\AppData\Local\Temp\4369610                          PAGE    3

     111              
     112              
     113              ;***************************************************************
     114              ;* TYPE INFORMATION                                            *
     115              ;***************************************************************
     116              
     117              $C$DW$T$20      .dwtag  DW_TAG_structure_type
     118                      .dwattr $C$DW$T$20, DW_AT_name("_PID_Obj_")
     119                      .dwattr $C$DW$T$20, DW_AT_byte_size(0x10)
     120              $C$DW$8 .dwtag  DW_TAG_member
     121                      .dwattr $C$DW$8, DW_AT_type(*$C$DW$T$19)
     122                      .dwattr $C$DW$8, DW_AT_name("Kp")
     123                      .dwattr $C$DW$8, DW_AT_TI_symbol_name("_Kp")
     124                      .dwattr $C$DW$8, DW_AT_data_member_location[DW_OP_plus_uconst 0x0]
     125                      .dwattr $C$DW$8, DW_AT_accessibility(DW_ACCESS_public)
     126              
     127              $C$DW$9 .dwtag  DW_TAG_member
     128                      .dwattr $C$DW$9, DW_AT_type(*$C$DW$T$19)
     129                      .dwattr $C$DW$9, DW_AT_name("Ki")
     130                      .dwattr $C$DW$9, DW_AT_TI_symbol_name("_Ki")
     131                      .dwattr $C$DW$9, DW_AT_data_member_location[DW_OP_plus_uconst 0x2]
     132                      .dwattr $C$DW$9, DW_AT_accessibility(DW_ACCESS_public)
     133              
     134              $C$DW$10        .dwtag  DW_TAG_member
     135                      .dwattr $C$DW$10, DW_AT_type(*$C$DW$T$19)
     136                      .dwattr $C$DW$10, DW_AT_name("Kd")
     137                      .dwattr $C$DW$10, DW_AT_TI_symbol_name("_Kd")
     138                      .dwattr $C$DW$10, DW_AT_data_member_location[DW_OP_plus_uconst 0x4]
     139                      .dwattr $C$DW$10, DW_AT_accessibility(DW_ACCESS_public)
     140              
     141              $C$DW$11        .dwtag  DW_TAG_member
     142                      .dwattr $C$DW$11, DW_AT_type(*$C$DW$T$19)
     143                      .dwattr $C$DW$11, DW_AT_name("Ui")
     144                      .dwattr $C$DW$11, DW_AT_TI_symbol_name("_Ui")
     145                      .dwattr $C$DW$11, DW_AT_data_member_location[DW_OP_plus_uconst 0x6]
     146                      .dwattr $C$DW$11, DW_AT_accessibility(DW_ACCESS_public)
     147              
     148              $C$DW$12        .dwtag  DW_TAG_member
     149                      .dwattr $C$DW$12, DW_AT_type(*$C$DW$T$19)
     150                      .dwattr $C$DW$12, DW_AT_name("refValue")
     151                      .dwattr $C$DW$12, DW_AT_TI_symbol_name("_refValue")
     152                      .dwattr $C$DW$12, DW_AT_data_member_location[DW_OP_plus_uconst 0x8]
     153                      .dwattr $C$DW$12, DW_AT_accessibility(DW_ACCESS_public)
     154              
     155              $C$DW$13        .dwtag  DW_TAG_member
     156                      .dwattr $C$DW$13, DW_AT_type(*$C$DW$T$19)
     157                      .dwattr $C$DW$13, DW_AT_name("fbackValue")
     158                      .dwattr $C$DW$13, DW_AT_TI_symbol_name("_fbackValue")
     159                      .dwattr $C$DW$13, DW_AT_data_member_location[DW_OP_plus_uconst 0xa]
     160                      .dwattr $C$DW$13, DW_AT_accessibility(DW_ACCESS_public)
     161              
     162              $C$DW$14        .dwtag  DW_TAG_member
     163                      .dwattr $C$DW$14, DW_AT_type(*$C$DW$T$19)
     164                      .dwattr $C$DW$14, DW_AT_name("outMin")
     165                      .dwattr $C$DW$14, DW_AT_TI_symbol_name("_outMin")
TMS320C2000 Assembler PC v15.12.3 Sun Oct 30 14:02:16 2016

Tools Copyright (c) 1996-2015 Texas Instruments Incorporated
C:\Users\MaCHaDo\AppData\Local\Temp\4369610                          PAGE    4

     166                      .dwattr $C$DW$14, DW_AT_data_member_location[DW_OP_plus_uconst 0xc]
     167                      .dwattr $C$DW$14, DW_AT_accessibility(DW_ACCESS_public)
     168              
     169              $C$DW$15        .dwtag  DW_TAG_member
     170                      .dwattr $C$DW$15, DW_AT_type(*$C$DW$T$19)
     171                      .dwattr $C$DW$15, DW_AT_name("outMax")
     172                      .dwattr $C$DW$15, DW_AT_TI_symbol_name("_outMax")
     173                      .dwattr $C$DW$15, DW_AT_data_member_location[DW_OP_plus_uconst 0xe]
     174                      .dwattr $C$DW$15, DW_AT_accessibility(DW_ACCESS_public)
     175              
     176                      .dwendtag $C$DW$T$20
     177              
     178              $C$DW$T$21      .dwtag  DW_TAG_typedef
     179                      .dwattr $C$DW$T$21, DW_AT_name("PID_Obj")
     180                      .dwattr $C$DW$T$21, DW_AT_type(*$C$DW$T$20)
     181                      .dwattr $C$DW$T$21, DW_AT_language(DW_LANG_C)
     182              
     183              $C$DW$T$22      .dwtag  DW_TAG_pointer_type
     184                      .dwattr $C$DW$T$22, DW_AT_type(*$C$DW$T$20)
     185                      .dwattr $C$DW$T$22, DW_AT_address_class(0x20)
     186              
     187              $C$DW$T$23      .dwtag  DW_TAG_typedef
     188                      .dwattr $C$DW$T$23, DW_AT_name("PID_Handle")
     189                      .dwattr $C$DW$T$23, DW_AT_type(*$C$DW$T$22)
     190                      .dwattr $C$DW$T$23, DW_AT_language(DW_LANG_C)
     191              
     192              $C$DW$T$2       .dwtag  DW_TAG_unspecified_type
     193                      .dwattr $C$DW$T$2, DW_AT_name("void")
     194              
     195              $C$DW$T$3       .dwtag  DW_TAG_pointer_type
     196                      .dwattr $C$DW$T$3, DW_AT_type(*$C$DW$T$2)
     197                      .dwattr $C$DW$T$3, DW_AT_address_class(0x20)
     198              
     199              $C$DW$16        .dwtag  DW_TAG_TI_far_type
     200                      .dwattr $C$DW$16, DW_AT_type(*$C$DW$T$3)
     201              
     202              $C$DW$T$28      .dwtag  DW_TAG_const_type
     203                      .dwattr $C$DW$T$28, DW_AT_type(*$C$DW$16)
     204              
     205              $C$DW$T$4       .dwtag  DW_TAG_base_type
     206                      .dwattr $C$DW$T$4, DW_AT_encoding(DW_ATE_boolean)
     207                      .dwattr $C$DW$T$4, DW_AT_name("bool")
     208                      .dwattr $C$DW$T$4, DW_AT_byte_size(0x01)
     209              
     210              $C$DW$T$5       .dwtag  DW_TAG_base_type
     211                      .dwattr $C$DW$T$5, DW_AT_encoding(DW_ATE_signed_char)
     212                      .dwattr $C$DW$T$5, DW_AT_name("signed char")
     213                      .dwattr $C$DW$T$5, DW_AT_byte_size(0x01)
     214              
     215              $C$DW$T$6       .dwtag  DW_TAG_base_type
     216                      .dwattr $C$DW$T$6, DW_AT_encoding(DW_ATE_unsigned_char)
     217                      .dwattr $C$DW$T$6, DW_AT_name("unsigned char")
     218                      .dwattr $C$DW$T$6, DW_AT_byte_size(0x01)
     219              
     220              $C$DW$T$7       .dwtag  DW_TAG_base_type
TMS320C2000 Assembler PC v15.12.3 Sun Oct 30 14:02:16 2016

Tools Copyright (c) 1996-2015 Texas Instruments Incorporated
C:\Users\MaCHaDo\AppData\Local\Temp\4369610                          PAGE    5

     221                      .dwattr $C$DW$T$7, DW_AT_encoding(DW_ATE_signed_char)
     222                      .dwattr $C$DW$T$7, DW_AT_name("wchar_t")
     223                      .dwattr $C$DW$T$7, DW_AT_byte_size(0x01)
     224              
     225              $C$DW$T$8       .dwtag  DW_TAG_base_type
     226                      .dwattr $C$DW$T$8, DW_AT_encoding(DW_ATE_signed)
     227                      .dwattr $C$DW$T$8, DW_AT_name("short")
     228                      .dwattr $C$DW$T$8, DW_AT_byte_size(0x01)
     229              
     230              $C$DW$T$9       .dwtag  DW_TAG_base_type
     231                      .dwattr $C$DW$T$9, DW_AT_encoding(DW_ATE_unsigned)
     232                      .dwattr $C$DW$T$9, DW_AT_name("unsigned short")
     233                      .dwattr $C$DW$T$9, DW_AT_byte_size(0x01)
     234              
     235              $C$DW$T$10      .dwtag  DW_TAG_base_type
     236                      .dwattr $C$DW$T$10, DW_AT_encoding(DW_ATE_signed)
     237                      .dwattr $C$DW$T$10, DW_AT_name("int")
     238                      .dwattr $C$DW$T$10, DW_AT_byte_size(0x01)
     239              
     240              $C$DW$T$11      .dwtag  DW_TAG_base_type
     241                      .dwattr $C$DW$T$11, DW_AT_encoding(DW_ATE_unsigned)
     242                      .dwattr $C$DW$T$11, DW_AT_name("unsigned int")
     243                      .dwattr $C$DW$T$11, DW_AT_byte_size(0x01)
     244              
     245              $C$DW$T$12      .dwtag  DW_TAG_base_type
     246                      .dwattr $C$DW$T$12, DW_AT_encoding(DW_ATE_signed)
     247                      .dwattr $C$DW$T$12, DW_AT_name("long")
     248                      .dwattr $C$DW$T$12, DW_AT_byte_size(0x02)
     249              
     250              $C$DW$T$19      .dwtag  DW_TAG_typedef
     251                      .dwattr $C$DW$T$19, DW_AT_name("_iq")
     252                      .dwattr $C$DW$T$19, DW_AT_type(*$C$DW$T$12)
     253                      .dwattr $C$DW$T$19, DW_AT_language(DW_LANG_C)
     254              
     255              $C$DW$T$13      .dwtag  DW_TAG_base_type
     256                      .dwattr $C$DW$T$13, DW_AT_encoding(DW_ATE_unsigned)
     257                      .dwattr $C$DW$T$13, DW_AT_name("unsigned long")
     258                      .dwattr $C$DW$T$13, DW_AT_byte_size(0x02)
     259              
     260              $C$DW$T$24      .dwtag  DW_TAG_typedef
     261                      .dwattr $C$DW$T$24, DW_AT_name("size_t")
     262                      .dwattr $C$DW$T$24, DW_AT_type(*$C$DW$T$13)
     263                      .dwattr $C$DW$T$24, DW_AT_language(DW_LANG_C)
     264              
     265              $C$DW$17        .dwtag  DW_TAG_TI_far_type
     266                      .dwattr $C$DW$17, DW_AT_type(*$C$DW$T$24)
     267              
     268              $C$DW$T$25      .dwtag  DW_TAG_const_type
     269                      .dwattr $C$DW$T$25, DW_AT_type(*$C$DW$17)
     270              
     271              $C$DW$T$14      .dwtag  DW_TAG_base_type
     272                      .dwattr $C$DW$T$14, DW_AT_encoding(DW_ATE_signed)
     273                      .dwattr $C$DW$T$14, DW_AT_name("long long")
     274                      .dwattr $C$DW$T$14, DW_AT_byte_size(0x04)
     275              
TMS320C2000 Assembler PC v15.12.3 Sun Oct 30 14:02:16 2016

Tools Copyright (c) 1996-2015 Texas Instruments Incorporated
C:\Users\MaCHaDo\AppData\Local\Temp\4369610                          PAGE    6

     276              $C$DW$T$15      .dwtag  DW_TAG_base_type
     277                      .dwattr $C$DW$T$15, DW_AT_encoding(DW_ATE_unsigned)
     278                      .dwattr $C$DW$T$15, DW_AT_name("unsigned long long")
     279                      .dwattr $C$DW$T$15, DW_AT_byte_size(0x04)
     280              
     281              $C$DW$T$16      .dwtag  DW_TAG_base_type
     282                      .dwattr $C$DW$T$16, DW_AT_encoding(DW_ATE_float)
     283                      .dwattr $C$DW$T$16, DW_AT_name("float")
     284                      .dwattr $C$DW$T$16, DW_AT_byte_size(0x02)
     285              
     286              $C$DW$T$17      .dwtag  DW_TAG_base_type
     287                      .dwattr $C$DW$T$17, DW_AT_encoding(DW_ATE_float)
     288                      .dwattr $C$DW$T$17, DW_AT_name("double")
     289                      .dwattr $C$DW$T$17, DW_AT_byte_size(0x02)
     290              
     291              $C$DW$T$18      .dwtag  DW_TAG_base_type
     292                      .dwattr $C$DW$T$18, DW_AT_encoding(DW_ATE_float)
     293                      .dwattr $C$DW$T$18, DW_AT_name("long double")
     294                      .dwattr $C$DW$T$18, DW_AT_byte_size(0x04)
     295              
     296                      .dwattr $C$DW$CU, DW_AT_language(DW_LANG_C)
     297              
     298              ;***************************************************************
     299              ;* DWARF CIE ENTRIES                                           *
     300              ;***************************************************************
     301              
     302              $C$DW$CIE       .dwcie 26
     303                      .dwcfi  cfa_register, 20
     304                      .dwcfi  cfa_offset, 0
     305                      .dwcfi  undefined, 0
     306                      .dwcfi  undefined, 1
     307                      .dwcfi  undefined, 2
     308                      .dwcfi  undefined, 3
     309                      .dwcfi  undefined, 20
     310                      .dwcfi  undefined, 21
     311                      .dwcfi  undefined, 22
     312                      .dwcfi  undefined, 23
     313                      .dwcfi  undefined, 24
     314                      .dwcfi  undefined, 25
     315                      .dwcfi  undefined, 26
     316                      .dwcfi  same_value, 28
     317                      .dwcfi  undefined, 29
     318                      .dwcfi  undefined, 30
     319                      .dwcfi  undefined, 31
     320                      .dwcfi  undefined, 32
     321                      .dwcfi  undefined, 33
     322                      .dwcfi  undefined, 34
     323                      .dwcfi  undefined, 35
     324                      .dwcfi  undefined, 36
     325                      .dwcfi  undefined, 37
     326                      .dwcfi  undefined, 38
     327                      .dwcfi  undefined, 75
     328                      .dwcfi  undefined, 76
     329                      .dwcfi  undefined, 77
     330                      .dwcfi  undefined, 4
TMS320C2000 Assembler PC v15.12.3 Sun Oct 30 14:02:16 2016

Tools Copyright (c) 1996-2015 Texas Instruments Incorporated
C:\Users\MaCHaDo\AppData\Local\Temp\4369610                          PAGE    7

     331                      .dwcfi  undefined, 5
     332                      .dwcfi  same_value, 6
     333                      .dwcfi  same_value, 7
     334                      .dwcfi  same_value, 8
     335                      .dwcfi  same_value, 9
     336                      .dwcfi  same_value, 10
     337                      .dwcfi  same_value, 11
     338                      .dwcfi  undefined, 12
     339                      .dwcfi  undefined, 13
     340                      .dwcfi  undefined, 14
     341                      .dwcfi  undefined, 15
     342                      .dwcfi  undefined, 16
     343                      .dwcfi  undefined, 17
     344                      .dwcfi  undefined, 18
     345                      .dwcfi  undefined, 19
     346                      .dwendentry
     347              
     348              ;***************************************************************
     349              ;* DWARF REGISTER MAP                                          *
     350              ;***************************************************************
     351              
     352              $C$DW$18        .dwtag  DW_TAG_TI_assign_register
     353                      .dwattr $C$DW$18, DW_AT_name("AL")
     354                      .dwattr $C$DW$18, DW_AT_location[DW_OP_reg0]
     355              
     356              $C$DW$19        .dwtag  DW_TAG_TI_assign_register
     357                      .dwattr $C$DW$19, DW_AT_name("AH")
     358                      .dwattr $C$DW$19, DW_AT_location[DW_OP_reg1]
     359              
     360              $C$DW$20        .dwtag  DW_TAG_TI_assign_register
     361                      .dwattr $C$DW$20, DW_AT_name("PL")
     362                      .dwattr $C$DW$20, DW_AT_location[DW_OP_reg2]
     363              
     364              $C$DW$21        .dwtag  DW_TAG_TI_assign_register
     365                      .dwattr $C$DW$21, DW_AT_name("PH")
     366                      .dwattr $C$DW$21, DW_AT_location[DW_OP_reg3]
     367              
     368              $C$DW$22        .dwtag  DW_TAG_TI_assign_register
     369                      .dwattr $C$DW$22, DW_AT_name("SP")
     370                      .dwattr $C$DW$22, DW_AT_location[DW_OP_reg20]
     371              
     372              $C$DW$23        .dwtag  DW_TAG_TI_assign_register
     373                      .dwattr $C$DW$23, DW_AT_name("XT")
     374                      .dwattr $C$DW$23, DW_AT_location[DW_OP_reg21]
     375              
     376              $C$DW$24        .dwtag  DW_TAG_TI_assign_register
     377                      .dwattr $C$DW$24, DW_AT_name("T")
     378                      .dwattr $C$DW$24, DW_AT_location[DW_OP_reg22]
     379              
     380              $C$DW$25        .dwtag  DW_TAG_TI_assign_register
     381                      .dwattr $C$DW$25, DW_AT_name("ST0")
     382                      .dwattr $C$DW$25, DW_AT_location[DW_OP_reg23]
     383              
     384              $C$DW$26        .dwtag  DW_TAG_TI_assign_register
     385                      .dwattr $C$DW$26, DW_AT_name("ST1")
TMS320C2000 Assembler PC v15.12.3 Sun Oct 30 14:02:16 2016

Tools Copyright (c) 1996-2015 Texas Instruments Incorporated
C:\Users\MaCHaDo\AppData\Local\Temp\4369610                          PAGE    8

     386                      .dwattr $C$DW$26, DW_AT_location[DW_OP_reg24]
     387              
     388              $C$DW$27        .dwtag  DW_TAG_TI_assign_register
     389                      .dwattr $C$DW$27, DW_AT_name("PC")
     390                      .dwattr $C$DW$27, DW_AT_location[DW_OP_reg25]
     391              
     392              $C$DW$28        .dwtag  DW_TAG_TI_assign_register
     393                      .dwattr $C$DW$28, DW_AT_name("RPC")
     394                      .dwattr $C$DW$28, DW_AT_location[DW_OP_reg26]
     395              
     396              $C$DW$29        .dwtag  DW_TAG_TI_assign_register
     397                      .dwattr $C$DW$29, DW_AT_name("FP")
     398                      .dwattr $C$DW$29, DW_AT_location[DW_OP_reg28]
     399              
     400              $C$DW$30        .dwtag  DW_TAG_TI_assign_register
     401                      .dwattr $C$DW$30, DW_AT_name("DP")
     402                      .dwattr $C$DW$30, DW_AT_location[DW_OP_reg29]
     403              
     404              $C$DW$31        .dwtag  DW_TAG_TI_assign_register
     405                      .dwattr $C$DW$31, DW_AT_name("SXM")
     406                      .dwattr $C$DW$31, DW_AT_location[DW_OP_reg30]
     407              
     408              $C$DW$32        .dwtag  DW_TAG_TI_assign_register
     409                      .dwattr $C$DW$32, DW_AT_name("PM")
     410                      .dwattr $C$DW$32, DW_AT_location[DW_OP_reg31]
     411              
     412              $C$DW$33        .dwtag  DW_TAG_TI_assign_register
     413                      .dwattr $C$DW$33, DW_AT_name("OVM")
     414                      .dwattr $C$DW$33, DW_AT_location[DW_OP_regx 0x20]
     415              
     416              $C$DW$34        .dwtag  DW_TAG_TI_assign_register
     417                      .dwattr $C$DW$34, DW_AT_name("PAGE0")
     418                      .dwattr $C$DW$34, DW_AT_location[DW_OP_regx 0x21]
     419              
     420              $C$DW$35        .dwtag  DW_TAG_TI_assign_register
     421                      .dwattr $C$DW$35, DW_AT_name("AMODE")
     422                      .dwattr $C$DW$35, DW_AT_location[DW_OP_regx 0x22]
     423              
     424              $C$DW$36        .dwtag  DW_TAG_TI_assign_register
     425                      .dwattr $C$DW$36, DW_AT_name("INTM")
     426                      .dwattr $C$DW$36, DW_AT_location[DW_OP_regx 0x23]
     427              
     428              $C$DW$37        .dwtag  DW_TAG_TI_assign_register
     429                      .dwattr $C$DW$37, DW_AT_name("IFR")
     430                      .dwattr $C$DW$37, DW_AT_location[DW_OP_regx 0x24]
     431              
     432              $C$DW$38        .dwtag  DW_TAG_TI_assign_register
     433                      .dwattr $C$DW$38, DW_AT_name("IER")
     434                      .dwattr $C$DW$38, DW_AT_location[DW_OP_regx 0x25]
     435              
     436              $C$DW$39        .dwtag  DW_TAG_TI_assign_register
     437                      .dwattr $C$DW$39, DW_AT_name("V")
     438                      .dwattr $C$DW$39, DW_AT_location[DW_OP_regx 0x26]
     439              
     440              $C$DW$40        .dwtag  DW_TAG_TI_assign_register
TMS320C2000 Assembler PC v15.12.3 Sun Oct 30 14:02:16 2016

Tools Copyright (c) 1996-2015 Texas Instruments Incorporated
C:\Users\MaCHaDo\AppData\Local\Temp\4369610                          PAGE    9

     441                      .dwattr $C$DW$40, DW_AT_name("PSEUDOH")
     442                      .dwattr $C$DW$40, DW_AT_location[DW_OP_regx 0x4c]
     443              
     444              $C$DW$41        .dwtag  DW_TAG_TI_assign_register
     445                      .dwattr $C$DW$41, DW_AT_name("VOL")
     446                      .dwattr $C$DW$41, DW_AT_location[DW_OP_regx 0x4d]
     447              
     448              $C$DW$42        .dwtag  DW_TAG_TI_assign_register
     449                      .dwattr $C$DW$42, DW_AT_name("AR0")
     450                      .dwattr $C$DW$42, DW_AT_location[DW_OP_reg4]
     451              
     452              $C$DW$43        .dwtag  DW_TAG_TI_assign_register
     453                      .dwattr $C$DW$43, DW_AT_name("XAR0")
     454                      .dwattr $C$DW$43, DW_AT_location[DW_OP_reg5]
     455              
     456              $C$DW$44        .dwtag  DW_TAG_TI_assign_register
     457                      .dwattr $C$DW$44, DW_AT_name("AR1")
     458                      .dwattr $C$DW$44, DW_AT_location[DW_OP_reg6]
     459              
     460              $C$DW$45        .dwtag  DW_TAG_TI_assign_register
     461                      .dwattr $C$DW$45, DW_AT_name("XAR1")
     462                      .dwattr $C$DW$45, DW_AT_location[DW_OP_reg7]
     463              
     464              $C$DW$46        .dwtag  DW_TAG_TI_assign_register
     465                      .dwattr $C$DW$46, DW_AT_name("AR2")
     466                      .dwattr $C$DW$46, DW_AT_location[DW_OP_reg8]
     467              
     468              $C$DW$47        .dwtag  DW_TAG_TI_assign_register
     469                      .dwattr $C$DW$47, DW_AT_name("XAR2")
     470                      .dwattr $C$DW$47, DW_AT_location[DW_OP_reg9]
     471              
     472              $C$DW$48        .dwtag  DW_TAG_TI_assign_register
     473                      .dwattr $C$DW$48, DW_AT_name("AR3")
     474                      .dwattr $C$DW$48, DW_AT_location[DW_OP_reg10]
     475              
     476              $C$DW$49        .dwtag  DW_TAG_TI_assign_register
     477                      .dwattr $C$DW$49, DW_AT_name("XAR3")
     478                      .dwattr $C$DW$49, DW_AT_location[DW_OP_reg11]
     479              
     480              $C$DW$50        .dwtag  DW_TAG_TI_assign_register
     481                      .dwattr $C$DW$50, DW_AT_name("AR4")
     482                      .dwattr $C$DW$50, DW_AT_location[DW_OP_reg12]
     483              
     484              $C$DW$51        .dwtag  DW_TAG_TI_assign_register
     485                      .dwattr $C$DW$51, DW_AT_name("XAR4")
     486                      .dwattr $C$DW$51, DW_AT_location[DW_OP_reg13]
     487              
     488              $C$DW$52        .dwtag  DW_TAG_TI_assign_register
     489                      .dwattr $C$DW$52, DW_AT_name("AR5")
     490                      .dwattr $C$DW$52, DW_AT_location[DW_OP_reg14]
     491              
     492              $C$DW$53        .dwtag  DW_TAG_TI_assign_register
     493                      .dwattr $C$DW$53, DW_AT_name("XAR5")
     494                      .dwattr $C$DW$53, DW_AT_location[DW_OP_reg15]
     495              
TMS320C2000 Assembler PC v15.12.3 Sun Oct 30 14:02:16 2016

Tools Copyright (c) 1996-2015 Texas Instruments Incorporated
C:\Users\MaCHaDo\AppData\Local\Temp\4369610                          PAGE   10

     496              $C$DW$54        .dwtag  DW_TAG_TI_assign_register
     497                      .dwattr $C$DW$54, DW_AT_name("AR6")
     498                      .dwattr $C$DW$54, DW_AT_location[DW_OP_reg16]
     499              
     500              $C$DW$55        .dwtag  DW_TAG_TI_assign_register
     501                      .dwattr $C$DW$55, DW_AT_name("XAR6")
     502                      .dwattr $C$DW$55, DW_AT_location[DW_OP_reg17]
     503              
     504              $C$DW$56        .dwtag  DW_TAG_TI_assign_register
     505                      .dwattr $C$DW$56, DW_AT_name("AR7")
     506                      .dwattr $C$DW$56, DW_AT_location[DW_OP_reg18]
     507              
     508              $C$DW$57        .dwtag  DW_TAG_TI_assign_register
     509                      .dwattr $C$DW$57, DW_AT_name("XAR7")
     510                      .dwattr $C$DW$57, DW_AT_location[DW_OP_reg19]
     511              
     512                      .dwendtag $C$DW$CU
     513              

No Assembly Errors, No Assembly Warnings
