TMS320C2000 Assembler PC v15.12.3 Tue Sep 20 20:29:52 2016

Tools Copyright (c) 1996-2015 Texas Instruments Incorporated
C:\Users\MaCHaDo\AppData\Local\Temp\0280810                          PAGE    1

       1              ;***************************************************************
       2              ;* TMS320C2000 C/C++ Codegen                   PC v15.12.3.LTS *
       3              ;* Date/Time created: Tue Sep 20 20:29:52 2016                 *
       4              ;***************************************************************
       5                      .compiler_opts --abi=coffabi --float_support=softlib --hll_source=on --mem_model:code=flat --mem_mode
       6        0002  FP      .set    XAR2
       7              
       8              $C$DW$CU        .dwtag  DW_TAG_compile_unit
       9                      .dwattr $C$DW$CU, DW_AT_name("../drivers/source/adc.c")
      10                      .dwattr $C$DW$CU, DW_AT_producer("TI TMS320C2000 C/C++ Codegen PC v15.12.3.LTS Copyright (c) 1996-201
      11                      .dwattr $C$DW$CU, DW_AT_TI_version(0x01)
      12                      .dwattr $C$DW$CU, DW_AT_comp_dir("D:\Users\MaCHaDo\Dropbox\Legstrong\drv8301\legstrong\LegStrong\Debu
      13              ;       C:\ti\ccsv6\tools\compiler\c2000_15.12.3.LTS\bin\opt2000.exe C:\\Users\\MaCHaDo\\AppData\\Local\\Temp
      14              ;       C:\ti\ccsv6\tools\compiler\c2000_15.12.3.LTS\bin\ac2000.exe -@C:\\Users\\MaCHaDo\\AppData\\Local\\Tem
      15 00000000               .sect   ".text"
      16                      .clink
      17                      .global _ADC_setupSocTrigSrc
      18              
      19              $C$DW$1 .dwtag  DW_TAG_subprogram
      20                      .dwattr $C$DW$1, DW_AT_name("ADC_setupSocTrigSrc")
      21                      .dwattr $C$DW$1, DW_AT_low_pc(_ADC_setupSocTrigSrc)
      22                      .dwattr $C$DW$1, DW_AT_high_pc(0x00)
      23                      .dwattr $C$DW$1, DW_AT_TI_symbol_name("_ADC_setupSocTrigSrc")
      24                      .dwattr $C$DW$1, DW_AT_external
      25                      .dwattr $C$DW$1, DW_AT_TI_begin_file("../drivers/source/adc.c")
      26                      .dwattr $C$DW$1, DW_AT_TI_begin_line(0x236)
      27                      .dwattr $C$DW$1, DW_AT_TI_begin_column(0x06)
      28                      .dwattr $C$DW$1, DW_AT_TI_max_frame_size(-2)
      29                      .dwpsn  file "../drivers/source/adc.c",line 567,column 1,is_stmt,address _ADC_setupSocTrigSrc,isa 0
      30              
      31                      .dwfde $C$DW$CIE, _ADC_setupSocTrigSrc
      32              $C$DW$2 .dwtag  DW_TAG_formal_parameter
      33                      .dwattr $C$DW$2, DW_AT_name("adcHandle")
      34                      .dwattr $C$DW$2, DW_AT_TI_symbol_name("_adcHandle")
      35                      .dwattr $C$DW$2, DW_AT_type(*$C$DW$T$71)
      36                      .dwattr $C$DW$2, DW_AT_location[DW_OP_reg12]
      37              
      38              $C$DW$3 .dwtag  DW_TAG_formal_parameter
      39                      .dwattr $C$DW$3, DW_AT_name("socNumber")
      40                      .dwattr $C$DW$3, DW_AT_TI_symbol_name("_socNumber")
      41                      .dwattr $C$DW$3, DW_AT_type(*$C$DW$T$48)
      42                      .dwattr $C$DW$3, DW_AT_location[DW_OP_reg0]
      43              
      44              $C$DW$4 .dwtag  DW_TAG_formal_parameter
      45                      .dwattr $C$DW$4, DW_AT_name("intTrigSrc")
      46                      .dwattr $C$DW$4, DW_AT_TI_symbol_name("_intTrigSrc")
      47                      .dwattr $C$DW$4, DW_AT_type(*$C$DW$T$76)
      48                      .dwattr $C$DW$4, DW_AT_location[DW_OP_reg1]
      49              
      50              
      51              ;***************************************************************
      52              ;* FNAME: _ADC_setupSocTrigSrc          FR SIZE:   0           *
      53              ;*                                                             *
      54              ;* FUNCTION ENVIRONMENT                                        *
      55              ;*                                                             *
TMS320C2000 Assembler PC v15.12.3 Tue Sep 20 20:29:52 2016

Tools Copyright (c) 1996-2015 Texas Instruments Incorporated
C:\Users\MaCHaDo\AppData\Local\Temp\0280810                          PAGE    2

      56              ;* FUNCTION PROPERTIES                                         *
      57              ;*                            0 Parameter,  0 Auto,  0 SOE     *
      58              ;***************************************************************
      59              
      60              _ADC_setupSocTrigSrc:
      61              ;* T     assigned to $O$C1
      62              ;* T     assigned to _lShift_socsel1
      63              $C$DW$5 .dwtag  DW_TAG_variable
      64                      .dwattr $C$DW$5, DW_AT_name("lShift_socsel1")
      65                      .dwattr $C$DW$5, DW_AT_TI_symbol_name("_lShift_socsel1")
      66                      .dwattr $C$DW$5, DW_AT_type(*$C$DW$T$19)
      67                      .dwattr $C$DW$5, DW_AT_location[DW_OP_reg22]
      68              
      69              ;* AR7   assigned to _intTrigSrc
      70              $C$DW$6 .dwtag  DW_TAG_variable
      71                      .dwattr $C$DW$6, DW_AT_name("intTrigSrc")
      72                      .dwattr $C$DW$6, DW_AT_TI_symbol_name("_intTrigSrc")
      73                      .dwattr $C$DW$6, DW_AT_type(*$C$DW$T$76)
      74                      .dwattr $C$DW$6, DW_AT_location[DW_OP_reg18]
      75              
      76              ;* AR6   assigned to _socNumber
      77              $C$DW$7 .dwtag  DW_TAG_variable
      78                      .dwattr $C$DW$7, DW_AT_name("socNumber")
      79                      .dwattr $C$DW$7, DW_AT_TI_symbol_name("_socNumber")
      80                      .dwattr $C$DW$7, DW_AT_type(*$C$DW$T$48)
      81                      .dwattr $C$DW$7, DW_AT_location[DW_OP_reg16]
      82              
      83              ;* AR4   assigned to _adcHandle
      84              $C$DW$8 .dwtag  DW_TAG_variable
      85                      .dwattr $C$DW$8, DW_AT_name("adcHandle")
      86                      .dwattr $C$DW$8, DW_AT_TI_symbol_name("_adcHandle")
      87                      .dwattr $C$DW$8, DW_AT_type(*$C$DW$T$78)
      88                      .dwattr $C$DW$8, DW_AT_location[DW_OP_reg12]
      89              
      90              ;* AL    assigned to $O$K4
      91                      .dwcfi  cfa_offset, -2
      92                      .dwcfi  save_reg_to_mem, 26, 0
      93 00000000 88A9          MOVZ      AR6,AL                ; [CPU_] |567| 
      94 00000001 80A8          MOVZ      AR7,AH                ; [CPU_] |567| 
      95                      .dwpsn  file "../drivers/source/adc.c",line 571,column 27,is_stmt,isa 0
      96 00000002 5603          MOV       ACC,AR6 << #1         ; [CPU_] |571| 
         00000003 01A6 
      97 00000004 2DA9          MOV       T,AL                  ; [CPU_] |571| 
      98 00000005 7622   EALLOW
      99 00000006 92A6          MOV       AL,AR6                ; [CPU_] 
     100                      .dwpsn  file "../drivers/source/adc.c",line 577,column 3,is_stmt,isa 0
     101 00000007 5208          CMPB      AL,#8                 ; [CPU_] |577| 
     102 00000008 6810          B         $C$L1,LO              ; [CPU_] |577| 
     103                      ; branchcc occurs ; [] |577| 
     104                      .dwpsn  file "../drivers/source/adc.c",line 594,column 7,is_stmt,isa 0
     105 00000009 92AC          MOV       AL,T                  ; [CPU_] |594| 
     106 0000000a 9CF0          ADDB      AL,#-16               ; [CPU_] |594| 
     107 0000000b 2DA9          MOV       T,AL                  ; [CPU_] |594| 
     108 0000000c A8A9          MOVL      ACC,XAR4              ; [CPU_] |594| 
     109 0000000d FF10          ADD       ACC,#26133 << 0       ; [CPU_] |594| 
TMS320C2000 Assembler PC v15.12.3 Tue Sep 20 20:29:52 2016

Tools Copyright (c) 1996-2015 Texas Instruments Incorporated
C:\Users\MaCHaDo\AppData\Local\Temp\0280810                          PAGE    3

         0000000e 6615 
     110 0000000f 83A9          MOVL      XAR5,ACC              ; [CPU_] |594| 
     111 00000010 9A03          MOVB      AL,#3                 ; [CPU_] |594| 
     112 00000011 FF66          LSL       AL,T                  ; [CPU_] |594| 
     113 00000012 FF5E          NOT       AL                    ; [CPU_] |594| 
     114 00000013 C0C5          AND       *+XAR5[0],AL          ; [CPU_] |594| 
     115                      .dwpsn  file "../drivers/source/adc.c",line 597,column 7,is_stmt,isa 0
     116 00000014 A8A9          MOVL      ACC,XAR4              ; [CPU_] |597| 
     117 00000015 FF10          ADD       ACC,#26133 << 0       ; [CPU_] |597| 
         00000016 6615 
     118 00000017 6F0C          B         $C$L2,UNC             ; [CPU_] |597| 
     119                      ; branch occurs ; [] |597| 
     120 00000018       $C$L1:    
     121                      .dwpsn  file "../drivers/source/adc.c",line 583,column 7,is_stmt,isa 0
     122 00000018 A8A9          MOVL      ACC,XAR4              ; [CPU_] |583| 
     123 00000019 FF12          ADD       ACC,#6533 << 2        ; [CPU_] |583| 
         0000001a 1985 
     124 0000001b 83A9          MOVL      XAR5,ACC              ; [CPU_] |583| 
     125 0000001c 9A03          MOVB      AL,#3                 ; [CPU_] |583| 
     126 0000001d FF66          LSL       AL,T                  ; [CPU_] |583| 
     127 0000001e FF5E          NOT       AL                    ; [CPU_] |583| 
     128 0000001f C0C5          AND       *+XAR5[0],AL          ; [CPU_] |583| 
     129                      .dwpsn  file "../drivers/source/adc.c",line 586,column 7,is_stmt,isa 0
     130 00000020 A8A9          MOVL      ACC,XAR4              ; [CPU_] |586| 
     131 00000021 FF12          ADD       ACC,#6533 << 2        ; [CPU_] |586| 
         00000022 1985 
     132 00000023       $C$L2:    
     133 00000023 8AA9          MOVL      XAR4,ACC              ; [CPU_] |586| 
     134 00000024 92A7          MOV       AL,AR7                ; [CPU_] |586| 
     135 00000025 FF66          LSL       AL,T                  ; [CPU_] |586| 
     136 00000026 98C4          OR        *+XAR4[0],AL          ; [CPU_] |586| 
     137 00000027 761A   EDIS
     138 00000028 FF69          SPM       #0                    ; [CPU_] 
     139              $C$DW$9 .dwtag  DW_TAG_TI_branch
     140                      .dwattr $C$DW$9, DW_AT_low_pc(0x00)
     141                      .dwattr $C$DW$9, DW_AT_TI_return
     142              
     143 00000029 0006          LRETR     ; [CPU_] 
     144                      ; return occurs ; [] 
     145                      .dwattr $C$DW$1, DW_AT_TI_end_file("../drivers/source/adc.c")
     146                      .dwattr $C$DW$1, DW_AT_TI_end_line(0x25b)
     147                      .dwattr $C$DW$1, DW_AT_TI_end_column(0x01)
     148                      .dwendentry
     149                      .dwendtag $C$DW$1
     150              
     151 0000002a               .sect   ".text"
     152                      .clink
     153                      .global _ADC_setVoltRefSrc
     154              
     155              $C$DW$10        .dwtag  DW_TAG_subprogram
     156                      .dwattr $C$DW$10, DW_AT_name("ADC_setVoltRefSrc")
     157                      .dwattr $C$DW$10, DW_AT_low_pc(_ADC_setVoltRefSrc)
     158                      .dwattr $C$DW$10, DW_AT_high_pc(0x00)
     159                      .dwattr $C$DW$10, DW_AT_TI_symbol_name("_ADC_setVoltRefSrc")
     160                      .dwattr $C$DW$10, DW_AT_external
TMS320C2000 Assembler PC v15.12.3 Tue Sep 20 20:29:52 2016

Tools Copyright (c) 1996-2015 Texas Instruments Incorporated
C:\Users\MaCHaDo\AppData\Local\Temp\0280810                          PAGE    4

     161                      .dwattr $C$DW$10, DW_AT_TI_begin_file("../drivers/source/adc.c")
     162                      .dwattr $C$DW$10, DW_AT_TI_begin_line(0x1e0)
     163                      .dwattr $C$DW$10, DW_AT_TI_begin_column(0x06)
     164                      .dwattr $C$DW$10, DW_AT_TI_max_frame_size(-2)
     165                      .dwpsn  file "../drivers/source/adc.c",line 481,column 1,is_stmt,address _ADC_setVoltRefSrc,isa 0
     166              
     167                      .dwfde $C$DW$CIE, _ADC_setVoltRefSrc
     168              $C$DW$11        .dwtag  DW_TAG_formal_parameter
     169                      .dwattr $C$DW$11, DW_AT_name("adcHandle")
     170                      .dwattr $C$DW$11, DW_AT_TI_symbol_name("_adcHandle")
     171                      .dwattr $C$DW$11, DW_AT_type(*$C$DW$T$71)
     172                      .dwattr $C$DW$11, DW_AT_location[DW_OP_reg12]
     173              
     174              $C$DW$12        .dwtag  DW_TAG_formal_parameter
     175                      .dwattr $C$DW$12, DW_AT_name("voltSrc")
     176                      .dwattr $C$DW$12, DW_AT_TI_symbol_name("_voltSrc")
     177                      .dwattr $C$DW$12, DW_AT_type(*$C$DW$T$66)
     178                      .dwattr $C$DW$12, DW_AT_location[DW_OP_reg0]
     179              
     180              
     181              ;***************************************************************
     182              ;* FNAME: _ADC_setVoltRefSrc            FR SIZE:   0           *
     183              ;*                                                             *
     184              ;* FUNCTION ENVIRONMENT                                        *
     185              ;*                                                             *
     186              ;* FUNCTION PROPERTIES                                         *
     187              ;*                            0 Parameter,  0 Auto,  0 SOE     *
     188              ;***************************************************************
     189              
     190              _ADC_setVoltRefSrc:
     191              ;* AR4   assigned to _adcHandle
     192              $C$DW$13        .dwtag  DW_TAG_variable
     193                      .dwattr $C$DW$13, DW_AT_name("adcHandle")
     194                      .dwattr $C$DW$13, DW_AT_TI_symbol_name("_adcHandle")
     195                      .dwattr $C$DW$13, DW_AT_type(*$C$DW$T$78)
     196                      .dwattr $C$DW$13, DW_AT_location[DW_OP_reg12]
     197              
     198              ;* AR6   assigned to _voltSrc
     199              $C$DW$14        .dwtag  DW_TAG_variable
     200                      .dwattr $C$DW$14, DW_AT_name("voltSrc")
     201                      .dwattr $C$DW$14, DW_AT_TI_symbol_name("_voltSrc")
     202                      .dwattr $C$DW$14, DW_AT_type(*$C$DW$T$66)
     203                      .dwattr $C$DW$14, DW_AT_location[DW_OP_reg16]
     204              
     205                      .dwcfi  cfa_offset, -2
     206                      .dwcfi  save_reg_to_mem, 26, 0
     207 0000002a 88A9          MOVZ      AR6,AL                ; [CPU_] |481| 
     208 0000002b 7622   EALLOW
     209                      .dwpsn  file "../drivers/source/adc.c",line 488,column 3,is_stmt,isa 0
     210 0000002c A8A9          MOVL      ACC,XAR4              ; [CPU_] |488| 
     211 0000002d FF19          ADD       ACC,#51 << 9          ; [CPU_] |488| 
         0000002e 0033 
     212 0000002f 83A9          MOVL      XAR5,ACC              ; [CPU_] |488| 
     213                      .dwpsn  file "../drivers/source/adc.c",line 492,column 3,is_stmt,isa 0
     214 00000030 A8A9          MOVL      ACC,XAR4              ; [CPU_] |492| 
TMS320C2000 Assembler PC v15.12.3 Tue Sep 20 20:29:52 2016

Tools Copyright (c) 1996-2015 Texas Instruments Incorporated
C:\Users\MaCHaDo\AppData\Local\Temp\0280810                          PAGE    5

     215 00000031 FF19          ADD       ACC,#51 << 9          ; [CPU_] |492| 
         00000032 0033 
     216 00000033 8AA9          MOVL      XAR4,ACC              ; [CPU_] |492| 
     217                      .dwpsn  file "../drivers/source/adc.c",line 488,column 3,is_stmt,isa 0
     218 00000034 18C5          AND       *+XAR5[0],#0xfff7     ; [CPU_] |488| 
         00000035 FFF7 
     219                      .dwpsn  file "../drivers/source/adc.c",line 492,column 3,is_stmt,isa 0
     220 00000036 92A6          MOV       AL,AR6                ; [CPU_] |492| 
     221 00000037 98C4          OR        *+XAR4[0],AL          ; [CPU_] |492| 
     222 00000038 761A   EDIS
     223 00000039 FF69          SPM       #0                    ; [CPU_] 
     224              $C$DW$15        .dwtag  DW_TAG_TI_branch
     225                      .dwattr $C$DW$15, DW_AT_low_pc(0x00)
     226                      .dwattr $C$DW$15, DW_AT_TI_return
     227              
     228 0000003a 0006          LRETR     ; [CPU_] 
     229                      ; return occurs ; [] 
     230                      .dwattr $C$DW$10, DW_AT_TI_end_file("../drivers/source/adc.c")
     231                      .dwattr $C$DW$10, DW_AT_TI_end_line(0x1f1)
     232                      .dwattr $C$DW$10, DW_AT_TI_end_column(0x01)
     233                      .dwendentry
     234                      .dwendtag $C$DW$10
     235              
     236 0000003b               .sect   ".text"
     237                      .clink
     238                      .global _ADC_setTempSensorSrc
     239              
     240              $C$DW$16        .dwtag  DW_TAG_subprogram
     241                      .dwattr $C$DW$16, DW_AT_name("ADC_setTempSensorSrc")
     242                      .dwattr $C$DW$16, DW_AT_low_pc(_ADC_setTempSensorSrc)
     243                      .dwattr $C$DW$16, DW_AT_high_pc(0x00)
     244                      .dwattr $C$DW$16, DW_AT_TI_symbol_name("_ADC_setTempSensorSrc")
     245                      .dwattr $C$DW$16, DW_AT_external
     246                      .dwattr $C$DW$16, DW_AT_TI_begin_file("../drivers/source/adc.c")
     247                      .dwattr $C$DW$16, DW_AT_TI_begin_line(0x1cc)
     248                      .dwattr $C$DW$16, DW_AT_TI_begin_column(0x06)
     249                      .dwattr $C$DW$16, DW_AT_TI_max_frame_size(-2)
     250                      .dwpsn  file "../drivers/source/adc.c",line 461,column 1,is_stmt,address _ADC_setTempSensorSrc,isa 0
     251              
     252                      .dwfde $C$DW$CIE, _ADC_setTempSensorSrc
     253              $C$DW$17        .dwtag  DW_TAG_formal_parameter
     254                      .dwattr $C$DW$17, DW_AT_name("adcHandle")
     255                      .dwattr $C$DW$17, DW_AT_TI_symbol_name("_adcHandle")
     256                      .dwattr $C$DW$17, DW_AT_type(*$C$DW$T$71)
     257                      .dwattr $C$DW$17, DW_AT_location[DW_OP_reg12]
     258              
     259              $C$DW$18        .dwtag  DW_TAG_formal_parameter
     260                      .dwattr $C$DW$18, DW_AT_name("sensorSrc")
     261                      .dwattr $C$DW$18, DW_AT_TI_symbol_name("_sensorSrc")
     262                      .dwattr $C$DW$18, DW_AT_type(*$C$DW$T$63)
     263                      .dwattr $C$DW$18, DW_AT_location[DW_OP_reg0]
     264              
     265              
     266              ;***************************************************************
     267              ;* FNAME: _ADC_setTempSensorSrc         FR SIZE:   0           *
TMS320C2000 Assembler PC v15.12.3 Tue Sep 20 20:29:52 2016

Tools Copyright (c) 1996-2015 Texas Instruments Incorporated
C:\Users\MaCHaDo\AppData\Local\Temp\0280810                          PAGE    6

     268              ;*                                                             *
     269              ;* FUNCTION ENVIRONMENT                                        *
     270              ;*                                                             *
     271              ;* FUNCTION PROPERTIES                                         *
     272              ;*                            0 Parameter,  0 Auto,  0 SOE     *
     273              ;***************************************************************
     274              
     275              _ADC_setTempSensorSrc:
     276              ;* AR4   assigned to _adcHandle
     277              $C$DW$19        .dwtag  DW_TAG_variable
     278                      .dwattr $C$DW$19, DW_AT_name("adcHandle")
     279                      .dwattr $C$DW$19, DW_AT_TI_symbol_name("_adcHandle")
     280                      .dwattr $C$DW$19, DW_AT_type(*$C$DW$T$78)
     281                      .dwattr $C$DW$19, DW_AT_location[DW_OP_reg12]
     282              
     283              ;* AR6   assigned to _sensorSrc
     284              $C$DW$20        .dwtag  DW_TAG_variable
     285                      .dwattr $C$DW$20, DW_AT_name("sensorSrc")
     286                      .dwattr $C$DW$20, DW_AT_TI_symbol_name("_sensorSrc")
     287                      .dwattr $C$DW$20, DW_AT_type(*$C$DW$T$63)
     288                      .dwattr $C$DW$20, DW_AT_location[DW_OP_reg16]
     289              
     290                      .dwcfi  cfa_offset, -2
     291                      .dwcfi  save_reg_to_mem, 26, 0
     292 0000003b 88A9          MOVZ      AR6,AL                ; [CPU_] |461| 
     293 0000003c 7622   EALLOW
     294                      .dwpsn  file "../drivers/source/adc.c",line 468,column 3,is_stmt,isa 0
     295 0000003d A8A9          MOVL      ACC,XAR4              ; [CPU_] |468| 
     296 0000003e FF19          ADD       ACC,#51 << 9          ; [CPU_] |468| 
         0000003f 0033 
     297 00000040 83A9          MOVL      XAR5,ACC              ; [CPU_] |468| 
     298                      .dwpsn  file "../drivers/source/adc.c",line 472,column 3,is_stmt,isa 0
     299 00000041 A8A9          MOVL      ACC,XAR4              ; [CPU_] |472| 
     300 00000042 FF19          ADD       ACC,#51 << 9          ; [CPU_] |472| 
         00000043 0033 
     301 00000044 8AA9          MOVL      XAR4,ACC              ; [CPU_] |472| 
     302                      .dwpsn  file "../drivers/source/adc.c",line 468,column 3,is_stmt,isa 0
     303 00000045 18C5          AND       *+XAR5[0],#0xfffe     ; [CPU_] |468| 
         00000046 FFFE 
     304                      .dwpsn  file "../drivers/source/adc.c",line 472,column 3,is_stmt,isa 0
     305 00000047 92A6          MOV       AL,AR6                ; [CPU_] |472| 
     306 00000048 98C4          OR        *+XAR4[0],AL          ; [CPU_] |472| 
     307 00000049 761A   EDIS
     308 0000004a FF69          SPM       #0                    ; [CPU_] 
     309              $C$DW$21        .dwtag  DW_TAG_TI_branch
     310                      .dwattr $C$DW$21, DW_AT_low_pc(0x00)
     311                      .dwattr $C$DW$21, DW_AT_TI_return
     312              
     313 0000004b 0006          LRETR     ; [CPU_] 
     314                      ; return occurs ; [] 
     315                      .dwattr $C$DW$16, DW_AT_TI_end_file("../drivers/source/adc.c")
     316                      .dwattr $C$DW$16, DW_AT_TI_end_line(0x1dd)
     317                      .dwattr $C$DW$16, DW_AT_TI_end_column(0x01)
     318                      .dwendentry
     319                      .dwendtag $C$DW$16
TMS320C2000 Assembler PC v15.12.3 Tue Sep 20 20:29:52 2016

Tools Copyright (c) 1996-2015 Texas Instruments Incorporated
C:\Users\MaCHaDo\AppData\Local\Temp\0280810                          PAGE    7

     320              
     321 0000004c               .sect   ".text"
     322                      .clink
     323                      .global _ADC_setSocTrigSrc
     324              
     325              $C$DW$22        .dwtag  DW_TAG_subprogram
     326                      .dwattr $C$DW$22, DW_AT_name("ADC_setSocTrigSrc")
     327                      .dwattr $C$DW$22, DW_AT_low_pc(_ADC_setSocTrigSrc)
     328                      .dwattr $C$DW$22, DW_AT_high_pc(0x00)
     329                      .dwattr $C$DW$22, DW_AT_TI_symbol_name("_ADC_setSocTrigSrc")
     330                      .dwattr $C$DW$22, DW_AT_external
     331                      .dwattr $C$DW$22, DW_AT_TI_begin_file("../drivers/source/adc.c")
     332                      .dwattr $C$DW$22, DW_AT_TI_begin_line(0x198)
     333                      .dwattr $C$DW$22, DW_AT_TI_begin_column(0x06)
     334                      .dwattr $C$DW$22, DW_AT_TI_max_frame_size(-2)
     335                      .dwpsn  file "../drivers/source/adc.c",line 409,column 1,is_stmt,address _ADC_setSocTrigSrc,isa 0
     336              
     337                      .dwfde $C$DW$CIE, _ADC_setSocTrigSrc
     338              $C$DW$23        .dwtag  DW_TAG_formal_parameter
     339                      .dwattr $C$DW$23, DW_AT_name("adcHandle")
     340                      .dwattr $C$DW$23, DW_AT_TI_symbol_name("_adcHandle")
     341                      .dwattr $C$DW$23, DW_AT_type(*$C$DW$T$71)
     342                      .dwattr $C$DW$23, DW_AT_location[DW_OP_reg12]
     343              
     344              $C$DW$24        .dwtag  DW_TAG_formal_parameter
     345                      .dwattr $C$DW$24, DW_AT_name("socNumber")
     346                      .dwattr $C$DW$24, DW_AT_TI_symbol_name("_socNumber")
     347                      .dwattr $C$DW$24, DW_AT_type(*$C$DW$T$48)
     348                      .dwattr $C$DW$24, DW_AT_location[DW_OP_reg0]
     349              
     350              $C$DW$25        .dwtag  DW_TAG_formal_parameter
     351                      .dwattr $C$DW$25, DW_AT_name("trigSrc")
     352                      .dwattr $C$DW$25, DW_AT_TI_symbol_name("_trigSrc")
     353                      .dwattr $C$DW$25, DW_AT_type(*$C$DW$T$57)
     354                      .dwattr $C$DW$25, DW_AT_location[DW_OP_reg1]
     355              
     356              
     357              ;***************************************************************
     358              ;* FNAME: _ADC_setSocTrigSrc            FR SIZE:   0           *
     359              ;*                                                             *
     360              ;* FUNCTION ENVIRONMENT                                        *
     361              ;*                                                             *
     362              ;* FUNCTION PROPERTIES                                         *
     363              ;*                            0 Parameter,  0 Auto,  0 SOE     *
     364              ;***************************************************************
     365              
     366              _ADC_setSocTrigSrc:
     367              ;* AR4   assigned to $O$C1
     368              ;* AR4   assigned to _adcHandle
     369              $C$DW$26        .dwtag  DW_TAG_variable
     370                      .dwattr $C$DW$26, DW_AT_name("adcHandle")
     371                      .dwattr $C$DW$26, DW_AT_TI_symbol_name("_adcHandle")
     372                      .dwattr $C$DW$26, DW_AT_type(*$C$DW$T$78)
     373                      .dwattr $C$DW$26, DW_AT_location[DW_OP_reg12]
     374              
TMS320C2000 Assembler PC v15.12.3 Tue Sep 20 20:29:52 2016

Tools Copyright (c) 1996-2015 Texas Instruments Incorporated
C:\Users\MaCHaDo\AppData\Local\Temp\0280810                          PAGE    8

     375              ;* AR7   assigned to _socNumber
     376              $C$DW$27        .dwtag  DW_TAG_variable
     377                      .dwattr $C$DW$27, DW_AT_name("socNumber")
     378                      .dwattr $C$DW$27, DW_AT_TI_symbol_name("_socNumber")
     379                      .dwattr $C$DW$27, DW_AT_type(*$C$DW$T$48)
     380                      .dwattr $C$DW$27, DW_AT_location[DW_OP_reg18]
     381              
     382              ;* AR6   assigned to _trigSrc
     383              $C$DW$28        .dwtag  DW_TAG_variable
     384                      .dwattr $C$DW$28, DW_AT_name("trigSrc")
     385                      .dwattr $C$DW$28, DW_AT_TI_symbol_name("_trigSrc")
     386                      .dwattr $C$DW$28, DW_AT_type(*$C$DW$T$57)
     387                      .dwattr $C$DW$28, DW_AT_location[DW_OP_reg16]
     388              
     389                      .dwcfi  cfa_offset, -2
     390                      .dwcfi  save_reg_to_mem, 26, 0
     391 0000004c 80A9          MOVZ      AR7,AL                ; [CPU_] |409| 
     392 0000004d 88A8          MOVZ      AR6,AH                ; [CPU_] |409| 
     393 0000004e 7622   EALLOW
     394                      .dwpsn  file "../drivers/source/adc.c",line 416,column 3,is_stmt,isa 0
     395 0000004f A8A9          MOVL      ACC,XAR4              ; [CPU_] |416| 
     396 00000050 0DA7          ADDU      ACC,AR7               ; [CPU_] |416| 
     397 00000051 8AA9          MOVL      XAR4,ACC              ; [CPU_] |416| 
     398 00000052 FF15          ADD       ACC,#817 << 5         ; [CPU_] |416| 
         00000053 0331 
     399 00000054 83A9          MOVL      XAR5,ACC              ; [CPU_] |416| 
     400                      .dwpsn  file "../drivers/source/adc.c",line 420,column 3,is_stmt,isa 0
     401 00000055 A8A9          MOVL      ACC,XAR4              ; [CPU_] |420| 
     402 00000056 FF15          ADD       ACC,#817 << 5         ; [CPU_] |420| 
         00000057 0331 
     403 00000058 8AA9          MOVL      XAR4,ACC              ; [CPU_] |420| 
     404                      .dwpsn  file "../drivers/source/adc.c",line 416,column 3,is_stmt,isa 0
     405 00000059 18C5          AND       *+XAR5[0],#0x07ff     ; [CPU_] |416| 
         0000005a 07FF 
     406                      .dwpsn  file "../drivers/source/adc.c",line 420,column 3,is_stmt,isa 0
     407 0000005b 92A6          MOV       AL,AR6                ; [CPU_] |420| 
     408 0000005c 98C4          OR        *+XAR4[0],AL          ; [CPU_] |420| 
     409 0000005d 761A   EDIS
     410 0000005e FF69          SPM       #0                    ; [CPU_] 
     411              $C$DW$29        .dwtag  DW_TAG_TI_branch
     412                      .dwattr $C$DW$29, DW_AT_low_pc(0x00)
     413                      .dwattr $C$DW$29, DW_AT_TI_return
     414              
     415 0000005f 0006          LRETR     ; [CPU_] 
     416                      ; return occurs ; [] 
     417                      .dwattr $C$DW$22, DW_AT_TI_end_file("../drivers/source/adc.c")
     418                      .dwattr $C$DW$22, DW_AT_TI_end_line(0x1a9)
     419                      .dwattr $C$DW$22, DW_AT_TI_end_column(0x01)
     420                      .dwendentry
     421                      .dwendtag $C$DW$22
     422              
     423 00000060               .sect   ".text"
     424                      .clink
     425                      .global _ADC_setSocSampleDelay
     426              
TMS320C2000 Assembler PC v15.12.3 Tue Sep 20 20:29:52 2016

Tools Copyright (c) 1996-2015 Texas Instruments Incorporated
C:\Users\MaCHaDo\AppData\Local\Temp\0280810                          PAGE    9

     427              $C$DW$30        .dwtag  DW_TAG_subprogram
     428                      .dwattr $C$DW$30, DW_AT_name("ADC_setSocSampleDelay")
     429                      .dwattr $C$DW$30, DW_AT_low_pc(_ADC_setSocSampleDelay)
     430                      .dwattr $C$DW$30, DW_AT_high_pc(0x00)
     431                      .dwattr $C$DW$30, DW_AT_TI_symbol_name("_ADC_setSocSampleDelay")
     432                      .dwattr $C$DW$30, DW_AT_external
     433                      .dwattr $C$DW$30, DW_AT_TI_begin_file("../drivers/source/adc.c")
     434                      .dwattr $C$DW$30, DW_AT_TI_begin_line(0x184)
     435                      .dwattr $C$DW$30, DW_AT_TI_begin_column(0x06)
     436                      .dwattr $C$DW$30, DW_AT_TI_max_frame_size(-2)
     437                      .dwpsn  file "../drivers/source/adc.c",line 389,column 1,is_stmt,address _ADC_setSocSampleDelay,isa 0
     438              
     439                      .dwfde $C$DW$CIE, _ADC_setSocSampleDelay
     440              $C$DW$31        .dwtag  DW_TAG_formal_parameter
     441                      .dwattr $C$DW$31, DW_AT_name("adcHandle")
     442                      .dwattr $C$DW$31, DW_AT_TI_symbol_name("_adcHandle")
     443                      .dwattr $C$DW$31, DW_AT_type(*$C$DW$T$71)
     444                      .dwattr $C$DW$31, DW_AT_location[DW_OP_reg12]
     445              
     446              $C$DW$32        .dwtag  DW_TAG_formal_parameter
     447                      .dwattr $C$DW$32, DW_AT_name("socNumber")
     448                      .dwattr $C$DW$32, DW_AT_TI_symbol_name("_socNumber")
     449                      .dwattr $C$DW$32, DW_AT_type(*$C$DW$T$48)
     450                      .dwattr $C$DW$32, DW_AT_location[DW_OP_reg0]
     451              
     452              $C$DW$33        .dwtag  DW_TAG_formal_parameter
     453                      .dwattr $C$DW$33, DW_AT_name("sampleDelay")
     454                      .dwattr $C$DW$33, DW_AT_TI_symbol_name("_sampleDelay")
     455                      .dwattr $C$DW$33, DW_AT_type(*$C$DW$T$54)
     456                      .dwattr $C$DW$33, DW_AT_location[DW_OP_reg1]
     457              
     458              
     459              ;***************************************************************
     460              ;* FNAME: _ADC_setSocSampleDelay        FR SIZE:   0           *
     461              ;*                                                             *
     462              ;* FUNCTION ENVIRONMENT                                        *
     463              ;*                                                             *
     464              ;* FUNCTION PROPERTIES                                         *
     465              ;*                            0 Parameter,  0 Auto,  0 SOE     *
     466              ;***************************************************************
     467              
     468              _ADC_setSocSampleDelay:
     469              ;* AR4   assigned to $O$C1
     470              ;* AR4   assigned to _adcHandle
     471              $C$DW$34        .dwtag  DW_TAG_variable
     472                      .dwattr $C$DW$34, DW_AT_name("adcHandle")
     473                      .dwattr $C$DW$34, DW_AT_TI_symbol_name("_adcHandle")
     474                      .dwattr $C$DW$34, DW_AT_type(*$C$DW$T$78)
     475                      .dwattr $C$DW$34, DW_AT_location[DW_OP_reg12]
     476              
     477              ;* AR7   assigned to _socNumber
     478              $C$DW$35        .dwtag  DW_TAG_variable
     479                      .dwattr $C$DW$35, DW_AT_name("socNumber")
     480                      .dwattr $C$DW$35, DW_AT_TI_symbol_name("_socNumber")
     481                      .dwattr $C$DW$35, DW_AT_type(*$C$DW$T$48)
TMS320C2000 Assembler PC v15.12.3 Tue Sep 20 20:29:52 2016

Tools Copyright (c) 1996-2015 Texas Instruments Incorporated
C:\Users\MaCHaDo\AppData\Local\Temp\0280810                          PAGE   10

     482                      .dwattr $C$DW$35, DW_AT_location[DW_OP_reg18]
     483              
     484              ;* AR6   assigned to _sampleDelay
     485              $C$DW$36        .dwtag  DW_TAG_variable
     486                      .dwattr $C$DW$36, DW_AT_name("sampleDelay")
     487                      .dwattr $C$DW$36, DW_AT_TI_symbol_name("_sampleDelay")
     488                      .dwattr $C$DW$36, DW_AT_type(*$C$DW$T$54)
     489                      .dwattr $C$DW$36, DW_AT_location[DW_OP_reg16]
     490              
     491                      .dwcfi  cfa_offset, -2
     492                      .dwcfi  save_reg_to_mem, 26, 0
     493 00000060 80A9          MOVZ      AR7,AL                ; [CPU_] |389| 
     494 00000061 88A8          MOVZ      AR6,AH                ; [CPU_] |389| 
     495 00000062 7622   EALLOW
     496                      .dwpsn  file "../drivers/source/adc.c",line 396,column 3,is_stmt,isa 0
     497 00000063 A8A9          MOVL      ACC,XAR4              ; [CPU_] |396| 
     498 00000064 0DA7          ADDU      ACC,AR7               ; [CPU_] |396| 
     499 00000065 8AA9          MOVL      XAR4,ACC              ; [CPU_] |396| 
     500 00000066 FF15          ADD       ACC,#817 << 5         ; [CPU_] |396| 
         00000067 0331 
     501 00000068 83A9          MOVL      XAR5,ACC              ; [CPU_] |396| 
     502                      .dwpsn  file "../drivers/source/adc.c",line 400,column 3,is_stmt,isa 0
     503 00000069 A8A9          MOVL      ACC,XAR4              ; [CPU_] |400| 
     504 0000006a FF15          ADD       ACC,#817 << 5         ; [CPU_] |400| 
         0000006b 0331 
     505 0000006c 8AA9          MOVL      XAR4,ACC              ; [CPU_] |400| 
     506                      .dwpsn  file "../drivers/source/adc.c",line 396,column 3,is_stmt,isa 0
     507 0000006d 18C5          AND       *+XAR5[0],#0xffc0     ; [CPU_] |396| 
         0000006e FFC0 
     508                      .dwpsn  file "../drivers/source/adc.c",line 400,column 3,is_stmt,isa 0
     509 0000006f 92A6          MOV       AL,AR6                ; [CPU_] |400| 
     510 00000070 98C4          OR        *+XAR4[0],AL          ; [CPU_] |400| 
     511 00000071 761A   EDIS
     512 00000072 FF69          SPM       #0                    ; [CPU_] 
     513              $C$DW$37        .dwtag  DW_TAG_TI_branch
     514                      .dwattr $C$DW$37, DW_AT_low_pc(0x00)
     515                      .dwattr $C$DW$37, DW_AT_TI_return
     516              
     517 00000073 0006          LRETR     ; [CPU_] 
     518                      ; return occurs ; [] 
     519                      .dwattr $C$DW$30, DW_AT_TI_end_file("../drivers/source/adc.c")
     520                      .dwattr $C$DW$30, DW_AT_TI_end_line(0x195)
     521                      .dwattr $C$DW$30, DW_AT_TI_end_column(0x01)
     522                      .dwendentry
     523                      .dwendtag $C$DW$30
     524              
     525 00000074               .sect   ".text"
     526                      .clink
     527                      .global _ADC_setSocFrcWord
     528              
     529              $C$DW$38        .dwtag  DW_TAG_subprogram
     530                      .dwattr $C$DW$38, DW_AT_name("ADC_setSocFrcWord")
     531                      .dwattr $C$DW$38, DW_AT_low_pc(_ADC_setSocFrcWord)
     532                      .dwattr $C$DW$38, DW_AT_high_pc(0x00)
     533                      .dwattr $C$DW$38, DW_AT_TI_symbol_name("_ADC_setSocFrcWord")
TMS320C2000 Assembler PC v15.12.3 Tue Sep 20 20:29:52 2016

Tools Copyright (c) 1996-2015 Texas Instruments Incorporated
C:\Users\MaCHaDo\AppData\Local\Temp\0280810                          PAGE   11

     534                      .dwattr $C$DW$38, DW_AT_external
     535                      .dwattr $C$DW$38, DW_AT_TI_begin_file("../drivers/source/adc.c")
     536                      .dwattr $C$DW$38, DW_AT_TI_begin_line(0x1bc)
     537                      .dwattr $C$DW$38, DW_AT_TI_begin_column(0x06)
     538                      .dwattr $C$DW$38, DW_AT_TI_max_frame_size(-2)
     539                      .dwpsn  file "../drivers/source/adc.c",line 445,column 1,is_stmt,address _ADC_setSocFrcWord,isa 0
     540              
     541                      .dwfde $C$DW$CIE, _ADC_setSocFrcWord
     542              $C$DW$39        .dwtag  DW_TAG_formal_parameter
     543                      .dwattr $C$DW$39, DW_AT_name("adcHandle")
     544                      .dwattr $C$DW$39, DW_AT_TI_symbol_name("_adcHandle")
     545                      .dwattr $C$DW$39, DW_AT_type(*$C$DW$T$71)
     546                      .dwattr $C$DW$39, DW_AT_location[DW_OP_reg12]
     547              
     548              $C$DW$40        .dwtag  DW_TAG_formal_parameter
     549                      .dwattr $C$DW$40, DW_AT_name("socFrc")
     550                      .dwattr $C$DW$40, DW_AT_TI_symbol_name("_socFrc")
     551                      .dwattr $C$DW$40, DW_AT_type(*$C$DW$T$96)
     552                      .dwattr $C$DW$40, DW_AT_location[DW_OP_reg0]
     553              
     554              
     555              ;***************************************************************
     556              ;* FNAME: _ADC_setSocFrcWord            FR SIZE:   0           *
     557              ;*                                                             *
     558              ;* FUNCTION ENVIRONMENT                                        *
     559              ;*                                                             *
     560              ;* FUNCTION PROPERTIES                                         *
     561              ;*                            0 Parameter,  0 Auto,  0 SOE     *
     562              ;***************************************************************
     563              
     564              _ADC_setSocFrcWord:
     565              ;* AL    assigned to _adcHandle
     566              $C$DW$41        .dwtag  DW_TAG_variable
     567                      .dwattr $C$DW$41, DW_AT_name("adcHandle")
     568                      .dwattr $C$DW$41, DW_AT_TI_symbol_name("_adcHandle")
     569                      .dwattr $C$DW$41, DW_AT_type(*$C$DW$T$78)
     570                      .dwattr $C$DW$41, DW_AT_location[DW_OP_reg0]
     571              
     572              ;* AR6   assigned to _socFrc
     573              $C$DW$42        .dwtag  DW_TAG_variable
     574                      .dwattr $C$DW$42, DW_AT_name("socFrc")
     575                      .dwattr $C$DW$42, DW_AT_TI_symbol_name("_socFrc")
     576                      .dwattr $C$DW$42, DW_AT_type(*$C$DW$T$96)
     577                      .dwattr $C$DW$42, DW_AT_location[DW_OP_reg16]
     578              
     579                      .dwcfi  cfa_offset, -2
     580                      .dwcfi  save_reg_to_mem, 26, 0
     581 00000074 88A9          MOVZ      AR6,AL                ; [CPU_] |445| 
     582 00000075 A8A9          MOVL      ACC,XAR4              ; [CPU_] |445| 
     583 00000076 7622   EALLOW
     584                      .dwpsn  file "../drivers/source/adc.c",line 452,column 3,is_stmt,isa 0
     585 00000077 FF11          ADD       ACC,#13069 << 1       ; [CPU_] |452| 
         00000078 330D 
     586 00000079 8AA9          MOVL      XAR4,ACC              ; [CPU_] |452| 
     587 0000007a 7EC4          MOV       *+XAR4[0],AR6         ; [CPU_] |452| 
TMS320C2000 Assembler PC v15.12.3 Tue Sep 20 20:29:52 2016

Tools Copyright (c) 1996-2015 Texas Instruments Incorporated
C:\Users\MaCHaDo\AppData\Local\Temp\0280810                          PAGE   12

     588 0000007b 761A   EDIS
     589 0000007c FF69          SPM       #0                    ; [CPU_] 
     590              $C$DW$43        .dwtag  DW_TAG_TI_branch
     591                      .dwattr $C$DW$43, DW_AT_low_pc(0x00)
     592                      .dwattr $C$DW$43, DW_AT_TI_return
     593              
     594 0000007d 0006          LRETR     ; [CPU_] 
     595                      ; return occurs ; [] 
     596                      .dwattr $C$DW$38, DW_AT_TI_end_file("../drivers/source/adc.c")
     597                      .dwattr $C$DW$38, DW_AT_TI_end_line(0x1c9)
     598                      .dwattr $C$DW$38, DW_AT_TI_end_column(0x01)
     599                      .dwendentry
     600                      .dwendtag $C$DW$38
     601              
     602 0000007e               .sect   ".text"
     603                      .clink
     604                      .global _ADC_setSocFrc
     605              
     606              $C$DW$44        .dwtag  DW_TAG_subprogram
     607                      .dwattr $C$DW$44, DW_AT_name("ADC_setSocFrc")
     608                      .dwattr $C$DW$44, DW_AT_low_pc(_ADC_setSocFrc)
     609                      .dwattr $C$DW$44, DW_AT_high_pc(0x00)
     610                      .dwattr $C$DW$44, DW_AT_TI_symbol_name("_ADC_setSocFrc")
     611                      .dwattr $C$DW$44, DW_AT_external
     612                      .dwattr $C$DW$44, DW_AT_TI_begin_file("../drivers/source/adc.c")
     613                      .dwattr $C$DW$44, DW_AT_TI_begin_line(0x1ac)
     614                      .dwattr $C$DW$44, DW_AT_TI_begin_column(0x06)
     615                      .dwattr $C$DW$44, DW_AT_TI_max_frame_size(-2)
     616                      .dwpsn  file "../drivers/source/adc.c",line 429,column 1,is_stmt,address _ADC_setSocFrc,isa 0
     617              
     618                      .dwfde $C$DW$CIE, _ADC_setSocFrc
     619              $C$DW$45        .dwtag  DW_TAG_formal_parameter
     620                      .dwattr $C$DW$45, DW_AT_name("adcHandle")
     621                      .dwattr $C$DW$45, DW_AT_TI_symbol_name("_adcHandle")
     622                      .dwattr $C$DW$45, DW_AT_type(*$C$DW$T$71)
     623                      .dwattr $C$DW$45, DW_AT_location[DW_OP_reg12]
     624              
     625              $C$DW$46        .dwtag  DW_TAG_formal_parameter
     626                      .dwattr $C$DW$46, DW_AT_name("socFrc")
     627                      .dwattr $C$DW$46, DW_AT_TI_symbol_name("_socFrc")
     628                      .dwattr $C$DW$46, DW_AT_type(*$C$DW$T$60)
     629                      .dwattr $C$DW$46, DW_AT_location[DW_OP_reg0]
     630              
     631              
     632              ;***************************************************************
     633              ;* FNAME: _ADC_setSocFrc                FR SIZE:   0           *
     634              ;*                                                             *
     635              ;* FUNCTION ENVIRONMENT                                        *
     636              ;*                                                             *
     637              ;* FUNCTION PROPERTIES                                         *
     638              ;*                            0 Parameter,  0 Auto,  0 SOE     *
     639              ;***************************************************************
     640              
     641              _ADC_setSocFrc:
     642              ;* T     assigned to _socFrc
TMS320C2000 Assembler PC v15.12.3 Tue Sep 20 20:29:52 2016

Tools Copyright (c) 1996-2015 Texas Instruments Incorporated
C:\Users\MaCHaDo\AppData\Local\Temp\0280810                          PAGE   13

     643              $C$DW$47        .dwtag  DW_TAG_variable
     644                      .dwattr $C$DW$47, DW_AT_name("socFrc")
     645                      .dwattr $C$DW$47, DW_AT_TI_symbol_name("_socFrc")
     646                      .dwattr $C$DW$47, DW_AT_type(*$C$DW$T$60)
     647                      .dwattr $C$DW$47, DW_AT_location[DW_OP_reg22]
     648              
     649                      .dwcfi  cfa_offset, -2
     650                      .dwcfi  save_reg_to_mem, 26, 0
     651 0000007e 2DA9          MOV       T,AL                  ; [CPU_] |429| 
     652 0000007f 7622   EALLOW
     653                      .dwpsn  file "../drivers/source/adc.c",line 436,column 3,is_stmt,isa 0
     654 00000080 9A01          MOVB      AL,#1                 ; [CPU_] |436| 
     655 00000081 FF66          LSL       AL,T                  ; [CPU_] |436| 
     656 00000082 88A9          MOVZ      AR6,AL                ; [CPU_] |436| 
     657 00000083 A8A9          MOVL      ACC,XAR4              ; [CPU_] |436| 
     658 00000084 FF11          ADD       ACC,#13069 << 1       ; [CPU_] |436| 
         00000085 330D 
     659 00000086 8AA9          MOVL      XAR4,ACC              ; [CPU_] |436| 
     660 00000087 7EC4          MOV       *+XAR4[0],AR6         ; [CPU_] |436| 
     661 00000088 761A   EDIS
     662 00000089 FF69          SPM       #0                    ; [CPU_] 
     663              $C$DW$48        .dwtag  DW_TAG_TI_branch
     664                      .dwattr $C$DW$48, DW_AT_low_pc(0x00)
     665                      .dwattr $C$DW$48, DW_AT_TI_return
     666              
     667 0000008a 0006          LRETR     ; [CPU_] 
     668                      ; return occurs ; [] 
     669                      .dwattr $C$DW$44, DW_AT_TI_end_file("../drivers/source/adc.c")
     670                      .dwattr $C$DW$44, DW_AT_TI_end_line(0x1b9)
     671                      .dwattr $C$DW$44, DW_AT_TI_end_column(0x01)
     672                      .dwendentry
     673                      .dwendtag $C$DW$44
     674              
     675 0000008b               .sect   ".text"
     676                      .clink
     677                      .global _ADC_setSocChanNumber
     678              
     679              $C$DW$49        .dwtag  DW_TAG_subprogram
     680                      .dwattr $C$DW$49, DW_AT_name("ADC_setSocChanNumber")
     681                      .dwattr $C$DW$49, DW_AT_low_pc(_ADC_setSocChanNumber)
     682                      .dwattr $C$DW$49, DW_AT_high_pc(0x00)
     683                      .dwattr $C$DW$49, DW_AT_TI_symbol_name("_ADC_setSocChanNumber")
     684                      .dwattr $C$DW$49, DW_AT_external
     685                      .dwattr $C$DW$49, DW_AT_TI_begin_file("../drivers/source/adc.c")
     686                      .dwattr $C$DW$49, DW_AT_TI_begin_line(0x170)
     687                      .dwattr $C$DW$49, DW_AT_TI_begin_column(0x06)
     688                      .dwattr $C$DW$49, DW_AT_TI_max_frame_size(-2)
     689                      .dwpsn  file "../drivers/source/adc.c",line 369,column 1,is_stmt,address _ADC_setSocChanNumber,isa 0
     690              
     691                      .dwfde $C$DW$CIE, _ADC_setSocChanNumber
     692              $C$DW$50        .dwtag  DW_TAG_formal_parameter
     693                      .dwattr $C$DW$50, DW_AT_name("adcHandle")
     694                      .dwattr $C$DW$50, DW_AT_TI_symbol_name("_adcHandle")
     695                      .dwattr $C$DW$50, DW_AT_type(*$C$DW$T$71)
     696                      .dwattr $C$DW$50, DW_AT_location[DW_OP_reg12]
TMS320C2000 Assembler PC v15.12.3 Tue Sep 20 20:29:52 2016

Tools Copyright (c) 1996-2015 Texas Instruments Incorporated
C:\Users\MaCHaDo\AppData\Local\Temp\0280810                          PAGE   14

     697              
     698              $C$DW$51        .dwtag  DW_TAG_formal_parameter
     699                      .dwattr $C$DW$51, DW_AT_name("socNumber")
     700                      .dwattr $C$DW$51, DW_AT_TI_symbol_name("_socNumber")
     701                      .dwattr $C$DW$51, DW_AT_type(*$C$DW$T$48)
     702                      .dwattr $C$DW$51, DW_AT_location[DW_OP_reg0]
     703              
     704              $C$DW$52        .dwtag  DW_TAG_formal_parameter
     705                      .dwattr $C$DW$52, DW_AT_name("chanNumber")
     706                      .dwattr $C$DW$52, DW_AT_TI_symbol_name("_chanNumber")
     707                      .dwattr $C$DW$52, DW_AT_type(*$C$DW$T$51)
     708                      .dwattr $C$DW$52, DW_AT_location[DW_OP_reg1]
     709              
     710              
     711              ;***************************************************************
     712              ;* FNAME: _ADC_setSocChanNumber         FR SIZE:   0           *
     713              ;*                                                             *
     714              ;* FUNCTION ENVIRONMENT                                        *
     715              ;*                                                             *
     716              ;* FUNCTION PROPERTIES                                         *
     717              ;*                            0 Parameter,  0 Auto,  0 SOE     *
     718              ;***************************************************************
     719              
     720              _ADC_setSocChanNumber:
     721              ;* AR4   assigned to $O$C1
     722              ;* AR4   assigned to _adcHandle
     723              $C$DW$53        .dwtag  DW_TAG_variable
     724                      .dwattr $C$DW$53, DW_AT_name("adcHandle")
     725                      .dwattr $C$DW$53, DW_AT_TI_symbol_name("_adcHandle")
     726                      .dwattr $C$DW$53, DW_AT_type(*$C$DW$T$78)
     727                      .dwattr $C$DW$53, DW_AT_location[DW_OP_reg12]
     728              
     729              ;* AR7   assigned to _socNumber
     730              $C$DW$54        .dwtag  DW_TAG_variable
     731                      .dwattr $C$DW$54, DW_AT_name("socNumber")
     732                      .dwattr $C$DW$54, DW_AT_TI_symbol_name("_socNumber")
     733                      .dwattr $C$DW$54, DW_AT_type(*$C$DW$T$48)
     734                      .dwattr $C$DW$54, DW_AT_location[DW_OP_reg18]
     735              
     736              ;* AR6   assigned to _chanNumber
     737              $C$DW$55        .dwtag  DW_TAG_variable
     738                      .dwattr $C$DW$55, DW_AT_name("chanNumber")
     739                      .dwattr $C$DW$55, DW_AT_TI_symbol_name("_chanNumber")
     740                      .dwattr $C$DW$55, DW_AT_type(*$C$DW$T$51)
     741                      .dwattr $C$DW$55, DW_AT_location[DW_OP_reg16]
     742              
     743                      .dwcfi  cfa_offset, -2
     744                      .dwcfi  save_reg_to_mem, 26, 0
     745 0000008b 80A9          MOVZ      AR7,AL                ; [CPU_] |369| 
     746 0000008c 88A8          MOVZ      AR6,AH                ; [CPU_] |369| 
     747 0000008d 7622   EALLOW
     748                      .dwpsn  file "../drivers/source/adc.c",line 376,column 3,is_stmt,isa 0
     749 0000008e A8A9          MOVL      ACC,XAR4              ; [CPU_] |376| 
     750 0000008f 0DA7          ADDU      ACC,AR7               ; [CPU_] |376| 
     751 00000090 8AA9          MOVL      XAR4,ACC              ; [CPU_] |376| 
TMS320C2000 Assembler PC v15.12.3 Tue Sep 20 20:29:52 2016

Tools Copyright (c) 1996-2015 Texas Instruments Incorporated
C:\Users\MaCHaDo\AppData\Local\Temp\0280810                          PAGE   15

     752 00000091 FF15          ADD       ACC,#817 << 5         ; [CPU_] |376| 
         00000092 0331 
     753 00000093 83A9          MOVL      XAR5,ACC              ; [CPU_] |376| 
     754                      .dwpsn  file "../drivers/source/adc.c",line 380,column 3,is_stmt,isa 0
     755 00000094 A8A9          MOVL      ACC,XAR4              ; [CPU_] |380| 
     756 00000095 FF15          ADD       ACC,#817 << 5         ; [CPU_] |380| 
         00000096 0331 
     757 00000097 8AA9          MOVL      XAR4,ACC              ; [CPU_] |380| 
     758                      .dwpsn  file "../drivers/source/adc.c",line 376,column 3,is_stmt,isa 0
     759 00000098 18C5          AND       *+XAR5[0],#0xfc3f     ; [CPU_] |376| 
         00000099 FC3F 
     760                      .dwpsn  file "../drivers/source/adc.c",line 380,column 3,is_stmt,isa 0
     761 0000009a 92A6          MOV       AL,AR6                ; [CPU_] |380| 
     762 0000009b 98C4          OR        *+XAR4[0],AL          ; [CPU_] |380| 
     763 0000009c 761A   EDIS
     764 0000009d FF69          SPM       #0                    ; [CPU_] 
     765              $C$DW$56        .dwtag  DW_TAG_TI_branch
     766                      .dwattr $C$DW$56, DW_AT_low_pc(0x00)
     767                      .dwattr $C$DW$56, DW_AT_TI_return
     768              
     769 0000009e 0006          LRETR     ; [CPU_] 
     770                      ; return occurs ; [] 
     771                      .dwattr $C$DW$49, DW_AT_TI_end_file("../drivers/source/adc.c")
     772                      .dwattr $C$DW$49, DW_AT_TI_end_line(0x181)
     773                      .dwattr $C$DW$49, DW_AT_TI_end_column(0x01)
     774                      .dwendentry
     775                      .dwendtag $C$DW$49
     776              
     777 0000009f               .sect   ".text"
     778                      .clink
     779                      .global _ADC_setSampleOverlapMode
     780              
     781              $C$DW$57        .dwtag  DW_TAG_subprogram
     782                      .dwattr $C$DW$57, DW_AT_name("ADC_setSampleOverlapMode")
     783                      .dwattr $C$DW$57, DW_AT_low_pc(_ADC_setSampleOverlapMode)
     784                      .dwattr $C$DW$57, DW_AT_high_pc(0x00)
     785                      .dwattr $C$DW$57, DW_AT_TI_symbol_name("_ADC_setSampleOverlapMode")
     786                      .dwattr $C$DW$57, DW_AT_external
     787                      .dwattr $C$DW$57, DW_AT_TI_begin_file("../drivers/source/adc.c")
     788                      .dwattr $C$DW$57, DW_AT_TI_begin_line(0x101)
     789                      .dwattr $C$DW$57, DW_AT_TI_begin_column(0x06)
     790                      .dwattr $C$DW$57, DW_AT_TI_max_frame_size(-2)
     791                      .dwpsn  file "../drivers/source/adc.c",line 258,column 1,is_stmt,address _ADC_setSampleOverlapMode,is
     792              
     793                      .dwfde $C$DW$CIE, _ADC_setSampleOverlapMode
     794              $C$DW$58        .dwtag  DW_TAG_formal_parameter
     795                      .dwattr $C$DW$58, DW_AT_name("adcHandle")
     796                      .dwattr $C$DW$58, DW_AT_TI_symbol_name("_adcHandle")
     797                      .dwattr $C$DW$58, DW_AT_type(*$C$DW$T$71)
     798                      .dwattr $C$DW$58, DW_AT_location[DW_OP_reg12]
     799              
     800              $C$DW$59        .dwtag  DW_TAG_formal_parameter
     801                      .dwattr $C$DW$59, DW_AT_name("OverLap")
     802                      .dwattr $C$DW$59, DW_AT_TI_symbol_name("_OverLap")
     803                      .dwattr $C$DW$59, DW_AT_type(*$C$DW$T$32)
TMS320C2000 Assembler PC v15.12.3 Tue Sep 20 20:29:52 2016

Tools Copyright (c) 1996-2015 Texas Instruments Incorporated
C:\Users\MaCHaDo\AppData\Local\Temp\0280810                          PAGE   16

     804                      .dwattr $C$DW$59, DW_AT_location[DW_OP_reg0]
     805              
     806              
     807              ;***************************************************************
     808              ;* FNAME: _ADC_setSampleOverlapMode     FR SIZE:   0           *
     809              ;*                                                             *
     810              ;* FUNCTION ENVIRONMENT                                        *
     811              ;*                                                             *
     812              ;* FUNCTION PROPERTIES                                         *
     813              ;*                            0 Parameter,  0 Auto,  0 SOE     *
     814              ;***************************************************************
     815              
     816              _ADC_setSampleOverlapMode:
     817              ;* AL    assigned to _OverLap
     818              $C$DW$60        .dwtag  DW_TAG_variable
     819                      .dwattr $C$DW$60, DW_AT_name("OverLap")
     820                      .dwattr $C$DW$60, DW_AT_TI_symbol_name("_OverLap")
     821                      .dwattr $C$DW$60, DW_AT_type(*$C$DW$T$33)
     822                      .dwattr $C$DW$60, DW_AT_location[DW_OP_reg0]
     823              
     824              ;* AR4   assigned to _adcHandle
     825              $C$DW$61        .dwtag  DW_TAG_variable
     826                      .dwattr $C$DW$61, DW_AT_name("adcHandle")
     827                      .dwattr $C$DW$61, DW_AT_TI_symbol_name("_adcHandle")
     828                      .dwattr $C$DW$61, DW_AT_type(*$C$DW$T$78)
     829                      .dwattr $C$DW$61, DW_AT_location[DW_OP_reg12]
     830              
     831                      .dwcfi  cfa_offset, -2
     832                      .dwcfi  save_reg_to_mem, 26, 0
     833 0000009f 7622   EALLOW
     834                      .dwpsn  file "../drivers/source/adc.c",line 265,column 3,is_stmt,isa 0
     835 000000a0 5200          CMPB      AL,#0                 ; [CPU_] |265| 
     836 000000a1 6008          B         $C$L3,NEQ             ; [CPU_] |265| 
     837                      ; branchcc occurs ; [] |265| 
     838                      .dwpsn  file "../drivers/source/adc.c",line 266,column 5,is_stmt,isa 0
     839 000000a2 A8A9          MOVL      ACC,XAR4              ; [CPU_] |266| 
     840 000000a3 FF10          ADD       ACC,#26113 << 0       ; [CPU_] |266| 
         000000a4 6601 
     841 000000a5 8AA9          MOVL      XAR4,ACC              ; [CPU_] |266| 
     842 000000a6 18C4          AND       *+XAR4[0],#0xfffd     ; [CPU_] |266| 
         000000a7 FFFD 
     843 000000a8 6F07          B         $C$L4,UNC             ; [CPU_] |266| 
     844                      ; branch occurs ; [] |266| 
     845 000000a9       $C$L3:    
     846                      .dwpsn  file "../drivers/source/adc.c",line 268,column 5,is_stmt,isa 0
     847 000000a9 A8A9          MOVL      ACC,XAR4              ; [CPU_] |268| 
     848 000000aa FF10          ADD       ACC,#26113 << 0       ; [CPU_] |268| 
         000000ab 6601 
     849 000000ac 8AA9          MOVL      XAR4,ACC              ; [CPU_] |268| 
     850 000000ad 1AC4          OR        *+XAR4[0],#0x0002     ; [CPU_] |268| 
         000000ae 0002 
     851 000000af       $C$L4:    
     852 000000af 761A   EDIS
     853 000000b0 FF69          SPM       #0                    ; [CPU_] 
     854              $C$DW$62        .dwtag  DW_TAG_TI_branch
TMS320C2000 Assembler PC v15.12.3 Tue Sep 20 20:29:52 2016

Tools Copyright (c) 1996-2015 Texas Instruments Incorporated
C:\Users\MaCHaDo\AppData\Local\Temp\0280810                          PAGE   17

     855                      .dwattr $C$DW$62, DW_AT_low_pc(0x00)
     856                      .dwattr $C$DW$62, DW_AT_TI_return
     857              
     858 000000b1 0006          LRETR     ; [CPU_] 
     859                      ; return occurs ; [] 
     860                      .dwattr $C$DW$57, DW_AT_TI_end_file("../drivers/source/adc.c")
     861                      .dwattr $C$DW$57, DW_AT_TI_end_line(0x111)
     862                      .dwattr $C$DW$57, DW_AT_TI_end_column(0x01)
     863                      .dwendentry
     864                      .dwendtag $C$DW$57
     865              
     866 000000b2               .sect   ".text"
     867                      .clink
     868                      .global _ADC_setSampleMode
     869              
     870              $C$DW$63        .dwtag  DW_TAG_subprogram
     871                      .dwattr $C$DW$63, DW_AT_name("ADC_setSampleMode")
     872                      .dwattr $C$DW$63, DW_AT_low_pc(_ADC_setSampleMode)
     873                      .dwattr $C$DW$63, DW_AT_high_pc(0x00)
     874                      .dwattr $C$DW$63, DW_AT_TI_symbol_name("_ADC_setSampleMode")
     875                      .dwattr $C$DW$63, DW_AT_external
     876                      .dwattr $C$DW$63, DW_AT_TI_begin_file("../drivers/source/adc.c")
     877                      .dwattr $C$DW$63, DW_AT_TI_begin_line(0x15a)
     878                      .dwattr $C$DW$63, DW_AT_TI_begin_column(0x06)
     879                      .dwattr $C$DW$63, DW_AT_TI_max_frame_size(-2)
     880                      .dwpsn  file "../drivers/source/adc.c",line 347,column 1,is_stmt,address _ADC_setSampleMode,isa 0
     881              
     882                      .dwfde $C$DW$CIE, _ADC_setSampleMode
     883              $C$DW$64        .dwtag  DW_TAG_formal_parameter
     884                      .dwattr $C$DW$64, DW_AT_name("adcHandle")
     885                      .dwattr $C$DW$64, DW_AT_TI_symbol_name("_adcHandle")
     886                      .dwattr $C$DW$64, DW_AT_type(*$C$DW$T$71)
     887                      .dwattr $C$DW$64, DW_AT_location[DW_OP_reg12]
     888              
     889              $C$DW$65        .dwtag  DW_TAG_formal_parameter
     890                      .dwattr $C$DW$65, DW_AT_name("sampleMode")
     891                      .dwattr $C$DW$65, DW_AT_TI_symbol_name("_sampleMode")
     892                      .dwattr $C$DW$65, DW_AT_type(*$C$DW$T$45)
     893                      .dwattr $C$DW$65, DW_AT_location[DW_OP_reg0]
     894              
     895              
     896              ;***************************************************************
     897              ;* FNAME: _ADC_setSampleMode            FR SIZE:   0           *
     898              ;*                                                             *
     899              ;* FUNCTION ENVIRONMENT                                        *
     900              ;*                                                             *
     901              ;* FUNCTION PROPERTIES                                         *
     902              ;*                            0 Parameter,  0 Auto,  0 SOE     *
     903              ;***************************************************************
     904              
     905              _ADC_setSampleMode:
     906              ;* AR6   assigned to _sampleMode
     907              $C$DW$66        .dwtag  DW_TAG_variable
     908                      .dwattr $C$DW$66, DW_AT_name("sampleMode")
     909                      .dwattr $C$DW$66, DW_AT_TI_symbol_name("_sampleMode")
TMS320C2000 Assembler PC v15.12.3 Tue Sep 20 20:29:52 2016

Tools Copyright (c) 1996-2015 Texas Instruments Incorporated
C:\Users\MaCHaDo\AppData\Local\Temp\0280810                          PAGE   18

     910                      .dwattr $C$DW$66, DW_AT_type(*$C$DW$T$45)
     911                      .dwattr $C$DW$66, DW_AT_location[DW_OP_reg16]
     912              
     913              ;* AR4   assigned to _adcHandle
     914              $C$DW$67        .dwtag  DW_TAG_variable
     915                      .dwattr $C$DW$67, DW_AT_name("adcHandle")
     916                      .dwattr $C$DW$67, DW_AT_TI_symbol_name("_adcHandle")
     917                      .dwattr $C$DW$67, DW_AT_type(*$C$DW$T$78)
     918                      .dwattr $C$DW$67, DW_AT_location[DW_OP_reg12]
     919              
     920                      .dwcfi  cfa_offset, -2
     921                      .dwcfi  save_reg_to_mem, 26, 0
     922 000000b2 88A9          MOVZ      AR6,AL                ; [CPU_] |347| 
     923 000000b3 7622   EALLOW
     924                      .dwpsn  file "../drivers/source/adc.c",line 353,column 3,is_stmt,isa 0
     925 000000b4 48A6          TBIT      AR6,#8                ; [CPU_] |353| 
     926 000000b5 6D08          B         $C$L5,TC              ; [CPU_] |353| 
     927                      ; branchcc occurs ; [] |353| 
     928                      .dwpsn  file "../drivers/source/adc.c",line 359,column 7,is_stmt,isa 0
     929 000000b6 A8A9          MOVL      ACC,XAR4              ; [CPU_] |359| 
     930 000000b7 FF11          ADD       ACC,#13065 << 1       ; [CPU_] |359| 
         000000b8 3309 
     931 000000b9 8AA9          MOVL      XAR4,ACC              ; [CPU_] |359| 
     932 000000ba 92A6          MOV       AL,AR6                ; [CPU_] |359| 
     933 000000bb 98C4          OR        *+XAR4[0],AL          ; [CPU_] |359| 
     934 000000bc 6F0A          B         $C$L6,UNC             ; [CPU_] |359| 
     935                      ; branch occurs ; [] |359| 
     936 000000bd       $C$L5:    
     937                      .dwpsn  file "../drivers/source/adc.c",line 355,column 7,is_stmt,isa 0
     938 000000bd A8A9          MOVL      ACC,XAR4              ; [CPU_] |355| 
     939 000000be FF11          ADD       ACC,#13065 << 1       ; [CPU_] |355| 
         000000bf 3309 
     940 000000c0 8AA9          MOVL      XAR4,ACC              ; [CPU_] |355| 
     941 000000c1 92A6          MOV       AL,AR6                ; [CPU_] |355| 
     942 000000c2 08A9          SUB       AL,#256               ; [CPU_] |355| 
         000000c3 FF00 
     943 000000c4 FF5E          NOT       AL                    ; [CPU_] |355| 
     944 000000c5 C0C4          AND       *+XAR4[0],AL          ; [CPU_] |355| 
     945 000000c6       $C$L6:    
     946 000000c6 761A   EDIS
     947 000000c7 FF69          SPM       #0                    ; [CPU_] 
     948              $C$DW$68        .dwtag  DW_TAG_TI_branch
     949                      .dwattr $C$DW$68, DW_AT_low_pc(0x00)
     950                      .dwattr $C$DW$68, DW_AT_TI_return
     951              
     952 000000c8 0006          LRETR     ; [CPU_] 
     953                      ; return occurs ; [] 
     954                      .dwattr $C$DW$63, DW_AT_TI_end_file("../drivers/source/adc.c")
     955                      .dwattr $C$DW$63, DW_AT_TI_end_line(0x16d)
     956                      .dwattr $C$DW$63, DW_AT_TI_end_column(0x01)
     957                      .dwendentry
     958                      .dwendtag $C$DW$63
     959              
     960 000000c9               .sect   ".text"
     961                      .clink
TMS320C2000 Assembler PC v15.12.3 Tue Sep 20 20:29:52 2016

Tools Copyright (c) 1996-2015 Texas Instruments Incorporated
C:\Users\MaCHaDo\AppData\Local\Temp\0280810                          PAGE   19

     962                      .global _ADC_setOffTrim
     963              
     964              $C$DW$69        .dwtag  DW_TAG_subprogram
     965                      .dwattr $C$DW$69, DW_AT_name("ADC_setOffTrim")
     966                      .dwattr $C$DW$69, DW_AT_low_pc(_ADC_setOffTrim)
     967                      .dwattr $C$DW$69, DW_AT_high_pc(0x00)
     968                      .dwattr $C$DW$69, DW_AT_TI_symbol_name("_ADC_setOffTrim")
     969                      .dwattr $C$DW$69, DW_AT_external
     970                      .dwattr $C$DW$69, DW_AT_TI_begin_file("../drivers/source/adc.c")
     971                      .dwattr $C$DW$69, DW_AT_TI_begin_line(0x25d)
     972                      .dwattr $C$DW$69, DW_AT_TI_begin_column(0x06)
     973                      .dwattr $C$DW$69, DW_AT_TI_max_frame_size(-2)
     974                      .dwpsn  file "../drivers/source/adc.c",line 606,column 1,is_stmt,address _ADC_setOffTrim,isa 0
     975              
     976                      .dwfde $C$DW$CIE, _ADC_setOffTrim
     977              $C$DW$70        .dwtag  DW_TAG_formal_parameter
     978                      .dwattr $C$DW$70, DW_AT_name("adcHandle")
     979                      .dwattr $C$DW$70, DW_AT_TI_symbol_name("_adcHandle")
     980                      .dwattr $C$DW$70, DW_AT_type(*$C$DW$T$71)
     981                      .dwattr $C$DW$70, DW_AT_location[DW_OP_reg12]
     982              
     983              $C$DW$71        .dwtag  DW_TAG_formal_parameter
     984                      .dwattr $C$DW$71, DW_AT_name("offtrim")
     985                      .dwattr $C$DW$71, DW_AT_TI_symbol_name("_offtrim")
     986                      .dwattr $C$DW$71, DW_AT_type(*$C$DW$T$96)
     987                      .dwattr $C$DW$71, DW_AT_location[DW_OP_reg0]
     988              
     989              
     990              ;***************************************************************
     991              ;* FNAME: _ADC_setOffTrim               FR SIZE:   0           *
     992              ;*                                                             *
     993              ;* FUNCTION ENVIRONMENT                                        *
     994              ;*                                                             *
     995              ;* FUNCTION PROPERTIES                                         *
     996              ;*                            0 Parameter,  0 Auto,  0 SOE     *
     997              ;***************************************************************
     998              
     999              _ADC_setOffTrim:
    1000              ;* AL    assigned to _adcHandle
    1001              $C$DW$72        .dwtag  DW_TAG_variable
    1002                      .dwattr $C$DW$72, DW_AT_name("adcHandle")
    1003                      .dwattr $C$DW$72, DW_AT_TI_symbol_name("_adcHandle")
    1004                      .dwattr $C$DW$72, DW_AT_type(*$C$DW$T$78)
    1005                      .dwattr $C$DW$72, DW_AT_location[DW_OP_reg0]
    1006              
    1007              ;* AR6   assigned to _offtrim
    1008              $C$DW$73        .dwtag  DW_TAG_variable
    1009                      .dwattr $C$DW$73, DW_AT_name("offtrim")
    1010                      .dwattr $C$DW$73, DW_AT_TI_symbol_name("_offtrim")
    1011                      .dwattr $C$DW$73, DW_AT_type(*$C$DW$T$96)
    1012                      .dwattr $C$DW$73, DW_AT_location[DW_OP_reg16]
    1013              
    1014                      .dwcfi  cfa_offset, -2
    1015                      .dwcfi  save_reg_to_mem, 26, 0
    1016 000000c9 88A9          MOVZ      AR6,AL                ; [CPU_] |606| 
TMS320C2000 Assembler PC v15.12.3 Tue Sep 20 20:29:52 2016

Tools Copyright (c) 1996-2015 Texas Instruments Incorporated
C:\Users\MaCHaDo\AppData\Local\Temp\0280810                          PAGE   20

    1017 000000ca A8A9          MOVL      ACC,XAR4              ; [CPU_] |606| 
    1018 000000cb 7622   EALLOW
    1019                      .dwpsn  file "../drivers/source/adc.c",line 613,column 3,is_stmt,isa 0
    1020 000000cc FF10          ADD       ACC,#26177 << 0       ; [CPU_] |613| 
         000000cd 6641 
    1021 000000ce 8AA9          MOVL      XAR4,ACC              ; [CPU_] |613| 
    1022 000000cf 7EC4          MOV       *+XAR4[0],AR6         ; [CPU_] |613| 
    1023 000000d0 761A   EDIS
    1024 000000d1 FF69          SPM       #0                    ; [CPU_] 
    1025              $C$DW$74        .dwtag  DW_TAG_TI_branch
    1026                      .dwattr $C$DW$74, DW_AT_low_pc(0x00)
    1027                      .dwattr $C$DW$74, DW_AT_TI_return
    1028              
    1029 000000d2 0006          LRETR     ; [CPU_] 
    1030                      ; return occurs ; [] 
    1031                      .dwattr $C$DW$69, DW_AT_TI_end_file("../drivers/source/adc.c")
    1032                      .dwattr $C$DW$69, DW_AT_TI_end_line(0x26a)
    1033                      .dwattr $C$DW$69, DW_AT_TI_end_column(0x01)
    1034                      .dwendentry
    1035                      .dwendtag $C$DW$69
    1036              
    1037 000000d3               .sect   ".text"
    1038                      .clink
    1039                      .global _ADC_setIntSrc
    1040              
    1041              $C$DW$75        .dwtag  DW_TAG_subprogram
    1042                      .dwattr $C$DW$75, DW_AT_name("ADC_setIntSrc")
    1043                      .dwattr $C$DW$75, DW_AT_low_pc(_ADC_setIntSrc)
    1044                      .dwattr $C$DW$75, DW_AT_high_pc(0x00)
    1045                      .dwattr $C$DW$75, DW_AT_TI_symbol_name("_ADC_setIntSrc")
    1046                      .dwattr $C$DW$75, DW_AT_external
    1047                      .dwattr $C$DW$75, DW_AT_TI_begin_file("../drivers/source/adc.c")
    1048                      .dwattr $C$DW$75, DW_AT_TI_begin_line(0x140)
    1049                      .dwattr $C$DW$75, DW_AT_TI_begin_column(0x06)
    1050                      .dwattr $C$DW$75, DW_AT_TI_max_frame_size(-2)
    1051                      .dwpsn  file "../drivers/source/adc.c",line 321,column 1,is_stmt,address _ADC_setIntSrc,isa 0
    1052              
    1053                      .dwfde $C$DW$CIE, _ADC_setIntSrc
    1054              $C$DW$76        .dwtag  DW_TAG_formal_parameter
    1055                      .dwattr $C$DW$76, DW_AT_name("adcHandle")
    1056                      .dwattr $C$DW$76, DW_AT_TI_symbol_name("_adcHandle")
    1057                      .dwattr $C$DW$76, DW_AT_type(*$C$DW$T$71)
    1058                      .dwattr $C$DW$76, DW_AT_location[DW_OP_reg12]
    1059              
    1060              $C$DW$77        .dwtag  DW_TAG_formal_parameter
    1061                      .dwattr $C$DW$77, DW_AT_name("intNumber")
    1062                      .dwattr $C$DW$77, DW_AT_TI_symbol_name("_intNumber")
    1063                      .dwattr $C$DW$77, DW_AT_type(*$C$DW$T$30)
    1064                      .dwattr $C$DW$77, DW_AT_location[DW_OP_reg0]
    1065              
    1066              $C$DW$78        .dwtag  DW_TAG_formal_parameter
    1067                      .dwattr $C$DW$78, DW_AT_name("intSrc")
    1068                      .dwattr $C$DW$78, DW_AT_TI_symbol_name("_intSrc")
    1069                      .dwattr $C$DW$78, DW_AT_type(*$C$DW$T$42)
    1070                      .dwattr $C$DW$78, DW_AT_location[DW_OP_reg1]
TMS320C2000 Assembler PC v15.12.3 Tue Sep 20 20:29:52 2016

Tools Copyright (c) 1996-2015 Texas Instruments Incorporated
C:\Users\MaCHaDo\AppData\Local\Temp\0280810                          PAGE   21

    1071              
    1072              
    1073              ;***************************************************************
    1074              ;* FNAME: _ADC_setIntSrc                FR SIZE:   0           *
    1075              ;*                                                             *
    1076              ;* FUNCTION ENVIRONMENT                                        *
    1077              ;*                                                             *
    1078              ;* FUNCTION PROPERTIES                                         *
    1079              ;*                            0 Parameter,  0 Auto,  0 SOE     *
    1080              ;***************************************************************
    1081              
    1082              _ADC_setIntSrc:
    1083              ;* AR4   assigned to $O$C1
    1084              ;* T     assigned to $O$C2
    1085              ;* AR6   assigned to _intNumber
    1086              $C$DW$79        .dwtag  DW_TAG_variable
    1087                      .dwattr $C$DW$79, DW_AT_name("intNumber")
    1088                      .dwattr $C$DW$79, DW_AT_TI_symbol_name("_intNumber")
    1089                      .dwattr $C$DW$79, DW_AT_type(*$C$DW$T$30)
    1090                      .dwattr $C$DW$79, DW_AT_location[DW_OP_reg16]
    1091              
    1092              ;* AR7   assigned to _intSrc
    1093              $C$DW$80        .dwtag  DW_TAG_variable
    1094                      .dwattr $C$DW$80, DW_AT_name("intSrc")
    1095                      .dwattr $C$DW$80, DW_AT_TI_symbol_name("_intSrc")
    1096                      .dwattr $C$DW$80, DW_AT_type(*$C$DW$T$42)
    1097                      .dwattr $C$DW$80, DW_AT_location[DW_OP_reg18]
    1098              
    1099                      .dwcfi  cfa_offset, -2
    1100                      .dwcfi  save_reg_to_mem, 26, 0
    1101 000000d3 88A9          MOVZ      AR6,AL                ; [CPU_] |321| 
    1102 000000d4 80A8          MOVZ      AR7,AH                ; [CPU_] |321| 
    1103 000000d5 7622   EALLOW
    1104                      .dwpsn  file "../drivers/source/adc.c",line 333,column 3,is_stmt,isa 0
    1105 000000d6 28AC          MOV       T,#8                  ; [CPU_] |333| 
         000000d7 0008 
    1106 000000d8 5603          MOV       ACC,AR6 << #3         ; [CPU_] |333| 
         000000d9 03A6 
    1107 000000da F00F          XORB      AL,#0x0f              ; [CPU_] |333| 
    1108 000000db 9008          ANDB      AL,#0x08              ; [CPU_] |333| 
    1109 000000dc 74AC          SUB       T,AL                  ; [CPU_] |333| 
    1110 000000dd 92A6          MOV       AL,AR6                ; [CPU_] |333| 
    1111 000000de FFC0          LSR       AL,1                  ; [CPU_] |333| 
    1112 000000df 88A9          MOVZ      AR6,AL                ; [CPU_] |333| 
    1113 000000e0 A8A9          MOVL      ACC,XAR4              ; [CPU_] |333| 
    1114 000000e1 0DA6          ADDU      ACC,AR6               ; [CPU_] |333| 
    1115 000000e2 8AA9          MOVL      XAR4,ACC              ; [CPU_] |333| 
    1116 000000e3 FF13          ADD       ACC,#3265 << 3        ; [CPU_] |333| 
         000000e4 0CC1 
    1117 000000e5 83A9          MOVL      XAR5,ACC              ; [CPU_] |333| 
    1118 000000e6 9A1F          MOVB      AL,#31                ; [CPU_] |333| 
    1119 000000e7 FF66          LSL       AL,T                  ; [CPU_] |333| 
    1120 000000e8 FF5E          NOT       AL                    ; [CPU_] |333| 
    1121 000000e9 C0C5          AND       *+XAR5[0],AL          ; [CPU_] |333| 
    1122                      .dwpsn  file "../drivers/source/adc.c",line 337,column 3,is_stmt,isa 0
TMS320C2000 Assembler PC v15.12.3 Tue Sep 20 20:29:52 2016

Tools Copyright (c) 1996-2015 Texas Instruments Incorporated
C:\Users\MaCHaDo\AppData\Local\Temp\0280810                          PAGE   22

    1123 000000ea A8A9          MOVL      ACC,XAR4              ; [CPU_] |337| 
    1124 000000eb FF13          ADD       ACC,#3265 << 3        ; [CPU_] |337| 
         000000ec 0CC1 
    1125 000000ed 8AA9          MOVL      XAR4,ACC              ; [CPU_] |337| 
    1126 000000ee 92A7          MOV       AL,AR7                ; [CPU_] |337| 
    1127 000000ef FF66          LSL       AL,T                  ; [CPU_] |337| 
    1128 000000f0 98C4          OR        *+XAR4[0],AL          ; [CPU_] |337| 
    1129 000000f1 761A   EDIS
    1130 000000f2 FF69          SPM       #0                    ; [CPU_] 
    1131              $C$DW$81        .dwtag  DW_TAG_TI_branch
    1132                      .dwattr $C$DW$81, DW_AT_low_pc(0x00)
    1133                      .dwattr $C$DW$81, DW_AT_TI_return
    1134              
    1135 000000f3 0006          LRETR     ; [CPU_] 
    1136                      ; return occurs ; [] 
    1137                      .dwattr $C$DW$75, DW_AT_TI_end_file("../drivers/source/adc.c")
    1138                      .dwattr $C$DW$75, DW_AT_TI_end_line(0x157)
    1139                      .dwattr $C$DW$75, DW_AT_TI_end_column(0x01)
    1140                      .dwendentry
    1141                      .dwendtag $C$DW$75
    1142              
    1143 000000f4               .sect   ".text"
    1144                      .clink
    1145                      .global _ADC_setIntPulseGenMode
    1146              
    1147              $C$DW$82        .dwtag  DW_TAG_subprogram
    1148                      .dwattr $C$DW$82, DW_AT_name("ADC_setIntPulseGenMode")
    1149                      .dwattr $C$DW$82, DW_AT_low_pc(_ADC_setIntPulseGenMode)
    1150                      .dwattr $C$DW$82, DW_AT_high_pc(0x00)
    1151                      .dwattr $C$DW$82, DW_AT_TI_symbol_name("_ADC_setIntPulseGenMode")
    1152                      .dwattr $C$DW$82, DW_AT_external
    1153                      .dwattr $C$DW$82, DW_AT_TI_begin_file("../drivers/source/adc.c")
    1154                      .dwattr $C$DW$82, DW_AT_TI_begin_line(0x12c)
    1155                      .dwattr $C$DW$82, DW_AT_TI_begin_column(0x06)
    1156                      .dwattr $C$DW$82, DW_AT_TI_max_frame_size(-2)
    1157                      .dwpsn  file "../drivers/source/adc.c",line 301,column 1,is_stmt,address _ADC_setIntPulseGenMode,isa 
    1158              
    1159                      .dwfde $C$DW$CIE, _ADC_setIntPulseGenMode
    1160              $C$DW$83        .dwtag  DW_TAG_formal_parameter
    1161                      .dwattr $C$DW$83, DW_AT_name("adcHandle")
    1162                      .dwattr $C$DW$83, DW_AT_TI_symbol_name("_adcHandle")
    1163                      .dwattr $C$DW$83, DW_AT_type(*$C$DW$T$71)
    1164                      .dwattr $C$DW$83, DW_AT_location[DW_OP_reg12]
    1165              
    1166              $C$DW$84        .dwtag  DW_TAG_formal_parameter
    1167                      .dwattr $C$DW$84, DW_AT_name("pulseMode")
    1168                      .dwattr $C$DW$84, DW_AT_TI_symbol_name("_pulseMode")
    1169                      .dwattr $C$DW$84, DW_AT_type(*$C$DW$T$39)
    1170                      .dwattr $C$DW$84, DW_AT_location[DW_OP_reg0]
    1171              
    1172              
    1173              ;***************************************************************
    1174              ;* FNAME: _ADC_setIntPulseGenMode       FR SIZE:   0           *
    1175              ;*                                                             *
    1176              ;* FUNCTION ENVIRONMENT                                        *
TMS320C2000 Assembler PC v15.12.3 Tue Sep 20 20:29:52 2016

Tools Copyright (c) 1996-2015 Texas Instruments Incorporated
C:\Users\MaCHaDo\AppData\Local\Temp\0280810                          PAGE   23

    1177              ;*                                                             *
    1178              ;* FUNCTION PROPERTIES                                         *
    1179              ;*                            0 Parameter,  0 Auto,  0 SOE     *
    1180              ;***************************************************************
    1181              
    1182              _ADC_setIntPulseGenMode:
    1183              ;* AR4   assigned to _adcHandle
    1184              $C$DW$85        .dwtag  DW_TAG_variable
    1185                      .dwattr $C$DW$85, DW_AT_name("adcHandle")
    1186                      .dwattr $C$DW$85, DW_AT_TI_symbol_name("_adcHandle")
    1187                      .dwattr $C$DW$85, DW_AT_type(*$C$DW$T$78)
    1188                      .dwattr $C$DW$85, DW_AT_location[DW_OP_reg12]
    1189              
    1190              ;* AR6   assigned to _pulseMode
    1191              $C$DW$86        .dwtag  DW_TAG_variable
    1192                      .dwattr $C$DW$86, DW_AT_name("pulseMode")
    1193                      .dwattr $C$DW$86, DW_AT_TI_symbol_name("_pulseMode")
    1194                      .dwattr $C$DW$86, DW_AT_type(*$C$DW$T$39)
    1195                      .dwattr $C$DW$86, DW_AT_location[DW_OP_reg16]
    1196              
    1197                      .dwcfi  cfa_offset, -2
    1198                      .dwcfi  save_reg_to_mem, 26, 0
    1199 000000f4 88A9          MOVZ      AR6,AL                ; [CPU_] |301| 
    1200 000000f5 7622   EALLOW
    1201                      .dwpsn  file "../drivers/source/adc.c",line 308,column 3,is_stmt,isa 0
    1202 000000f6 A8A9          MOVL      ACC,XAR4              ; [CPU_] |308| 
    1203 000000f7 FF19          ADD       ACC,#51 << 9          ; [CPU_] |308| 
         000000f8 0033 
    1204 000000f9 83A9          MOVL      XAR5,ACC              ; [CPU_] |308| 
    1205                      .dwpsn  file "../drivers/source/adc.c",line 312,column 3,is_stmt,isa 0
    1206 000000fa A8A9          MOVL      ACC,XAR4              ; [CPU_] |312| 
    1207 000000fb FF19          ADD       ACC,#51 << 9          ; [CPU_] |312| 
         000000fc 0033 
    1208 000000fd 8AA9          MOVL      XAR4,ACC              ; [CPU_] |312| 
    1209                      .dwpsn  file "../drivers/source/adc.c",line 308,column 3,is_stmt,isa 0
    1210 000000fe 18C5          AND       *+XAR5[0],#0xfffb     ; [CPU_] |308| 
         000000ff FFFB 
    1211                      .dwpsn  file "../drivers/source/adc.c",line 312,column 3,is_stmt,isa 0
    1212 00000100 92A6          MOV       AL,AR6                ; [CPU_] |312| 
    1213 00000101 98C4          OR        *+XAR4[0],AL          ; [CPU_] |312| 
    1214 00000102 761A   EDIS
    1215 00000103 FF69          SPM       #0                    ; [CPU_] 
    1216              $C$DW$87        .dwtag  DW_TAG_TI_branch
    1217                      .dwattr $C$DW$87, DW_AT_low_pc(0x00)
    1218                      .dwattr $C$DW$87, DW_AT_TI_return
    1219              
    1220 00000104 0006          LRETR     ; [CPU_] 
    1221                      ; return occurs ; [] 
    1222                      .dwattr $C$DW$82, DW_AT_TI_end_file("../drivers/source/adc.c")
    1223                      .dwattr $C$DW$82, DW_AT_TI_end_line(0x13d)
    1224                      .dwattr $C$DW$82, DW_AT_TI_end_column(0x01)
    1225                      .dwendentry
    1226                      .dwendtag $C$DW$82
    1227              
    1228 00000105               .sect   ".text"
TMS320C2000 Assembler PC v15.12.3 Tue Sep 20 20:29:52 2016

Tools Copyright (c) 1996-2015 Texas Instruments Incorporated
C:\Users\MaCHaDo\AppData\Local\Temp\0280810                          PAGE   24

    1229                      .clink
    1230                      .global _ADC_setIntMode
    1231              
    1232              $C$DW$88        .dwtag  DW_TAG_subprogram
    1233                      .dwattr $C$DW$88, DW_AT_name("ADC_setIntMode")
    1234                      .dwattr $C$DW$88, DW_AT_low_pc(_ADC_setIntMode)
    1235                      .dwattr $C$DW$88, DW_AT_high_pc(0x00)
    1236                      .dwattr $C$DW$88, DW_AT_TI_symbol_name("_ADC_setIntMode")
    1237                      .dwattr $C$DW$88, DW_AT_external
    1238                      .dwattr $C$DW$88, DW_AT_TI_begin_file("../drivers/source/adc.c")
    1239                      .dwattr $C$DW$88, DW_AT_TI_begin_line(0x114)
    1240                      .dwattr $C$DW$88, DW_AT_TI_begin_column(0x06)
    1241                      .dwattr $C$DW$88, DW_AT_TI_max_frame_size(-2)
    1242                      .dwpsn  file "../drivers/source/adc.c",line 277,column 1,is_stmt,address _ADC_setIntMode,isa 0
    1243              
    1244                      .dwfde $C$DW$CIE, _ADC_setIntMode
    1245              $C$DW$89        .dwtag  DW_TAG_formal_parameter
    1246                      .dwattr $C$DW$89, DW_AT_name("adcHandle")
    1247                      .dwattr $C$DW$89, DW_AT_TI_symbol_name("_adcHandle")
    1248                      .dwattr $C$DW$89, DW_AT_type(*$C$DW$T$71)
    1249                      .dwattr $C$DW$89, DW_AT_location[DW_OP_reg12]
    1250              
    1251              $C$DW$90        .dwtag  DW_TAG_formal_parameter
    1252                      .dwattr $C$DW$90, DW_AT_name("intNumber")
    1253                      .dwattr $C$DW$90, DW_AT_TI_symbol_name("_intNumber")
    1254                      .dwattr $C$DW$90, DW_AT_type(*$C$DW$T$30)
    1255                      .dwattr $C$DW$90, DW_AT_location[DW_OP_reg0]
    1256              
    1257              $C$DW$91        .dwtag  DW_TAG_formal_parameter
    1258                      .dwattr $C$DW$91, DW_AT_name("intMode")
    1259                      .dwattr $C$DW$91, DW_AT_TI_symbol_name("_intMode")
    1260                      .dwattr $C$DW$91, DW_AT_type(*$C$DW$T$36)
    1261                      .dwattr $C$DW$91, DW_AT_location[DW_OP_reg1]
    1262              
    1263              
    1264              ;***************************************************************
    1265              ;* FNAME: _ADC_setIntMode               FR SIZE:   0           *
    1266              ;*                                                             *
    1267              ;* FUNCTION ENVIRONMENT                                        *
    1268              ;*                                                             *
    1269              ;* FUNCTION PROPERTIES                                         *
    1270              ;*                            0 Parameter,  0 Auto,  0 SOE     *
    1271              ;***************************************************************
    1272              
    1273              _ADC_setIntMode:
    1274              ;* AR4   assigned to $O$C1
    1275              ;* T     assigned to $O$C2
    1276              ;* AR6   assigned to _intNumber
    1277              $C$DW$92        .dwtag  DW_TAG_variable
    1278                      .dwattr $C$DW$92, DW_AT_name("intNumber")
    1279                      .dwattr $C$DW$92, DW_AT_TI_symbol_name("_intNumber")
    1280                      .dwattr $C$DW$92, DW_AT_type(*$C$DW$T$30)
    1281                      .dwattr $C$DW$92, DW_AT_location[DW_OP_reg16]
    1282              
    1283              ;* AR7   assigned to _intMode
TMS320C2000 Assembler PC v15.12.3 Tue Sep 20 20:29:52 2016

Tools Copyright (c) 1996-2015 Texas Instruments Incorporated
C:\Users\MaCHaDo\AppData\Local\Temp\0280810                          PAGE   25

    1284              $C$DW$93        .dwtag  DW_TAG_variable
    1285                      .dwattr $C$DW$93, DW_AT_name("intMode")
    1286                      .dwattr $C$DW$93, DW_AT_TI_symbol_name("_intMode")
    1287                      .dwattr $C$DW$93, DW_AT_type(*$C$DW$T$36)
    1288                      .dwattr $C$DW$93, DW_AT_location[DW_OP_reg18]
    1289              
    1290                      .dwcfi  cfa_offset, -2
    1291                      .dwcfi  save_reg_to_mem, 26, 0
    1292 00000105 88A9          MOVZ      AR6,AL                ; [CPU_] |277| 
    1293 00000106 80A8          MOVZ      AR7,AH                ; [CPU_] |277| 
    1294 00000107 7622   EALLOW
    1295                      .dwpsn  file "../drivers/source/adc.c",line 288,column 3,is_stmt,isa 0
    1296 00000108 28AC          MOV       T,#8                  ; [CPU_] |288| 
         00000109 0008 
    1297 0000010a 5603          MOV       ACC,AR6 << #3         ; [CPU_] |288| 
         0000010b 03A6 
    1298 0000010c F00F          XORB      AL,#0x0f              ; [CPU_] |288| 
    1299 0000010d 9008          ANDB      AL,#0x08              ; [CPU_] |288| 
    1300 0000010e 74AC          SUB       T,AL                  ; [CPU_] |288| 
    1301 0000010f 92A6          MOV       AL,AR6                ; [CPU_] |288| 
    1302 00000110 FFC0          LSR       AL,1                  ; [CPU_] |288| 
    1303 00000111 88A9          MOVZ      AR6,AL                ; [CPU_] |288| 
    1304 00000112 A8A9          MOVL      ACC,XAR4              ; [CPU_] |288| 
    1305 00000113 0DA6          ADDU      ACC,AR6               ; [CPU_] |288| 
    1306 00000114 8AA9          MOVL      XAR4,ACC              ; [CPU_] |288| 
    1307 00000115 FF13          ADD       ACC,#3265 << 3        ; [CPU_] |288| 
         00000116 0CC1 
    1308 00000117 83A9          MOVL      XAR5,ACC              ; [CPU_] |288| 
    1309 00000118 9A40          MOVB      AL,#64                ; [CPU_] |288| 
    1310 00000119 FF66          LSL       AL,T                  ; [CPU_] |288| 
    1311 0000011a FF5E          NOT       AL                    ; [CPU_] |288| 
    1312 0000011b C0C5          AND       *+XAR5[0],AL          ; [CPU_] |288| 
    1313                      .dwpsn  file "../drivers/source/adc.c",line 292,column 3,is_stmt,isa 0
    1314 0000011c A8A9          MOVL      ACC,XAR4              ; [CPU_] |292| 
    1315 0000011d FF13          ADD       ACC,#3265 << 3        ; [CPU_] |292| 
         0000011e 0CC1 
    1316 0000011f 8AA9          MOVL      XAR4,ACC              ; [CPU_] |292| 
    1317 00000120 92A7          MOV       AL,AR7                ; [CPU_] |292| 
    1318 00000121 FF66          LSL       AL,T                  ; [CPU_] |292| 
    1319 00000122 98C4          OR        *+XAR4[0],AL          ; [CPU_] |292| 
    1320 00000123 761A   EDIS
    1321 00000124 FF69          SPM       #0                    ; [CPU_] 
    1322              $C$DW$94        .dwtag  DW_TAG_TI_branch
    1323                      .dwattr $C$DW$94, DW_AT_low_pc(0x00)
    1324                      .dwattr $C$DW$94, DW_AT_TI_return
    1325              
    1326 00000125 0006          LRETR     ; [CPU_] 
    1327                      ; return occurs ; [] 
    1328                      .dwattr $C$DW$88, DW_AT_TI_end_file("../drivers/source/adc.c")
    1329                      .dwattr $C$DW$88, DW_AT_TI_end_line(0x129)
    1330                      .dwattr $C$DW$88, DW_AT_TI_end_column(0x01)
    1331                      .dwendentry
    1332                      .dwendtag $C$DW$88
    1333              
    1334 00000126               .sect   ".text"
TMS320C2000 Assembler PC v15.12.3 Tue Sep 20 20:29:52 2016

Tools Copyright (c) 1996-2015 Texas Instruments Incorporated
C:\Users\MaCHaDo\AppData\Local\Temp\0280810                          PAGE   26

    1335                      .clink
    1336                      .global _ADC_setDivideSelect
    1337              
    1338              $C$DW$95        .dwtag  DW_TAG_subprogram
    1339                      .dwattr $C$DW$95, DW_AT_name("ADC_setDivideSelect")
    1340                      .dwattr $C$DW$95, DW_AT_low_pc(_ADC_setDivideSelect)
    1341                      .dwattr $C$DW$95, DW_AT_high_pc(0x00)
    1342                      .dwattr $C$DW$95, DW_AT_TI_symbol_name("_ADC_setDivideSelect")
    1343                      .dwattr $C$DW$95, DW_AT_external
    1344                      .dwattr $C$DW$95, DW_AT_TI_begin_file("../drivers/source/adc.c")
    1345                      .dwattr $C$DW$95, DW_AT_TI_begin_line(0x202)
    1346                      .dwattr $C$DW$95, DW_AT_TI_begin_column(0x06)
    1347                      .dwattr $C$DW$95, DW_AT_TI_max_frame_size(-2)
    1348                      .dwpsn  file "../drivers/source/adc.c",line 515,column 1,is_stmt,address _ADC_setDivideSelect,isa 0
    1349              
    1350                      .dwfde $C$DW$CIE, _ADC_setDivideSelect
    1351              $C$DW$96        .dwtag  DW_TAG_formal_parameter
    1352                      .dwattr $C$DW$96, DW_AT_name("adcHandle")
    1353                      .dwattr $C$DW$96, DW_AT_TI_symbol_name("_adcHandle")
    1354                      .dwattr $C$DW$96, DW_AT_type(*$C$DW$T$71)
    1355                      .dwattr $C$DW$96, DW_AT_location[DW_OP_reg12]
    1356              
    1357              $C$DW$97        .dwtag  DW_TAG_formal_parameter
    1358                      .dwattr $C$DW$97, DW_AT_name("divSelect")
    1359                      .dwattr $C$DW$97, DW_AT_TI_symbol_name("_divSelect")
    1360                      .dwattr $C$DW$97, DW_AT_type(*$C$DW$T$69)
    1361                      .dwattr $C$DW$97, DW_AT_location[DW_OP_reg0]
    1362              
    1363              
    1364              ;***************************************************************
    1365              ;* FNAME: _ADC_setDivideSelect          FR SIZE:   0           *
    1366              ;*                                                             *
    1367              ;* FUNCTION ENVIRONMENT                                        *
    1368              ;*                                                             *
    1369              ;* FUNCTION PROPERTIES                                         *
    1370              ;*                            0 Parameter,  0 Auto,  0 SOE     *
    1371              ;***************************************************************
    1372              
    1373              _ADC_setDivideSelect:
    1374              ;* AR4   assigned to _adcHandle
    1375              $C$DW$98        .dwtag  DW_TAG_variable
    1376                      .dwattr $C$DW$98, DW_AT_name("adcHandle")
    1377                      .dwattr $C$DW$98, DW_AT_TI_symbol_name("_adcHandle")
    1378                      .dwattr $C$DW$98, DW_AT_type(*$C$DW$T$78)
    1379                      .dwattr $C$DW$98, DW_AT_location[DW_OP_reg12]
    1380              
    1381              ;* AR6   assigned to _divSelect
    1382              $C$DW$99        .dwtag  DW_TAG_variable
    1383                      .dwattr $C$DW$99, DW_AT_name("divSelect")
    1384                      .dwattr $C$DW$99, DW_AT_TI_symbol_name("_divSelect")
    1385                      .dwattr $C$DW$99, DW_AT_type(*$C$DW$T$69)
    1386                      .dwattr $C$DW$99, DW_AT_location[DW_OP_reg16]
    1387              
    1388                      .dwcfi  cfa_offset, -2
    1389                      .dwcfi  save_reg_to_mem, 26, 0
TMS320C2000 Assembler PC v15.12.3 Tue Sep 20 20:29:52 2016

Tools Copyright (c) 1996-2015 Texas Instruments Incorporated
C:\Users\MaCHaDo\AppData\Local\Temp\0280810                          PAGE   27

    1390 00000126 88A9          MOVZ      AR6,AL                ; [CPU_] |515| 
    1391 00000127 7622   EALLOW
    1392                      .dwpsn  file "../drivers/source/adc.c",line 522,column 3,is_stmt,isa 0
    1393 00000128 A8A9          MOVL      ACC,XAR4              ; [CPU_] |522| 
    1394 00000129 FF10          ADD       ACC,#26113 << 0       ; [CPU_] |522| 
         0000012a 6601 
    1395 0000012b 83A9          MOVL      XAR5,ACC              ; [CPU_] |522| 
    1396                      .dwpsn  file "../drivers/source/adc.c",line 526,column 3,is_stmt,isa 0
    1397 0000012c A8A9          MOVL      ACC,XAR4              ; [CPU_] |526| 
    1398 0000012d FF10          ADD       ACC,#26113 << 0       ; [CPU_] |526| 
         0000012e 6601 
    1399 0000012f 8AA9          MOVL      XAR4,ACC              ; [CPU_] |526| 
    1400                      .dwpsn  file "../drivers/source/adc.c",line 522,column 3,is_stmt,isa 0
    1401 00000130 18C5          AND       *+XAR5[0],#0xfffe     ; [CPU_] |522| 
         00000131 FFFE 
    1402                      .dwpsn  file "../drivers/source/adc.c",line 526,column 3,is_stmt,isa 0
    1403 00000132 92A6          MOV       AL,AR6                ; [CPU_] |526| 
    1404 00000133 98C4          OR        *+XAR4[0],AL          ; [CPU_] |526| 
    1405 00000134 761A   EDIS
    1406 00000135 FF69          SPM       #0                    ; [CPU_] 
    1407              $C$DW$100       .dwtag  DW_TAG_TI_branch
    1408                      .dwattr $C$DW$100, DW_AT_low_pc(0x00)
    1409                      .dwattr $C$DW$100, DW_AT_TI_return
    1410              
    1411 00000136 0006          LRETR     ; [CPU_] 
    1412                      ; return occurs ; [] 
    1413                      .dwattr $C$DW$95, DW_AT_TI_end_file("../drivers/source/adc.c")
    1414                      .dwattr $C$DW$95, DW_AT_TI_end_line(0x213)
    1415                      .dwattr $C$DW$95, DW_AT_TI_end_column(0x01)
    1416                      .dwendentry
    1417                      .dwendtag $C$DW$95
    1418              
    1419 00000137               .sect   ".text"
    1420                      .clink
    1421                      .global _ADC_reset
    1422              
    1423              $C$DW$101       .dwtag  DW_TAG_subprogram
    1424                      .dwattr $C$DW$101, DW_AT_name("ADC_reset")
    1425                      .dwattr $C$DW$101, DW_AT_low_pc(_ADC_reset)
    1426                      .dwattr $C$DW$101, DW_AT_high_pc(0x00)
    1427                      .dwattr $C$DW$101, DW_AT_TI_symbol_name("_ADC_reset")
    1428                      .dwattr $C$DW$101, DW_AT_external
    1429                      .dwattr $C$DW$101, DW_AT_TI_begin_file("../drivers/source/adc.c")
    1430                      .dwattr $C$DW$101, DW_AT_TI_begin_line(0xf1)
    1431                      .dwattr $C$DW$101, DW_AT_TI_begin_column(0x06)
    1432                      .dwattr $C$DW$101, DW_AT_TI_max_frame_size(-2)
    1433                      .dwpsn  file "../drivers/source/adc.c",line 242,column 1,is_stmt,address _ADC_reset,isa 0
    1434              
    1435                      .dwfde $C$DW$CIE, _ADC_reset
    1436              $C$DW$102       .dwtag  DW_TAG_formal_parameter
    1437                      .dwattr $C$DW$102, DW_AT_name("adcHandle")
    1438                      .dwattr $C$DW$102, DW_AT_TI_symbol_name("_adcHandle")
    1439                      .dwattr $C$DW$102, DW_AT_type(*$C$DW$T$71)
    1440                      .dwattr $C$DW$102, DW_AT_location[DW_OP_reg12]
    1441              
TMS320C2000 Assembler PC v15.12.3 Tue Sep 20 20:29:52 2016

Tools Copyright (c) 1996-2015 Texas Instruments Incorporated
C:\Users\MaCHaDo\AppData\Local\Temp\0280810                          PAGE   28

    1442              
    1443              ;***************************************************************
    1444              ;* FNAME: _ADC_reset                    FR SIZE:   0           *
    1445              ;*                                                             *
    1446              ;* FUNCTION ENVIRONMENT                                        *
    1447              ;*                                                             *
    1448              ;* FUNCTION PROPERTIES                                         *
    1449              ;*                            0 Parameter,  0 Auto,  0 SOE     *
    1450              ;***************************************************************
    1451              
    1452              _ADC_reset:
    1453              ;* AR4   assigned to _adcHandle
    1454              $C$DW$103       .dwtag  DW_TAG_variable
    1455                      .dwattr $C$DW$103, DW_AT_name("adcHandle")
    1456                      .dwattr $C$DW$103, DW_AT_TI_symbol_name("_adcHandle")
    1457                      .dwattr $C$DW$103, DW_AT_type(*$C$DW$T$78)
    1458                      .dwattr $C$DW$103, DW_AT_location[DW_OP_reg12]
    1459              
    1460                      .dwcfi  cfa_offset, -2
    1461                      .dwcfi  save_reg_to_mem, 26, 0
    1462 00000137 7622   EALLOW
    1463                      .dwpsn  file "../drivers/source/adc.c",line 249,column 3,is_stmt,isa 0
    1464 00000138 A8A9          MOVL      ACC,XAR4              ; [CPU_] |249| 
    1465 00000139 FF19          ADD       ACC,#51 << 9          ; [CPU_] |249| 
         0000013a 0033 
    1466 0000013b 8AA9          MOVL      XAR4,ACC              ; [CPU_] |249| 
    1467 0000013c 1AC4          OR        *+XAR4[0],#0x8000     ; [CPU_] |249| 
         0000013d 8000 
    1468 0000013e 761A   EDIS
    1469 0000013f FF69          SPM       #0                    ; [CPU_] 
    1470              $C$DW$104       .dwtag  DW_TAG_TI_branch
    1471                      .dwattr $C$DW$104, DW_AT_low_pc(0x00)
    1472                      .dwattr $C$DW$104, DW_AT_TI_return
    1473              
    1474 00000140 0006          LRETR     ; [CPU_] 
    1475                      ; return occurs ; [] 
    1476                      .dwattr $C$DW$101, DW_AT_TI_end_file("../drivers/source/adc.c")
    1477                      .dwattr $C$DW$101, DW_AT_TI_end_line(0xfe)
    1478                      .dwattr $C$DW$101, DW_AT_TI_end_column(0x01)
    1479                      .dwendentry
    1480                      .dwendtag $C$DW$101
    1481              
    1482 00000141               .sect   ".text"
    1483                      .clink
    1484                      .global _ADC_powerUp
    1485              
    1486              $C$DW$105       .dwtag  DW_TAG_subprogram
    1487                      .dwattr $C$DW$105, DW_AT_name("ADC_powerUp")
    1488                      .dwattr $C$DW$105, DW_AT_low_pc(_ADC_powerUp)
    1489                      .dwattr $C$DW$105, DW_AT_high_pc(0x00)
    1490                      .dwattr $C$DW$105, DW_AT_TI_symbol_name("_ADC_powerUp")
    1491                      .dwattr $C$DW$105, DW_AT_external
    1492                      .dwattr $C$DW$105, DW_AT_TI_begin_file("../drivers/source/adc.c")
    1493                      .dwattr $C$DW$105, DW_AT_TI_begin_line(0xe1)
    1494                      .dwattr $C$DW$105, DW_AT_TI_begin_column(0x06)
TMS320C2000 Assembler PC v15.12.3 Tue Sep 20 20:29:52 2016

Tools Copyright (c) 1996-2015 Texas Instruments Incorporated
C:\Users\MaCHaDo\AppData\Local\Temp\0280810                          PAGE   29

    1495                      .dwattr $C$DW$105, DW_AT_TI_max_frame_size(-2)
    1496                      .dwpsn  file "../drivers/source/adc.c",line 226,column 1,is_stmt,address _ADC_powerUp,isa 0
    1497              
    1498                      .dwfde $C$DW$CIE, _ADC_powerUp
    1499              $C$DW$106       .dwtag  DW_TAG_formal_parameter
    1500                      .dwattr $C$DW$106, DW_AT_name("adcHandle")
    1501                      .dwattr $C$DW$106, DW_AT_TI_symbol_name("_adcHandle")
    1502                      .dwattr $C$DW$106, DW_AT_type(*$C$DW$T$71)
    1503                      .dwattr $C$DW$106, DW_AT_location[DW_OP_reg12]
    1504              
    1505              
    1506              ;***************************************************************
    1507              ;* FNAME: _ADC_powerUp                  FR SIZE:   0           *
    1508              ;*                                                             *
    1509              ;* FUNCTION ENVIRONMENT                                        *
    1510              ;*                                                             *
    1511              ;* FUNCTION PROPERTIES                                         *
    1512              ;*                            0 Parameter,  0 Auto,  0 SOE     *
    1513              ;***************************************************************
    1514              
    1515              _ADC_powerUp:
    1516              ;* AR4   assigned to _adcHandle
    1517              $C$DW$107       .dwtag  DW_TAG_variable
    1518                      .dwattr $C$DW$107, DW_AT_name("adcHandle")
    1519                      .dwattr $C$DW$107, DW_AT_TI_symbol_name("_adcHandle")
    1520                      .dwattr $C$DW$107, DW_AT_type(*$C$DW$T$78)
    1521                      .dwattr $C$DW$107, DW_AT_location[DW_OP_reg12]
    1522              
    1523                      .dwcfi  cfa_offset, -2
    1524                      .dwcfi  save_reg_to_mem, 26, 0
    1525 00000141 7622   EALLOW
    1526                      .dwpsn  file "../drivers/source/adc.c",line 233,column 3,is_stmt,isa 0
    1527 00000142 A8A9          MOVL      ACC,XAR4              ; [CPU_] |233| 
    1528 00000143 FF19          ADD       ACC,#51 << 9          ; [CPU_] |233| 
         00000144 0033 
    1529 00000145 8AA9          MOVL      XAR4,ACC              ; [CPU_] |233| 
    1530 00000146 1AC4          OR        *+XAR4[0],#0x0080     ; [CPU_] |233| 
         00000147 0080 
    1531 00000148 761A   EDIS
    1532 00000149 FF69          SPM       #0                    ; [CPU_] 
    1533              $C$DW$108       .dwtag  DW_TAG_TI_branch
    1534                      .dwattr $C$DW$108, DW_AT_low_pc(0x00)
    1535                      .dwattr $C$DW$108, DW_AT_TI_return
    1536              
    1537 0000014a 0006          LRETR     ; [CPU_] 
    1538                      ; return occurs ; [] 
    1539                      .dwattr $C$DW$105, DW_AT_TI_end_file("../drivers/source/adc.c")
    1540                      .dwattr $C$DW$105, DW_AT_TI_end_line(0xee)
    1541                      .dwattr $C$DW$105, DW_AT_TI_end_column(0x01)
    1542                      .dwendentry
    1543                      .dwendtag $C$DW$105
    1544              
    1545 0000014b               .sect   ".text"
    1546                      .clink
    1547                      .global _ADC_powerDown
TMS320C2000 Assembler PC v15.12.3 Tue Sep 20 20:29:52 2016

Tools Copyright (c) 1996-2015 Texas Instruments Incorporated
C:\Users\MaCHaDo\AppData\Local\Temp\0280810                          PAGE   30

    1548              
    1549              $C$DW$109       .dwtag  DW_TAG_subprogram
    1550                      .dwattr $C$DW$109, DW_AT_name("ADC_powerDown")
    1551                      .dwattr $C$DW$109, DW_AT_low_pc(_ADC_powerDown)
    1552                      .dwattr $C$DW$109, DW_AT_high_pc(0x00)
    1553                      .dwattr $C$DW$109, DW_AT_TI_symbol_name("_ADC_powerDown")
    1554                      .dwattr $C$DW$109, DW_AT_external
    1555                      .dwattr $C$DW$109, DW_AT_TI_begin_file("../drivers/source/adc.c")
    1556                      .dwattr $C$DW$109, DW_AT_TI_begin_line(0xd1)
    1557                      .dwattr $C$DW$109, DW_AT_TI_begin_column(0x06)
    1558                      .dwattr $C$DW$109, DW_AT_TI_max_frame_size(-2)
    1559                      .dwpsn  file "../drivers/source/adc.c",line 210,column 1,is_stmt,address _ADC_powerDown,isa 0
    1560              
    1561                      .dwfde $C$DW$CIE, _ADC_powerDown
    1562              $C$DW$110       .dwtag  DW_TAG_formal_parameter
    1563                      .dwattr $C$DW$110, DW_AT_name("adcHandle")
    1564                      .dwattr $C$DW$110, DW_AT_TI_symbol_name("_adcHandle")
    1565                      .dwattr $C$DW$110, DW_AT_type(*$C$DW$T$71)
    1566                      .dwattr $C$DW$110, DW_AT_location[DW_OP_reg12]
    1567              
    1568              
    1569              ;***************************************************************
    1570              ;* FNAME: _ADC_powerDown                FR SIZE:   0           *
    1571              ;*                                                             *
    1572              ;* FUNCTION ENVIRONMENT                                        *
    1573              ;*                                                             *
    1574              ;* FUNCTION PROPERTIES                                         *
    1575              ;*                            0 Parameter,  0 Auto,  0 SOE     *
    1576              ;***************************************************************
    1577              
    1578              _ADC_powerDown:
    1579              ;* AR4   assigned to _adcHandle
    1580              $C$DW$111       .dwtag  DW_TAG_variable
    1581                      .dwattr $C$DW$111, DW_AT_name("adcHandle")
    1582                      .dwattr $C$DW$111, DW_AT_TI_symbol_name("_adcHandle")
    1583                      .dwattr $C$DW$111, DW_AT_type(*$C$DW$T$78)
    1584                      .dwattr $C$DW$111, DW_AT_location[DW_OP_reg12]
    1585              
    1586                      .dwcfi  cfa_offset, -2
    1587                      .dwcfi  save_reg_to_mem, 26, 0
    1588 0000014b 7622   EALLOW
    1589                      .dwpsn  file "../drivers/source/adc.c",line 217,column 3,is_stmt,isa 0
    1590 0000014c A8A9          MOVL      ACC,XAR4              ; [CPU_] |217| 
    1591 0000014d FF19          ADD       ACC,#51 << 9          ; [CPU_] |217| 
         0000014e 0033 
    1592 0000014f 8AA9          MOVL      XAR4,ACC              ; [CPU_] |217| 
    1593 00000150 18C4          AND       *+XAR4[0],#0xff7f     ; [CPU_] |217| 
         00000151 FF7F 
    1594 00000152 761A   EDIS
    1595 00000153 FF69          SPM       #0                    ; [CPU_] 
    1596              $C$DW$112       .dwtag  DW_TAG_TI_branch
    1597                      .dwattr $C$DW$112, DW_AT_low_pc(0x00)
    1598                      .dwattr $C$DW$112, DW_AT_TI_return
    1599              
    1600 00000154 0006          LRETR     ; [CPU_] 
TMS320C2000 Assembler PC v15.12.3 Tue Sep 20 20:29:52 2016

Tools Copyright (c) 1996-2015 Texas Instruments Incorporated
C:\Users\MaCHaDo\AppData\Local\Temp\0280810                          PAGE   31

    1601                      ; return occurs ; [] 
    1602                      .dwattr $C$DW$109, DW_AT_TI_end_file("../drivers/source/adc.c")
    1603                      .dwattr $C$DW$109, DW_AT_TI_end_line(0xde)
    1604                      .dwattr $C$DW$109, DW_AT_TI_end_column(0x01)
    1605                      .dwendentry
    1606                      .dwendtag $C$DW$109
    1607              
    1608 00000155               .sect   ".text"
    1609                      .clink
    1610                      .global _ADC_init
    1611              
    1612              $C$DW$113       .dwtag  DW_TAG_subprogram
    1613                      .dwattr $C$DW$113, DW_AT_name("ADC_init")
    1614                      .dwattr $C$DW$113, DW_AT_low_pc(_ADC_init)
    1615                      .dwattr $C$DW$113, DW_AT_high_pc(0x00)
    1616                      .dwattr $C$DW$113, DW_AT_TI_symbol_name("_ADC_init")
    1617                      .dwattr $C$DW$113, DW_AT_external
    1618                      .dwattr $C$DW$113, DW_AT_type(*$C$DW$T$71)
    1619                      .dwattr $C$DW$113, DW_AT_TI_begin_file("../drivers/source/adc.c")
    1620                      .dwattr $C$DW$113, DW_AT_TI_begin_line(0xc1)
    1621                      .dwattr $C$DW$113, DW_AT_TI_begin_column(0x0c)
    1622                      .dwattr $C$DW$113, DW_AT_TI_max_frame_size(-2)
    1623                      .dwpsn  file "../drivers/source/adc.c",line 194,column 1,is_stmt,address _ADC_init,isa 0
    1624              
    1625                      .dwfde $C$DW$CIE, _ADC_init
    1626              $C$DW$114       .dwtag  DW_TAG_formal_parameter
    1627                      .dwattr $C$DW$114, DW_AT_name("pMemory")
    1628                      .dwattr $C$DW$114, DW_AT_TI_symbol_name("_pMemory")
    1629                      .dwattr $C$DW$114, DW_AT_type(*$C$DW$T$3)
    1630                      .dwattr $C$DW$114, DW_AT_location[DW_OP_reg12]
    1631              
    1632              $C$DW$115       .dwtag  DW_TAG_formal_parameter
    1633                      .dwattr $C$DW$115, DW_AT_name("numBytes")
    1634                      .dwattr $C$DW$115, DW_AT_TI_symbol_name("_numBytes")
    1635                      .dwattr $C$DW$115, DW_AT_type(*$C$DW$T$80)
    1636                      .dwattr $C$DW$115, DW_AT_location[DW_OP_reg0]
    1637              
    1638              
    1639              ;***************************************************************
    1640              ;* FNAME: _ADC_init                     FR SIZE:   0           *
    1641              ;*                                                             *
    1642              ;* FUNCTION ENVIRONMENT                                        *
    1643              ;*                                                             *
    1644              ;* FUNCTION PROPERTIES                                         *
    1645              ;*                            0 Parameter,  0 Auto,  0 SOE     *
    1646              ;***************************************************************
    1647              
    1648              _ADC_init:
    1649              ;* AR6   assigned to _numBytes
    1650              $C$DW$116       .dwtag  DW_TAG_variable
    1651                      .dwattr $C$DW$116, DW_AT_name("numBytes")
    1652                      .dwattr $C$DW$116, DW_AT_TI_symbol_name("_numBytes")
    1653                      .dwattr $C$DW$116, DW_AT_type(*$C$DW$T$80)
    1654                      .dwattr $C$DW$116, DW_AT_location[DW_OP_reg16]
    1655              
TMS320C2000 Assembler PC v15.12.3 Tue Sep 20 20:29:52 2016

Tools Copyright (c) 1996-2015 Texas Instruments Incorporated
C:\Users\MaCHaDo\AppData\Local\Temp\0280810                          PAGE   32

    1656                      .dwcfi  cfa_offset, -2
    1657                      .dwcfi  save_reg_to_mem, 26, 0
    1658 00000155 1EA6          MOVL      XAR6,ACC              ; [CPU_] |194| 
    1659                      .dwpsn  file "../drivers/source/adc.c",line 199,column 5,is_stmt,isa 0
    1660 00000156 8F40          MOVL      XAR5,#26192           ; [CPU_U] |199| 
         00000157 6650 
    1661 00000158 A0A9          MOVL      ACC,XAR5              ; [CPU_] |199| 
    1662 00000159 0FA6          CMPL      ACC,XAR6              ; [CPU_] |199| 
    1663 0000015a 6902          B         $C$L7,LOS             ; [CPU_] |199| 
    1664                      ; branchcc occurs ; [] |199| 
    1665 0000015b D400          MOVB      XAR4,#0               ; [CPU_] |199| 
    1666              $C$L7:    
    1667              $C$DW$117       .dwtag  DW_TAG_TI_branch
    1668                      .dwattr $C$DW$117, DW_AT_low_pc(0x00)
    1669                      .dwattr $C$DW$117, DW_AT_TI_return
    1670              
    1671 0000015c 0006          LRETR     ; [CPU_] 
    1672                      ; return occurs ; [] 
    1673                      .dwattr $C$DW$113, DW_AT_TI_end_file("../drivers/source/adc.c")
    1674                      .dwattr $C$DW$113, DW_AT_TI_end_line(0xce)
    1675                      .dwattr $C$DW$113, DW_AT_TI_end_column(0x01)
    1676                      .dwendentry
    1677                      .dwendtag $C$DW$113
    1678              
    1679 0000015d               .sect   ".text"
    1680                      .clink
    1681                      .global _ADC_getDivideSelect
    1682              
    1683              $C$DW$118       .dwtag  DW_TAG_subprogram
    1684                      .dwattr $C$DW$118, DW_AT_name("ADC_getDivideSelect")
    1685                      .dwattr $C$DW$118, DW_AT_low_pc(_ADC_getDivideSelect)
    1686                      .dwattr $C$DW$118, DW_AT_high_pc(0x00)
    1687                      .dwattr $C$DW$118, DW_AT_TI_symbol_name("_ADC_getDivideSelect")
    1688                      .dwattr $C$DW$118, DW_AT_external
    1689                      .dwattr $C$DW$118, DW_AT_type(*$C$DW$T$68)
    1690                      .dwattr $C$DW$118, DW_AT_TI_begin_file("../drivers/source/adc.c")
    1691                      .dwattr $C$DW$118, DW_AT_TI_begin_line(0x1f4)
    1692                      .dwattr $C$DW$118, DW_AT_TI_begin_column(0x1b)
    1693                      .dwattr $C$DW$118, DW_AT_TI_max_frame_size(-2)
    1694                      .dwpsn  file "../drivers/source/adc.c",line 501,column 1,is_stmt,address _ADC_getDivideSelect,isa 0
    1695              
    1696                      .dwfde $C$DW$CIE, _ADC_getDivideSelect
    1697              $C$DW$119       .dwtag  DW_TAG_formal_parameter
    1698                      .dwattr $C$DW$119, DW_AT_name("adcHandle")
    1699                      .dwattr $C$DW$119, DW_AT_TI_symbol_name("_adcHandle")
    1700                      .dwattr $C$DW$119, DW_AT_type(*$C$DW$T$71)
    1701                      .dwattr $C$DW$119, DW_AT_location[DW_OP_reg12]
    1702              
    1703              
    1704              ;***************************************************************
    1705              ;* FNAME: _ADC_getDivideSelect          FR SIZE:   0           *
    1706              ;*                                                             *
    1707              ;* FUNCTION ENVIRONMENT                                        *
    1708              ;*                                                             *
    1709              ;* FUNCTION PROPERTIES                                         *
TMS320C2000 Assembler PC v15.12.3 Tue Sep 20 20:29:52 2016

Tools Copyright (c) 1996-2015 Texas Instruments Incorporated
C:\Users\MaCHaDo\AppData\Local\Temp\0280810                          PAGE   33

    1710              ;*                            0 Parameter,  0 Auto,  0 SOE     *
    1711              ;***************************************************************
    1712              
    1713              _ADC_getDivideSelect:
    1714              ;* AL    assigned to _adcHandle
    1715              $C$DW$120       .dwtag  DW_TAG_variable
    1716                      .dwattr $C$DW$120, DW_AT_name("adcHandle")
    1717                      .dwattr $C$DW$120, DW_AT_TI_symbol_name("_adcHandle")
    1718                      .dwattr $C$DW$120, DW_AT_type(*$C$DW$T$78)
    1719                      .dwattr $C$DW$120, DW_AT_location[DW_OP_reg0]
    1720              
    1721              ;* AL    assigned to _divSelect
    1722              $C$DW$121       .dwtag  DW_TAG_variable
    1723                      .dwattr $C$DW$121, DW_AT_name("divSelect")
    1724                      .dwattr $C$DW$121, DW_AT_TI_symbol_name("_divSelect")
    1725                      .dwattr $C$DW$121, DW_AT_type(*$C$DW$T$68)
    1726                      .dwattr $C$DW$121, DW_AT_location[DW_OP_reg0]
    1727              
    1728                      .dwcfi  cfa_offset, -2
    1729                      .dwcfi  save_reg_to_mem, 26, 0
    1730 0000015d A8A9          MOVL      ACC,XAR4              ; [CPU_] |501| 
    1731                      .dwpsn  file "../drivers/source/adc.c",line 505,column 32,is_stmt,isa 0
    1732 0000015e FF10          ADD       ACC,#26113 << 0       ; [CPU_] |505| 
         0000015f 6601 
    1733 00000160 8AA9          MOVL      XAR4,ACC              ; [CPU_] |505| 
    1734 00000161 CCC4          AND       AL,*+XAR4[0],#0x0001  ; [CPU_] |505| 
         00000162 0001 
    1735              $C$DW$122       .dwtag  DW_TAG_TI_branch
    1736                      .dwattr $C$DW$122, DW_AT_low_pc(0x00)
    1737                      .dwattr $C$DW$122, DW_AT_TI_return
    1738              
    1739 00000163 0006          LRETR     ; [CPU_] 
    1740                      ; return occurs ; [] 
    1741                      .dwattr $C$DW$118, DW_AT_TI_end_file("../drivers/source/adc.c")
    1742                      .dwattr $C$DW$118, DW_AT_TI_end_line(0x1ff)
    1743                      .dwattr $C$DW$118, DW_AT_TI_end_column(0x01)
    1744                      .dwendentry
    1745                      .dwendtag $C$DW$118
    1746              
    1747 00000164               .sect   ".text"
    1748                      .clink
    1749                      .global _ADC_enableVoltRefLoConv
    1750              
    1751              $C$DW$123       .dwtag  DW_TAG_subprogram
    1752                      .dwattr $C$DW$123, DW_AT_name("ADC_enableVoltRefLoConv")
    1753                      .dwattr $C$DW$123, DW_AT_low_pc(_ADC_enableVoltRefLoConv)
    1754                      .dwattr $C$DW$123, DW_AT_high_pc(0x00)
    1755                      .dwattr $C$DW$123, DW_AT_TI_symbol_name("_ADC_enableVoltRefLoConv")
    1756                      .dwattr $C$DW$123, DW_AT_external
    1757                      .dwattr $C$DW$123, DW_AT_TI_begin_file("../drivers/source/adc.c")
    1758                      .dwattr $C$DW$123, DW_AT_TI_begin_line(0x26c)
    1759                      .dwattr $C$DW$123, DW_AT_TI_begin_column(0x06)
    1760                      .dwattr $C$DW$123, DW_AT_TI_max_frame_size(-2)
    1761                      .dwpsn  file "../drivers/source/adc.c",line 621,column 1,is_stmt,address _ADC_enableVoltRefLoConv,isa
    1762              
TMS320C2000 Assembler PC v15.12.3 Tue Sep 20 20:29:52 2016

Tools Copyright (c) 1996-2015 Texas Instruments Incorporated
C:\Users\MaCHaDo\AppData\Local\Temp\0280810                          PAGE   34

    1763                      .dwfde $C$DW$CIE, _ADC_enableVoltRefLoConv
    1764              $C$DW$124       .dwtag  DW_TAG_formal_parameter
    1765                      .dwattr $C$DW$124, DW_AT_name("adcHandle")
    1766                      .dwattr $C$DW$124, DW_AT_TI_symbol_name("_adcHandle")
    1767                      .dwattr $C$DW$124, DW_AT_type(*$C$DW$T$71)
    1768                      .dwattr $C$DW$124, DW_AT_location[DW_OP_reg12]
    1769              
    1770              
    1771              ;***************************************************************
    1772              ;* FNAME: _ADC_enableVoltRefLoConv      FR SIZE:   0           *
    1773              ;*                                                             *
    1774              ;* FUNCTION ENVIRONMENT                                        *
    1775              ;*                                                             *
    1776              ;* FUNCTION PROPERTIES                                         *
    1777              ;*                            0 Parameter,  0 Auto,  0 SOE     *
    1778              ;***************************************************************
    1779              
    1780              _ADC_enableVoltRefLoConv:
    1781              ;* AR4   assigned to _adcHandle
    1782              $C$DW$125       .dwtag  DW_TAG_variable
    1783                      .dwattr $C$DW$125, DW_AT_name("adcHandle")
    1784                      .dwattr $C$DW$125, DW_AT_TI_symbol_name("_adcHandle")
    1785                      .dwattr $C$DW$125, DW_AT_type(*$C$DW$T$78)
    1786                      .dwattr $C$DW$125, DW_AT_location[DW_OP_reg12]
    1787              
    1788                      .dwcfi  cfa_offset, -2
    1789                      .dwcfi  save_reg_to_mem, 26, 0
    1790 00000164 7622   EALLOW
    1791                      .dwpsn  file "../drivers/source/adc.c",line 628,column 3,is_stmt,isa 0
    1792 00000165 A8A9          MOVL      ACC,XAR4              ; [CPU_] |628| 
    1793 00000166 FF19          ADD       ACC,#51 << 9          ; [CPU_] |628| 
         00000167 0033 
    1794 00000168 8AA9          MOVL      XAR4,ACC              ; [CPU_] |628| 
    1795 00000169 1AC4          OR        *+XAR4[0],#0x0002     ; [CPU_] |628| 
         0000016a 0002 
    1796 0000016b 761A   EDIS
    1797 0000016c FF69          SPM       #0                    ; [CPU_] 
    1798              $C$DW$126       .dwtag  DW_TAG_TI_branch
    1799                      .dwattr $C$DW$126, DW_AT_low_pc(0x00)
    1800                      .dwattr $C$DW$126, DW_AT_TI_return
    1801              
    1802 0000016d 0006          LRETR     ; [CPU_] 
    1803                      ; return occurs ; [] 
    1804                      .dwattr $C$DW$123, DW_AT_TI_end_file("../drivers/source/adc.c")
    1805                      .dwattr $C$DW$123, DW_AT_TI_end_line(0x279)
    1806                      .dwattr $C$DW$123, DW_AT_TI_end_column(0x01)
    1807                      .dwendentry
    1808                      .dwendtag $C$DW$123
    1809              
    1810 0000016e               .sect   ".text"
    1811                      .clink
    1812                      .global _ADC_enableRefBuffers
    1813              
    1814              $C$DW$127       .dwtag  DW_TAG_subprogram
    1815                      .dwattr $C$DW$127, DW_AT_name("ADC_enableRefBuffers")
TMS320C2000 Assembler PC v15.12.3 Tue Sep 20 20:29:52 2016

Tools Copyright (c) 1996-2015 Texas Instruments Incorporated
C:\Users\MaCHaDo\AppData\Local\Temp\0280810                          PAGE   35

    1816                      .dwattr $C$DW$127, DW_AT_low_pc(_ADC_enableRefBuffers)
    1817                      .dwattr $C$DW$127, DW_AT_high_pc(0x00)
    1818                      .dwattr $C$DW$127, DW_AT_TI_symbol_name("_ADC_enableRefBuffers")
    1819                      .dwattr $C$DW$127, DW_AT_external
    1820                      .dwattr $C$DW$127, DW_AT_TI_begin_file("../drivers/source/adc.c")
    1821                      .dwattr $C$DW$127, DW_AT_TI_begin_line(0xb0)
    1822                      .dwattr $C$DW$127, DW_AT_TI_begin_column(0x06)
    1823                      .dwattr $C$DW$127, DW_AT_TI_max_frame_size(-2)
    1824                      .dwpsn  file "../drivers/source/adc.c",line 177,column 1,is_stmt,address _ADC_enableRefBuffers,isa 0
    1825              
    1826                      .dwfde $C$DW$CIE, _ADC_enableRefBuffers
    1827              $C$DW$128       .dwtag  DW_TAG_formal_parameter
    1828                      .dwattr $C$DW$128, DW_AT_name("adcHandle")
    1829                      .dwattr $C$DW$128, DW_AT_TI_symbol_name("_adcHandle")
    1830                      .dwattr $C$DW$128, DW_AT_type(*$C$DW$T$71)
    1831                      .dwattr $C$DW$128, DW_AT_location[DW_OP_reg12]
    1832              
    1833              
    1834              ;***************************************************************
    1835              ;* FNAME: _ADC_enableRefBuffers         FR SIZE:   0           *
    1836              ;*                                                             *
    1837              ;* FUNCTION ENVIRONMENT                                        *
    1838              ;*                                                             *
    1839              ;* FUNCTION PROPERTIES                                         *
    1840              ;*                            0 Parameter,  0 Auto,  0 SOE     *
    1841              ;***************************************************************
    1842              
    1843              _ADC_enableRefBuffers:
    1844              ;* AR4   assigned to _adcHandle
    1845              $C$DW$129       .dwtag  DW_TAG_variable
    1846                      .dwattr $C$DW$129, DW_AT_name("adcHandle")
    1847                      .dwattr $C$DW$129, DW_AT_TI_symbol_name("_adcHandle")
    1848                      .dwattr $C$DW$129, DW_AT_type(*$C$DW$T$78)
    1849                      .dwattr $C$DW$129, DW_AT_location[DW_OP_reg12]
    1850              
    1851                      .dwcfi  cfa_offset, -2
    1852                      .dwcfi  save_reg_to_mem, 26, 0
    1853 0000016e 7622   EALLOW
    1854                      .dwpsn  file "../drivers/source/adc.c",line 184,column 3,is_stmt,isa 0
    1855 0000016f A8A9          MOVL      ACC,XAR4              ; [CPU_] |184| 
    1856 00000170 FF19          ADD       ACC,#51 << 9          ; [CPU_] |184| 
         00000171 0033 
    1857 00000172 8AA9          MOVL      XAR4,ACC              ; [CPU_] |184| 
    1858 00000173 1AC4          OR        *+XAR4[0],#0x0020     ; [CPU_] |184| 
         00000174 0020 
    1859 00000175 761A   EDIS
    1860 00000176 FF69          SPM       #0                    ; [CPU_] 
    1861              $C$DW$130       .dwtag  DW_TAG_TI_branch
    1862                      .dwattr $C$DW$130, DW_AT_low_pc(0x00)
    1863                      .dwattr $C$DW$130, DW_AT_TI_return
    1864              
    1865 00000177 0006          LRETR     ; [CPU_] 
    1866                      ; return occurs ; [] 
    1867                      .dwattr $C$DW$127, DW_AT_TI_end_file("../drivers/source/adc.c")
    1868                      .dwattr $C$DW$127, DW_AT_TI_end_line(0xbd)
TMS320C2000 Assembler PC v15.12.3 Tue Sep 20 20:29:52 2016

Tools Copyright (c) 1996-2015 Texas Instruments Incorporated
C:\Users\MaCHaDo\AppData\Local\Temp\0280810                          PAGE   36

    1869                      .dwattr $C$DW$127, DW_AT_TI_end_column(0x01)
    1870                      .dwendentry
    1871                      .dwendtag $C$DW$127
    1872              
    1873 00000178               .sect   ".text"
    1874                      .clink
    1875                      .global _ADC_enableNoOverlapMode
    1876              
    1877              $C$DW$131       .dwtag  DW_TAG_subprogram
    1878                      .dwattr $C$DW$131, DW_AT_name("ADC_enableNoOverlapMode")
    1879                      .dwattr $C$DW$131, DW_AT_low_pc(_ADC_enableNoOverlapMode)
    1880                      .dwattr $C$DW$131, DW_AT_high_pc(0x00)
    1881                      .dwattr $C$DW$131, DW_AT_TI_symbol_name("_ADC_enableNoOverlapMode")
    1882                      .dwattr $C$DW$131, DW_AT_external
    1883                      .dwattr $C$DW$131, DW_AT_TI_begin_file("../drivers/source/adc.c")
    1884                      .dwattr $C$DW$131, DW_AT_TI_begin_line(0x216)
    1885                      .dwattr $C$DW$131, DW_AT_TI_begin_column(0x06)
    1886                      .dwattr $C$DW$131, DW_AT_TI_max_frame_size(-2)
    1887                      .dwpsn  file "../drivers/source/adc.c",line 535,column 1,is_stmt,address _ADC_enableNoOverlapMode,isa
    1888              
    1889                      .dwfde $C$DW$CIE, _ADC_enableNoOverlapMode
    1890              $C$DW$132       .dwtag  DW_TAG_formal_parameter
    1891                      .dwattr $C$DW$132, DW_AT_name("adcHandle")
    1892                      .dwattr $C$DW$132, DW_AT_TI_symbol_name("_adcHandle")
    1893                      .dwattr $C$DW$132, DW_AT_type(*$C$DW$T$71)
    1894                      .dwattr $C$DW$132, DW_AT_location[DW_OP_reg12]
    1895              
    1896              
    1897              ;***************************************************************
    1898              ;* FNAME: _ADC_enableNoOverlapMode      FR SIZE:   0           *
    1899              ;*                                                             *
    1900              ;* FUNCTION ENVIRONMENT                                        *
    1901              ;*                                                             *
    1902              ;* FUNCTION PROPERTIES                                         *
    1903              ;*                            0 Parameter,  0 Auto,  0 SOE     *
    1904              ;***************************************************************
    1905              
    1906              _ADC_enableNoOverlapMode:
    1907              ;* AR4   assigned to _adcHandle
    1908              $C$DW$133       .dwtag  DW_TAG_variable
    1909                      .dwattr $C$DW$133, DW_AT_name("adcHandle")
    1910                      .dwattr $C$DW$133, DW_AT_TI_symbol_name("_adcHandle")
    1911                      .dwattr $C$DW$133, DW_AT_type(*$C$DW$T$78)
    1912                      .dwattr $C$DW$133, DW_AT_location[DW_OP_reg12]
    1913              
    1914                      .dwcfi  cfa_offset, -2
    1915                      .dwcfi  save_reg_to_mem, 26, 0
    1916 00000178 7622   EALLOW
    1917                      .dwpsn  file "../drivers/source/adc.c",line 542,column 3,is_stmt,isa 0
    1918 00000179 A8A9          MOVL      ACC,XAR4              ; [CPU_] |542| 
    1919 0000017a FF10          ADD       ACC,#26113 << 0       ; [CPU_] |542| 
         0000017b 6601 
    1920 0000017c 8AA9          MOVL      XAR4,ACC              ; [CPU_] |542| 
    1921 0000017d 1AC4          OR        *+XAR4[0],#0x0002     ; [CPU_] |542| 
         0000017e 0002 
TMS320C2000 Assembler PC v15.12.3 Tue Sep 20 20:29:52 2016

Tools Copyright (c) 1996-2015 Texas Instruments Incorporated
C:\Users\MaCHaDo\AppData\Local\Temp\0280810                          PAGE   37

    1922 0000017f 761A   EDIS
    1923 00000180 FF69          SPM       #0                    ; [CPU_] 
    1924              $C$DW$134       .dwtag  DW_TAG_TI_branch
    1925                      .dwattr $C$DW$134, DW_AT_low_pc(0x00)
    1926                      .dwattr $C$DW$134, DW_AT_TI_return
    1927              
    1928 00000181 0006          LRETR     ; [CPU_] 
    1929                      ; return occurs ; [] 
    1930                      .dwattr $C$DW$131, DW_AT_TI_end_file("../drivers/source/adc.c")
    1931                      .dwattr $C$DW$131, DW_AT_TI_end_line(0x223)
    1932                      .dwattr $C$DW$131, DW_AT_TI_end_column(0x01)
    1933                      .dwendentry
    1934                      .dwendtag $C$DW$131
    1935              
    1936 00000182               .sect   ".text"
    1937                      .clink
    1938                      .global _ADC_enableInt
    1939              
    1940              $C$DW$135       .dwtag  DW_TAG_subprogram
    1941                      .dwattr $C$DW$135, DW_AT_name("ADC_enableInt")
    1942                      .dwattr $C$DW$135, DW_AT_low_pc(_ADC_enableInt)
    1943                      .dwattr $C$DW$135, DW_AT_high_pc(0x00)
    1944                      .dwattr $C$DW$135, DW_AT_TI_symbol_name("_ADC_enableInt")
    1945                      .dwattr $C$DW$135, DW_AT_external
    1946                      .dwattr $C$DW$135, DW_AT_TI_begin_file("../drivers/source/adc.c")
    1947                      .dwattr $C$DW$135, DW_AT_TI_begin_line(0x9d)
    1948                      .dwattr $C$DW$135, DW_AT_TI_begin_column(0x06)
    1949                      .dwattr $C$DW$135, DW_AT_TI_max_frame_size(-2)
    1950                      .dwpsn  file "../drivers/source/adc.c",line 158,column 1,is_stmt,address _ADC_enableInt,isa 0
    1951              
    1952                      .dwfde $C$DW$CIE, _ADC_enableInt
    1953              $C$DW$136       .dwtag  DW_TAG_formal_parameter
    1954                      .dwattr $C$DW$136, DW_AT_name("adcHandle")
    1955                      .dwattr $C$DW$136, DW_AT_TI_symbol_name("_adcHandle")
    1956                      .dwattr $C$DW$136, DW_AT_type(*$C$DW$T$71)
    1957                      .dwattr $C$DW$136, DW_AT_location[DW_OP_reg12]
    1958              
    1959              $C$DW$137       .dwtag  DW_TAG_formal_parameter
    1960                      .dwattr $C$DW$137, DW_AT_name("intNumber")
    1961                      .dwattr $C$DW$137, DW_AT_TI_symbol_name("_intNumber")
    1962                      .dwattr $C$DW$137, DW_AT_type(*$C$DW$T$30)
    1963                      .dwattr $C$DW$137, DW_AT_location[DW_OP_reg0]
    1964              
    1965              
    1966              ;***************************************************************
    1967              ;* FNAME: _ADC_enableInt                FR SIZE:   0           *
    1968              ;*                                                             *
    1969              ;* FUNCTION ENVIRONMENT                                        *
    1970              ;*                                                             *
    1971              ;* FUNCTION PROPERTIES                                         *
    1972              ;*                            0 Parameter,  0 Auto,  0 SOE     *
    1973              ;***************************************************************
    1974              
    1975              _ADC_enableInt:
    1976              ;* AR6   assigned to _intNumber
TMS320C2000 Assembler PC v15.12.3 Tue Sep 20 20:29:52 2016

Tools Copyright (c) 1996-2015 Texas Instruments Incorporated
C:\Users\MaCHaDo\AppData\Local\Temp\0280810                          PAGE   38

    1977              $C$DW$138       .dwtag  DW_TAG_variable
    1978                      .dwattr $C$DW$138, DW_AT_name("intNumber")
    1979                      .dwattr $C$DW$138, DW_AT_TI_symbol_name("_intNumber")
    1980                      .dwattr $C$DW$138, DW_AT_type(*$C$DW$T$30)
    1981                      .dwattr $C$DW$138, DW_AT_location[DW_OP_reg16]
    1982              
    1983                      .dwcfi  cfa_offset, -2
    1984                      .dwcfi  save_reg_to_mem, 26, 0
    1985 00000182 88A9          MOVZ      AR6,AL                ; [CPU_] |158| 
    1986 00000183 7622   EALLOW
    1987                      .dwpsn  file "../drivers/source/adc.c",line 168,column 3,is_stmt,isa 0
    1988 00000184 FFC0          LSR       AL,1                  ; [CPU_] |168| 
    1989 00000185 80A9          MOVZ      AR7,AL                ; [CPU_] |168| 
    1990 00000186 28AC          MOV       T,#8                  ; [CPU_] |168| 
         00000187 0008 
    1991 00000188 A8A9          MOVL      ACC,XAR4              ; [CPU_] |168| 
    1992 00000189 0DA7          ADDU      ACC,AR7               ; [CPU_] |168| 
    1993 0000018a FF13          ADD       ACC,#3265 << 3        ; [CPU_] |168| 
         0000018b 0CC1 
    1994 0000018c 8AA9          MOVL      XAR4,ACC              ; [CPU_] |168| 
    1995 0000018d 5603          MOV       ACC,AR6 << #3         ; [CPU_] |168| 
         0000018e 03A6 
    1996 0000018f F00F          XORB      AL,#0x0f              ; [CPU_] |168| 
    1997 00000190 9008          ANDB      AL,#0x08              ; [CPU_] |168| 
    1998 00000191 74AC          SUB       T,AL                  ; [CPU_] |168| 
    1999 00000192 9A20          MOVB      AL,#32                ; [CPU_] |168| 
    2000 00000193 FF66          LSL       AL,T                  ; [CPU_] |168| 
    2001 00000194 98C4          OR        *+XAR4[0],AL          ; [CPU_] |168| 
    2002 00000195 761A   EDIS
    2003 00000196 FF69          SPM       #0                    ; [CPU_] 
    2004              $C$DW$139       .dwtag  DW_TAG_TI_branch
    2005                      .dwattr $C$DW$139, DW_AT_low_pc(0x00)
    2006                      .dwattr $C$DW$139, DW_AT_TI_return
    2007              
    2008 00000197 0006          LRETR     ; [CPU_] 
    2009                      ; return occurs ; [] 
    2010                      .dwattr $C$DW$135, DW_AT_TI_end_file("../drivers/source/adc.c")
    2011                      .dwattr $C$DW$135, DW_AT_TI_end_line(0xad)
    2012                      .dwattr $C$DW$135, DW_AT_TI_end_column(0x01)
    2013                      .dwendentry
    2014                      .dwendtag $C$DW$135
    2015              
    2016 00000198               .sect   ".text"
    2017                      .clink
    2018                      .global _ADC_enableBandGap
    2019              
    2020              $C$DW$140       .dwtag  DW_TAG_subprogram
    2021                      .dwattr $C$DW$140, DW_AT_name("ADC_enableBandGap")
    2022                      .dwattr $C$DW$140, DW_AT_low_pc(_ADC_enableBandGap)
    2023                      .dwattr $C$DW$140, DW_AT_high_pc(0x00)
    2024                      .dwattr $C$DW$140, DW_AT_TI_symbol_name("_ADC_enableBandGap")
    2025                      .dwattr $C$DW$140, DW_AT_external
    2026                      .dwattr $C$DW$140, DW_AT_TI_begin_file("../drivers/source/adc.c")
    2027                      .dwattr $C$DW$140, DW_AT_TI_begin_line(0x8d)
    2028                      .dwattr $C$DW$140, DW_AT_TI_begin_column(0x06)
TMS320C2000 Assembler PC v15.12.3 Tue Sep 20 20:29:52 2016

Tools Copyright (c) 1996-2015 Texas Instruments Incorporated
C:\Users\MaCHaDo\AppData\Local\Temp\0280810                          PAGE   39

    2029                      .dwattr $C$DW$140, DW_AT_TI_max_frame_size(-2)
    2030                      .dwpsn  file "../drivers/source/adc.c",line 142,column 1,is_stmt,address _ADC_enableBandGap,isa 0
    2031              
    2032                      .dwfde $C$DW$CIE, _ADC_enableBandGap
    2033              $C$DW$141       .dwtag  DW_TAG_formal_parameter
    2034                      .dwattr $C$DW$141, DW_AT_name("adcHandle")
    2035                      .dwattr $C$DW$141, DW_AT_TI_symbol_name("_adcHandle")
    2036                      .dwattr $C$DW$141, DW_AT_type(*$C$DW$T$71)
    2037                      .dwattr $C$DW$141, DW_AT_location[DW_OP_reg12]
    2038              
    2039              
    2040              ;***************************************************************
    2041              ;* FNAME: _ADC_enableBandGap            FR SIZE:   0           *
    2042              ;*                                                             *
    2043              ;* FUNCTION ENVIRONMENT                                        *
    2044              ;*                                                             *
    2045              ;* FUNCTION PROPERTIES                                         *
    2046              ;*                            0 Parameter,  0 Auto,  0 SOE     *
    2047              ;***************************************************************
    2048              
    2049              _ADC_enableBandGap:
    2050              ;* AR4   assigned to _adcHandle
    2051              $C$DW$142       .dwtag  DW_TAG_variable
    2052                      .dwattr $C$DW$142, DW_AT_name("adcHandle")
    2053                      .dwattr $C$DW$142, DW_AT_TI_symbol_name("_adcHandle")
    2054                      .dwattr $C$DW$142, DW_AT_type(*$C$DW$T$78)
    2055                      .dwattr $C$DW$142, DW_AT_location[DW_OP_reg12]
    2056              
    2057                      .dwcfi  cfa_offset, -2
    2058                      .dwcfi  save_reg_to_mem, 26, 0
    2059 00000198 7622   EALLOW
    2060                      .dwpsn  file "../drivers/source/adc.c",line 149,column 3,is_stmt,isa 0
    2061 00000199 A8A9          MOVL      ACC,XAR4              ; [CPU_] |149| 
    2062 0000019a FF19          ADD       ACC,#51 << 9          ; [CPU_] |149| 
         0000019b 0033 
    2063 0000019c 8AA9          MOVL      XAR4,ACC              ; [CPU_] |149| 
    2064 0000019d 1AC4          OR        *+XAR4[0],#0x0040     ; [CPU_] |149| 
         0000019e 0040 
    2065 0000019f 761A   EDIS
    2066 000001a0 FF69          SPM       #0                    ; [CPU_] 
    2067              $C$DW$143       .dwtag  DW_TAG_TI_branch
    2068                      .dwattr $C$DW$143, DW_AT_low_pc(0x00)
    2069                      .dwattr $C$DW$143, DW_AT_TI_return
    2070              
    2071 000001a1 0006          LRETR     ; [CPU_] 
    2072                      ; return occurs ; [] 
    2073                      .dwattr $C$DW$140, DW_AT_TI_end_file("../drivers/source/adc.c")
    2074                      .dwattr $C$DW$140, DW_AT_TI_end_line(0x9a)
    2075                      .dwattr $C$DW$140, DW_AT_TI_end_column(0x01)
    2076                      .dwendentry
    2077                      .dwendtag $C$DW$140
    2078              
    2079 000001a2               .sect   ".text"
    2080                      .clink
    2081                      .global _ADC_enable
TMS320C2000 Assembler PC v15.12.3 Tue Sep 20 20:29:52 2016

Tools Copyright (c) 1996-2015 Texas Instruments Incorporated
C:\Users\MaCHaDo\AppData\Local\Temp\0280810                          PAGE   40

    2082              
    2083              $C$DW$144       .dwtag  DW_TAG_subprogram
    2084                      .dwattr $C$DW$144, DW_AT_name("ADC_enable")
    2085                      .dwattr $C$DW$144, DW_AT_low_pc(_ADC_enable)
    2086                      .dwattr $C$DW$144, DW_AT_high_pc(0x00)
    2087                      .dwattr $C$DW$144, DW_AT_TI_symbol_name("_ADC_enable")
    2088                      .dwattr $C$DW$144, DW_AT_external
    2089                      .dwattr $C$DW$144, DW_AT_TI_begin_file("../drivers/source/adc.c")
    2090                      .dwattr $C$DW$144, DW_AT_TI_begin_line(0x7d)
    2091                      .dwattr $C$DW$144, DW_AT_TI_begin_column(0x06)
    2092                      .dwattr $C$DW$144, DW_AT_TI_max_frame_size(-2)
    2093                      .dwpsn  file "../drivers/source/adc.c",line 126,column 1,is_stmt,address _ADC_enable,isa 0
    2094              
    2095                      .dwfde $C$DW$CIE, _ADC_enable
    2096              $C$DW$145       .dwtag  DW_TAG_formal_parameter
    2097                      .dwattr $C$DW$145, DW_AT_name("adcHandle")
    2098                      .dwattr $C$DW$145, DW_AT_TI_symbol_name("_adcHandle")
    2099                      .dwattr $C$DW$145, DW_AT_type(*$C$DW$T$71)
    2100                      .dwattr $C$DW$145, DW_AT_location[DW_OP_reg12]
    2101              
    2102              
    2103              ;***************************************************************
    2104              ;* FNAME: _ADC_enable                   FR SIZE:   0           *
    2105              ;*                                                             *
    2106              ;* FUNCTION ENVIRONMENT                                        *
    2107              ;*                                                             *
    2108              ;* FUNCTION PROPERTIES                                         *
    2109              ;*                            0 Parameter,  0 Auto,  0 SOE     *
    2110              ;***************************************************************
    2111              
    2112              _ADC_enable:
    2113              ;* AR4   assigned to _adcHandle
    2114              $C$DW$146       .dwtag  DW_TAG_variable
    2115                      .dwattr $C$DW$146, DW_AT_name("adcHandle")
    2116                      .dwattr $C$DW$146, DW_AT_TI_symbol_name("_adcHandle")
    2117                      .dwattr $C$DW$146, DW_AT_type(*$C$DW$T$78)
    2118                      .dwattr $C$DW$146, DW_AT_location[DW_OP_reg12]
    2119              
    2120                      .dwcfi  cfa_offset, -2
    2121                      .dwcfi  save_reg_to_mem, 26, 0
    2122 000001a2 7622   EALLOW
    2123                      .dwpsn  file "../drivers/source/adc.c",line 133,column 3,is_stmt,isa 0
    2124 000001a3 A8A9          MOVL      ACC,XAR4              ; [CPU_] |133| 
    2125 000001a4 FF19          ADD       ACC,#51 << 9          ; [CPU_] |133| 
         000001a5 0033 
    2126 000001a6 8AA9          MOVL      XAR4,ACC              ; [CPU_] |133| 
    2127 000001a7 1AC4          OR        *+XAR4[0],#0x4000     ; [CPU_] |133| 
         000001a8 4000 
    2128 000001a9 761A   EDIS
    2129 000001aa FF69          SPM       #0                    ; [CPU_] 
    2130              $C$DW$147       .dwtag  DW_TAG_TI_branch
    2131                      .dwattr $C$DW$147, DW_AT_low_pc(0x00)
    2132                      .dwattr $C$DW$147, DW_AT_TI_return
    2133              
    2134 000001ab 0006          LRETR     ; [CPU_] 
TMS320C2000 Assembler PC v15.12.3 Tue Sep 20 20:29:52 2016

Tools Copyright (c) 1996-2015 Texas Instruments Incorporated
C:\Users\MaCHaDo\AppData\Local\Temp\0280810                          PAGE   41

    2135                      ; return occurs ; [] 
    2136                      .dwattr $C$DW$144, DW_AT_TI_end_file("../drivers/source/adc.c")
    2137                      .dwattr $C$DW$144, DW_AT_TI_end_line(0x8a)
    2138                      .dwattr $C$DW$144, DW_AT_TI_end_column(0x01)
    2139                      .dwendentry
    2140                      .dwendtag $C$DW$144
    2141              
    2142 000001ac               .sect   ".text"
    2143                      .clink
    2144                      .global _ADC_disableVoltRefLoConv
    2145              
    2146              $C$DW$148       .dwtag  DW_TAG_subprogram
    2147                      .dwattr $C$DW$148, DW_AT_name("ADC_disableVoltRefLoConv")
    2148                      .dwattr $C$DW$148, DW_AT_low_pc(_ADC_disableVoltRefLoConv)
    2149                      .dwattr $C$DW$148, DW_AT_high_pc(0x00)
    2150                      .dwattr $C$DW$148, DW_AT_TI_symbol_name("_ADC_disableVoltRefLoConv")
    2151                      .dwattr $C$DW$148, DW_AT_external
    2152                      .dwattr $C$DW$148, DW_AT_TI_begin_file("../drivers/source/adc.c")
    2153                      .dwattr $C$DW$148, DW_AT_TI_begin_line(0x27b)
    2154                      .dwattr $C$DW$148, DW_AT_TI_begin_column(0x06)
    2155                      .dwattr $C$DW$148, DW_AT_TI_max_frame_size(-2)
    2156                      .dwpsn  file "../drivers/source/adc.c",line 636,column 1,is_stmt,address _ADC_disableVoltRefLoConv,is
    2157              
    2158                      .dwfde $C$DW$CIE, _ADC_disableVoltRefLoConv
    2159              $C$DW$149       .dwtag  DW_TAG_formal_parameter
    2160                      .dwattr $C$DW$149, DW_AT_name("adcHandle")
    2161                      .dwattr $C$DW$149, DW_AT_TI_symbol_name("_adcHandle")
    2162                      .dwattr $C$DW$149, DW_AT_type(*$C$DW$T$71)
    2163                      .dwattr $C$DW$149, DW_AT_location[DW_OP_reg12]
    2164              
    2165              
    2166              ;***************************************************************
    2167              ;* FNAME: _ADC_disableVoltRefLoConv     FR SIZE:   0           *
    2168              ;*                                                             *
    2169              ;* FUNCTION ENVIRONMENT                                        *
    2170              ;*                                                             *
    2171              ;* FUNCTION PROPERTIES                                         *
    2172              ;*                            0 Parameter,  0 Auto,  0 SOE     *
    2173              ;***************************************************************
    2174              
    2175              _ADC_disableVoltRefLoConv:
    2176              ;* AR4   assigned to _adcHandle
    2177              $C$DW$150       .dwtag  DW_TAG_variable
    2178                      .dwattr $C$DW$150, DW_AT_name("adcHandle")
    2179                      .dwattr $C$DW$150, DW_AT_TI_symbol_name("_adcHandle")
    2180                      .dwattr $C$DW$150, DW_AT_type(*$C$DW$T$78)
    2181                      .dwattr $C$DW$150, DW_AT_location[DW_OP_reg12]
    2182              
    2183                      .dwcfi  cfa_offset, -2
    2184                      .dwcfi  save_reg_to_mem, 26, 0
    2185 000001ac 7622   EALLOW
    2186                      .dwpsn  file "../drivers/source/adc.c",line 643,column 3,is_stmt,isa 0
    2187 000001ad A8A9          MOVL      ACC,XAR4              ; [CPU_] |643| 
    2188 000001ae FF19          ADD       ACC,#51 << 9          ; [CPU_] |643| 
         000001af 0033 
TMS320C2000 Assembler PC v15.12.3 Tue Sep 20 20:29:52 2016

Tools Copyright (c) 1996-2015 Texas Instruments Incorporated
C:\Users\MaCHaDo\AppData\Local\Temp\0280810                          PAGE   42

    2189 000001b0 8AA9          MOVL      XAR4,ACC              ; [CPU_] |643| 
    2190 000001b1 18C4          AND       *+XAR4[0],#0xfffd     ; [CPU_] |643| 
         000001b2 FFFD 
    2191 000001b3 761A   EDIS
    2192 000001b4 FF69          SPM       #0                    ; [CPU_] 
    2193              $C$DW$151       .dwtag  DW_TAG_TI_branch
    2194                      .dwattr $C$DW$151, DW_AT_low_pc(0x00)
    2195                      .dwattr $C$DW$151, DW_AT_TI_return
    2196              
    2197 000001b5 0006          LRETR     ; [CPU_] 
    2198                      ; return occurs ; [] 
    2199                      .dwattr $C$DW$148, DW_AT_TI_end_file("../drivers/source/adc.c")
    2200                      .dwattr $C$DW$148, DW_AT_TI_end_line(0x288)
    2201                      .dwattr $C$DW$148, DW_AT_TI_end_column(0x01)
    2202                      .dwendentry
    2203                      .dwendtag $C$DW$148
    2204              
    2205 000001b6               .sect   ".text"
    2206                      .clink
    2207                      .global _ADC_disableRefBuffers
    2208              
    2209              $C$DW$152       .dwtag  DW_TAG_subprogram
    2210                      .dwattr $C$DW$152, DW_AT_name("ADC_disableRefBuffers")
    2211                      .dwattr $C$DW$152, DW_AT_low_pc(_ADC_disableRefBuffers)
    2212                      .dwattr $C$DW$152, DW_AT_high_pc(0x00)
    2213                      .dwattr $C$DW$152, DW_AT_TI_symbol_name("_ADC_disableRefBuffers")
    2214                      .dwattr $C$DW$152, DW_AT_external
    2215                      .dwattr $C$DW$152, DW_AT_TI_begin_file("../drivers/source/adc.c")
    2216                      .dwattr $C$DW$152, DW_AT_TI_begin_line(0x6d)
    2217                      .dwattr $C$DW$152, DW_AT_TI_begin_column(0x06)
    2218                      .dwattr $C$DW$152, DW_AT_TI_max_frame_size(-2)
    2219                      .dwpsn  file "../drivers/source/adc.c",line 110,column 1,is_stmt,address _ADC_disableRefBuffers,isa 0
    2220              
    2221                      .dwfde $C$DW$CIE, _ADC_disableRefBuffers
    2222              $C$DW$153       .dwtag  DW_TAG_formal_parameter
    2223                      .dwattr $C$DW$153, DW_AT_name("adcHandle")
    2224                      .dwattr $C$DW$153, DW_AT_TI_symbol_name("_adcHandle")
    2225                      .dwattr $C$DW$153, DW_AT_type(*$C$DW$T$71)
    2226                      .dwattr $C$DW$153, DW_AT_location[DW_OP_reg12]
    2227              
    2228              
    2229              ;***************************************************************
    2230              ;* FNAME: _ADC_disableRefBuffers        FR SIZE:   0           *
    2231              ;*                                                             *
    2232              ;* FUNCTION ENVIRONMENT                                        *
    2233              ;*                                                             *
    2234              ;* FUNCTION PROPERTIES                                         *
    2235              ;*                            0 Parameter,  0 Auto,  0 SOE     *
    2236              ;***************************************************************
    2237              
    2238              _ADC_disableRefBuffers:
    2239              ;* AR4   assigned to _adcHandle
    2240              $C$DW$154       .dwtag  DW_TAG_variable
    2241                      .dwattr $C$DW$154, DW_AT_name("adcHandle")
    2242                      .dwattr $C$DW$154, DW_AT_TI_symbol_name("_adcHandle")
TMS320C2000 Assembler PC v15.12.3 Tue Sep 20 20:29:52 2016

Tools Copyright (c) 1996-2015 Texas Instruments Incorporated
C:\Users\MaCHaDo\AppData\Local\Temp\0280810                          PAGE   43

    2243                      .dwattr $C$DW$154, DW_AT_type(*$C$DW$T$78)
    2244                      .dwattr $C$DW$154, DW_AT_location[DW_OP_reg12]
    2245              
    2246                      .dwcfi  cfa_offset, -2
    2247                      .dwcfi  save_reg_to_mem, 26, 0
    2248 000001b6 7622   EALLOW
    2249                      .dwpsn  file "../drivers/source/adc.c",line 117,column 3,is_stmt,isa 0
    2250 000001b7 A8A9          MOVL      ACC,XAR4              ; [CPU_] |117| 
    2251 000001b8 FF19          ADD       ACC,#51 << 9          ; [CPU_] |117| 
         000001b9 0033 
    2252 000001ba 8AA9          MOVL      XAR4,ACC              ; [CPU_] |117| 
    2253 000001bb 18C4          AND       *+XAR4[0],#0xffdf     ; [CPU_] |117| 
         000001bc FFDF 
    2254 000001bd 761A   EDIS
    2255 000001be FF69          SPM       #0                    ; [CPU_] 
    2256              $C$DW$155       .dwtag  DW_TAG_TI_branch
    2257                      .dwattr $C$DW$155, DW_AT_low_pc(0x00)
    2258                      .dwattr $C$DW$155, DW_AT_TI_return
    2259              
    2260 000001bf 0006          LRETR     ; [CPU_] 
    2261                      ; return occurs ; [] 
    2262                      .dwattr $C$DW$152, DW_AT_TI_end_file("../drivers/source/adc.c")
    2263                      .dwattr $C$DW$152, DW_AT_TI_end_line(0x7a)
    2264                      .dwattr $C$DW$152, DW_AT_TI_end_column(0x01)
    2265                      .dwendentry
    2266                      .dwendtag $C$DW$152
    2267              
    2268 000001c0               .sect   ".text"
    2269                      .clink
    2270                      .global _ADC_disableNoOverlapMode
    2271              
    2272              $C$DW$156       .dwtag  DW_TAG_subprogram
    2273                      .dwattr $C$DW$156, DW_AT_name("ADC_disableNoOverlapMode")
    2274                      .dwattr $C$DW$156, DW_AT_low_pc(_ADC_disableNoOverlapMode)
    2275                      .dwattr $C$DW$156, DW_AT_high_pc(0x00)
    2276                      .dwattr $C$DW$156, DW_AT_TI_symbol_name("_ADC_disableNoOverlapMode")
    2277                      .dwattr $C$DW$156, DW_AT_external
    2278                      .dwattr $C$DW$156, DW_AT_TI_begin_file("../drivers/source/adc.c")
    2279                      .dwattr $C$DW$156, DW_AT_TI_begin_line(0x226)
    2280                      .dwattr $C$DW$156, DW_AT_TI_begin_column(0x06)
    2281                      .dwattr $C$DW$156, DW_AT_TI_max_frame_size(-2)
    2282                      .dwpsn  file "../drivers/source/adc.c",line 551,column 1,is_stmt,address _ADC_disableNoOverlapMode,is
    2283              
    2284                      .dwfde $C$DW$CIE, _ADC_disableNoOverlapMode
    2285              $C$DW$157       .dwtag  DW_TAG_formal_parameter
    2286                      .dwattr $C$DW$157, DW_AT_name("adcHandle")
    2287                      .dwattr $C$DW$157, DW_AT_TI_symbol_name("_adcHandle")
    2288                      .dwattr $C$DW$157, DW_AT_type(*$C$DW$T$71)
    2289                      .dwattr $C$DW$157, DW_AT_location[DW_OP_reg12]
    2290              
    2291              
    2292              ;***************************************************************
    2293              ;* FNAME: _ADC_disableNoOverlapMode     FR SIZE:   0           *
    2294              ;*                                                             *
    2295              ;* FUNCTION ENVIRONMENT                                        *
TMS320C2000 Assembler PC v15.12.3 Tue Sep 20 20:29:52 2016

Tools Copyright (c) 1996-2015 Texas Instruments Incorporated
C:\Users\MaCHaDo\AppData\Local\Temp\0280810                          PAGE   44

    2296              ;*                                                             *
    2297              ;* FUNCTION PROPERTIES                                         *
    2298              ;*                            0 Parameter,  0 Auto,  0 SOE     *
    2299              ;***************************************************************
    2300              
    2301              _ADC_disableNoOverlapMode:
    2302              ;* AR4   assigned to _adcHandle
    2303              $C$DW$158       .dwtag  DW_TAG_variable
    2304                      .dwattr $C$DW$158, DW_AT_name("adcHandle")
    2305                      .dwattr $C$DW$158, DW_AT_TI_symbol_name("_adcHandle")
    2306                      .dwattr $C$DW$158, DW_AT_type(*$C$DW$T$78)
    2307                      .dwattr $C$DW$158, DW_AT_location[DW_OP_reg12]
    2308              
    2309                      .dwcfi  cfa_offset, -2
    2310                      .dwcfi  save_reg_to_mem, 26, 0
    2311 000001c0 7622   EALLOW
    2312                      .dwpsn  file "../drivers/source/adc.c",line 558,column 3,is_stmt,isa 0
    2313 000001c1 A8A9          MOVL      ACC,XAR4              ; [CPU_] |558| 
    2314 000001c2 FF10          ADD       ACC,#26113 << 0       ; [CPU_] |558| 
         000001c3 6601 
    2315 000001c4 8AA9          MOVL      XAR4,ACC              ; [CPU_] |558| 
    2316 000001c5 18C4          AND       *+XAR4[0],#0xfffd     ; [CPU_] |558| 
         000001c6 FFFD 
    2317 000001c7 761A   EDIS
    2318 000001c8 FF69          SPM       #0                    ; [CPU_] 
    2319              $C$DW$159       .dwtag  DW_TAG_TI_branch
    2320                      .dwattr $C$DW$159, DW_AT_low_pc(0x00)
    2321                      .dwattr $C$DW$159, DW_AT_TI_return
    2322              
    2323 000001c9 0006          LRETR     ; [CPU_] 
    2324                      ; return occurs ; [] 
    2325                      .dwattr $C$DW$156, DW_AT_TI_end_file("../drivers/source/adc.c")
    2326                      .dwattr $C$DW$156, DW_AT_TI_end_line(0x233)
    2327                      .dwattr $C$DW$156, DW_AT_TI_end_column(0x01)
    2328                      .dwendentry
    2329                      .dwendtag $C$DW$156
    2330              
    2331 000001ca               .sect   ".text"
    2332                      .clink
    2333                      .global _ADC_disableInt
    2334              
    2335              $C$DW$160       .dwtag  DW_TAG_subprogram
    2336                      .dwattr $C$DW$160, DW_AT_name("ADC_disableInt")
    2337                      .dwattr $C$DW$160, DW_AT_low_pc(_ADC_disableInt)
    2338                      .dwattr $C$DW$160, DW_AT_high_pc(0x00)
    2339                      .dwattr $C$DW$160, DW_AT_TI_symbol_name("_ADC_disableInt")
    2340                      .dwattr $C$DW$160, DW_AT_external
    2341                      .dwattr $C$DW$160, DW_AT_TI_begin_file("../drivers/source/adc.c")
    2342                      .dwattr $C$DW$160, DW_AT_TI_begin_line(0x5a)
    2343                      .dwattr $C$DW$160, DW_AT_TI_begin_column(0x06)
    2344                      .dwattr $C$DW$160, DW_AT_TI_max_frame_size(-2)
    2345                      .dwpsn  file "../drivers/source/adc.c",line 91,column 1,is_stmt,address _ADC_disableInt,isa 0
    2346              
    2347                      .dwfde $C$DW$CIE, _ADC_disableInt
    2348              $C$DW$161       .dwtag  DW_TAG_formal_parameter
TMS320C2000 Assembler PC v15.12.3 Tue Sep 20 20:29:52 2016

Tools Copyright (c) 1996-2015 Texas Instruments Incorporated
C:\Users\MaCHaDo\AppData\Local\Temp\0280810                          PAGE   45

    2349                      .dwattr $C$DW$161, DW_AT_name("adcHandle")
    2350                      .dwattr $C$DW$161, DW_AT_TI_symbol_name("_adcHandle")
    2351                      .dwattr $C$DW$161, DW_AT_type(*$C$DW$T$71)
    2352                      .dwattr $C$DW$161, DW_AT_location[DW_OP_reg12]
    2353              
    2354              $C$DW$162       .dwtag  DW_TAG_formal_parameter
    2355                      .dwattr $C$DW$162, DW_AT_name("intNumber")
    2356                      .dwattr $C$DW$162, DW_AT_TI_symbol_name("_intNumber")
    2357                      .dwattr $C$DW$162, DW_AT_type(*$C$DW$T$30)
    2358                      .dwattr $C$DW$162, DW_AT_location[DW_OP_reg0]
    2359              
    2360              
    2361              ;***************************************************************
    2362              ;* FNAME: _ADC_disableInt               FR SIZE:   0           *
    2363              ;*                                                             *
    2364              ;* FUNCTION ENVIRONMENT                                        *
    2365              ;*                                                             *
    2366              ;* FUNCTION PROPERTIES                                         *
    2367              ;*                            0 Parameter,  0 Auto,  0 SOE     *
    2368              ;***************************************************************
    2369              
    2370              _ADC_disableInt:
    2371              ;* AR6   assigned to _intNumber
    2372              $C$DW$163       .dwtag  DW_TAG_variable
    2373                      .dwattr $C$DW$163, DW_AT_name("intNumber")
    2374                      .dwattr $C$DW$163, DW_AT_TI_symbol_name("_intNumber")
    2375                      .dwattr $C$DW$163, DW_AT_type(*$C$DW$T$30)
    2376                      .dwattr $C$DW$163, DW_AT_location[DW_OP_reg16]
    2377              
    2378                      .dwcfi  cfa_offset, -2
    2379                      .dwcfi  save_reg_to_mem, 26, 0
    2380 000001ca 88A9          MOVZ      AR6,AL                ; [CPU_] |91| 
    2381 000001cb 7622   EALLOW
    2382                      .dwpsn  file "../drivers/source/adc.c",line 101,column 3,is_stmt,isa 0
    2383 000001cc FFC0          LSR       AL,1                  ; [CPU_] |101| 
    2384 000001cd 80A9          MOVZ      AR7,AL                ; [CPU_] |101| 
    2385 000001ce 28AC          MOV       T,#8                  ; [CPU_] |101| 
         000001cf 0008 
    2386 000001d0 A8A9          MOVL      ACC,XAR4              ; [CPU_] |101| 
    2387 000001d1 0DA7          ADDU      ACC,AR7               ; [CPU_] |101| 
    2388 000001d2 FF13          ADD       ACC,#3265 << 3        ; [CPU_] |101| 
         000001d3 0CC1 
    2389 000001d4 8AA9          MOVL      XAR4,ACC              ; [CPU_] |101| 
    2390 000001d5 5603          MOV       ACC,AR6 << #3         ; [CPU_] |101| 
         000001d6 03A6 
    2391 000001d7 F00F          XORB      AL,#0x0f              ; [CPU_] |101| 
    2392 000001d8 9008          ANDB      AL,#0x08              ; [CPU_] |101| 
    2393 000001d9 74AC          SUB       T,AL                  ; [CPU_] |101| 
    2394 000001da 9A20          MOVB      AL,#32                ; [CPU_] |101| 
    2395 000001db FF66          LSL       AL,T                  ; [CPU_] |101| 
    2396 000001dc FF5E          NOT       AL                    ; [CPU_] |101| 
    2397 000001dd C0C4          AND       *+XAR4[0],AL          ; [CPU_] |101| 
    2398 000001de 761A   EDIS
    2399 000001df FF69          SPM       #0                    ; [CPU_] 
    2400              $C$DW$164       .dwtag  DW_TAG_TI_branch
TMS320C2000 Assembler PC v15.12.3 Tue Sep 20 20:29:52 2016

Tools Copyright (c) 1996-2015 Texas Instruments Incorporated
C:\Users\MaCHaDo\AppData\Local\Temp\0280810                          PAGE   46

    2401                      .dwattr $C$DW$164, DW_AT_low_pc(0x00)
    2402                      .dwattr $C$DW$164, DW_AT_TI_return
    2403              
    2404 000001e0 0006          LRETR     ; [CPU_] 
    2405                      ; return occurs ; [] 
    2406                      .dwattr $C$DW$160, DW_AT_TI_end_file("../drivers/source/adc.c")
    2407                      .dwattr $C$DW$160, DW_AT_TI_end_line(0x6a)
    2408                      .dwattr $C$DW$160, DW_AT_TI_end_column(0x01)
    2409                      .dwendentry
    2410                      .dwendtag $C$DW$160
    2411              
    2412 000001e1               .sect   ".text"
    2413                      .clink
    2414                      .global _ADC_disableBandGap
    2415              
    2416              $C$DW$165       .dwtag  DW_TAG_subprogram
    2417                      .dwattr $C$DW$165, DW_AT_name("ADC_disableBandGap")
    2418                      .dwattr $C$DW$165, DW_AT_low_pc(_ADC_disableBandGap)
    2419                      .dwattr $C$DW$165, DW_AT_high_pc(0x00)
    2420                      .dwattr $C$DW$165, DW_AT_TI_symbol_name("_ADC_disableBandGap")
    2421                      .dwattr $C$DW$165, DW_AT_external
    2422                      .dwattr $C$DW$165, DW_AT_TI_begin_file("../drivers/source/adc.c")
    2423                      .dwattr $C$DW$165, DW_AT_TI_begin_line(0x4a)
    2424                      .dwattr $C$DW$165, DW_AT_TI_begin_column(0x06)
    2425                      .dwattr $C$DW$165, DW_AT_TI_max_frame_size(-2)
    2426                      .dwpsn  file "../drivers/source/adc.c",line 75,column 1,is_stmt,address _ADC_disableBandGap,isa 0
    2427              
    2428                      .dwfde $C$DW$CIE, _ADC_disableBandGap
    2429              $C$DW$166       .dwtag  DW_TAG_formal_parameter
    2430                      .dwattr $C$DW$166, DW_AT_name("adcHandle")
    2431                      .dwattr $C$DW$166, DW_AT_TI_symbol_name("_adcHandle")
    2432                      .dwattr $C$DW$166, DW_AT_type(*$C$DW$T$71)
    2433                      .dwattr $C$DW$166, DW_AT_location[DW_OP_reg12]
    2434              
    2435              
    2436              ;***************************************************************
    2437              ;* FNAME: _ADC_disableBandGap           FR SIZE:   0           *
    2438              ;*                                                             *
    2439              ;* FUNCTION ENVIRONMENT                                        *
    2440              ;*                                                             *
    2441              ;* FUNCTION PROPERTIES                                         *
    2442              ;*                            0 Parameter,  0 Auto,  0 SOE     *
    2443              ;***************************************************************
    2444              
    2445              _ADC_disableBandGap:
    2446              ;* AR4   assigned to _adcHandle
    2447              $C$DW$167       .dwtag  DW_TAG_variable
    2448                      .dwattr $C$DW$167, DW_AT_name("adcHandle")
    2449                      .dwattr $C$DW$167, DW_AT_TI_symbol_name("_adcHandle")
    2450                      .dwattr $C$DW$167, DW_AT_type(*$C$DW$T$78)
    2451                      .dwattr $C$DW$167, DW_AT_location[DW_OP_reg12]
    2452              
    2453                      .dwcfi  cfa_offset, -2
    2454                      .dwcfi  save_reg_to_mem, 26, 0
    2455 000001e1 7622   EALLOW
TMS320C2000 Assembler PC v15.12.3 Tue Sep 20 20:29:52 2016

Tools Copyright (c) 1996-2015 Texas Instruments Incorporated
C:\Users\MaCHaDo\AppData\Local\Temp\0280810                          PAGE   47

    2456                      .dwpsn  file "../drivers/source/adc.c",line 82,column 3,is_stmt,isa 0
    2457 000001e2 A8A9          MOVL      ACC,XAR4              ; [CPU_] |82| 
    2458 000001e3 FF19          ADD       ACC,#51 << 9          ; [CPU_] |82| 
         000001e4 0033 
    2459 000001e5 8AA9          MOVL      XAR4,ACC              ; [CPU_] |82| 
    2460 000001e6 18C4          AND       *+XAR4[0],#0xffbf     ; [CPU_] |82| 
         000001e7 FFBF 
    2461 000001e8 761A   EDIS
    2462 000001e9 FF69          SPM       #0                    ; [CPU_] 
    2463              $C$DW$168       .dwtag  DW_TAG_TI_branch
    2464                      .dwattr $C$DW$168, DW_AT_low_pc(0x00)
    2465                      .dwattr $C$DW$168, DW_AT_TI_return
    2466              
    2467 000001ea 0006          LRETR     ; [CPU_] 
    2468                      ; return occurs ; [] 
    2469                      .dwattr $C$DW$165, DW_AT_TI_end_file("../drivers/source/adc.c")
    2470                      .dwattr $C$DW$165, DW_AT_TI_end_line(0x57)
    2471                      .dwattr $C$DW$165, DW_AT_TI_end_column(0x01)
    2472                      .dwendentry
    2473                      .dwendtag $C$DW$165
    2474              
    2475 000001eb               .sect   ".text"
    2476                      .clink
    2477                      .global _ADC_disable
    2478              
    2479              $C$DW$169       .dwtag  DW_TAG_subprogram
    2480                      .dwattr $C$DW$169, DW_AT_name("ADC_disable")
    2481                      .dwattr $C$DW$169, DW_AT_low_pc(_ADC_disable)
    2482                      .dwattr $C$DW$169, DW_AT_high_pc(0x00)
    2483                      .dwattr $C$DW$169, DW_AT_TI_symbol_name("_ADC_disable")
    2484                      .dwattr $C$DW$169, DW_AT_external
    2485                      .dwattr $C$DW$169, DW_AT_TI_begin_file("../drivers/source/adc.c")
    2486                      .dwattr $C$DW$169, DW_AT_TI_begin_line(0x3b)
    2487                      .dwattr $C$DW$169, DW_AT_TI_begin_column(0x06)
    2488                      .dwattr $C$DW$169, DW_AT_TI_max_frame_size(-2)
    2489                      .dwpsn  file "../drivers/source/adc.c",line 60,column 1,is_stmt,address _ADC_disable,isa 0
    2490              
    2491                      .dwfde $C$DW$CIE, _ADC_disable
    2492              $C$DW$170       .dwtag  DW_TAG_formal_parameter
    2493                      .dwattr $C$DW$170, DW_AT_name("adcHandle")
    2494                      .dwattr $C$DW$170, DW_AT_TI_symbol_name("_adcHandle")
    2495                      .dwattr $C$DW$170, DW_AT_type(*$C$DW$T$71)
    2496                      .dwattr $C$DW$170, DW_AT_location[DW_OP_reg12]
    2497              
    2498              
    2499              ;***************************************************************
    2500              ;* FNAME: _ADC_disable                  FR SIZE:   0           *
    2501              ;*                                                             *
    2502              ;* FUNCTION ENVIRONMENT                                        *
    2503              ;*                                                             *
    2504              ;* FUNCTION PROPERTIES                                         *
    2505              ;*                            0 Parameter,  0 Auto,  0 SOE     *
    2506              ;***************************************************************
    2507              
    2508              _ADC_disable:
TMS320C2000 Assembler PC v15.12.3 Tue Sep 20 20:29:52 2016

Tools Copyright (c) 1996-2015 Texas Instruments Incorporated
C:\Users\MaCHaDo\AppData\Local\Temp\0280810                          PAGE   48

    2509              ;* AR4   assigned to _adcHandle
    2510              $C$DW$171       .dwtag  DW_TAG_variable
    2511                      .dwattr $C$DW$171, DW_AT_name("adcHandle")
    2512                      .dwattr $C$DW$171, DW_AT_TI_symbol_name("_adcHandle")
    2513                      .dwattr $C$DW$171, DW_AT_type(*$C$DW$T$78)
    2514                      .dwattr $C$DW$171, DW_AT_location[DW_OP_reg12]
    2515              
    2516                      .dwcfi  cfa_offset, -2
    2517                      .dwcfi  save_reg_to_mem, 26, 0
    2518 000001eb 7622   EALLOW
    2519                      .dwpsn  file "../drivers/source/adc.c",line 66,column 3,is_stmt,isa 0
    2520 000001ec A8A9          MOVL      ACC,XAR4              ; [CPU_] |66| 
    2521 000001ed FF19          ADD       ACC,#51 << 9          ; [CPU_] |66| 
         000001ee 0033 
    2522 000001ef 8AA9          MOVL      XAR4,ACC              ; [CPU_] |66| 
    2523 000001f0 18C4          AND       *+XAR4[0],#0xbfff     ; [CPU_] |66| 
         000001f1 BFFF 
    2524 000001f2 761A   EDIS
    2525 000001f3 FF69          SPM       #0                    ; [CPU_] 
    2526              $C$DW$172       .dwtag  DW_TAG_TI_branch
    2527                      .dwattr $C$DW$172, DW_AT_low_pc(0x00)
    2528                      .dwattr $C$DW$172, DW_AT_TI_return
    2529              
    2530 000001f4 0006          LRETR     ; [CPU_] 
    2531                      ; return occurs ; [] 
    2532                      .dwattr $C$DW$169, DW_AT_TI_end_file("../drivers/source/adc.c")
    2533                      .dwattr $C$DW$169, DW_AT_TI_end_line(0x47)
    2534                      .dwattr $C$DW$169, DW_AT_TI_end_column(0x01)
    2535                      .dwendentry
    2536                      .dwendtag $C$DW$169
    2537              
    2538              
    2539              ;***************************************************************
    2540              ;* TYPE INFORMATION                                            *
    2541              ;***************************************************************
    2542              
    2543              $C$DW$T$28      .dwtag  DW_TAG_enumeration_type
    2544                      .dwattr $C$DW$T$28, DW_AT_byte_size(0x01)
    2545              $C$DW$173       .dwtag  DW_TAG_enumerator
    2546                      .dwattr $C$DW$173, DW_AT_name("ADC_IntNumber_1")
    2547                      .dwattr $C$DW$173, DW_AT_const_value(0x00)
    2548              
    2549              $C$DW$174       .dwtag  DW_TAG_enumerator
    2550                      .dwattr $C$DW$174, DW_AT_name("ADC_IntNumber_2")
    2551                      .dwattr $C$DW$174, DW_AT_const_value(0x01)
    2552              
    2553              $C$DW$175       .dwtag  DW_TAG_enumerator
    2554                      .dwattr $C$DW$175, DW_AT_name("ADC_IntNumber_3")
    2555                      .dwattr $C$DW$175, DW_AT_const_value(0x02)
    2556              
    2557              $C$DW$176       .dwtag  DW_TAG_enumerator
    2558                      .dwattr $C$DW$176, DW_AT_name("ADC_IntNumber_4")
    2559                      .dwattr $C$DW$176, DW_AT_const_value(0x03)
    2560              
    2561              $C$DW$177       .dwtag  DW_TAG_enumerator
TMS320C2000 Assembler PC v15.12.3 Tue Sep 20 20:29:52 2016

Tools Copyright (c) 1996-2015 Texas Instruments Incorporated
C:\Users\MaCHaDo\AppData\Local\Temp\0280810                          PAGE   49

    2562                      .dwattr $C$DW$177, DW_AT_name("ADC_IntNumber_5")
    2563                      .dwattr $C$DW$177, DW_AT_const_value(0x04)
    2564              
    2565              $C$DW$178       .dwtag  DW_TAG_enumerator
    2566                      .dwattr $C$DW$178, DW_AT_name("ADC_IntNumber_6")
    2567                      .dwattr $C$DW$178, DW_AT_const_value(0x05)
    2568              
    2569              $C$DW$179       .dwtag  DW_TAG_enumerator
    2570                      .dwattr $C$DW$179, DW_AT_name("ADC_IntNumber_7")
    2571                      .dwattr $C$DW$179, DW_AT_const_value(0x06)
    2572              
    2573              $C$DW$180       .dwtag  DW_TAG_enumerator
    2574                      .dwattr $C$DW$180, DW_AT_name("ADC_IntNumber_8")
    2575                      .dwattr $C$DW$180, DW_AT_const_value(0x07)
    2576              
    2577              $C$DW$181       .dwtag  DW_TAG_enumerator
    2578                      .dwattr $C$DW$181, DW_AT_name("ADC_IntNumber_9")
    2579                      .dwattr $C$DW$181, DW_AT_const_value(0x08)
    2580              
    2581              $C$DW$182       .dwtag  DW_TAG_enumerator
    2582                      .dwattr $C$DW$182, DW_AT_name("ADC_IntNumber_1HP")
    2583                      .dwattr $C$DW$182, DW_AT_const_value(0x09)
    2584              
    2585              $C$DW$183       .dwtag  DW_TAG_enumerator
    2586                      .dwattr $C$DW$183, DW_AT_name("ADC_IntNumber_2HP")
    2587                      .dwattr $C$DW$183, DW_AT_const_value(0x0a)
    2588              
    2589              $C$DW$184       .dwtag  DW_TAG_enumerator
    2590                      .dwattr $C$DW$184, DW_AT_name("ADC_IntNumber_9HP")
    2591                      .dwattr $C$DW$184, DW_AT_const_value(0x0e)
    2592              
    2593                      .dwendtag $C$DW$T$28
    2594              
    2595              $C$DW$T$29      .dwtag  DW_TAG_typedef
    2596                      .dwattr $C$DW$T$29, DW_AT_name("ADC_IntNumber_e")
    2597                      .dwattr $C$DW$T$29, DW_AT_type(*$C$DW$T$28)
    2598                      .dwattr $C$DW$T$29, DW_AT_language(DW_LANG_C)
    2599              
    2600              $C$DW$185       .dwtag  DW_TAG_TI_far_type
    2601                      .dwattr $C$DW$185, DW_AT_type(*$C$DW$T$29)
    2602              
    2603              $C$DW$T$30      .dwtag  DW_TAG_const_type
    2604                      .dwattr $C$DW$T$30, DW_AT_type(*$C$DW$185)
    2605              
    2606              
    2607              $C$DW$T$31      .dwtag  DW_TAG_enumeration_type
    2608                      .dwattr $C$DW$T$31, DW_AT_byte_size(0x01)
    2609              $C$DW$186       .dwtag  DW_TAG_enumerator
    2610                      .dwattr $C$DW$186, DW_AT_name("ADC_ADCCTL2_Overlap")
    2611                      .dwattr $C$DW$186, DW_AT_const_value(0x00)
    2612              
    2613              $C$DW$187       .dwtag  DW_TAG_enumerator
    2614                      .dwattr $C$DW$187, DW_AT_name("ADC_ADCCTL2_NoOverlap")
    2615                      .dwattr $C$DW$187, DW_AT_const_value(0x01)
    2616              
TMS320C2000 Assembler PC v15.12.3 Tue Sep 20 20:29:52 2016

Tools Copyright (c) 1996-2015 Texas Instruments Incorporated
C:\Users\MaCHaDo\AppData\Local\Temp\0280810                          PAGE   50

    2617                      .dwendtag $C$DW$T$31
    2618              
    2619              $C$DW$T$32      .dwtag  DW_TAG_typedef
    2620                      .dwattr $C$DW$T$32, DW_AT_name("ADC_ADCCTL2_ADCNONOVERLAP_e")
    2621                      .dwattr $C$DW$T$32, DW_AT_type(*$C$DW$T$31)
    2622                      .dwattr $C$DW$T$32, DW_AT_language(DW_LANG_C)
    2623              
    2624              $C$DW$188       .dwtag  DW_TAG_TI_far_type
    2625                      .dwattr $C$DW$188, DW_AT_type(*$C$DW$T$32)
    2626              
    2627              $C$DW$T$33      .dwtag  DW_TAG_const_type
    2628                      .dwattr $C$DW$T$33, DW_AT_type(*$C$DW$188)
    2629              
    2630              
    2631              $C$DW$T$34      .dwtag  DW_TAG_enumeration_type
    2632                      .dwattr $C$DW$T$34, DW_AT_byte_size(0x01)
    2633              $C$DW$189       .dwtag  DW_TAG_enumerator
    2634                      .dwattr $C$DW$189, DW_AT_name("ADC_IntMode_ClearFlag")
    2635                      .dwattr $C$DW$189, DW_AT_const_value(0x00)
    2636              
    2637              $C$DW$190       .dwtag  DW_TAG_enumerator
    2638                      .dwattr $C$DW$190, DW_AT_name("ADC_IntMode_EOC")
    2639                      .dwattr $C$DW$190, DW_AT_const_value(0x40)
    2640              
    2641                      .dwendtag $C$DW$T$34
    2642              
    2643              $C$DW$T$35      .dwtag  DW_TAG_typedef
    2644                      .dwattr $C$DW$T$35, DW_AT_name("ADC_IntMode_e")
    2645                      .dwattr $C$DW$T$35, DW_AT_type(*$C$DW$T$34)
    2646                      .dwattr $C$DW$T$35, DW_AT_language(DW_LANG_C)
    2647              
    2648              $C$DW$191       .dwtag  DW_TAG_TI_far_type
    2649                      .dwattr $C$DW$191, DW_AT_type(*$C$DW$T$35)
    2650              
    2651              $C$DW$T$36      .dwtag  DW_TAG_const_type
    2652                      .dwattr $C$DW$T$36, DW_AT_type(*$C$DW$191)
    2653              
    2654              
    2655              $C$DW$T$37      .dwtag  DW_TAG_enumeration_type
    2656                      .dwattr $C$DW$T$37, DW_AT_byte_size(0x01)
    2657              $C$DW$192       .dwtag  DW_TAG_enumerator
    2658                      .dwattr $C$DW$192, DW_AT_name("ADC_IntPulseGenMode_During")
    2659                      .dwattr $C$DW$192, DW_AT_const_value(0x00)
    2660              
    2661              $C$DW$193       .dwtag  DW_TAG_enumerator
    2662                      .dwattr $C$DW$193, DW_AT_name("ADC_IntPulseGenMode_Prior")
    2663                      .dwattr $C$DW$193, DW_AT_const_value(0x04)
    2664              
    2665                      .dwendtag $C$DW$T$37
    2666              
    2667              $C$DW$T$38      .dwtag  DW_TAG_typedef
    2668                      .dwattr $C$DW$T$38, DW_AT_name("ADC_IntPulseGenMode_e")
    2669                      .dwattr $C$DW$T$38, DW_AT_type(*$C$DW$T$37)
    2670                      .dwattr $C$DW$T$38, DW_AT_language(DW_LANG_C)
    2671              
TMS320C2000 Assembler PC v15.12.3 Tue Sep 20 20:29:52 2016

Tools Copyright (c) 1996-2015 Texas Instruments Incorporated
C:\Users\MaCHaDo\AppData\Local\Temp\0280810                          PAGE   51

    2672              $C$DW$194       .dwtag  DW_TAG_TI_far_type
    2673                      .dwattr $C$DW$194, DW_AT_type(*$C$DW$T$38)
    2674              
    2675              $C$DW$T$39      .dwtag  DW_TAG_const_type
    2676                      .dwattr $C$DW$T$39, DW_AT_type(*$C$DW$194)
    2677              
    2678              
    2679              $C$DW$T$40      .dwtag  DW_TAG_enumeration_type
    2680                      .dwattr $C$DW$T$40, DW_AT_byte_size(0x01)
    2681              $C$DW$195       .dwtag  DW_TAG_enumerator
    2682                      .dwattr $C$DW$195, DW_AT_name("ADC_IntSrc_EOC0")
    2683                      .dwattr $C$DW$195, DW_AT_const_value(0x00)
    2684              
    2685              $C$DW$196       .dwtag  DW_TAG_enumerator
    2686                      .dwattr $C$DW$196, DW_AT_name("ADC_IntSrc_EOC1")
    2687                      .dwattr $C$DW$196, DW_AT_const_value(0x01)
    2688              
    2689              $C$DW$197       .dwtag  DW_TAG_enumerator
    2690                      .dwattr $C$DW$197, DW_AT_name("ADC_IntSrc_EOC2")
    2691                      .dwattr $C$DW$197, DW_AT_const_value(0x02)
    2692              
    2693              $C$DW$198       .dwtag  DW_TAG_enumerator
    2694                      .dwattr $C$DW$198, DW_AT_name("ADC_IntSrc_EOC3")
    2695                      .dwattr $C$DW$198, DW_AT_const_value(0x03)
    2696              
    2697              $C$DW$199       .dwtag  DW_TAG_enumerator
    2698                      .dwattr $C$DW$199, DW_AT_name("ADC_IntSrc_EOC4")
    2699                      .dwattr $C$DW$199, DW_AT_const_value(0x04)
    2700              
    2701              $C$DW$200       .dwtag  DW_TAG_enumerator
    2702                      .dwattr $C$DW$200, DW_AT_name("ADC_IntSrc_EOC5")
    2703                      .dwattr $C$DW$200, DW_AT_const_value(0x05)
    2704              
    2705              $C$DW$201       .dwtag  DW_TAG_enumerator
    2706                      .dwattr $C$DW$201, DW_AT_name("ADC_IntSrc_EOC6")
    2707                      .dwattr $C$DW$201, DW_AT_const_value(0x06)
    2708              
    2709              $C$DW$202       .dwtag  DW_TAG_enumerator
    2710                      .dwattr $C$DW$202, DW_AT_name("ADC_IntSrc_EOC7")
    2711                      .dwattr $C$DW$202, DW_AT_const_value(0x07)
    2712              
    2713              $C$DW$203       .dwtag  DW_TAG_enumerator
    2714                      .dwattr $C$DW$203, DW_AT_name("ADC_IntSrc_EOC8")
    2715                      .dwattr $C$DW$203, DW_AT_const_value(0x08)
    2716              
    2717              $C$DW$204       .dwtag  DW_TAG_enumerator
    2718                      .dwattr $C$DW$204, DW_AT_name("ADC_IntSrc_EOC9")
    2719                      .dwattr $C$DW$204, DW_AT_const_value(0x09)
    2720              
    2721              $C$DW$205       .dwtag  DW_TAG_enumerator
    2722                      .dwattr $C$DW$205, DW_AT_name("ADC_IntSrc_EOC10")
    2723                      .dwattr $C$DW$205, DW_AT_const_value(0x0a)
    2724              
    2725              $C$DW$206       .dwtag  DW_TAG_enumerator
    2726                      .dwattr $C$DW$206, DW_AT_name("ADC_IntSrc_EOC11")
TMS320C2000 Assembler PC v15.12.3 Tue Sep 20 20:29:52 2016

Tools Copyright (c) 1996-2015 Texas Instruments Incorporated
C:\Users\MaCHaDo\AppData\Local\Temp\0280810                          PAGE   52

    2727                      .dwattr $C$DW$206, DW_AT_const_value(0x0b)
    2728              
    2729              $C$DW$207       .dwtag  DW_TAG_enumerator
    2730                      .dwattr $C$DW$207, DW_AT_name("ADC_IntSrc_EOC12")
    2731                      .dwattr $C$DW$207, DW_AT_const_value(0x0c)
    2732              
    2733              $C$DW$208       .dwtag  DW_TAG_enumerator
    2734                      .dwattr $C$DW$208, DW_AT_name("ADC_IntSrc_EOC13")
    2735                      .dwattr $C$DW$208, DW_AT_const_value(0x0d)
    2736              
    2737              $C$DW$209       .dwtag  DW_TAG_enumerator
    2738                      .dwattr $C$DW$209, DW_AT_name("ADC_IntSrc_EOC14")
    2739                      .dwattr $C$DW$209, DW_AT_const_value(0x0e)
    2740              
    2741              $C$DW$210       .dwtag  DW_TAG_enumerator
    2742                      .dwattr $C$DW$210, DW_AT_name("ADC_IntSrc_EOC15")
    2743                      .dwattr $C$DW$210, DW_AT_const_value(0x0f)
    2744              
    2745                      .dwendtag $C$DW$T$40
    2746              
    2747              $C$DW$T$41      .dwtag  DW_TAG_typedef
    2748                      .dwattr $C$DW$T$41, DW_AT_name("ADC_IntSrc_e")
    2749                      .dwattr $C$DW$T$41, DW_AT_type(*$C$DW$T$40)
    2750                      .dwattr $C$DW$T$41, DW_AT_language(DW_LANG_C)
    2751              
    2752              $C$DW$211       .dwtag  DW_TAG_TI_far_type
    2753                      .dwattr $C$DW$211, DW_AT_type(*$C$DW$T$41)
    2754              
    2755              $C$DW$T$42      .dwtag  DW_TAG_const_type
    2756                      .dwattr $C$DW$T$42, DW_AT_type(*$C$DW$211)
    2757              
    2758              
    2759              $C$DW$T$43      .dwtag  DW_TAG_enumeration_type
    2760                      .dwattr $C$DW$T$43, DW_AT_byte_size(0x01)
    2761              $C$DW$212       .dwtag  DW_TAG_enumerator
    2762                      .dwattr $C$DW$212, DW_AT_name("ADC_SampleMode_SOC0_and_SOC1_Separate")
    2763                      .dwattr $C$DW$212, DW_AT_const_value(0x101)
    2764              
    2765              $C$DW$213       .dwtag  DW_TAG_enumerator
    2766                      .dwattr $C$DW$213, DW_AT_name("ADC_SampleMode_SOC2_and_SOC3_Separate")
    2767                      .dwattr $C$DW$213, DW_AT_const_value(0x102)
    2768              
    2769              $C$DW$214       .dwtag  DW_TAG_enumerator
    2770                      .dwattr $C$DW$214, DW_AT_name("ADC_SampleMode_SOC4_and_SOC5_Separate")
    2771                      .dwattr $C$DW$214, DW_AT_const_value(0x104)
    2772              
    2773              $C$DW$215       .dwtag  DW_TAG_enumerator
    2774                      .dwattr $C$DW$215, DW_AT_name("ADC_SampleMode_SOC6_and_SOC7_Separate")
    2775                      .dwattr $C$DW$215, DW_AT_const_value(0x108)
    2776              
    2777              $C$DW$216       .dwtag  DW_TAG_enumerator
    2778                      .dwattr $C$DW$216, DW_AT_name("ADC_SampleMode_SOC8_and_SOC9_Separate")
    2779                      .dwattr $C$DW$216, DW_AT_const_value(0x110)
    2780              
    2781              $C$DW$217       .dwtag  DW_TAG_enumerator
TMS320C2000 Assembler PC v15.12.3 Tue Sep 20 20:29:52 2016

Tools Copyright (c) 1996-2015 Texas Instruments Incorporated
C:\Users\MaCHaDo\AppData\Local\Temp\0280810                          PAGE   53

    2782                      .dwattr $C$DW$217, DW_AT_name("ADC_SampleMode_SOC10_and_SOC11_Separate")
    2783                      .dwattr $C$DW$217, DW_AT_const_value(0x120)
    2784              
    2785              $C$DW$218       .dwtag  DW_TAG_enumerator
    2786                      .dwattr $C$DW$218, DW_AT_name("ADC_SampleMode_SOC12_and_SOC13_Separate")
    2787                      .dwattr $C$DW$218, DW_AT_const_value(0x140)
    2788              
    2789              $C$DW$219       .dwtag  DW_TAG_enumerator
    2790                      .dwattr $C$DW$219, DW_AT_name("ADC_SampleMode_SOC14_and_SOC15_Separate")
    2791                      .dwattr $C$DW$219, DW_AT_const_value(0x180)
    2792              
    2793              $C$DW$220       .dwtag  DW_TAG_enumerator
    2794                      .dwattr $C$DW$220, DW_AT_name("ADC_SampleMode_SOC0_and_SOC1_Together")
    2795                      .dwattr $C$DW$220, DW_AT_const_value(0x01)
    2796              
    2797              $C$DW$221       .dwtag  DW_TAG_enumerator
    2798                      .dwattr $C$DW$221, DW_AT_name("ADC_SampleMode_SOC2_and_SOC3_Together")
    2799                      .dwattr $C$DW$221, DW_AT_const_value(0x02)
    2800              
    2801              $C$DW$222       .dwtag  DW_TAG_enumerator
    2802                      .dwattr $C$DW$222, DW_AT_name("ADC_SampleMode_SOC4_and_SOC5_Together")
    2803                      .dwattr $C$DW$222, DW_AT_const_value(0x04)
    2804              
    2805              $C$DW$223       .dwtag  DW_TAG_enumerator
    2806                      .dwattr $C$DW$223, DW_AT_name("ADC_SampleMode_SOC6_and_SOC7_Together")
    2807                      .dwattr $C$DW$223, DW_AT_const_value(0x08)
    2808              
    2809              $C$DW$224       .dwtag  DW_TAG_enumerator
    2810                      .dwattr $C$DW$224, DW_AT_name("ADC_SampleMode_SOC8_and_SOC9_Together")
    2811                      .dwattr $C$DW$224, DW_AT_const_value(0x10)
    2812              
    2813              $C$DW$225       .dwtag  DW_TAG_enumerator
    2814                      .dwattr $C$DW$225, DW_AT_name("ADC_SampleMode_SOC10_and_SOC11_Together")
    2815                      .dwattr $C$DW$225, DW_AT_const_value(0x20)
    2816              
    2817              $C$DW$226       .dwtag  DW_TAG_enumerator
    2818                      .dwattr $C$DW$226, DW_AT_name("ADC_SampleMode_SOC12_and_SOC13_Together")
    2819                      .dwattr $C$DW$226, DW_AT_const_value(0x40)
    2820              
    2821              $C$DW$227       .dwtag  DW_TAG_enumerator
    2822                      .dwattr $C$DW$227, DW_AT_name("ADC_SampleMode_SOC14_and_SOC15_Together")
    2823                      .dwattr $C$DW$227, DW_AT_const_value(0x80)
    2824              
    2825                      .dwendtag $C$DW$T$43
    2826              
    2827              $C$DW$T$44      .dwtag  DW_TAG_typedef
    2828                      .dwattr $C$DW$T$44, DW_AT_name("ADC_SampleMode_e")
    2829                      .dwattr $C$DW$T$44, DW_AT_type(*$C$DW$T$43)
    2830                      .dwattr $C$DW$T$44, DW_AT_language(DW_LANG_C)
    2831              
    2832              $C$DW$228       .dwtag  DW_TAG_TI_far_type
    2833                      .dwattr $C$DW$228, DW_AT_type(*$C$DW$T$44)
    2834              
    2835              $C$DW$T$45      .dwtag  DW_TAG_const_type
    2836                      .dwattr $C$DW$T$45, DW_AT_type(*$C$DW$228)
TMS320C2000 Assembler PC v15.12.3 Tue Sep 20 20:29:52 2016

Tools Copyright (c) 1996-2015 Texas Instruments Incorporated
C:\Users\MaCHaDo\AppData\Local\Temp\0280810                          PAGE   54

    2837              
    2838              
    2839              $C$DW$T$46      .dwtag  DW_TAG_enumeration_type
    2840                      .dwattr $C$DW$T$46, DW_AT_byte_size(0x01)
    2841              $C$DW$229       .dwtag  DW_TAG_enumerator
    2842                      .dwattr $C$DW$229, DW_AT_name("ADC_SocNumber_0")
    2843                      .dwattr $C$DW$229, DW_AT_const_value(0x00)
    2844              
    2845              $C$DW$230       .dwtag  DW_TAG_enumerator
    2846                      .dwattr $C$DW$230, DW_AT_name("ADC_SocNumber_1")
    2847                      .dwattr $C$DW$230, DW_AT_const_value(0x01)
    2848              
    2849              $C$DW$231       .dwtag  DW_TAG_enumerator
    2850                      .dwattr $C$DW$231, DW_AT_name("ADC_SocNumber_2")
    2851                      .dwattr $C$DW$231, DW_AT_const_value(0x02)
    2852              
    2853              $C$DW$232       .dwtag  DW_TAG_enumerator
    2854                      .dwattr $C$DW$232, DW_AT_name("ADC_SocNumber_3")
    2855                      .dwattr $C$DW$232, DW_AT_const_value(0x03)
    2856              
    2857              $C$DW$233       .dwtag  DW_TAG_enumerator
    2858                      .dwattr $C$DW$233, DW_AT_name("ADC_SocNumber_4")
    2859                      .dwattr $C$DW$233, DW_AT_const_value(0x04)
    2860              
    2861              $C$DW$234       .dwtag  DW_TAG_enumerator
    2862                      .dwattr $C$DW$234, DW_AT_name("ADC_SocNumber_5")
    2863                      .dwattr $C$DW$234, DW_AT_const_value(0x05)
    2864              
    2865              $C$DW$235       .dwtag  DW_TAG_enumerator
    2866                      .dwattr $C$DW$235, DW_AT_name("ADC_SocNumber_6")
    2867                      .dwattr $C$DW$235, DW_AT_const_value(0x06)
    2868              
    2869              $C$DW$236       .dwtag  DW_TAG_enumerator
    2870                      .dwattr $C$DW$236, DW_AT_name("ADC_SocNumber_7")
    2871                      .dwattr $C$DW$236, DW_AT_const_value(0x07)
    2872              
    2873              $C$DW$237       .dwtag  DW_TAG_enumerator
    2874                      .dwattr $C$DW$237, DW_AT_name("ADC_SocNumber_8")
    2875                      .dwattr $C$DW$237, DW_AT_const_value(0x08)
    2876              
    2877              $C$DW$238       .dwtag  DW_TAG_enumerator
    2878                      .dwattr $C$DW$238, DW_AT_name("ADC_SocNumber_9")
    2879                      .dwattr $C$DW$238, DW_AT_const_value(0x09)
    2880              
    2881              $C$DW$239       .dwtag  DW_TAG_enumerator
    2882                      .dwattr $C$DW$239, DW_AT_name("ADC_SocNumber_10")
    2883                      .dwattr $C$DW$239, DW_AT_const_value(0x0a)
    2884              
    2885              $C$DW$240       .dwtag  DW_TAG_enumerator
    2886                      .dwattr $C$DW$240, DW_AT_name("ADC_SocNumber_11")
    2887                      .dwattr $C$DW$240, DW_AT_const_value(0x0b)
    2888              
    2889              $C$DW$241       .dwtag  DW_TAG_enumerator
    2890                      .dwattr $C$DW$241, DW_AT_name("ADC_SocNumber_12")
    2891                      .dwattr $C$DW$241, DW_AT_const_value(0x0c)
TMS320C2000 Assembler PC v15.12.3 Tue Sep 20 20:29:52 2016

Tools Copyright (c) 1996-2015 Texas Instruments Incorporated
C:\Users\MaCHaDo\AppData\Local\Temp\0280810                          PAGE   55

    2892              
    2893              $C$DW$242       .dwtag  DW_TAG_enumerator
    2894                      .dwattr $C$DW$242, DW_AT_name("ADC_SocNumber_13")
    2895                      .dwattr $C$DW$242, DW_AT_const_value(0x0d)
    2896              
    2897              $C$DW$243       .dwtag  DW_TAG_enumerator
    2898                      .dwattr $C$DW$243, DW_AT_name("ADC_SocNumber_14")
    2899                      .dwattr $C$DW$243, DW_AT_const_value(0x0e)
    2900              
    2901              $C$DW$244       .dwtag  DW_TAG_enumerator
    2902                      .dwattr $C$DW$244, DW_AT_name("ADC_SocNumber_15")
    2903                      .dwattr $C$DW$244, DW_AT_const_value(0x0f)
    2904              
    2905                      .dwendtag $C$DW$T$46
    2906              
    2907              $C$DW$T$47      .dwtag  DW_TAG_typedef
    2908                      .dwattr $C$DW$T$47, DW_AT_name("ADC_SocNumber_e")
    2909                      .dwattr $C$DW$T$47, DW_AT_type(*$C$DW$T$46)
    2910                      .dwattr $C$DW$T$47, DW_AT_language(DW_LANG_C)
    2911              
    2912              $C$DW$245       .dwtag  DW_TAG_TI_far_type
    2913                      .dwattr $C$DW$245, DW_AT_type(*$C$DW$T$47)
    2914              
    2915              $C$DW$T$48      .dwtag  DW_TAG_const_type
    2916                      .dwattr $C$DW$T$48, DW_AT_type(*$C$DW$245)
    2917              
    2918              
    2919              $C$DW$T$49      .dwtag  DW_TAG_enumeration_type
    2920                      .dwattr $C$DW$T$49, DW_AT_byte_size(0x01)
    2921              $C$DW$246       .dwtag  DW_TAG_enumerator
    2922                      .dwattr $C$DW$246, DW_AT_name("ADC_SocChanNumber_A0")
    2923                      .dwattr $C$DW$246, DW_AT_const_value(0x00)
    2924              
    2925              $C$DW$247       .dwtag  DW_TAG_enumerator
    2926                      .dwattr $C$DW$247, DW_AT_name("ADC_SocChanNumber_A1")
    2927                      .dwattr $C$DW$247, DW_AT_const_value(0x40)
    2928              
    2929              $C$DW$248       .dwtag  DW_TAG_enumerator
    2930                      .dwattr $C$DW$248, DW_AT_name("ADC_SocChanNumber_A2")
    2931                      .dwattr $C$DW$248, DW_AT_const_value(0x80)
    2932              
    2933              $C$DW$249       .dwtag  DW_TAG_enumerator
    2934                      .dwattr $C$DW$249, DW_AT_name("ADC_SocChanNumber_A3")
    2935                      .dwattr $C$DW$249, DW_AT_const_value(0xc0)
    2936              
    2937              $C$DW$250       .dwtag  DW_TAG_enumerator
    2938                      .dwattr $C$DW$250, DW_AT_name("ADC_SocChanNumber_A4")
    2939                      .dwattr $C$DW$250, DW_AT_const_value(0x100)
    2940              
    2941              $C$DW$251       .dwtag  DW_TAG_enumerator
    2942                      .dwattr $C$DW$251, DW_AT_name("ADC_SocChanNumber_A5")
    2943                      .dwattr $C$DW$251, DW_AT_const_value(0x140)
    2944              
    2945              $C$DW$252       .dwtag  DW_TAG_enumerator
    2946                      .dwattr $C$DW$252, DW_AT_name("ADC_SocChanNumber_A6")
TMS320C2000 Assembler PC v15.12.3 Tue Sep 20 20:29:52 2016

Tools Copyright (c) 1996-2015 Texas Instruments Incorporated
C:\Users\MaCHaDo\AppData\Local\Temp\0280810                          PAGE   56

    2947                      .dwattr $C$DW$252, DW_AT_const_value(0x180)
    2948              
    2949              $C$DW$253       .dwtag  DW_TAG_enumerator
    2950                      .dwattr $C$DW$253, DW_AT_name("ADC_SocChanNumber_A7")
    2951                      .dwattr $C$DW$253, DW_AT_const_value(0x1c0)
    2952              
    2953              $C$DW$254       .dwtag  DW_TAG_enumerator
    2954                      .dwattr $C$DW$254, DW_AT_name("ADC_SocChanNumber_B0")
    2955                      .dwattr $C$DW$254, DW_AT_const_value(0x200)
    2956              
    2957              $C$DW$255       .dwtag  DW_TAG_enumerator
    2958                      .dwattr $C$DW$255, DW_AT_name("ADC_SocChanNumber_B1")
    2959                      .dwattr $C$DW$255, DW_AT_const_value(0x240)
    2960              
    2961              $C$DW$256       .dwtag  DW_TAG_enumerator
    2962                      .dwattr $C$DW$256, DW_AT_name("ADC_SocChanNumber_B2")
    2963                      .dwattr $C$DW$256, DW_AT_const_value(0x280)
    2964              
    2965              $C$DW$257       .dwtag  DW_TAG_enumerator
    2966                      .dwattr $C$DW$257, DW_AT_name("ADC_SocChanNumber_B3")
    2967                      .dwattr $C$DW$257, DW_AT_const_value(0x2c0)
    2968              
    2969              $C$DW$258       .dwtag  DW_TAG_enumerator
    2970                      .dwattr $C$DW$258, DW_AT_name("ADC_SocChanNumber_B4")
    2971                      .dwattr $C$DW$258, DW_AT_const_value(0x300)
    2972              
    2973              $C$DW$259       .dwtag  DW_TAG_enumerator
    2974                      .dwattr $C$DW$259, DW_AT_name("ADC_SocChanNumber_B5")
    2975                      .dwattr $C$DW$259, DW_AT_const_value(0x340)
    2976              
    2977              $C$DW$260       .dwtag  DW_TAG_enumerator
    2978                      .dwattr $C$DW$260, DW_AT_name("ADC_SocChanNumber_B6")
    2979                      .dwattr $C$DW$260, DW_AT_const_value(0x380)
    2980              
    2981              $C$DW$261       .dwtag  DW_TAG_enumerator
    2982                      .dwattr $C$DW$261, DW_AT_name("ADC_SocChanNumber_B7")
    2983                      .dwattr $C$DW$261, DW_AT_const_value(0x3c0)
    2984              
    2985              $C$DW$262       .dwtag  DW_TAG_enumerator
    2986                      .dwattr $C$DW$262, DW_AT_name("ADC_SocChanNumber_A0_and_B0_Together")
    2987                      .dwattr $C$DW$262, DW_AT_const_value(0x00)
    2988              
    2989              $C$DW$263       .dwtag  DW_TAG_enumerator
    2990                      .dwattr $C$DW$263, DW_AT_name("ADC_SocChanNumber_A1_and_B1_Together")
    2991                      .dwattr $C$DW$263, DW_AT_const_value(0x40)
    2992              
    2993              $C$DW$264       .dwtag  DW_TAG_enumerator
    2994                      .dwattr $C$DW$264, DW_AT_name("ADC_SocChanNumber_A2_and_B2_Together")
    2995                      .dwattr $C$DW$264, DW_AT_const_value(0x80)
    2996              
    2997              $C$DW$265       .dwtag  DW_TAG_enumerator
    2998                      .dwattr $C$DW$265, DW_AT_name("ADC_SocChanNumber_A3_and_B3_Together")
    2999                      .dwattr $C$DW$265, DW_AT_const_value(0xc0)
    3000              
    3001              $C$DW$266       .dwtag  DW_TAG_enumerator
TMS320C2000 Assembler PC v15.12.3 Tue Sep 20 20:29:52 2016

Tools Copyright (c) 1996-2015 Texas Instruments Incorporated
C:\Users\MaCHaDo\AppData\Local\Temp\0280810                          PAGE   57

    3002                      .dwattr $C$DW$266, DW_AT_name("ADC_SocChanNumber_A4_and_B4_Together")
    3003                      .dwattr $C$DW$266, DW_AT_const_value(0x100)
    3004              
    3005              $C$DW$267       .dwtag  DW_TAG_enumerator
    3006                      .dwattr $C$DW$267, DW_AT_name("ADC_SocChanNumber_A5_and_B5_Together")
    3007                      .dwattr $C$DW$267, DW_AT_const_value(0x140)
    3008              
    3009              $C$DW$268       .dwtag  DW_TAG_enumerator
    3010                      .dwattr $C$DW$268, DW_AT_name("ADC_SocChanNumber_A6_and_B6_Together")
    3011                      .dwattr $C$DW$268, DW_AT_const_value(0x180)
    3012              
    3013              $C$DW$269       .dwtag  DW_TAG_enumerator
    3014                      .dwattr $C$DW$269, DW_AT_name("ADC_SocChanNumber_A7_and_B7_Together")
    3015                      .dwattr $C$DW$269, DW_AT_const_value(0x1c0)
    3016              
    3017                      .dwendtag $C$DW$T$49
    3018              
    3019              $C$DW$T$50      .dwtag  DW_TAG_typedef
    3020                      .dwattr $C$DW$T$50, DW_AT_name("ADC_SocChanNumber_e")
    3021                      .dwattr $C$DW$T$50, DW_AT_type(*$C$DW$T$49)
    3022                      .dwattr $C$DW$T$50, DW_AT_language(DW_LANG_C)
    3023              
    3024              $C$DW$270       .dwtag  DW_TAG_TI_far_type
    3025                      .dwattr $C$DW$270, DW_AT_type(*$C$DW$T$50)
    3026              
    3027              $C$DW$T$51      .dwtag  DW_TAG_const_type
    3028                      .dwattr $C$DW$T$51, DW_AT_type(*$C$DW$270)
    3029              
    3030              
    3031              $C$DW$T$52      .dwtag  DW_TAG_enumeration_type
    3032                      .dwattr $C$DW$T$52, DW_AT_byte_size(0x01)
    3033              $C$DW$271       .dwtag  DW_TAG_enumerator
    3034                      .dwattr $C$DW$271, DW_AT_name("ADC_SocSampleDelay_7_cycles")
    3035                      .dwattr $C$DW$271, DW_AT_const_value(0x06)
    3036              
    3037              $C$DW$272       .dwtag  DW_TAG_enumerator
    3038                      .dwattr $C$DW$272, DW_AT_name("ADC_SocSampleDelay_8_cycles")
    3039                      .dwattr $C$DW$272, DW_AT_const_value(0x07)
    3040              
    3041              $C$DW$273       .dwtag  DW_TAG_enumerator
    3042                      .dwattr $C$DW$273, DW_AT_name("ADC_SocSampleDelay_9_cycles")
    3043                      .dwattr $C$DW$273, DW_AT_const_value(0x08)
    3044              
    3045              $C$DW$274       .dwtag  DW_TAG_enumerator
    3046                      .dwattr $C$DW$274, DW_AT_name("ADC_SocSampleDelay_10_cycles")
    3047                      .dwattr $C$DW$274, DW_AT_const_value(0x09)
    3048              
    3049              $C$DW$275       .dwtag  DW_TAG_enumerator
    3050                      .dwattr $C$DW$275, DW_AT_name("ADC_SocSampleDelay_11_cycles")
    3051                      .dwattr $C$DW$275, DW_AT_const_value(0x0a)
    3052              
    3053              $C$DW$276       .dwtag  DW_TAG_enumerator
    3054                      .dwattr $C$DW$276, DW_AT_name("ADC_SocSampleDelay_12_cycles")
    3055                      .dwattr $C$DW$276, DW_AT_const_value(0x0b)
    3056              
TMS320C2000 Assembler PC v15.12.3 Tue Sep 20 20:29:52 2016

Tools Copyright (c) 1996-2015 Texas Instruments Incorporated
C:\Users\MaCHaDo\AppData\Local\Temp\0280810                          PAGE   58

    3057              $C$DW$277       .dwtag  DW_TAG_enumerator
    3058                      .dwattr $C$DW$277, DW_AT_name("ADC_SocSampleDelay_13_cycles")
    3059                      .dwattr $C$DW$277, DW_AT_const_value(0x0c)
    3060              
    3061              $C$DW$278       .dwtag  DW_TAG_enumerator
    3062                      .dwattr $C$DW$278, DW_AT_name("ADC_SocSampleDelay_14_cycles")
    3063                      .dwattr $C$DW$278, DW_AT_const_value(0x0d)
    3064              
    3065              $C$DW$279       .dwtag  DW_TAG_enumerator
    3066                      .dwattr $C$DW$279, DW_AT_name("ADC_SocSampleDelay_15_cycles")
    3067                      .dwattr $C$DW$279, DW_AT_const_value(0x0e)
    3068              
    3069              $C$DW$280       .dwtag  DW_TAG_enumerator
    3070                      .dwattr $C$DW$280, DW_AT_name("ADC_SocSampleDelay_16_cycles")
    3071                      .dwattr $C$DW$280, DW_AT_const_value(0x0f)
    3072              
    3073              $C$DW$281       .dwtag  DW_TAG_enumerator
    3074                      .dwattr $C$DW$281, DW_AT_name("ADC_SocSampleDelay_22_cycles")
    3075                      .dwattr $C$DW$281, DW_AT_const_value(0x15)
    3076              
    3077              $C$DW$282       .dwtag  DW_TAG_enumerator
    3078                      .dwattr $C$DW$282, DW_AT_name("ADC_SocSampleDelay_23_cycles")
    3079                      .dwattr $C$DW$282, DW_AT_const_value(0x16)
    3080              
    3081              $C$DW$283       .dwtag  DW_TAG_enumerator
    3082                      .dwattr $C$DW$283, DW_AT_name("ADC_SocSampleDelay_24_cycles")
    3083                      .dwattr $C$DW$283, DW_AT_const_value(0x17)
    3084              
    3085              $C$DW$284       .dwtag  DW_TAG_enumerator
    3086                      .dwattr $C$DW$284, DW_AT_name("ADC_SocSampleDelay_25_cycles")
    3087                      .dwattr $C$DW$284, DW_AT_const_value(0x18)
    3088              
    3089              $C$DW$285       .dwtag  DW_TAG_enumerator
    3090                      .dwattr $C$DW$285, DW_AT_name("ADC_SocSampleDelay_26_cycles")
    3091                      .dwattr $C$DW$285, DW_AT_const_value(0x19)
    3092              
    3093              $C$DW$286       .dwtag  DW_TAG_enumerator
    3094                      .dwattr $C$DW$286, DW_AT_name("ADC_SocSampleDelay_27_cycles")
    3095                      .dwattr $C$DW$286, DW_AT_const_value(0x1a)
    3096              
    3097              $C$DW$287       .dwtag  DW_TAG_enumerator
    3098                      .dwattr $C$DW$287, DW_AT_name("ADC_SocSampleDelay_28_cycles")
    3099                      .dwattr $C$DW$287, DW_AT_const_value(0x1b)
    3100              
    3101              $C$DW$288       .dwtag  DW_TAG_enumerator
    3102                      .dwattr $C$DW$288, DW_AT_name("ADC_SocSampleDelay_29_cycles")
    3103                      .dwattr $C$DW$288, DW_AT_const_value(0x1c)
    3104              
    3105              $C$DW$289       .dwtag  DW_TAG_enumerator
    3106                      .dwattr $C$DW$289, DW_AT_name("ADC_SocSampleDelay_35_cycles")
    3107                      .dwattr $C$DW$289, DW_AT_const_value(0x22)
    3108              
    3109              $C$DW$290       .dwtag  DW_TAG_enumerator
    3110                      .dwattr $C$DW$290, DW_AT_name("ADC_SocSampleDelay_36_cycles")
    3111                      .dwattr $C$DW$290, DW_AT_const_value(0x23)
TMS320C2000 Assembler PC v15.12.3 Tue Sep 20 20:29:52 2016

Tools Copyright (c) 1996-2015 Texas Instruments Incorporated
C:\Users\MaCHaDo\AppData\Local\Temp\0280810                          PAGE   59

    3112              
    3113              $C$DW$291       .dwtag  DW_TAG_enumerator
    3114                      .dwattr $C$DW$291, DW_AT_name("ADC_SocSampleDelay_37_cycles")
    3115                      .dwattr $C$DW$291, DW_AT_const_value(0x24)
    3116              
    3117              $C$DW$292       .dwtag  DW_TAG_enumerator
    3118                      .dwattr $C$DW$292, DW_AT_name("ADC_SocSampleDelay_38_cycles")
    3119                      .dwattr $C$DW$292, DW_AT_const_value(0x25)
    3120              
    3121              $C$DW$293       .dwtag  DW_TAG_enumerator
    3122                      .dwattr $C$DW$293, DW_AT_name("ADC_SocSampleDelay_39_cycles")
    3123                      .dwattr $C$DW$293, DW_AT_const_value(0x26)
    3124              
    3125              $C$DW$294       .dwtag  DW_TAG_enumerator
    3126                      .dwattr $C$DW$294, DW_AT_name("ADC_SocSampleDelay_40_cycles")
    3127                      .dwattr $C$DW$294, DW_AT_const_value(0x27)
    3128              
    3129              $C$DW$295       .dwtag  DW_TAG_enumerator
    3130                      .dwattr $C$DW$295, DW_AT_name("ADC_SocSampleDelay_41_cycles")
    3131                      .dwattr $C$DW$295, DW_AT_const_value(0x28)
    3132              
    3133              $C$DW$296       .dwtag  DW_TAG_enumerator
    3134                      .dwattr $C$DW$296, DW_AT_name("ADC_SocSampleDelay_42_cycles")
    3135                      .dwattr $C$DW$296, DW_AT_const_value(0x29)
    3136              
    3137              $C$DW$297       .dwtag  DW_TAG_enumerator
    3138                      .dwattr $C$DW$297, DW_AT_name("ADC_SocSampleDelay_48_cycles")
    3139                      .dwattr $C$DW$297, DW_AT_const_value(0x2f)
    3140              
    3141              $C$DW$298       .dwtag  DW_TAG_enumerator
    3142                      .dwattr $C$DW$298, DW_AT_name("ADC_SocSampleDelay_49_cycles")
    3143                      .dwattr $C$DW$298, DW_AT_const_value(0x30)
    3144              
    3145              $C$DW$299       .dwtag  DW_TAG_enumerator
    3146                      .dwattr $C$DW$299, DW_AT_name("ADC_SocSampleDelay_50_cycles")
    3147                      .dwattr $C$DW$299, DW_AT_const_value(0x31)
    3148              
    3149              $C$DW$300       .dwtag  DW_TAG_enumerator
    3150                      .dwattr $C$DW$300, DW_AT_name("ADC_SocSampleDelay_51_cycles")
    3151                      .dwattr $C$DW$300, DW_AT_const_value(0x32)
    3152              
    3153              $C$DW$301       .dwtag  DW_TAG_enumerator
    3154                      .dwattr $C$DW$301, DW_AT_name("ADC_SocSampleDelay_52_cycles")
    3155                      .dwattr $C$DW$301, DW_AT_const_value(0x33)
    3156              
    3157              $C$DW$302       .dwtag  DW_TAG_enumerator
    3158                      .dwattr $C$DW$302, DW_AT_name("ADC_SocSampleDelay_53_cycles")
    3159                      .dwattr $C$DW$302, DW_AT_const_value(0x34)
    3160              
    3161              $C$DW$303       .dwtag  DW_TAG_enumerator
    3162                      .dwattr $C$DW$303, DW_AT_name("ADC_SocSampleDelay_54_cycles")
    3163                      .dwattr $C$DW$303, DW_AT_const_value(0x35)
    3164              
    3165              $C$DW$304       .dwtag  DW_TAG_enumerator
    3166                      .dwattr $C$DW$304, DW_AT_name("ADC_SocSampleDelay_55_cycles")
TMS320C2000 Assembler PC v15.12.3 Tue Sep 20 20:29:52 2016

Tools Copyright (c) 1996-2015 Texas Instruments Incorporated
C:\Users\MaCHaDo\AppData\Local\Temp\0280810                          PAGE   60

    3167                      .dwattr $C$DW$304, DW_AT_const_value(0x36)
    3168              
    3169              $C$DW$305       .dwtag  DW_TAG_enumerator
    3170                      .dwattr $C$DW$305, DW_AT_name("ADC_SocSampleDelay_61_cycles")
    3171                      .dwattr $C$DW$305, DW_AT_const_value(0x3c)
    3172              
    3173              $C$DW$306       .dwtag  DW_TAG_enumerator
    3174                      .dwattr $C$DW$306, DW_AT_name("ADC_SocSampleDelay_62_cycles")
    3175                      .dwattr $C$DW$306, DW_AT_const_value(0x3d)
    3176              
    3177              $C$DW$307       .dwtag  DW_TAG_enumerator
    3178                      .dwattr $C$DW$307, DW_AT_name("ADC_SocSampleDelay_63_cycles")
    3179                      .dwattr $C$DW$307, DW_AT_const_value(0x3e)
    3180              
    3181              $C$DW$308       .dwtag  DW_TAG_enumerator
    3182                      .dwattr $C$DW$308, DW_AT_name("ADC_SocSampleDelay_64_cycles")
    3183                      .dwattr $C$DW$308, DW_AT_const_value(0x3f)
    3184              
    3185                      .dwendtag $C$DW$T$52
    3186              
    3187              $C$DW$T$53      .dwtag  DW_TAG_typedef
    3188                      .dwattr $C$DW$T$53, DW_AT_name("ADC_SocSampleDelay_e")
    3189                      .dwattr $C$DW$T$53, DW_AT_type(*$C$DW$T$52)
    3190                      .dwattr $C$DW$T$53, DW_AT_language(DW_LANG_C)
    3191              
    3192              $C$DW$309       .dwtag  DW_TAG_TI_far_type
    3193                      .dwattr $C$DW$309, DW_AT_type(*$C$DW$T$53)
    3194              
    3195              $C$DW$T$54      .dwtag  DW_TAG_const_type
    3196                      .dwattr $C$DW$T$54, DW_AT_type(*$C$DW$309)
    3197              
    3198              
    3199              $C$DW$T$55      .dwtag  DW_TAG_enumeration_type
    3200                      .dwattr $C$DW$T$55, DW_AT_byte_size(0x01)
    3201              $C$DW$310       .dwtag  DW_TAG_enumerator
    3202                      .dwattr $C$DW$310, DW_AT_name("ADC_SocTrigSrc_Sw")
    3203                      .dwattr $C$DW$310, DW_AT_const_value(0x00)
    3204              
    3205              $C$DW$311       .dwtag  DW_TAG_enumerator
    3206                      .dwattr $C$DW$311, DW_AT_name("ADC_SocTrigSrc_CpuTimer_0")
    3207                      .dwattr $C$DW$311, DW_AT_const_value(0x800)
    3208              
    3209              $C$DW$312       .dwtag  DW_TAG_enumerator
    3210                      .dwattr $C$DW$312, DW_AT_name("ADC_SocTrigSrc_CpuTimer_1")
    3211                      .dwattr $C$DW$312, DW_AT_const_value(0x1000)
    3212              
    3213              $C$DW$313       .dwtag  DW_TAG_enumerator
    3214                      .dwattr $C$DW$313, DW_AT_name("ADC_SocTrigSrc_CpuTimer_2")
    3215                      .dwattr $C$DW$313, DW_AT_const_value(0x1800)
    3216              
    3217              $C$DW$314       .dwtag  DW_TAG_enumerator
    3218                      .dwattr $C$DW$314, DW_AT_name("ADC_SocTrigSrc_XINT2_XINT2SOC")
    3219                      .dwattr $C$DW$314, DW_AT_const_value(0x2000)
    3220              
    3221              $C$DW$315       .dwtag  DW_TAG_enumerator
TMS320C2000 Assembler PC v15.12.3 Tue Sep 20 20:29:52 2016

Tools Copyright (c) 1996-2015 Texas Instruments Incorporated
C:\Users\MaCHaDo\AppData\Local\Temp\0280810                          PAGE   61

    3222                      .dwattr $C$DW$315, DW_AT_name("ADC_SocTrigSrc_EPWM1_ADCSOCA")
    3223                      .dwattr $C$DW$315, DW_AT_const_value(0x2800)
    3224              
    3225              $C$DW$316       .dwtag  DW_TAG_enumerator
    3226                      .dwattr $C$DW$316, DW_AT_name("ADC_SocTrigSrc_EPWM1_ADCSOCB")
    3227                      .dwattr $C$DW$316, DW_AT_const_value(0x3000)
    3228              
    3229              $C$DW$317       .dwtag  DW_TAG_enumerator
    3230                      .dwattr $C$DW$317, DW_AT_name("ADC_SocTrigSrc_EPWM2_ADCSOCA")
    3231                      .dwattr $C$DW$317, DW_AT_const_value(0x3800)
    3232              
    3233              $C$DW$318       .dwtag  DW_TAG_enumerator
    3234                      .dwattr $C$DW$318, DW_AT_name("ADC_SocTrigSrc_EPWM2_ADCSOCB")
    3235                      .dwattr $C$DW$318, DW_AT_const_value(0x4000)
    3236              
    3237              $C$DW$319       .dwtag  DW_TAG_enumerator
    3238                      .dwattr $C$DW$319, DW_AT_name("ADC_SocTrigSrc_EPWM3_ADCSOCA")
    3239                      .dwattr $C$DW$319, DW_AT_const_value(0x4800)
    3240              
    3241              $C$DW$320       .dwtag  DW_TAG_enumerator
    3242                      .dwattr $C$DW$320, DW_AT_name("ADC_SocTrigSrc_EPWM3_ADCSOCB")
    3243                      .dwattr $C$DW$320, DW_AT_const_value(0x5000)
    3244              
    3245              $C$DW$321       .dwtag  DW_TAG_enumerator
    3246                      .dwattr $C$DW$321, DW_AT_name("ADC_SocTrigSrc_EPWM4_ADCSOCA")
    3247                      .dwattr $C$DW$321, DW_AT_const_value(0x5800)
    3248              
    3249              $C$DW$322       .dwtag  DW_TAG_enumerator
    3250                      .dwattr $C$DW$322, DW_AT_name("ADC_SocTrigSrc_EPWM4_ADCSOCB")
    3251                      .dwattr $C$DW$322, DW_AT_const_value(0x6000)
    3252              
    3253                      .dwendtag $C$DW$T$55
    3254              
    3255              $C$DW$T$56      .dwtag  DW_TAG_typedef
    3256                      .dwattr $C$DW$T$56, DW_AT_name("ADC_SocTrigSrc_e")
    3257                      .dwattr $C$DW$T$56, DW_AT_type(*$C$DW$T$55)
    3258                      .dwattr $C$DW$T$56, DW_AT_language(DW_LANG_C)
    3259              
    3260              $C$DW$323       .dwtag  DW_TAG_TI_far_type
    3261                      .dwattr $C$DW$323, DW_AT_type(*$C$DW$T$56)
    3262              
    3263              $C$DW$T$57      .dwtag  DW_TAG_const_type
    3264                      .dwattr $C$DW$T$57, DW_AT_type(*$C$DW$323)
    3265              
    3266              
    3267              $C$DW$T$58      .dwtag  DW_TAG_enumeration_type
    3268                      .dwattr $C$DW$T$58, DW_AT_byte_size(0x01)
    3269              $C$DW$324       .dwtag  DW_TAG_enumerator
    3270                      .dwattr $C$DW$324, DW_AT_name("ADC_SocFrc_0")
    3271                      .dwattr $C$DW$324, DW_AT_const_value(0x00)
    3272              
    3273              $C$DW$325       .dwtag  DW_TAG_enumerator
    3274                      .dwattr $C$DW$325, DW_AT_name("ADC_SocFrc_1")
    3275                      .dwattr $C$DW$325, DW_AT_const_value(0x01)
    3276              
TMS320C2000 Assembler PC v15.12.3 Tue Sep 20 20:29:52 2016

Tools Copyright (c) 1996-2015 Texas Instruments Incorporated
C:\Users\MaCHaDo\AppData\Local\Temp\0280810                          PAGE   62

    3277              $C$DW$326       .dwtag  DW_TAG_enumerator
    3278                      .dwattr $C$DW$326, DW_AT_name("ADC_SocFrc_2")
    3279                      .dwattr $C$DW$326, DW_AT_const_value(0x02)
    3280              
    3281              $C$DW$327       .dwtag  DW_TAG_enumerator
    3282                      .dwattr $C$DW$327, DW_AT_name("ADC_SocFrc_3")
    3283                      .dwattr $C$DW$327, DW_AT_const_value(0x03)
    3284              
    3285              $C$DW$328       .dwtag  DW_TAG_enumerator
    3286                      .dwattr $C$DW$328, DW_AT_name("ADC_SocFrc_4")
    3287                      .dwattr $C$DW$328, DW_AT_const_value(0x04)
    3288              
    3289              $C$DW$329       .dwtag  DW_TAG_enumerator
    3290                      .dwattr $C$DW$329, DW_AT_name("ADC_SocFrc_5")
    3291                      .dwattr $C$DW$329, DW_AT_const_value(0x05)
    3292              
    3293              $C$DW$330       .dwtag  DW_TAG_enumerator
    3294                      .dwattr $C$DW$330, DW_AT_name("ADC_SocFrc_6")
    3295                      .dwattr $C$DW$330, DW_AT_const_value(0x06)
    3296              
    3297              $C$DW$331       .dwtag  DW_TAG_enumerator
    3298                      .dwattr $C$DW$331, DW_AT_name("ADC_SocFrc_7")
    3299                      .dwattr $C$DW$331, DW_AT_const_value(0x07)
    3300              
    3301              $C$DW$332       .dwtag  DW_TAG_enumerator
    3302                      .dwattr $C$DW$332, DW_AT_name("ADC_SocFrc_8")
    3303                      .dwattr $C$DW$332, DW_AT_const_value(0x08)
    3304              
    3305              $C$DW$333       .dwtag  DW_TAG_enumerator
    3306                      .dwattr $C$DW$333, DW_AT_name("ADC_SocFrc_9")
    3307                      .dwattr $C$DW$333, DW_AT_const_value(0x09)
    3308              
    3309              $C$DW$334       .dwtag  DW_TAG_enumerator
    3310                      .dwattr $C$DW$334, DW_AT_name("ADC_SocFrc_10")
    3311                      .dwattr $C$DW$334, DW_AT_const_value(0x0a)
    3312              
    3313              $C$DW$335       .dwtag  DW_TAG_enumerator
    3314                      .dwattr $C$DW$335, DW_AT_name("ADC_SocFrc_11")
    3315                      .dwattr $C$DW$335, DW_AT_const_value(0x0b)
    3316              
    3317              $C$DW$336       .dwtag  DW_TAG_enumerator
    3318                      .dwattr $C$DW$336, DW_AT_name("ADC_SocFrc_12")
    3319                      .dwattr $C$DW$336, DW_AT_const_value(0x0c)
    3320              
    3321              $C$DW$337       .dwtag  DW_TAG_enumerator
    3322                      .dwattr $C$DW$337, DW_AT_name("ADC_SocFrc_13")
    3323                      .dwattr $C$DW$337, DW_AT_const_value(0x0d)
    3324              
    3325              $C$DW$338       .dwtag  DW_TAG_enumerator
    3326                      .dwattr $C$DW$338, DW_AT_name("ADC_SocFrc_14")
    3327                      .dwattr $C$DW$338, DW_AT_const_value(0x0e)
    3328              
    3329              $C$DW$339       .dwtag  DW_TAG_enumerator
    3330                      .dwattr $C$DW$339, DW_AT_name("ADC_SocFrc_15")
    3331                      .dwattr $C$DW$339, DW_AT_const_value(0x0f)
TMS320C2000 Assembler PC v15.12.3 Tue Sep 20 20:29:52 2016

Tools Copyright (c) 1996-2015 Texas Instruments Incorporated
C:\Users\MaCHaDo\AppData\Local\Temp\0280810                          PAGE   63

    3332              
    3333                      .dwendtag $C$DW$T$58
    3334              
    3335              $C$DW$T$59      .dwtag  DW_TAG_typedef
    3336                      .dwattr $C$DW$T$59, DW_AT_name("ADC_SocFrc_e")
    3337                      .dwattr $C$DW$T$59, DW_AT_type(*$C$DW$T$58)
    3338                      .dwattr $C$DW$T$59, DW_AT_language(DW_LANG_C)
    3339              
    3340              $C$DW$340       .dwtag  DW_TAG_TI_far_type
    3341                      .dwattr $C$DW$340, DW_AT_type(*$C$DW$T$59)
    3342              
    3343              $C$DW$T$60      .dwtag  DW_TAG_const_type
    3344                      .dwattr $C$DW$T$60, DW_AT_type(*$C$DW$340)
    3345              
    3346              
    3347              $C$DW$T$61      .dwtag  DW_TAG_enumeration_type
    3348                      .dwattr $C$DW$T$61, DW_AT_byte_size(0x01)
    3349              $C$DW$341       .dwtag  DW_TAG_enumerator
    3350                      .dwattr $C$DW$341, DW_AT_name("ADC_TempSensorSrc_Ext")
    3351                      .dwattr $C$DW$341, DW_AT_const_value(0x00)
    3352              
    3353              $C$DW$342       .dwtag  DW_TAG_enumerator
    3354                      .dwattr $C$DW$342, DW_AT_name("ADC_TempSensorSrc_Int")
    3355                      .dwattr $C$DW$342, DW_AT_const_value(0x01)
    3356              
    3357                      .dwendtag $C$DW$T$61
    3358              
    3359              $C$DW$T$62      .dwtag  DW_TAG_typedef
    3360                      .dwattr $C$DW$T$62, DW_AT_name("ADC_TempSensorSrc_e")
    3361                      .dwattr $C$DW$T$62, DW_AT_type(*$C$DW$T$61)
    3362                      .dwattr $C$DW$T$62, DW_AT_language(DW_LANG_C)
    3363              
    3364              $C$DW$343       .dwtag  DW_TAG_TI_far_type
    3365                      .dwattr $C$DW$343, DW_AT_type(*$C$DW$T$62)
    3366              
    3367              $C$DW$T$63      .dwtag  DW_TAG_const_type
    3368                      .dwattr $C$DW$T$63, DW_AT_type(*$C$DW$343)
    3369              
    3370              
    3371              $C$DW$T$64      .dwtag  DW_TAG_enumeration_type
    3372                      .dwattr $C$DW$T$64, DW_AT_byte_size(0x01)
    3373              $C$DW$344       .dwtag  DW_TAG_enumerator
    3374                      .dwattr $C$DW$344, DW_AT_name("ADC_VoltageRefSrc_Int")
    3375                      .dwattr $C$DW$344, DW_AT_const_value(0x00)
    3376              
    3377              $C$DW$345       .dwtag  DW_TAG_enumerator
    3378                      .dwattr $C$DW$345, DW_AT_name("ADC_VoltageRefSrc_Ext")
    3379                      .dwattr $C$DW$345, DW_AT_const_value(0x08)
    3380              
    3381                      .dwendtag $C$DW$T$64
    3382              
    3383              $C$DW$T$65      .dwtag  DW_TAG_typedef
    3384                      .dwattr $C$DW$T$65, DW_AT_name("ADC_VoltageRefSrc_e")
    3385                      .dwattr $C$DW$T$65, DW_AT_type(*$C$DW$T$64)
    3386                      .dwattr $C$DW$T$65, DW_AT_language(DW_LANG_C)
TMS320C2000 Assembler PC v15.12.3 Tue Sep 20 20:29:52 2016

Tools Copyright (c) 1996-2015 Texas Instruments Incorporated
C:\Users\MaCHaDo\AppData\Local\Temp\0280810                          PAGE   64

    3387              
    3388              $C$DW$346       .dwtag  DW_TAG_TI_far_type
    3389                      .dwattr $C$DW$346, DW_AT_type(*$C$DW$T$65)
    3390              
    3391              $C$DW$T$66      .dwtag  DW_TAG_const_type
    3392                      .dwattr $C$DW$T$66, DW_AT_type(*$C$DW$346)
    3393              
    3394              
    3395              $C$DW$T$67      .dwtag  DW_TAG_enumeration_type
    3396                      .dwattr $C$DW$T$67, DW_AT_byte_size(0x01)
    3397              $C$DW$347       .dwtag  DW_TAG_enumerator
    3398                      .dwattr $C$DW$347, DW_AT_name("ADC_DivideSelect_ClkIn_by_1")
    3399                      .dwattr $C$DW$347, DW_AT_const_value(0x00)
    3400              
    3401              $C$DW$348       .dwtag  DW_TAG_enumerator
    3402                      .dwattr $C$DW$348, DW_AT_name("ADC_DivideSelect_ClkIn_by_2")
    3403                      .dwattr $C$DW$348, DW_AT_const_value(0x01)
    3404              
    3405                      .dwendtag $C$DW$T$67
    3406              
    3407              $C$DW$T$68      .dwtag  DW_TAG_typedef
    3408                      .dwattr $C$DW$T$68, DW_AT_name("ADC_DivideSelect_e")
    3409                      .dwattr $C$DW$T$68, DW_AT_type(*$C$DW$T$67)
    3410                      .dwattr $C$DW$T$68, DW_AT_language(DW_LANG_C)
    3411              
    3412              $C$DW$349       .dwtag  DW_TAG_TI_far_type
    3413                      .dwattr $C$DW$349, DW_AT_type(*$C$DW$T$68)
    3414              
    3415              $C$DW$T$69      .dwtag  DW_TAG_const_type
    3416                      .dwattr $C$DW$T$69, DW_AT_type(*$C$DW$349)
    3417              
    3418              
    3419              $C$DW$T$74      .dwtag  DW_TAG_enumeration_type
    3420                      .dwattr $C$DW$T$74, DW_AT_byte_size(0x01)
    3421              $C$DW$350       .dwtag  DW_TAG_enumerator
    3422                      .dwattr $C$DW$350, DW_AT_name("ADC_NoIntTriggersSOC")
    3423                      .dwattr $C$DW$350, DW_AT_const_value(0x00)
    3424              
    3425              $C$DW$351       .dwtag  DW_TAG_enumerator
    3426                      .dwattr $C$DW$351, DW_AT_name("ADC_Int1TriggersSOC")
    3427                      .dwattr $C$DW$351, DW_AT_const_value(0x01)
    3428              
    3429              $C$DW$352       .dwtag  DW_TAG_enumerator
    3430                      .dwattr $C$DW$352, DW_AT_name("ADC_Int2TriggersSOC")
    3431                      .dwattr $C$DW$352, DW_AT_const_value(0x02)
    3432              
    3433                      .dwendtag $C$DW$T$74
    3434              
    3435              $C$DW$T$75      .dwtag  DW_TAG_typedef
    3436                      .dwattr $C$DW$T$75, DW_AT_name("ADC_IntTriggerSOC_e")
    3437                      .dwattr $C$DW$T$75, DW_AT_type(*$C$DW$T$74)
    3438                      .dwattr $C$DW$T$75, DW_AT_language(DW_LANG_C)
    3439              
    3440              $C$DW$353       .dwtag  DW_TAG_TI_far_type
    3441                      .dwattr $C$DW$353, DW_AT_type(*$C$DW$T$75)
TMS320C2000 Assembler PC v15.12.3 Tue Sep 20 20:29:52 2016

Tools Copyright (c) 1996-2015 Texas Instruments Incorporated
C:\Users\MaCHaDo\AppData\Local\Temp\0280810                          PAGE   65

    3442              
    3443              $C$DW$T$76      .dwtag  DW_TAG_const_type
    3444                      .dwattr $C$DW$T$76, DW_AT_type(*$C$DW$353)
    3445              
    3446              
    3447              $C$DW$T$27      .dwtag  DW_TAG_structure_type
    3448                      .dwattr $C$DW$T$27, DW_AT_name("_ADC_Obj_")
    3449                      .dwattr $C$DW$T$27, DW_AT_byte_size(0x6650)
    3450              $C$DW$354       .dwtag  DW_TAG_member
    3451                      .dwattr $C$DW$354, DW_AT_type(*$C$DW$T$21)
    3452                      .dwattr $C$DW$354, DW_AT_name("ADCRESULT")
    3453                      .dwattr $C$DW$354, DW_AT_TI_symbol_name("_ADCRESULT")
    3454                      .dwattr $C$DW$354, DW_AT_data_member_location[DW_OP_plus_uconst 0x0]
    3455                      .dwattr $C$DW$354, DW_AT_accessibility(DW_ACCESS_public)
    3456              
    3457              $C$DW$355       .dwtag  DW_TAG_member
    3458                      .dwattr $C$DW$355, DW_AT_type(*$C$DW$T$22)
    3459                      .dwattr $C$DW$355, DW_AT_name("resvd_1")
    3460                      .dwattr $C$DW$355, DW_AT_TI_symbol_name("_resvd_1")
    3461                      .dwattr $C$DW$355, DW_AT_data_member_location[DW_OP_plus_uconst 0x10]
    3462                      .dwattr $C$DW$355, DW_AT_accessibility(DW_ACCESS_public)
    3463              
    3464              $C$DW$356       .dwtag  DW_TAG_member
    3465                      .dwattr $C$DW$356, DW_AT_type(*$C$DW$T$20)
    3466                      .dwattr $C$DW$356, DW_AT_name("ADCCTL1")
    3467                      .dwattr $C$DW$356, DW_AT_TI_symbol_name("_ADCCTL1")
    3468                      .dwattr $C$DW$356, DW_AT_data_member_location[DW_OP_plus_uconst 0x6600]
    3469                      .dwattr $C$DW$356, DW_AT_accessibility(DW_ACCESS_public)
    3470              
    3471              $C$DW$357       .dwtag  DW_TAG_member
    3472                      .dwattr $C$DW$357, DW_AT_type(*$C$DW$T$20)
    3473                      .dwattr $C$DW$357, DW_AT_name("ADCCTL2")
    3474                      .dwattr $C$DW$357, DW_AT_TI_symbol_name("_ADCCTL2")
    3475                      .dwattr $C$DW$357, DW_AT_data_member_location[DW_OP_plus_uconst 0x6601]
    3476                      .dwattr $C$DW$357, DW_AT_accessibility(DW_ACCESS_public)
    3477              
    3478              $C$DW$358       .dwtag  DW_TAG_member
    3479                      .dwattr $C$DW$358, DW_AT_type(*$C$DW$T$23)
    3480                      .dwattr $C$DW$358, DW_AT_name("rsvd_2")
    3481                      .dwattr $C$DW$358, DW_AT_TI_symbol_name("_rsvd_2")
    3482                      .dwattr $C$DW$358, DW_AT_data_member_location[DW_OP_plus_uconst 0x6602]
    3483                      .dwattr $C$DW$358, DW_AT_accessibility(DW_ACCESS_public)
    3484              
    3485              $C$DW$359       .dwtag  DW_TAG_member
    3486                      .dwattr $C$DW$359, DW_AT_type(*$C$DW$T$20)
    3487                      .dwattr $C$DW$359, DW_AT_name("ADCINTFLG")
    3488                      .dwattr $C$DW$359, DW_AT_TI_symbol_name("_ADCINTFLG")
    3489                      .dwattr $C$DW$359, DW_AT_data_member_location[DW_OP_plus_uconst 0x6604]
    3490                      .dwattr $C$DW$359, DW_AT_accessibility(DW_ACCESS_public)
    3491              
    3492              $C$DW$360       .dwtag  DW_TAG_member
    3493                      .dwattr $C$DW$360, DW_AT_type(*$C$DW$T$20)
    3494                      .dwattr $C$DW$360, DW_AT_name("ADCINTFLGCLR")
    3495                      .dwattr $C$DW$360, DW_AT_TI_symbol_name("_ADCINTFLGCLR")
    3496                      .dwattr $C$DW$360, DW_AT_data_member_location[DW_OP_plus_uconst 0x6605]
TMS320C2000 Assembler PC v15.12.3 Tue Sep 20 20:29:52 2016

Tools Copyright (c) 1996-2015 Texas Instruments Incorporated
C:\Users\MaCHaDo\AppData\Local\Temp\0280810                          PAGE   66

    3497                      .dwattr $C$DW$360, DW_AT_accessibility(DW_ACCESS_public)
    3498              
    3499              $C$DW$361       .dwtag  DW_TAG_member
    3500                      .dwattr $C$DW$361, DW_AT_type(*$C$DW$T$20)
    3501                      .dwattr $C$DW$361, DW_AT_name("ADCINTOVF")
    3502                      .dwattr $C$DW$361, DW_AT_TI_symbol_name("_ADCINTOVF")
    3503                      .dwattr $C$DW$361, DW_AT_data_member_location[DW_OP_plus_uconst 0x6606]
    3504                      .dwattr $C$DW$361, DW_AT_accessibility(DW_ACCESS_public)
    3505              
    3506              $C$DW$362       .dwtag  DW_TAG_member
    3507                      .dwattr $C$DW$362, DW_AT_type(*$C$DW$T$20)
    3508                      .dwattr $C$DW$362, DW_AT_name("ADCINTOVFCLR")
    3509                      .dwattr $C$DW$362, DW_AT_TI_symbol_name("_ADCINTOVFCLR")
    3510                      .dwattr $C$DW$362, DW_AT_data_member_location[DW_OP_plus_uconst 0x6607]
    3511                      .dwattr $C$DW$362, DW_AT_accessibility(DW_ACCESS_public)
    3512              
    3513              $C$DW$363       .dwtag  DW_TAG_member
    3514                      .dwattr $C$DW$363, DW_AT_type(*$C$DW$T$24)
    3515                      .dwattr $C$DW$363, DW_AT_name("INTSELxNy")
    3516                      .dwattr $C$DW$363, DW_AT_TI_symbol_name("_INTSELxNy")
    3517                      .dwattr $C$DW$363, DW_AT_data_member_location[DW_OP_plus_uconst 0x6608]
    3518                      .dwattr $C$DW$363, DW_AT_accessibility(DW_ACCESS_public)
    3519              
    3520              $C$DW$364       .dwtag  DW_TAG_member
    3521                      .dwattr $C$DW$364, DW_AT_type(*$C$DW$T$25)
    3522                      .dwattr $C$DW$364, DW_AT_name("rsvd_3")
    3523                      .dwattr $C$DW$364, DW_AT_TI_symbol_name("_rsvd_3")
    3524                      .dwattr $C$DW$364, DW_AT_data_member_location[DW_OP_plus_uconst 0x660d]
    3525                      .dwattr $C$DW$364, DW_AT_accessibility(DW_ACCESS_public)
    3526              
    3527              $C$DW$365       .dwtag  DW_TAG_member
    3528                      .dwattr $C$DW$365, DW_AT_type(*$C$DW$T$20)
    3529                      .dwattr $C$DW$365, DW_AT_name("SOCPRICTRL")
    3530                      .dwattr $C$DW$365, DW_AT_TI_symbol_name("_SOCPRICTRL")
    3531                      .dwattr $C$DW$365, DW_AT_data_member_location[DW_OP_plus_uconst 0x6610]
    3532                      .dwattr $C$DW$365, DW_AT_accessibility(DW_ACCESS_public)
    3533              
    3534              $C$DW$366       .dwtag  DW_TAG_member
    3535                      .dwattr $C$DW$366, DW_AT_type(*$C$DW$T$20)
    3536                      .dwattr $C$DW$366, DW_AT_name("rsvd_4")
    3537                      .dwattr $C$DW$366, DW_AT_TI_symbol_name("_rsvd_4")
    3538                      .dwattr $C$DW$366, DW_AT_data_member_location[DW_OP_plus_uconst 0x6611]
    3539                      .dwattr $C$DW$366, DW_AT_accessibility(DW_ACCESS_public)
    3540              
    3541              $C$DW$367       .dwtag  DW_TAG_member
    3542                      .dwattr $C$DW$367, DW_AT_type(*$C$DW$T$20)
    3543                      .dwattr $C$DW$367, DW_AT_name("ADCSAMPLEMODE")
    3544                      .dwattr $C$DW$367, DW_AT_TI_symbol_name("_ADCSAMPLEMODE")
    3545                      .dwattr $C$DW$367, DW_AT_data_member_location[DW_OP_plus_uconst 0x6612]
    3546                      .dwattr $C$DW$367, DW_AT_accessibility(DW_ACCESS_public)
    3547              
    3548              $C$DW$368       .dwtag  DW_TAG_member
    3549                      .dwattr $C$DW$368, DW_AT_type(*$C$DW$T$20)
    3550                      .dwattr $C$DW$368, DW_AT_name("rsvd_5")
    3551                      .dwattr $C$DW$368, DW_AT_TI_symbol_name("_rsvd_5")
TMS320C2000 Assembler PC v15.12.3 Tue Sep 20 20:29:52 2016

Tools Copyright (c) 1996-2015 Texas Instruments Incorporated
C:\Users\MaCHaDo\AppData\Local\Temp\0280810                          PAGE   67

    3552                      .dwattr $C$DW$368, DW_AT_data_member_location[DW_OP_plus_uconst 0x6613]
    3553                      .dwattr $C$DW$368, DW_AT_accessibility(DW_ACCESS_public)
    3554              
    3555              $C$DW$369       .dwtag  DW_TAG_member
    3556                      .dwattr $C$DW$369, DW_AT_type(*$C$DW$T$20)
    3557                      .dwattr $C$DW$369, DW_AT_name("ADCINTSOCSEL1")
    3558                      .dwattr $C$DW$369, DW_AT_TI_symbol_name("_ADCINTSOCSEL1")
    3559                      .dwattr $C$DW$369, DW_AT_data_member_location[DW_OP_plus_uconst 0x6614]
    3560                      .dwattr $C$DW$369, DW_AT_accessibility(DW_ACCESS_public)
    3561              
    3562              $C$DW$370       .dwtag  DW_TAG_member
    3563                      .dwattr $C$DW$370, DW_AT_type(*$C$DW$T$20)
    3564                      .dwattr $C$DW$370, DW_AT_name("ADCINTSOCSEL2")
    3565                      .dwattr $C$DW$370, DW_AT_TI_symbol_name("_ADCINTSOCSEL2")
    3566                      .dwattr $C$DW$370, DW_AT_data_member_location[DW_OP_plus_uconst 0x6615]
    3567                      .dwattr $C$DW$370, DW_AT_accessibility(DW_ACCESS_public)
    3568              
    3569              $C$DW$371       .dwtag  DW_TAG_member
    3570                      .dwattr $C$DW$371, DW_AT_type(*$C$DW$T$23)
    3571                      .dwattr $C$DW$371, DW_AT_name("rsvd_6")
    3572                      .dwattr $C$DW$371, DW_AT_TI_symbol_name("_rsvd_6")
    3573                      .dwattr $C$DW$371, DW_AT_data_member_location[DW_OP_plus_uconst 0x6616]
    3574                      .dwattr $C$DW$371, DW_AT_accessibility(DW_ACCESS_public)
    3575              
    3576              $C$DW$372       .dwtag  DW_TAG_member
    3577                      .dwattr $C$DW$372, DW_AT_type(*$C$DW$T$20)
    3578                      .dwattr $C$DW$372, DW_AT_name("ADCSOCFLG1")
    3579                      .dwattr $C$DW$372, DW_AT_TI_symbol_name("_ADCSOCFLG1")
    3580                      .dwattr $C$DW$372, DW_AT_data_member_location[DW_OP_plus_uconst 0x6618]
    3581                      .dwattr $C$DW$372, DW_AT_accessibility(DW_ACCESS_public)
    3582              
    3583              $C$DW$373       .dwtag  DW_TAG_member
    3584                      .dwattr $C$DW$373, DW_AT_type(*$C$DW$T$20)
    3585                      .dwattr $C$DW$373, DW_AT_name("rsvd_7")
    3586                      .dwattr $C$DW$373, DW_AT_TI_symbol_name("_rsvd_7")
    3587                      .dwattr $C$DW$373, DW_AT_data_member_location[DW_OP_plus_uconst 0x6619]
    3588                      .dwattr $C$DW$373, DW_AT_accessibility(DW_ACCESS_public)
    3589              
    3590              $C$DW$374       .dwtag  DW_TAG_member
    3591                      .dwattr $C$DW$374, DW_AT_type(*$C$DW$T$20)
    3592                      .dwattr $C$DW$374, DW_AT_name("ADCSOCFRC1")
