TMS320C2000 Assembler PC v15.12.3 Sun Oct 30 14:01:41 2016

Tools Copyright (c) 1996-2015 Texas Instruments Incorporated
C:\Users\MaCHaDo\AppData\Local\Temp\4410010                          PAGE    1

       1              ;***************************************************************
       2              ;* TMS320C2000 C/C++ Codegen                   PC v15.12.3.LTS *
       3              ;* Date/Time created: Sun Oct 30 14:01:40 2016                 *
       4              ;***************************************************************
       5                      .compiler_opts --abi=coffabi --float_support=softlib --hll_source=on --mem_model:code=flat --mem_mode
       6        0002  FP      .set    XAR2
       7              
       8              $C$DW$CU        .dwtag  DW_TAG_compile_unit
       9                      .dwattr $C$DW$CU, DW_AT_name("../drivers/source/cap.c")
      10                      .dwattr $C$DW$CU, DW_AT_producer("TI TMS320C2000 C/C++ Codegen PC v15.12.3.LTS Copyright (c) 1996-201
      11                      .dwattr $C$DW$CU, DW_AT_TI_version(0x01)
      12                      .dwattr $C$DW$CU, DW_AT_comp_dir("D:\Users\MaCHaDo\Documents\GitHub\LegStrong\Debug")
      13              ;       C:\ti\ccsv6\tools\compiler\c2000_15.12.3.LTS\bin\opt2000.exe C:\\Users\\MaCHaDo\\AppData\\Local\\Temp
      14              ;       C:\ti\ccsv6\tools\compiler\c2000_15.12.3.LTS\bin\ac2000.exe -@C:\\Users\\MaCHaDo\\AppData\\Local\\Tem
      15 00000000               .sect   ".text"
      16                      .clink
      17                      .global _CAP_setSyncOut
      18              
      19              $C$DW$1 .dwtag  DW_TAG_subprogram
      20                      .dwattr $C$DW$1, DW_AT_name("CAP_setSyncOut")
      21                      .dwattr $C$DW$1, DW_AT_low_pc(_CAP_setSyncOut)
      22                      .dwattr $C$DW$1, DW_AT_high_pc(0x00)
      23                      .dwattr $C$DW$1, DW_AT_TI_symbol_name("_CAP_setSyncOut")
      24                      .dwattr $C$DW$1, DW_AT_external
      25                      .dwattr $C$DW$1, DW_AT_TI_begin_file("../drivers/source/cap.c")
      26                      .dwattr $C$DW$1, DW_AT_TI_begin_line(0xee)
      27                      .dwattr $C$DW$1, DW_AT_TI_begin_column(0x06)
      28                      .dwattr $C$DW$1, DW_AT_TI_max_frame_size(-2)
      29                      .dwpsn  file "../drivers/source/cap.c",line 239,column 1,is_stmt,address _CAP_setSyncOut,isa 0
      30              
      31                      .dwfde $C$DW$CIE, _CAP_setSyncOut
      32              $C$DW$2 .dwtag  DW_TAG_formal_parameter
      33                      .dwattr $C$DW$2, DW_AT_name("capHandle")
      34                      .dwattr $C$DW$2, DW_AT_TI_symbol_name("_capHandle")
      35                      .dwattr $C$DW$2, DW_AT_type(*$C$DW$T$45)
      36                      .dwattr $C$DW$2, DW_AT_location[DW_OP_reg12]
      37              
      38              $C$DW$3 .dwtag  DW_TAG_formal_parameter
      39                      .dwattr $C$DW$3, DW_AT_name("syncOut")
      40                      .dwattr $C$DW$3, DW_AT_TI_symbol_name("_syncOut")
      41                      .dwattr $C$DW$3, DW_AT_type(*$C$DW$T$42)
      42                      .dwattr $C$DW$3, DW_AT_location[DW_OP_reg0]
      43              
      44              
      45              ;***************************************************************
      46              ;* FNAME: _CAP_setSyncOut               FR SIZE:   0           *
      47              ;*                                                             *
      48              ;* FUNCTION ENVIRONMENT                                        *
      49              ;*                                                             *
      50              ;* FUNCTION PROPERTIES                                         *
      51              ;*                            0 Parameter,  0 Auto,  0 SOE     *
      52              ;***************************************************************
      53              
      54              _CAP_setSyncOut:
      55              ;* AR4   assigned to _capHandle
TMS320C2000 Assembler PC v15.12.3 Sun Oct 30 14:01:41 2016

Tools Copyright (c) 1996-2015 Texas Instruments Incorporated
C:\Users\MaCHaDo\AppData\Local\Temp\4410010                          PAGE    2

      56              $C$DW$4 .dwtag  DW_TAG_variable
      57                      .dwattr $C$DW$4, DW_AT_name("capHandle")
      58                      .dwattr $C$DW$4, DW_AT_TI_symbol_name("_capHandle")
      59                      .dwattr $C$DW$4, DW_AT_type(*$C$DW$T$46)
      60                      .dwattr $C$DW$4, DW_AT_location[DW_OP_reg12]
      61              
      62              ;* AL    assigned to _syncOut
      63              $C$DW$5 .dwtag  DW_TAG_variable
      64                      .dwattr $C$DW$5, DW_AT_name("syncOut")
      65                      .dwattr $C$DW$5, DW_AT_TI_symbol_name("_syncOut")
      66                      .dwattr $C$DW$5, DW_AT_type(*$C$DW$T$42)
      67                      .dwattr $C$DW$5, DW_AT_location[DW_OP_reg0]
      68              
      69                      .dwcfi  cfa_offset, -2
      70                      .dwcfi  save_reg_to_mem, 26, 0
      71                      .dwpsn  file "../drivers/source/cap.c",line 244,column 5,is_stmt,isa 0
      72 00000000 83A4          MOVL      XAR5,XAR4             ; [CPU_] |244| 
      73 00000001 DD15          ADDB      XAR5,#21              ; [CPU_] |244| 
      74 00000002 18C5          AND       *+XAR5[0],#0xff3f     ; [CPU_] |244| 
         00000003 FF3F 
      75                      .dwpsn  file "../drivers/source/cap.c",line 247,column 5,is_stmt,isa 0
      76 00000004 DC15          ADDB      XAR4,#21              ; [CPU_] |247| 
      77 00000005 98C4          OR        *+XAR4[0],AL          ; [CPU_] |247| 
      78              $C$DW$6 .dwtag  DW_TAG_TI_branch
      79                      .dwattr $C$DW$6, DW_AT_low_pc(0x00)
      80                      .dwattr $C$DW$6, DW_AT_TI_return
      81              
      82 00000006 0006          LRETR     ; [CPU_] 
      83                      ; return occurs ; [] 
      84                      .dwattr $C$DW$1, DW_AT_TI_end_file("../drivers/source/cap.c")
      85                      .dwattr $C$DW$1, DW_AT_TI_end_line(0xfa)
      86                      .dwattr $C$DW$1, DW_AT_TI_end_column(0x01)
      87                      .dwendentry
      88                      .dwendtag $C$DW$1
      89              
      90 00000007               .sect   ".text"
      91                      .clink
      92                      .global _CAP_setStopWrap
      93              
      94              $C$DW$7 .dwtag  DW_TAG_subprogram
      95                      .dwattr $C$DW$7, DW_AT_name("CAP_setStopWrap")
      96                      .dwattr $C$DW$7, DW_AT_low_pc(_CAP_setStopWrap)
      97                      .dwattr $C$DW$7, DW_AT_high_pc(0x00)
      98                      .dwattr $C$DW$7, DW_AT_TI_symbol_name("_CAP_setStopWrap")
      99                      .dwattr $C$DW$7, DW_AT_external
     100                      .dwattr $C$DW$7, DW_AT_TI_begin_file("../drivers/source/cap.c")
     101                      .dwattr $C$DW$7, DW_AT_TI_begin_line(0xe0)
     102                      .dwattr $C$DW$7, DW_AT_TI_begin_column(0x06)
     103                      .dwattr $C$DW$7, DW_AT_TI_max_frame_size(-2)
     104                      .dwpsn  file "../drivers/source/cap.c",line 225,column 1,is_stmt,address _CAP_setStopWrap,isa 0
     105              
     106                      .dwfde $C$DW$CIE, _CAP_setStopWrap
     107              $C$DW$8 .dwtag  DW_TAG_formal_parameter
     108                      .dwattr $C$DW$8, DW_AT_name("capHandle")
     109                      .dwattr $C$DW$8, DW_AT_TI_symbol_name("_capHandle")
TMS320C2000 Assembler PC v15.12.3 Sun Oct 30 14:01:41 2016

Tools Copyright (c) 1996-2015 Texas Instruments Incorporated
C:\Users\MaCHaDo\AppData\Local\Temp\4410010                          PAGE    3

     110                      .dwattr $C$DW$8, DW_AT_type(*$C$DW$T$45)
     111                      .dwattr $C$DW$8, DW_AT_location[DW_OP_reg12]
     112              
     113              $C$DW$9 .dwtag  DW_TAG_formal_parameter
     114                      .dwattr $C$DW$9, DW_AT_name("stopWrap")
     115                      .dwattr $C$DW$9, DW_AT_TI_symbol_name("_stopWrap")
     116                      .dwattr $C$DW$9, DW_AT_type(*$C$DW$T$39)
     117                      .dwattr $C$DW$9, DW_AT_location[DW_OP_reg0]
     118              
     119              
     120              ;***************************************************************
     121              ;* FNAME: _CAP_setStopWrap              FR SIZE:   0           *
     122              ;*                                                             *
     123              ;* FUNCTION ENVIRONMENT                                        *
     124              ;*                                                             *
     125              ;* FUNCTION PROPERTIES                                         *
     126              ;*                            0 Parameter,  0 Auto,  0 SOE     *
     127              ;***************************************************************
     128              
     129              _CAP_setStopWrap:
     130              ;* AR4   assigned to _capHandle
     131              $C$DW$10        .dwtag  DW_TAG_variable
     132                      .dwattr $C$DW$10, DW_AT_name("capHandle")
     133                      .dwattr $C$DW$10, DW_AT_TI_symbol_name("_capHandle")
     134                      .dwattr $C$DW$10, DW_AT_type(*$C$DW$T$46)
     135                      .dwattr $C$DW$10, DW_AT_location[DW_OP_reg12]
     136              
     137              ;* AL    assigned to _stopWrap
     138              $C$DW$11        .dwtag  DW_TAG_variable
     139                      .dwattr $C$DW$11, DW_AT_name("stopWrap")
     140                      .dwattr $C$DW$11, DW_AT_TI_symbol_name("_stopWrap")
     141                      .dwattr $C$DW$11, DW_AT_type(*$C$DW$T$39)
     142                      .dwattr $C$DW$11, DW_AT_location[DW_OP_reg0]
     143              
     144                      .dwcfi  cfa_offset, -2
     145                      .dwcfi  save_reg_to_mem, 26, 0
     146                      .dwpsn  file "../drivers/source/cap.c",line 230,column 5,is_stmt,isa 0
     147 00000007 83A4          MOVL      XAR5,XAR4             ; [CPU_] |230| 
     148 00000008 DD15          ADDB      XAR5,#21              ; [CPU_] |230| 
     149 00000009 18C5          AND       *+XAR5[0],#0xfff9     ; [CPU_] |230| 
         0000000a FFF9 
     150                      .dwpsn  file "../drivers/source/cap.c",line 233,column 5,is_stmt,isa 0
     151 0000000b DC15          ADDB      XAR4,#21              ; [CPU_] |233| 
     152 0000000c 98C4          OR        *+XAR4[0],AL          ; [CPU_] |233| 
     153              $C$DW$12        .dwtag  DW_TAG_TI_branch
     154                      .dwattr $C$DW$12, DW_AT_low_pc(0x00)
     155                      .dwattr $C$DW$12, DW_AT_TI_return
     156              
     157 0000000d 0006          LRETR     ; [CPU_] 
     158                      ; return occurs ; [] 
     159                      .dwattr $C$DW$7, DW_AT_TI_end_file("../drivers/source/cap.c")
     160                      .dwattr $C$DW$7, DW_AT_TI_end_line(0xec)
     161                      .dwattr $C$DW$7, DW_AT_TI_end_column(0x01)
     162                      .dwendentry
     163                      .dwendtag $C$DW$7
TMS320C2000 Assembler PC v15.12.3 Sun Oct 30 14:01:41 2016

Tools Copyright (c) 1996-2015 Texas Instruments Incorporated
C:\Users\MaCHaDo\AppData\Local\Temp\4410010                          PAGE    4

     164              
     165 0000000e               .sect   ".text"
     166                      .clink
     167                      .global _CAP_setModeCap
     168              
     169              $C$DW$13        .dwtag  DW_TAG_subprogram
     170                      .dwattr $C$DW$13, DW_AT_name("CAP_setModeCap")
     171                      .dwattr $C$DW$13, DW_AT_low_pc(_CAP_setModeCap)
     172                      .dwattr $C$DW$13, DW_AT_high_pc(0x00)
     173                      .dwattr $C$DW$13, DW_AT_TI_symbol_name("_CAP_setModeCap")
     174                      .dwattr $C$DW$13, DW_AT_external
     175                      .dwattr $C$DW$13, DW_AT_TI_begin_file("../drivers/source/cap.c")
     176                      .dwattr $C$DW$13, DW_AT_TI_begin_line(0xca)
     177                      .dwattr $C$DW$13, DW_AT_TI_begin_column(0x06)
     178                      .dwattr $C$DW$13, DW_AT_TI_max_frame_size(-2)
     179                      .dwpsn  file "../drivers/source/cap.c",line 203,column 1,is_stmt,address _CAP_setModeCap,isa 0
     180              
     181                      .dwfde $C$DW$CIE, _CAP_setModeCap
     182              $C$DW$14        .dwtag  DW_TAG_formal_parameter
     183                      .dwattr $C$DW$14, DW_AT_name("capHandle")
     184                      .dwattr $C$DW$14, DW_AT_TI_symbol_name("_capHandle")
     185                      .dwattr $C$DW$14, DW_AT_type(*$C$DW$T$45)
     186                      .dwattr $C$DW$14, DW_AT_location[DW_OP_reg12]
     187              
     188              
     189              ;***************************************************************
     190              ;* FNAME: _CAP_setModeCap               FR SIZE:   0           *
     191              ;*                                                             *
     192              ;* FUNCTION ENVIRONMENT                                        *
     193              ;*                                                             *
     194              ;* FUNCTION PROPERTIES                                         *
     195              ;*                            0 Parameter,  0 Auto,  0 SOE     *
     196              ;***************************************************************
     197              
     198 0000000e       _CAP_setModeCap:
     199                      .dwcfi  cfa_offset, -2
     200                      .dwcfi  save_reg_to_mem, 26, 0
     201                      .dwpsn  file "../drivers/source/cap.c",line 208,column 5,is_stmt,isa 0
     202 0000000e DC15          ADDB      XAR4,#21              ; [CPU_] |208| 
     203 0000000f 18C4          AND       *+XAR4[0],#0xfdff     ; [CPU_] |208| 
         00000010 FDFF 
     204              $C$DW$15        .dwtag  DW_TAG_TI_branch
     205                      .dwattr $C$DW$15, DW_AT_low_pc(0x00)
     206                      .dwattr $C$DW$15, DW_AT_TI_return
     207              
     208 00000011 0006          LRETR     ; [CPU_] 
     209                      ; return occurs ; [] 
     210                      .dwattr $C$DW$13, DW_AT_TI_end_file("../drivers/source/cap.c")
     211                      .dwattr $C$DW$13, DW_AT_TI_end_line(0xd3)
     212                      .dwattr $C$DW$13, DW_AT_TI_end_column(0x01)
     213                      .dwendentry
     214                      .dwendtag $C$DW$13
     215              
     216 00000012               .sect   ".text"
     217                      .clink
TMS320C2000 Assembler PC v15.12.3 Sun Oct 30 14:01:41 2016

Tools Copyright (c) 1996-2015 Texas Instruments Incorporated
C:\Users\MaCHaDo\AppData\Local\Temp\4410010                          PAGE    5

     218                      .global _CAP_setModeApwm
     219              
     220              $C$DW$16        .dwtag  DW_TAG_subprogram
     221                      .dwattr $C$DW$16, DW_AT_name("CAP_setModeApwm")
     222                      .dwattr $C$DW$16, DW_AT_low_pc(_CAP_setModeApwm)
     223                      .dwattr $C$DW$16, DW_AT_high_pc(0x00)
     224                      .dwattr $C$DW$16, DW_AT_TI_symbol_name("_CAP_setModeApwm")
     225                      .dwattr $C$DW$16, DW_AT_external
     226                      .dwattr $C$DW$16, DW_AT_TI_begin_file("../drivers/source/cap.c")
     227                      .dwattr $C$DW$16, DW_AT_TI_begin_line(0xd5)
     228                      .dwattr $C$DW$16, DW_AT_TI_begin_column(0x06)
     229                      .dwattr $C$DW$16, DW_AT_TI_max_frame_size(-2)
     230                      .dwpsn  file "../drivers/source/cap.c",line 214,column 1,is_stmt,address _CAP_setModeApwm,isa 0
     231              
     232                      .dwfde $C$DW$CIE, _CAP_setModeApwm
     233              $C$DW$17        .dwtag  DW_TAG_formal_parameter
     234                      .dwattr $C$DW$17, DW_AT_name("capHandle")
     235                      .dwattr $C$DW$17, DW_AT_TI_symbol_name("_capHandle")
     236                      .dwattr $C$DW$17, DW_AT_type(*$C$DW$T$45)
     237                      .dwattr $C$DW$17, DW_AT_location[DW_OP_reg12]
     238              
     239              
     240              ;***************************************************************
     241              ;* FNAME: _CAP_setModeApwm              FR SIZE:   0           *
     242              ;*                                                             *
     243              ;* FUNCTION ENVIRONMENT                                        *
     244              ;*                                                             *
     245              ;* FUNCTION PROPERTIES                                         *
     246              ;*                            0 Parameter,  0 Auto,  0 SOE     *
     247              ;***************************************************************
     248              
     249 00000012       _CAP_setModeApwm:
     250                      .dwcfi  cfa_offset, -2
     251                      .dwcfi  save_reg_to_mem, 26, 0
     252                      .dwpsn  file "../drivers/source/cap.c",line 219,column 5,is_stmt,isa 0
     253 00000012 DC15          ADDB      XAR4,#21              ; [CPU_] |219| 
     254 00000013 1AC4          OR        *+XAR4[0],#0x0200     ; [CPU_] |219| 
         00000014 0200 
     255              $C$DW$18        .dwtag  DW_TAG_TI_branch
     256                      .dwattr $C$DW$18, DW_AT_low_pc(0x00)
     257                      .dwattr $C$DW$18, DW_AT_TI_return
     258              
     259 00000015 0006          LRETR     ; [CPU_] 
     260                      ; return occurs ; [] 
     261                      .dwattr $C$DW$16, DW_AT_TI_end_file("../drivers/source/cap.c")
     262                      .dwattr $C$DW$16, DW_AT_TI_end_line(0xde)
     263                      .dwattr $C$DW$16, DW_AT_TI_end_column(0x01)
     264                      .dwendentry
     265                      .dwendtag $C$DW$16
     266              
     267 00000016               .sect   ".text"
     268                      .clink
     269                      .global _CAP_setCapOneShot
     270              
     271              $C$DW$19        .dwtag  DW_TAG_subprogram
TMS320C2000 Assembler PC v15.12.3 Sun Oct 30 14:01:41 2016

Tools Copyright (c) 1996-2015 Texas Instruments Incorporated
C:\Users\MaCHaDo\AppData\Local\Temp\4410010                          PAGE    6

     272                      .dwattr $C$DW$19, DW_AT_name("CAP_setCapOneShot")
     273                      .dwattr $C$DW$19, DW_AT_low_pc(_CAP_setCapOneShot)
     274                      .dwattr $C$DW$19, DW_AT_high_pc(0x00)
     275                      .dwattr $C$DW$19, DW_AT_TI_symbol_name("_CAP_setCapOneShot")
     276                      .dwattr $C$DW$19, DW_AT_external
     277                      .dwattr $C$DW$19, DW_AT_TI_begin_file("../drivers/source/cap.c")
     278                      .dwattr $C$DW$19, DW_AT_TI_begin_line(0xbf)
     279                      .dwattr $C$DW$19, DW_AT_TI_begin_column(0x06)
     280                      .dwattr $C$DW$19, DW_AT_TI_max_frame_size(-2)
     281                      .dwpsn  file "../drivers/source/cap.c",line 192,column 1,is_stmt,address _CAP_setCapOneShot,isa 0
     282              
     283                      .dwfde $C$DW$CIE, _CAP_setCapOneShot
     284              $C$DW$20        .dwtag  DW_TAG_formal_parameter
     285                      .dwattr $C$DW$20, DW_AT_name("capHandle")
     286                      .dwattr $C$DW$20, DW_AT_TI_symbol_name("_capHandle")
     287                      .dwattr $C$DW$20, DW_AT_type(*$C$DW$T$45)
     288                      .dwattr $C$DW$20, DW_AT_location[DW_OP_reg12]
     289              
     290              
     291              ;***************************************************************
     292              ;* FNAME: _CAP_setCapOneShot            FR SIZE:   0           *
     293              ;*                                                             *
     294              ;* FUNCTION ENVIRONMENT                                        *
     295              ;*                                                             *
     296              ;* FUNCTION PROPERTIES                                         *
     297              ;*                            0 Parameter,  0 Auto,  0 SOE     *
     298              ;***************************************************************
     299              
     300 00000016       _CAP_setCapOneShot:
     301                      .dwcfi  cfa_offset, -2
     302                      .dwcfi  save_reg_to_mem, 26, 0
     303                      .dwpsn  file "../drivers/source/cap.c",line 197,column 5,is_stmt,isa 0
     304 00000016 DC15          ADDB      XAR4,#21              ; [CPU_] |197| 
     305 00000017 1AC4          OR        *+XAR4[0],#0x0001     ; [CPU_] |197| 
         00000018 0001 
     306              $C$DW$21        .dwtag  DW_TAG_TI_branch
     307                      .dwattr $C$DW$21, DW_AT_low_pc(0x00)
     308                      .dwattr $C$DW$21, DW_AT_TI_return
     309              
     310 00000019 0006          LRETR     ; [CPU_] 
     311                      ; return occurs ; [] 
     312                      .dwattr $C$DW$19, DW_AT_TI_end_file("../drivers/source/cap.c")
     313                      .dwattr $C$DW$19, DW_AT_TI_end_line(0xc8)
     314                      .dwattr $C$DW$19, DW_AT_TI_end_column(0x01)
     315                      .dwendentry
     316                      .dwendtag $C$DW$19
     317              
     318 0000001a               .sect   ".text"
     319                      .clink
     320                      .global _CAP_setCapEvtReset
     321              
     322              $C$DW$22        .dwtag  DW_TAG_subprogram
     323                      .dwattr $C$DW$22, DW_AT_name("CAP_setCapEvtReset")
     324                      .dwattr $C$DW$22, DW_AT_low_pc(_CAP_setCapEvtReset)
     325                      .dwattr $C$DW$22, DW_AT_high_pc(0x00)
TMS320C2000 Assembler PC v15.12.3 Sun Oct 30 14:01:41 2016

Tools Copyright (c) 1996-2015 Texas Instruments Incorporated
C:\Users\MaCHaDo\AppData\Local\Temp\4410010                          PAGE    7

     326                      .dwattr $C$DW$22, DW_AT_TI_symbol_name("_CAP_setCapEvtReset")
     327                      .dwattr $C$DW$22, DW_AT_external
     328                      .dwattr $C$DW$22, DW_AT_TI_begin_file("../drivers/source/cap.c")
     329                      .dwattr $C$DW$22, DW_AT_TI_begin_line(0xa7)
     330                      .dwattr $C$DW$22, DW_AT_TI_begin_column(0x06)
     331                      .dwattr $C$DW$22, DW_AT_TI_max_frame_size(-2)
     332                      .dwpsn  file "../drivers/source/cap.c",line 168,column 1,is_stmt,address _CAP_setCapEvtReset,isa 0
     333              
     334                      .dwfde $C$DW$CIE, _CAP_setCapEvtReset
     335              $C$DW$23        .dwtag  DW_TAG_formal_parameter
     336                      .dwattr $C$DW$23, DW_AT_name("capHandle")
     337                      .dwattr $C$DW$23, DW_AT_TI_symbol_name("_capHandle")
     338                      .dwattr $C$DW$23, DW_AT_type(*$C$DW$T$45)
     339                      .dwattr $C$DW$23, DW_AT_location[DW_OP_reg12]
     340              
     341              $C$DW$24        .dwtag  DW_TAG_formal_parameter
     342                      .dwattr $C$DW$24, DW_AT_name("event")
     343                      .dwattr $C$DW$24, DW_AT_TI_symbol_name("_event")
     344                      .dwattr $C$DW$24, DW_AT_type(*$C$DW$T$30)
     345                      .dwattr $C$DW$24, DW_AT_location[DW_OP_reg0]
     346              
     347              $C$DW$25        .dwtag  DW_TAG_formal_parameter
     348                      .dwattr $C$DW$25, DW_AT_name("reset")
     349                      .dwattr $C$DW$25, DW_AT_TI_symbol_name("_reset")
     350                      .dwattr $C$DW$25, DW_AT_type(*$C$DW$T$36)
     351                      .dwattr $C$DW$25, DW_AT_location[DW_OP_reg1]
     352              
     353              
     354              ;***************************************************************
     355              ;* FNAME: _CAP_setCapEvtReset           FR SIZE:   0           *
     356              ;*                                                             *
     357              ;* FUNCTION ENVIRONMENT                                        *
     358              ;*                                                             *
     359              ;* FUNCTION PROPERTIES                                         *
     360              ;*                            0 Parameter,  0 Auto,  0 SOE     *
     361              ;***************************************************************
     362              
     363              _CAP_setCapEvtReset:
     364              ;* T     assigned to $O$C1
     365              ;* AR4   assigned to _capHandle
     366              $C$DW$26        .dwtag  DW_TAG_variable
     367                      .dwattr $C$DW$26, DW_AT_name("capHandle")
     368                      .dwattr $C$DW$26, DW_AT_TI_symbol_name("_capHandle")
     369                      .dwattr $C$DW$26, DW_AT_type(*$C$DW$T$46)
     370                      .dwattr $C$DW$26, DW_AT_location[DW_OP_reg12]
     371              
     372              ;* AL    assigned to _event
     373              $C$DW$27        .dwtag  DW_TAG_variable
     374                      .dwattr $C$DW$27, DW_AT_name("event")
     375                      .dwattr $C$DW$27, DW_AT_TI_symbol_name("_event")
     376                      .dwattr $C$DW$27, DW_AT_type(*$C$DW$T$30)
     377                      .dwattr $C$DW$27, DW_AT_location[DW_OP_reg0]
     378              
     379              ;* AR6   assigned to _reset
     380              $C$DW$28        .dwtag  DW_TAG_variable
TMS320C2000 Assembler PC v15.12.3 Sun Oct 30 14:01:41 2016

Tools Copyright (c) 1996-2015 Texas Instruments Incorporated
C:\Users\MaCHaDo\AppData\Local\Temp\4410010                          PAGE    8

     381                      .dwattr $C$DW$28, DW_AT_name("reset")
     382                      .dwattr $C$DW$28, DW_AT_TI_symbol_name("_reset")
     383                      .dwattr $C$DW$28, DW_AT_type(*$C$DW$T$36)
     384                      .dwattr $C$DW$28, DW_AT_location[DW_OP_reg16]
     385              
     386                      .dwcfi  cfa_offset, -2
     387                      .dwcfi  save_reg_to_mem, 26, 0
     388 0000001a 88A8          MOVZ      AR6,AH                ; [CPU_] |168| 
     389                      .dwpsn  file "../drivers/source/cap.c",line 172,column 5,is_stmt,isa 0
     390 0000001b 5603          MOV       ACC,AL << #1          ; [CPU_] |172| 
         0000001c 01A9 
     391 0000001d 83A4          MOVL      XAR5,XAR4             ; [CPU_] |172| 
     392 0000001e 9C01          ADDB      AL,#1                 ; [CPU_] |172| 
     393 0000001f 2DA9          MOV       T,AL                  ; [CPU_] |172| 
     394 00000020 9A01          MOVB      AL,#1                 ; [CPU_] |172| 
     395 00000021 FF66          LSL       AL,T                  ; [CPU_] |172| 
     396 00000022 DD14          ADDB      XAR5,#20              ; [CPU_] |172| 
     397 00000023 FF5E          NOT       AL                    ; [CPU_] |172| 
     398 00000024 C0C5          AND       *+XAR5[0],AL          ; [CPU_] |172| 
     399                      .dwpsn  file "../drivers/source/cap.c",line 175,column 5,is_stmt,isa 0
     400 00000025 92A6          MOV       AL,AR6                ; [CPU_] |175| 
     401 00000026 FF66          LSL       AL,T                  ; [CPU_] |175| 
     402 00000027 DC14          ADDB      XAR4,#20              ; [CPU_] |175| 
     403 00000028 98C4          OR        *+XAR4[0],AL          ; [CPU_] |175| 
     404              $C$DW$29        .dwtag  DW_TAG_TI_branch
     405                      .dwattr $C$DW$29, DW_AT_low_pc(0x00)
     406                      .dwattr $C$DW$29, DW_AT_TI_return
     407              
     408 00000029 0006          LRETR     ; [CPU_] 
     409                      ; return occurs ; [] 
     410                      .dwattr $C$DW$22, DW_AT_TI_end_file("../drivers/source/cap.c")
     411                      .dwattr $C$DW$22, DW_AT_TI_end_line(0xb2)
     412                      .dwattr $C$DW$22, DW_AT_TI_end_column(0x01)
     413                      .dwendentry
     414                      .dwendtag $C$DW$22
     415              
     416 0000002a               .sect   ".text"
     417                      .clink
     418                      .global _CAP_setCapEvtPolarity
     419              
     420              $C$DW$30        .dwtag  DW_TAG_subprogram
     421                      .dwattr $C$DW$30, DW_AT_name("CAP_setCapEvtPolarity")
     422                      .dwattr $C$DW$30, DW_AT_low_pc(_CAP_setCapEvtPolarity)
     423                      .dwattr $C$DW$30, DW_AT_high_pc(0x00)
     424                      .dwattr $C$DW$30, DW_AT_TI_symbol_name("_CAP_setCapEvtPolarity")
     425                      .dwattr $C$DW$30, DW_AT_external
     426                      .dwattr $C$DW$30, DW_AT_TI_begin_file("../drivers/source/cap.c")
     427                      .dwattr $C$DW$30, DW_AT_TI_begin_line(0x9a)
     428                      .dwattr $C$DW$30, DW_AT_TI_begin_column(0x06)
     429                      .dwattr $C$DW$30, DW_AT_TI_max_frame_size(-2)
     430                      .dwpsn  file "../drivers/source/cap.c",line 155,column 1,is_stmt,address _CAP_setCapEvtPolarity,isa 0
     431              
     432                      .dwfde $C$DW$CIE, _CAP_setCapEvtPolarity
     433              $C$DW$31        .dwtag  DW_TAG_formal_parameter
     434                      .dwattr $C$DW$31, DW_AT_name("capHandle")
TMS320C2000 Assembler PC v15.12.3 Sun Oct 30 14:01:41 2016

Tools Copyright (c) 1996-2015 Texas Instruments Incorporated
C:\Users\MaCHaDo\AppData\Local\Temp\4410010                          PAGE    9

     435                      .dwattr $C$DW$31, DW_AT_TI_symbol_name("_capHandle")
     436                      .dwattr $C$DW$31, DW_AT_type(*$C$DW$T$45)
     437                      .dwattr $C$DW$31, DW_AT_location[DW_OP_reg12]
     438              
     439              $C$DW$32        .dwtag  DW_TAG_formal_parameter
     440                      .dwattr $C$DW$32, DW_AT_name("event")
     441                      .dwattr $C$DW$32, DW_AT_TI_symbol_name("_event")
     442                      .dwattr $C$DW$32, DW_AT_type(*$C$DW$T$30)
     443                      .dwattr $C$DW$32, DW_AT_location[DW_OP_reg0]
     444              
     445              $C$DW$33        .dwtag  DW_TAG_formal_parameter
     446                      .dwattr $C$DW$33, DW_AT_name("polarity")
     447                      .dwattr $C$DW$33, DW_AT_TI_symbol_name("_polarity")
     448                      .dwattr $C$DW$33, DW_AT_type(*$C$DW$T$33)
     449                      .dwattr $C$DW$33, DW_AT_location[DW_OP_reg1]
     450              
     451              
     452              ;***************************************************************
     453              ;* FNAME: _CAP_setCapEvtPolarity        FR SIZE:   0           *
     454              ;*                                                             *
     455              ;* FUNCTION ENVIRONMENT                                        *
     456              ;*                                                             *
     457              ;* FUNCTION PROPERTIES                                         *
     458              ;*                            0 Parameter,  0 Auto,  0 SOE     *
     459              ;***************************************************************
     460              
     461              _CAP_setCapEvtPolarity:
     462              ;* T     assigned to $O$C1
     463              ;* AR4   assigned to _capHandle
     464              $C$DW$34        .dwtag  DW_TAG_variable
     465                      .dwattr $C$DW$34, DW_AT_name("capHandle")
     466                      .dwattr $C$DW$34, DW_AT_TI_symbol_name("_capHandle")
     467                      .dwattr $C$DW$34, DW_AT_type(*$C$DW$T$46)
     468                      .dwattr $C$DW$34, DW_AT_location[DW_OP_reg12]
     469              
     470              ;* AL    assigned to _event
     471              $C$DW$35        .dwtag  DW_TAG_variable
     472                      .dwattr $C$DW$35, DW_AT_name("event")
     473                      .dwattr $C$DW$35, DW_AT_TI_symbol_name("_event")
     474                      .dwattr $C$DW$35, DW_AT_type(*$C$DW$T$30)
     475                      .dwattr $C$DW$35, DW_AT_location[DW_OP_reg0]
     476              
     477              ;* AR6   assigned to _polarity
     478              $C$DW$36        .dwtag  DW_TAG_variable
     479                      .dwattr $C$DW$36, DW_AT_name("polarity")
     480                      .dwattr $C$DW$36, DW_AT_TI_symbol_name("_polarity")
     481                      .dwattr $C$DW$36, DW_AT_type(*$C$DW$T$33)
     482                      .dwattr $C$DW$36, DW_AT_location[DW_OP_reg16]
     483              
     484                      .dwcfi  cfa_offset, -2
     485                      .dwcfi  save_reg_to_mem, 26, 0
     486 0000002a 88A8          MOVZ      AR6,AH                ; [CPU_] |155| 
     487                      .dwpsn  file "../drivers/source/cap.c",line 159,column 5,is_stmt,isa 0
     488 0000002b 5603          MOV       ACC,AL << #1          ; [CPU_] |159| 
         0000002c 01A9 
TMS320C2000 Assembler PC v15.12.3 Sun Oct 30 14:01:41 2016

Tools Copyright (c) 1996-2015 Texas Instruments Incorporated
C:\Users\MaCHaDo\AppData\Local\Temp\4410010                          PAGE   10

     489 0000002d 2DA9          MOV       T,AL                  ; [CPU_] |159| 
     490 0000002e 83A4          MOVL      XAR5,XAR4             ; [CPU_] |159| 
     491 0000002f 9A01          MOVB      AL,#1                 ; [CPU_] |159| 
     492 00000030 FF66          LSL       AL,T                  ; [CPU_] |159| 
     493 00000031 FF5E          NOT       AL                    ; [CPU_] |159| 
     494 00000032 DD14          ADDB      XAR5,#20              ; [CPU_] |159| 
     495 00000033 C0C5          AND       *+XAR5[0],AL          ; [CPU_] |159| 
     496                      .dwpsn  file "../drivers/source/cap.c",line 162,column 5,is_stmt,isa 0
     497 00000034 92A6          MOV       AL,AR6                ; [CPU_] |162| 
     498 00000035 FF66          LSL       AL,T                  ; [CPU_] |162| 
     499 00000036 DC14          ADDB      XAR4,#20              ; [CPU_] |162| 
     500 00000037 98C4          OR        *+XAR4[0],AL          ; [CPU_] |162| 
     501              $C$DW$37        .dwtag  DW_TAG_TI_branch
     502                      .dwattr $C$DW$37, DW_AT_low_pc(0x00)
     503                      .dwattr $C$DW$37, DW_AT_TI_return
     504              
     505 00000038 0006          LRETR     ; [CPU_] 
     506                      ; return occurs ; [] 
     507                      .dwattr $C$DW$30, DW_AT_TI_end_file("../drivers/source/cap.c")
     508                      .dwattr $C$DW$30, DW_AT_TI_end_line(0xa5)
     509                      .dwattr $C$DW$30, DW_AT_TI_end_column(0x01)
     510                      .dwendentry
     511                      .dwendtag $C$DW$30
     512              
     513 00000039               .sect   ".text"
     514                      .clink
     515                      .global _CAP_setCapContinuous
     516              
     517              $C$DW$38        .dwtag  DW_TAG_subprogram
     518                      .dwattr $C$DW$38, DW_AT_name("CAP_setCapContinuous")
     519                      .dwattr $C$DW$38, DW_AT_low_pc(_CAP_setCapContinuous)
     520                      .dwattr $C$DW$38, DW_AT_high_pc(0x00)
     521                      .dwattr $C$DW$38, DW_AT_TI_symbol_name("_CAP_setCapContinuous")
     522                      .dwattr $C$DW$38, DW_AT_external
     523                      .dwattr $C$DW$38, DW_AT_TI_begin_file("../drivers/source/cap.c")
     524                      .dwattr $C$DW$38, DW_AT_TI_begin_line(0xb4)
     525                      .dwattr $C$DW$38, DW_AT_TI_begin_column(0x06)
     526                      .dwattr $C$DW$38, DW_AT_TI_max_frame_size(-2)
     527                      .dwpsn  file "../drivers/source/cap.c",line 181,column 1,is_stmt,address _CAP_setCapContinuous,isa 0
     528              
     529                      .dwfde $C$DW$CIE, _CAP_setCapContinuous
     530              $C$DW$39        .dwtag  DW_TAG_formal_parameter
     531                      .dwattr $C$DW$39, DW_AT_name("capHandle")
     532                      .dwattr $C$DW$39, DW_AT_TI_symbol_name("_capHandle")
     533                      .dwattr $C$DW$39, DW_AT_type(*$C$DW$T$45)
     534                      .dwattr $C$DW$39, DW_AT_location[DW_OP_reg12]
     535              
     536              
     537              ;***************************************************************
     538              ;* FNAME: _CAP_setCapContinuous         FR SIZE:   0           *
     539              ;*                                                             *
     540              ;* FUNCTION ENVIRONMENT                                        *
     541              ;*                                                             *
     542              ;* FUNCTION PROPERTIES                                         *
     543              ;*                            0 Parameter,  0 Auto,  0 SOE     *
TMS320C2000 Assembler PC v15.12.3 Sun Oct 30 14:01:41 2016

Tools Copyright (c) 1996-2015 Texas Instruments Incorporated
C:\Users\MaCHaDo\AppData\Local\Temp\4410010                          PAGE   11

     544              ;***************************************************************
     545              
     546 00000039       _CAP_setCapContinuous:
     547                      .dwcfi  cfa_offset, -2
     548                      .dwcfi  save_reg_to_mem, 26, 0
     549                      .dwpsn  file "../drivers/source/cap.c",line 186,column 5,is_stmt,isa 0
     550 00000039 DC15          ADDB      XAR4,#21              ; [CPU_] |186| 
     551 0000003a 18C4          AND       *+XAR4[0],#0xfffe     ; [CPU_] |186| 
         0000003b FFFE 
     552              $C$DW$40        .dwtag  DW_TAG_TI_branch
     553                      .dwattr $C$DW$40, DW_AT_low_pc(0x00)
     554                      .dwattr $C$DW$40, DW_AT_TI_return
     555              
     556 0000003c 0006          LRETR     ; [CPU_] 
     557                      ; return occurs ; [] 
     558                      .dwattr $C$DW$38, DW_AT_TI_end_file("../drivers/source/cap.c")
     559                      .dwattr $C$DW$38, DW_AT_TI_end_line(0xbd)
     560                      .dwattr $C$DW$38, DW_AT_TI_end_column(0x01)
     561                      .dwendentry
     562                      .dwendtag $C$DW$38
     563              
     564 0000003d               .sect   ".text"
     565                      .clink
     566                      .global _CAP_init
     567              
     568              $C$DW$41        .dwtag  DW_TAG_subprogram
     569                      .dwattr $C$DW$41, DW_AT_name("CAP_init")
     570                      .dwattr $C$DW$41, DW_AT_low_pc(_CAP_init)
     571                      .dwattr $C$DW$41, DW_AT_high_pc(0x00)
     572                      .dwattr $C$DW$41, DW_AT_TI_symbol_name("_CAP_init")
     573                      .dwattr $C$DW$41, DW_AT_external
     574                      .dwattr $C$DW$41, DW_AT_type(*$C$DW$T$45)
     575                      .dwattr $C$DW$41, DW_AT_TI_begin_file("../drivers/source/cap.c")
     576                      .dwattr $C$DW$41, DW_AT_TI_begin_line(0x38)
     577                      .dwattr $C$DW$41, DW_AT_TI_begin_column(0x0c)
     578                      .dwattr $C$DW$41, DW_AT_TI_max_frame_size(-2)
     579                      .dwpsn  file "../drivers/source/cap.c",line 57,column 1,is_stmt,address _CAP_init,isa 0
     580              
     581                      .dwfde $C$DW$CIE, _CAP_init
     582              $C$DW$42        .dwtag  DW_TAG_formal_parameter
     583                      .dwattr $C$DW$42, DW_AT_name("pMemory")
     584                      .dwattr $C$DW$42, DW_AT_TI_symbol_name("_pMemory")
     585                      .dwattr $C$DW$42, DW_AT_type(*$C$DW$T$3)
     586                      .dwattr $C$DW$42, DW_AT_location[DW_OP_reg12]
     587              
     588              $C$DW$43        .dwtag  DW_TAG_formal_parameter
     589                      .dwattr $C$DW$43, DW_AT_name("numBytes")
     590                      .dwattr $C$DW$43, DW_AT_TI_symbol_name("_numBytes")
     591                      .dwattr $C$DW$43, DW_AT_type(*$C$DW$T$48)
     592                      .dwattr $C$DW$43, DW_AT_location[DW_OP_reg0]
     593              
     594              
     595              ;***************************************************************
     596              ;* FNAME: _CAP_init                     FR SIZE:   0           *
     597              ;*                                                             *
TMS320C2000 Assembler PC v15.12.3 Sun Oct 30 14:01:41 2016

Tools Copyright (c) 1996-2015 Texas Instruments Incorporated
C:\Users\MaCHaDo\AppData\Local\Temp\4410010                          PAGE   12

     598              ;* FUNCTION ENVIRONMENT                                        *
     599              ;*                                                             *
     600              ;* FUNCTION PROPERTIES                                         *
     601              ;*                            0 Parameter,  0 Auto,  0 SOE     *
     602              ;***************************************************************
     603              
     604              _CAP_init:
     605              ;* AR6   assigned to _numBytes
     606              $C$DW$44        .dwtag  DW_TAG_variable
     607                      .dwattr $C$DW$44, DW_AT_name("numBytes")
     608                      .dwattr $C$DW$44, DW_AT_TI_symbol_name("_numBytes")
     609                      .dwattr $C$DW$44, DW_AT_type(*$C$DW$T$48)
     610                      .dwattr $C$DW$44, DW_AT_location[DW_OP_reg16]
     611              
     612                      .dwcfi  cfa_offset, -2
     613                      .dwcfi  save_reg_to_mem, 26, 0
     614 0000003d 1EA6          MOVL      XAR6,ACC              ; [CPU_] |57| 
     615                      .dwpsn  file "../drivers/source/cap.c",line 62,column 5,is_stmt,isa 0
     616 0000003e 021A          MOVB      ACC,#26               ; [CPU_] |62| 
     617 0000003f 0FA6          CMPL      ACC,XAR6              ; [CPU_] |62| 
     618 00000040 6902          B         $C$L1,LOS             ; [CPU_] |62| 
     619                      ; branchcc occurs ; [] |62| 
     620 00000041 D400          MOVB      XAR4,#0               ; [CPU_] |62| 
     621              $C$L1:    
     622              $C$DW$45        .dwtag  DW_TAG_TI_branch
     623                      .dwattr $C$DW$45, DW_AT_low_pc(0x00)
     624                      .dwattr $C$DW$45, DW_AT_TI_return
     625              
     626 00000042 0006          LRETR     ; [CPU_] 
     627                      ; return occurs ; [] 
     628                      .dwattr $C$DW$41, DW_AT_TI_end_file("../drivers/source/cap.c")
     629                      .dwattr $C$DW$41, DW_AT_TI_end_line(0x44)
     630                      .dwattr $C$DW$41, DW_AT_TI_end_column(0x01)
     631                      .dwendentry
     632                      .dwendtag $C$DW$41
     633              
     634 00000043               .sect   ".text"
     635                      .clink
     636                      .global _CAP_enableTimestampCounter
     637              
     638              $C$DW$46        .dwtag  DW_TAG_subprogram
     639                      .dwattr $C$DW$46, DW_AT_name("CAP_enableTimestampCounter")
     640                      .dwattr $C$DW$46, DW_AT_low_pc(_CAP_enableTimestampCounter)
     641                      .dwattr $C$DW$46, DW_AT_high_pc(0x00)
     642                      .dwattr $C$DW$46, DW_AT_TI_symbol_name("_CAP_enableTimestampCounter")
     643                      .dwattr $C$DW$46, DW_AT_external
     644                      .dwattr $C$DW$46, DW_AT_TI_begin_file("../drivers/source/cap.c")
     645                      .dwattr $C$DW$46, DW_AT_TI_begin_line(0x90)
     646                      .dwattr $C$DW$46, DW_AT_TI_begin_column(0x06)
     647                      .dwattr $C$DW$46, DW_AT_TI_max_frame_size(-2)
     648                      .dwpsn  file "../drivers/source/cap.c",line 145,column 1,is_stmt,address _CAP_enableTimestampCounter,
     649              
     650                      .dwfde $C$DW$CIE, _CAP_enableTimestampCounter
     651              $C$DW$47        .dwtag  DW_TAG_formal_parameter
     652                      .dwattr $C$DW$47, DW_AT_name("capHandle")
TMS320C2000 Assembler PC v15.12.3 Sun Oct 30 14:01:41 2016

Tools Copyright (c) 1996-2015 Texas Instruments Incorporated
C:\Users\MaCHaDo\AppData\Local\Temp\4410010                          PAGE   13

     653                      .dwattr $C$DW$47, DW_AT_TI_symbol_name("_capHandle")
     654                      .dwattr $C$DW$47, DW_AT_type(*$C$DW$T$45)
     655                      .dwattr $C$DW$47, DW_AT_location[DW_OP_reg12]
     656              
     657              
     658              ;***************************************************************
     659              ;* FNAME: _CAP_enableTimestampCounter   FR SIZE:   0           *
     660              ;*                                                             *
     661              ;* FUNCTION ENVIRONMENT                                        *
     662              ;*                                                             *
     663              ;* FUNCTION PROPERTIES                                         *
     664              ;*                            0 Parameter,  0 Auto,  0 SOE     *
     665              ;***************************************************************
     666              
     667 00000043       _CAP_enableTimestampCounter:
     668                      .dwcfi  cfa_offset, -2
     669                      .dwcfi  save_reg_to_mem, 26, 0
     670                      .dwpsn  file "../drivers/source/cap.c",line 149,column 5,is_stmt,isa 0
     671 00000043 DC15          ADDB      XAR4,#21              ; [CPU_] |149| 
     672 00000044 1AC4          OR        *+XAR4[0],#0x0010     ; [CPU_] |149| 
         00000045 0010 
     673              $C$DW$48        .dwtag  DW_TAG_TI_branch
     674                      .dwattr $C$DW$48, DW_AT_low_pc(0x00)
     675                      .dwattr $C$DW$48, DW_AT_TI_return
     676              
     677 00000046 0006          LRETR     ; [CPU_] 
     678                      ; return occurs ; [] 
     679                      .dwattr $C$DW$46, DW_AT_TI_end_file("../drivers/source/cap.c")
     680                      .dwattr $C$DW$46, DW_AT_TI_end_line(0x98)
     681                      .dwattr $C$DW$46, DW_AT_TI_end_column(0x01)
     682                      .dwendentry
     683                      .dwendtag $C$DW$46
     684              
     685 00000047               .sect   ".text"
     686                      .clink
     687                      .global _CAP_enableSyncIn
     688              
     689              $C$DW$49        .dwtag  DW_TAG_subprogram
     690                      .dwattr $C$DW$49, DW_AT_name("CAP_enableSyncIn")
     691                      .dwattr $C$DW$49, DW_AT_low_pc(_CAP_enableSyncIn)
     692                      .dwattr $C$DW$49, DW_AT_high_pc(0x00)
     693                      .dwattr $C$DW$49, DW_AT_TI_symbol_name("_CAP_enableSyncIn")
     694                      .dwattr $C$DW$49, DW_AT_external
     695                      .dwattr $C$DW$49, DW_AT_TI_begin_file("../drivers/source/cap.c")
     696                      .dwattr $C$DW$49, DW_AT_TI_begin_line(0x85)
     697                      .dwattr $C$DW$49, DW_AT_TI_begin_column(0x06)
     698                      .dwattr $C$DW$49, DW_AT_TI_max_frame_size(-2)
     699                      .dwpsn  file "../drivers/source/cap.c",line 134,column 1,is_stmt,address _CAP_enableSyncIn,isa 0
     700              
     701                      .dwfde $C$DW$CIE, _CAP_enableSyncIn
     702              $C$DW$50        .dwtag  DW_TAG_formal_parameter
     703                      .dwattr $C$DW$50, DW_AT_name("capHandle")
     704                      .dwattr $C$DW$50, DW_AT_TI_symbol_name("_capHandle")
     705                      .dwattr $C$DW$50, DW_AT_type(*$C$DW$T$45)
     706                      .dwattr $C$DW$50, DW_AT_location[DW_OP_reg12]
TMS320C2000 Assembler PC v15.12.3 Sun Oct 30 14:01:41 2016

Tools Copyright (c) 1996-2015 Texas Instruments Incorporated
C:\Users\MaCHaDo\AppData\Local\Temp\4410010                          PAGE   14

     707              
     708              
     709              ;***************************************************************
     710              ;* FNAME: _CAP_enableSyncIn             FR SIZE:   0           *
     711              ;*                                                             *
     712              ;* FUNCTION ENVIRONMENT                                        *
     713              ;*                                                             *
     714              ;* FUNCTION PROPERTIES                                         *
     715              ;*                            0 Parameter,  0 Auto,  0 SOE     *
     716              ;***************************************************************
     717              
     718 00000047       _CAP_enableSyncIn:
     719                      .dwcfi  cfa_offset, -2
     720                      .dwcfi  save_reg_to_mem, 26, 0
     721                      .dwpsn  file "../drivers/source/cap.c",line 139,column 5,is_stmt,isa 0
     722 00000047 DC15          ADDB      XAR4,#21              ; [CPU_] |139| 
     723 00000048 1AC4          OR        *+XAR4[0],#0x0020     ; [CPU_] |139| 
         00000049 0020 
     724              $C$DW$51        .dwtag  DW_TAG_TI_branch
     725                      .dwattr $C$DW$51, DW_AT_low_pc(0x00)
     726                      .dwattr $C$DW$51, DW_AT_TI_return
     727              
     728 0000004a 0006          LRETR     ; [CPU_] 
     729                      ; return occurs ; [] 
     730                      .dwattr $C$DW$49, DW_AT_TI_end_file("../drivers/source/cap.c")
     731                      .dwattr $C$DW$49, DW_AT_TI_end_line(0x8e)
     732                      .dwattr $C$DW$49, DW_AT_TI_end_column(0x01)
     733                      .dwendentry
     734                      .dwendtag $C$DW$49
     735              
     736 0000004b               .sect   ".text"
     737                      .clink
     738                      .global _CAP_enableInt
     739              
     740              $C$DW$52        .dwtag  DW_TAG_subprogram
     741                      .dwattr $C$DW$52, DW_AT_name("CAP_enableInt")
     742                      .dwattr $C$DW$52, DW_AT_low_pc(_CAP_enableInt)
     743                      .dwattr $C$DW$52, DW_AT_high_pc(0x00)
     744                      .dwattr $C$DW$52, DW_AT_TI_symbol_name("_CAP_enableInt")
     745                      .dwattr $C$DW$52, DW_AT_external
     746                      .dwattr $C$DW$52, DW_AT_TI_begin_file("../drivers/source/cap.c")
     747                      .dwattr $C$DW$52, DW_AT_TI_begin_line(0x7a)
     748                      .dwattr $C$DW$52, DW_AT_TI_begin_column(0x06)
     749                      .dwattr $C$DW$52, DW_AT_TI_max_frame_size(-2)
     750                      .dwpsn  file "../drivers/source/cap.c",line 123,column 1,is_stmt,address _CAP_enableInt,isa 0
     751              
     752                      .dwfde $C$DW$CIE, _CAP_enableInt
     753              $C$DW$53        .dwtag  DW_TAG_formal_parameter
     754                      .dwattr $C$DW$53, DW_AT_name("capHandle")
     755                      .dwattr $C$DW$53, DW_AT_TI_symbol_name("_capHandle")
     756                      .dwattr $C$DW$53, DW_AT_type(*$C$DW$T$45)
     757                      .dwattr $C$DW$53, DW_AT_location[DW_OP_reg12]
     758              
     759              $C$DW$54        .dwtag  DW_TAG_formal_parameter
     760                      .dwattr $C$DW$54, DW_AT_name("intType")
TMS320C2000 Assembler PC v15.12.3 Sun Oct 30 14:01:41 2016

Tools Copyright (c) 1996-2015 Texas Instruments Incorporated
C:\Users\MaCHaDo\AppData\Local\Temp\4410010                          PAGE   15

     761                      .dwattr $C$DW$54, DW_AT_TI_symbol_name("_intType")
     762                      .dwattr $C$DW$54, DW_AT_type(*$C$DW$T$27)
     763                      .dwattr $C$DW$54, DW_AT_location[DW_OP_reg0]
     764              
     765              
     766              ;***************************************************************
     767              ;* FNAME: _CAP_enableInt                FR SIZE:   0           *
     768              ;*                                                             *
     769              ;* FUNCTION ENVIRONMENT                                        *
     770              ;*                                                             *
     771              ;* FUNCTION PROPERTIES                                         *
     772              ;*                            0 Parameter,  0 Auto,  0 SOE     *
     773              ;***************************************************************
     774              
     775              _CAP_enableInt:
     776              ;* AL    assigned to _intType
     777              $C$DW$55        .dwtag  DW_TAG_variable
     778                      .dwattr $C$DW$55, DW_AT_name("intType")
     779                      .dwattr $C$DW$55, DW_AT_TI_symbol_name("_intType")
     780                      .dwattr $C$DW$55, DW_AT_type(*$C$DW$T$27)
     781                      .dwattr $C$DW$55, DW_AT_location[DW_OP_reg0]
     782              
     783                      .dwcfi  cfa_offset, -2
     784                      .dwcfi  save_reg_to_mem, 26, 0
     785                      .dwpsn  file "../drivers/source/cap.c",line 128,column 5,is_stmt,isa 0
     786 0000004b DC16          ADDB      XAR4,#22              ; [CPU_] |128| 
     787 0000004c 98C4          OR        *+XAR4[0],AL          ; [CPU_] |128| 
     788              $C$DW$56        .dwtag  DW_TAG_TI_branch
     789                      .dwattr $C$DW$56, DW_AT_low_pc(0x00)
     790                      .dwattr $C$DW$56, DW_AT_TI_return
     791              
     792 0000004d 0006          LRETR     ; [CPU_] 
     793                      ; return occurs ; [] 
     794                      .dwattr $C$DW$52, DW_AT_TI_end_file("../drivers/source/cap.c")
     795                      .dwattr $C$DW$52, DW_AT_TI_end_line(0x83)
     796                      .dwattr $C$DW$52, DW_AT_TI_end_column(0x01)
     797                      .dwendentry
     798                      .dwendtag $C$DW$52
     799              
     800 0000004e               .sect   ".text"
     801                      .clink
     802                      .global _CAP_enableCaptureLoad
     803              
     804              $C$DW$57        .dwtag  DW_TAG_subprogram
     805                      .dwattr $C$DW$57, DW_AT_name("CAP_enableCaptureLoad")
     806                      .dwattr $C$DW$57, DW_AT_low_pc(_CAP_enableCaptureLoad)
     807                      .dwattr $C$DW$57, DW_AT_high_pc(0x00)
     808                      .dwattr $C$DW$57, DW_AT_TI_symbol_name("_CAP_enableCaptureLoad")
     809                      .dwattr $C$DW$57, DW_AT_external
     810                      .dwattr $C$DW$57, DW_AT_TI_begin_file("../drivers/source/cap.c")
     811                      .dwattr $C$DW$57, DW_AT_TI_begin_line(0x70)
     812                      .dwattr $C$DW$57, DW_AT_TI_begin_column(0x06)
     813                      .dwattr $C$DW$57, DW_AT_TI_max_frame_size(-2)
     814                      .dwpsn  file "../drivers/source/cap.c",line 113,column 1,is_stmt,address _CAP_enableCaptureLoad,isa 0
     815              
TMS320C2000 Assembler PC v15.12.3 Sun Oct 30 14:01:41 2016

Tools Copyright (c) 1996-2015 Texas Instruments Incorporated
C:\Users\MaCHaDo\AppData\Local\Temp\4410010                          PAGE   16

     816                      .dwfde $C$DW$CIE, _CAP_enableCaptureLoad
     817              $C$DW$58        .dwtag  DW_TAG_formal_parameter
     818                      .dwattr $C$DW$58, DW_AT_name("capHandle")
     819                      .dwattr $C$DW$58, DW_AT_TI_symbol_name("_capHandle")
     820                      .dwattr $C$DW$58, DW_AT_type(*$C$DW$T$45)
     821                      .dwattr $C$DW$58, DW_AT_location[DW_OP_reg12]
     822              
     823              
     824              ;***************************************************************
     825              ;* FNAME: _CAP_enableCaptureLoad        FR SIZE:   0           *
     826              ;*                                                             *
     827              ;* FUNCTION ENVIRONMENT                                        *
     828              ;*                                                             *
     829              ;* FUNCTION PROPERTIES                                         *
     830              ;*                            0 Parameter,  0 Auto,  0 SOE     *
     831              ;***************************************************************
     832              
     833 0000004e       _CAP_enableCaptureLoad:
     834                      .dwcfi  cfa_offset, -2
     835                      .dwcfi  save_reg_to_mem, 26, 0
     836                      .dwpsn  file "../drivers/source/cap.c",line 117,column 5,is_stmt,isa 0
     837 0000004e DC14          ADDB      XAR4,#20              ; [CPU_] |117| 
     838 0000004f 1AC4          OR        *+XAR4[0],#0x0100     ; [CPU_] |117| 
         00000050 0100 
     839              $C$DW$59        .dwtag  DW_TAG_TI_branch
     840                      .dwattr $C$DW$59, DW_AT_low_pc(0x00)
     841                      .dwattr $C$DW$59, DW_AT_TI_return
     842              
     843 00000051 0006          LRETR     ; [CPU_] 
     844                      ; return occurs ; [] 
     845                      .dwattr $C$DW$57, DW_AT_TI_end_file("../drivers/source/cap.c")
     846                      .dwattr $C$DW$57, DW_AT_TI_end_line(0x78)
     847                      .dwattr $C$DW$57, DW_AT_TI_end_column(0x01)
     848                      .dwendentry
     849                      .dwendtag $C$DW$57
     850              
     851 00000052               .sect   ".text"
     852                      .clink
     853                      .global _CAP_disableTimestampCounter
     854              
     855              $C$DW$60        .dwtag  DW_TAG_subprogram
     856                      .dwattr $C$DW$60, DW_AT_name("CAP_disableTimestampCounter")
     857                      .dwattr $C$DW$60, DW_AT_low_pc(_CAP_disableTimestampCounter)
     858                      .dwattr $C$DW$60, DW_AT_high_pc(0x00)
     859                      .dwattr $C$DW$60, DW_AT_TI_symbol_name("_CAP_disableTimestampCounter")
     860                      .dwattr $C$DW$60, DW_AT_external
     861                      .dwattr $C$DW$60, DW_AT_TI_begin_file("../drivers/source/cap.c")
     862                      .dwattr $C$DW$60, DW_AT_TI_begin_line(0x66)
     863                      .dwattr $C$DW$60, DW_AT_TI_begin_column(0x06)
     864                      .dwattr $C$DW$60, DW_AT_TI_max_frame_size(-2)
     865                      .dwpsn  file "../drivers/source/cap.c",line 103,column 1,is_stmt,address _CAP_disableTimestampCounter
     866              
     867                      .dwfde $C$DW$CIE, _CAP_disableTimestampCounter
     868              $C$DW$61        .dwtag  DW_TAG_formal_parameter
     869                      .dwattr $C$DW$61, DW_AT_name("capHandle")
TMS320C2000 Assembler PC v15.12.3 Sun Oct 30 14:01:41 2016

Tools Copyright (c) 1996-2015 Texas Instruments Incorporated
C:\Users\MaCHaDo\AppData\Local\Temp\4410010                          PAGE   17

     870                      .dwattr $C$DW$61, DW_AT_TI_symbol_name("_capHandle")
     871                      .dwattr $C$DW$61, DW_AT_type(*$C$DW$T$45)
     872                      .dwattr $C$DW$61, DW_AT_location[DW_OP_reg12]
     873              
     874              
     875              ;***************************************************************
     876              ;* FNAME: _CAP_disableTimestampCounter  FR SIZE:   0           *
     877              ;*                                                             *
     878              ;* FUNCTION ENVIRONMENT                                        *
     879              ;*                                                             *
     880              ;* FUNCTION PROPERTIES                                         *
     881              ;*                            0 Parameter,  0 Auto,  0 SOE     *
     882              ;***************************************************************
     883              
     884 00000052       _CAP_disableTimestampCounter:
     885                      .dwcfi  cfa_offset, -2
     886                      .dwcfi  save_reg_to_mem, 26, 0
     887                      .dwpsn  file "../drivers/source/cap.c",line 107,column 5,is_stmt,isa 0
     888 00000052 DC15          ADDB      XAR4,#21              ; [CPU_] |107| 
     889 00000053 18C4          AND       *+XAR4[0],#0xffef     ; [CPU_] |107| 
         00000054 FFEF 
     890              $C$DW$62        .dwtag  DW_TAG_TI_branch
     891                      .dwattr $C$DW$62, DW_AT_low_pc(0x00)
     892                      .dwattr $C$DW$62, DW_AT_TI_return
     893              
     894 00000055 0006          LRETR     ; [CPU_] 
     895                      ; return occurs ; [] 
     896                      .dwattr $C$DW$60, DW_AT_TI_end_file("../drivers/source/cap.c")
     897                      .dwattr $C$DW$60, DW_AT_TI_end_line(0x6e)
     898                      .dwattr $C$DW$60, DW_AT_TI_end_column(0x01)
     899                      .dwendentry
     900                      .dwendtag $C$DW$60
     901              
     902 00000056               .sect   ".text"
     903                      .clink
     904                      .global _CAP_disableSyncIn
     905              
     906              $C$DW$63        .dwtag  DW_TAG_subprogram
     907                      .dwattr $C$DW$63, DW_AT_name("CAP_disableSyncIn")
     908                      .dwattr $C$DW$63, DW_AT_low_pc(_CAP_disableSyncIn)
     909                      .dwattr $C$DW$63, DW_AT_high_pc(0x00)
     910                      .dwattr $C$DW$63, DW_AT_TI_symbol_name("_CAP_disableSyncIn")
     911                      .dwattr $C$DW$63, DW_AT_external
     912                      .dwattr $C$DW$63, DW_AT_TI_begin_file("../drivers/source/cap.c")
     913                      .dwattr $C$DW$63, DW_AT_TI_begin_line(0x50)
     914                      .dwattr $C$DW$63, DW_AT_TI_begin_column(0x06)
     915                      .dwattr $C$DW$63, DW_AT_TI_max_frame_size(-2)
     916                      .dwpsn  file "../drivers/source/cap.c",line 81,column 1,is_stmt,address _CAP_disableSyncIn,isa 0
     917              
     918                      .dwfde $C$DW$CIE, _CAP_disableSyncIn
     919              $C$DW$64        .dwtag  DW_TAG_formal_parameter
     920                      .dwattr $C$DW$64, DW_AT_name("capHandle")
     921                      .dwattr $C$DW$64, DW_AT_TI_symbol_name("_capHandle")
     922                      .dwattr $C$DW$64, DW_AT_type(*$C$DW$T$45)
     923                      .dwattr $C$DW$64, DW_AT_location[DW_OP_reg12]
TMS320C2000 Assembler PC v15.12.3 Sun Oct 30 14:01:41 2016

Tools Copyright (c) 1996-2015 Texas Instruments Incorporated
C:\Users\MaCHaDo\AppData\Local\Temp\4410010                          PAGE   18

     924              
     925              
     926              ;***************************************************************
     927              ;* FNAME: _CAP_disableSyncIn            FR SIZE:   0           *
     928              ;*                                                             *
     929              ;* FUNCTION ENVIRONMENT                                        *
     930              ;*                                                             *
     931              ;* FUNCTION PROPERTIES                                         *
     932              ;*                            0 Parameter,  0 Auto,  0 SOE     *
     933              ;***************************************************************
     934              
     935 00000056       _CAP_disableSyncIn:
     936                      .dwcfi  cfa_offset, -2
     937                      .dwcfi  save_reg_to_mem, 26, 0
     938                      .dwpsn  file "../drivers/source/cap.c",line 86,column 5,is_stmt,isa 0
     939 00000056 DC15          ADDB      XAR4,#21              ; [CPU_] |86| 
     940 00000057 18C4          AND       *+XAR4[0],#0xffdf     ; [CPU_] |86| 
         00000058 FFDF 
     941              $C$DW$65        .dwtag  DW_TAG_TI_branch
     942                      .dwattr $C$DW$65, DW_AT_low_pc(0x00)
     943                      .dwattr $C$DW$65, DW_AT_TI_return
     944              
     945 00000059 0006          LRETR     ; [CPU_] 
     946                      ; return occurs ; [] 
     947                      .dwattr $C$DW$63, DW_AT_TI_end_file("../drivers/source/cap.c")
     948                      .dwattr $C$DW$63, DW_AT_TI_end_line(0x59)
     949                      .dwattr $C$DW$63, DW_AT_TI_end_column(0x01)
     950                      .dwendentry
     951                      .dwendtag $C$DW$63
     952              
     953 0000005a               .sect   ".text"
     954                      .clink
     955                      .global _CAP_disableInt
     956              
     957              $C$DW$66        .dwtag  DW_TAG_subprogram
     958                      .dwattr $C$DW$66, DW_AT_name("CAP_disableInt")
     959                      .dwattr $C$DW$66, DW_AT_low_pc(_CAP_disableInt)
     960                      .dwattr $C$DW$66, DW_AT_high_pc(0x00)
     961                      .dwattr $C$DW$66, DW_AT_TI_symbol_name("_CAP_disableInt")
     962                      .dwattr $C$DW$66, DW_AT_external
     963                      .dwattr $C$DW$66, DW_AT_TI_begin_file("../drivers/source/cap.c")
     964                      .dwattr $C$DW$66, DW_AT_TI_begin_line(0x5b)
     965                      .dwattr $C$DW$66, DW_AT_TI_begin_column(0x06)
     966                      .dwattr $C$DW$66, DW_AT_TI_max_frame_size(-2)
     967                      .dwpsn  file "../drivers/source/cap.c",line 92,column 1,is_stmt,address _CAP_disableInt,isa 0
     968              
     969                      .dwfde $C$DW$CIE, _CAP_disableInt
     970              $C$DW$67        .dwtag  DW_TAG_formal_parameter
     971                      .dwattr $C$DW$67, DW_AT_name("capHandle")
     972                      .dwattr $C$DW$67, DW_AT_TI_symbol_name("_capHandle")
     973                      .dwattr $C$DW$67, DW_AT_type(*$C$DW$T$45)
     974                      .dwattr $C$DW$67, DW_AT_location[DW_OP_reg12]
     975              
     976              $C$DW$68        .dwtag  DW_TAG_formal_parameter
     977                      .dwattr $C$DW$68, DW_AT_name("intType")
TMS320C2000 Assembler PC v15.12.3 Sun Oct 30 14:01:41 2016

Tools Copyright (c) 1996-2015 Texas Instruments Incorporated
C:\Users\MaCHaDo\AppData\Local\Temp\4410010                          PAGE   19

     978                      .dwattr $C$DW$68, DW_AT_TI_symbol_name("_intType")
     979                      .dwattr $C$DW$68, DW_AT_type(*$C$DW$T$27)
     980                      .dwattr $C$DW$68, DW_AT_location[DW_OP_reg0]
     981              
     982              
     983              ;***************************************************************
     984              ;* FNAME: _CAP_disableInt               FR SIZE:   0           *
     985              ;*                                                             *
     986              ;* FUNCTION ENVIRONMENT                                        *
     987              ;*                                                             *
     988              ;* FUNCTION PROPERTIES                                         *
     989              ;*                            0 Parameter,  0 Auto,  0 SOE     *
     990              ;***************************************************************
     991              
     992 0000005a       _CAP_disableInt:
     993                      .dwcfi  cfa_offset, -2
     994                      .dwcfi  save_reg_to_mem, 26, 0
     995                      .dwpsn  file "../drivers/source/cap.c",line 97,column 5,is_stmt,isa 0
     996 0000005a FF5E          NOT       AL                    ; [CPU_] |97| 
     997 0000005b DC16          ADDB      XAR4,#22              ; [CPU_] |97| 
     998 0000005c C0C4          AND       *+XAR4[0],AL          ; [CPU_] |97| 
     999              $C$DW$69        .dwtag  DW_TAG_TI_branch
    1000                      .dwattr $C$DW$69, DW_AT_low_pc(0x00)
    1001                      .dwattr $C$DW$69, DW_AT_TI_return
    1002              
    1003 0000005d 0006          LRETR     ; [CPU_] 
    1004                      ; return occurs ; [] 
    1005                      .dwattr $C$DW$66, DW_AT_TI_end_file("../drivers/source/cap.c")
    1006                      .dwattr $C$DW$66, DW_AT_TI_end_line(0x64)
    1007                      .dwattr $C$DW$66, DW_AT_TI_end_column(0x01)
    1008                      .dwendentry
    1009                      .dwendtag $C$DW$66
    1010              
    1011 0000005e               .sect   ".text"
    1012                      .clink
    1013                      .global _CAP_disableCaptureLoad
    1014              
    1015              $C$DW$70        .dwtag  DW_TAG_subprogram
    1016                      .dwattr $C$DW$70, DW_AT_name("CAP_disableCaptureLoad")
    1017                      .dwattr $C$DW$70, DW_AT_low_pc(_CAP_disableCaptureLoad)
    1018                      .dwattr $C$DW$70, DW_AT_high_pc(0x00)
    1019                      .dwattr $C$DW$70, DW_AT_TI_symbol_name("_CAP_disableCaptureLoad")
    1020                      .dwattr $C$DW$70, DW_AT_external
    1021                      .dwattr $C$DW$70, DW_AT_TI_begin_file("../drivers/source/cap.c")
    1022                      .dwattr $C$DW$70, DW_AT_TI_begin_line(0x46)
    1023                      .dwattr $C$DW$70, DW_AT_TI_begin_column(0x06)
    1024                      .dwattr $C$DW$70, DW_AT_TI_max_frame_size(-2)
    1025                      .dwpsn  file "../drivers/source/cap.c",line 71,column 1,is_stmt,address _CAP_disableCaptureLoad,isa 0
    1026              
    1027                      .dwfde $C$DW$CIE, _CAP_disableCaptureLoad
    1028              $C$DW$71        .dwtag  DW_TAG_formal_parameter
    1029                      .dwattr $C$DW$71, DW_AT_name("capHandle")
    1030                      .dwattr $C$DW$71, DW_AT_TI_symbol_name("_capHandle")
    1031                      .dwattr $C$DW$71, DW_AT_type(*$C$DW$T$45)
    1032                      .dwattr $C$DW$71, DW_AT_location[DW_OP_reg12]
TMS320C2000 Assembler PC v15.12.3 Sun Oct 30 14:01:41 2016

Tools Copyright (c) 1996-2015 Texas Instruments Incorporated
C:\Users\MaCHaDo\AppData\Local\Temp\4410010                          PAGE   20

    1033              
    1034              
    1035              ;***************************************************************
    1036              ;* FNAME: _CAP_disableCaptureLoad       FR SIZE:   0           *
    1037              ;*                                                             *
    1038              ;* FUNCTION ENVIRONMENT                                        *
    1039              ;*                                                             *
    1040              ;* FUNCTION PROPERTIES                                         *
    1041              ;*                            0 Parameter,  0 Auto,  0 SOE     *
    1042              ;***************************************************************
    1043              
    1044 0000005e       _CAP_disableCaptureLoad:
    1045                      .dwcfi  cfa_offset, -2
    1046                      .dwcfi  save_reg_to_mem, 26, 0
    1047                      .dwpsn  file "../drivers/source/cap.c",line 75,column 5,is_stmt,isa 0
    1048 0000005e DC14          ADDB      XAR4,#20              ; [CPU_] |75| 
    1049 0000005f 18C4          AND       *+XAR4[0],#0xfeff     ; [CPU_] |75| 
         00000060 FEFF 
    1050              $C$DW$72        .dwtag  DW_TAG_TI_branch
    1051                      .dwattr $C$DW$72, DW_AT_low_pc(0x00)
    1052                      .dwattr $C$DW$72, DW_AT_TI_return
    1053              
    1054 00000061 0006          LRETR     ; [CPU_] 
    1055                      ; return occurs ; [] 
    1056                      .dwattr $C$DW$70, DW_AT_TI_end_file("../drivers/source/cap.c")
    1057                      .dwattr $C$DW$70, DW_AT_TI_end_line(0x4e)
    1058                      .dwattr $C$DW$70, DW_AT_TI_end_column(0x01)
    1059                      .dwendentry
    1060                      .dwendtag $C$DW$70
    1061              
    1062              
    1063              ;***************************************************************
    1064              ;* TYPE INFORMATION                                            *
    1065              ;***************************************************************
    1066              
    1067              $C$DW$T$25      .dwtag  DW_TAG_enumeration_type
    1068                      .dwattr $C$DW$T$25, DW_AT_byte_size(0x01)
    1069              $C$DW$73        .dwtag  DW_TAG_enumerator
    1070                      .dwattr $C$DW$73, DW_AT_name("CAP_Int_Type_CTR_CMP")
    1071                      .dwattr $C$DW$73, DW_AT_const_value(0x80)
    1072              
    1073              $C$DW$74        .dwtag  DW_TAG_enumerator
    1074                      .dwattr $C$DW$74, DW_AT_name("CAP_Int_Type_CTR_PRD")
    1075                      .dwattr $C$DW$74, DW_AT_const_value(0x40)
    1076              
    1077              $C$DW$75        .dwtag  DW_TAG_enumerator
    1078                      .dwattr $C$DW$75, DW_AT_name("CAP_Int_Type_CTR_OVF")
    1079                      .dwattr $C$DW$75, DW_AT_const_value(0x20)
    1080              
    1081              $C$DW$76        .dwtag  DW_TAG_enumerator
    1082                      .dwattr $C$DW$76, DW_AT_name("CAP_Int_Type_CEVT4")
    1083                      .dwattr $C$DW$76, DW_AT_const_value(0x10)
    1084              
    1085              $C$DW$77        .dwtag  DW_TAG_enumerator
    1086                      .dwattr $C$DW$77, DW_AT_name("CAP_Int_Type_CEVT3")
TMS320C2000 Assembler PC v15.12.3 Sun Oct 30 14:01:41 2016

Tools Copyright (c) 1996-2015 Texas Instruments Incorporated
C:\Users\MaCHaDo\AppData\Local\Temp\4410010                          PAGE   21

    1087                      .dwattr $C$DW$77, DW_AT_const_value(0x08)
    1088              
    1089              $C$DW$78        .dwtag  DW_TAG_enumerator
    1090                      .dwattr $C$DW$78, DW_AT_name("CAP_Int_Type_CEVT2")
    1091                      .dwattr $C$DW$78, DW_AT_const_value(0x04)
    1092              
    1093              $C$DW$79        .dwtag  DW_TAG_enumerator
    1094                      .dwattr $C$DW$79, DW_AT_name("CAP_Int_Type_CEVT1")
    1095                      .dwattr $C$DW$79, DW_AT_const_value(0x02)
    1096              
    1097              $C$DW$80        .dwtag  DW_TAG_enumerator
    1098                      .dwattr $C$DW$80, DW_AT_name("CAP_Int_Type_Global")
    1099                      .dwattr $C$DW$80, DW_AT_const_value(0x01)
    1100              
    1101              $C$DW$81        .dwtag  DW_TAG_enumerator
    1102                      .dwattr $C$DW$81, DW_AT_name("CAP_Int_Type_All")
    1103                      .dwattr $C$DW$81, DW_AT_const_value(0xff)
    1104              
    1105                      .dwendtag $C$DW$T$25
    1106              
    1107              $C$DW$T$26      .dwtag  DW_TAG_typedef
    1108                      .dwattr $C$DW$T$26, DW_AT_name("CAP_Int_Type_e")
    1109                      .dwattr $C$DW$T$26, DW_AT_type(*$C$DW$T$25)
    1110                      .dwattr $C$DW$T$26, DW_AT_language(DW_LANG_C)
    1111              
    1112              $C$DW$82        .dwtag  DW_TAG_TI_far_type
    1113                      .dwattr $C$DW$82, DW_AT_type(*$C$DW$T$26)
    1114              
    1115              $C$DW$T$27      .dwtag  DW_TAG_const_type
    1116                      .dwattr $C$DW$T$27, DW_AT_type(*$C$DW$82)
    1117              
    1118              
    1119              $C$DW$T$28      .dwtag  DW_TAG_enumeration_type
    1120                      .dwattr $C$DW$T$28, DW_AT_byte_size(0x01)
    1121              $C$DW$83        .dwtag  DW_TAG_enumerator
    1122                      .dwattr $C$DW$83, DW_AT_name("CAP_Event_1")
    1123                      .dwattr $C$DW$83, DW_AT_const_value(0x00)
    1124              
    1125              $C$DW$84        .dwtag  DW_TAG_enumerator
    1126                      .dwattr $C$DW$84, DW_AT_name("CAP_Event_2")
    1127                      .dwattr $C$DW$84, DW_AT_const_value(0x01)
    1128              
    1129              $C$DW$85        .dwtag  DW_TAG_enumerator
    1130                      .dwattr $C$DW$85, DW_AT_name("CAP_Event_3")
    1131                      .dwattr $C$DW$85, DW_AT_const_value(0x02)
    1132              
    1133              $C$DW$86        .dwtag  DW_TAG_enumerator
    1134                      .dwattr $C$DW$86, DW_AT_name("CAP_Event_4")
    1135                      .dwattr $C$DW$86, DW_AT_const_value(0x03)
    1136              
    1137                      .dwendtag $C$DW$T$28
    1138              
    1139              $C$DW$T$29      .dwtag  DW_TAG_typedef
    1140                      .dwattr $C$DW$T$29, DW_AT_name("CAP_Event_e")
    1141                      .dwattr $C$DW$T$29, DW_AT_type(*$C$DW$T$28)
TMS320C2000 Assembler PC v15.12.3 Sun Oct 30 14:01:41 2016

Tools Copyright (c) 1996-2015 Texas Instruments Incorporated
C:\Users\MaCHaDo\AppData\Local\Temp\4410010                          PAGE   22

    1142                      .dwattr $C$DW$T$29, DW_AT_language(DW_LANG_C)
    1143              
    1144              $C$DW$87        .dwtag  DW_TAG_TI_far_type
    1145                      .dwattr $C$DW$87, DW_AT_type(*$C$DW$T$29)
    1146              
    1147              $C$DW$T$30      .dwtag  DW_TAG_const_type
    1148                      .dwattr $C$DW$T$30, DW_AT_type(*$C$DW$87)
    1149              
    1150              
    1151              $C$DW$T$31      .dwtag  DW_TAG_enumeration_type
    1152                      .dwattr $C$DW$T$31, DW_AT_byte_size(0x01)
    1153              $C$DW$88        .dwtag  DW_TAG_enumerator
    1154                      .dwattr $C$DW$88, DW_AT_name("CAP_Polarity_Rising")
    1155                      .dwattr $C$DW$88, DW_AT_const_value(0x00)
    1156              
    1157              $C$DW$89        .dwtag  DW_TAG_enumerator
    1158                      .dwattr $C$DW$89, DW_AT_name("CAP_Polarity_Falling")
    1159                      .dwattr $C$DW$89, DW_AT_const_value(0x01)
    1160              
    1161                      .dwendtag $C$DW$T$31
    1162              
    1163              $C$DW$T$32      .dwtag  DW_TAG_typedef
    1164                      .dwattr $C$DW$T$32, DW_AT_name("CAP_Polarity_e")
    1165                      .dwattr $C$DW$T$32, DW_AT_type(*$C$DW$T$31)
    1166                      .dwattr $C$DW$T$32, DW_AT_language(DW_LANG_C)
    1167              
    1168              $C$DW$90        .dwtag  DW_TAG_TI_far_type
    1169                      .dwattr $C$DW$90, DW_AT_type(*$C$DW$T$32)
    1170              
    1171              $C$DW$T$33      .dwtag  DW_TAG_const_type
    1172                      .dwattr $C$DW$T$33, DW_AT_type(*$C$DW$90)
    1173              
    1174              
    1175              $C$DW$T$34      .dwtag  DW_TAG_enumeration_type
    1176                      .dwattr $C$DW$T$34, DW_AT_byte_size(0x01)
    1177              $C$DW$91        .dwtag  DW_TAG_enumerator
    1178                      .dwattr $C$DW$91, DW_AT_name("CAP_Reset_Disable")
    1179                      .dwattr $C$DW$91, DW_AT_const_value(0x00)
    1180              
    1181              $C$DW$92        .dwtag  DW_TAG_enumerator
    1182                      .dwattr $C$DW$92, DW_AT_name("CAP_Reset_Enable")
    1183                      .dwattr $C$DW$92, DW_AT_const_value(0x01)
    1184              
    1185                      .dwendtag $C$DW$T$34
    1186              
    1187              $C$DW$T$35      .dwtag  DW_TAG_typedef
    1188                      .dwattr $C$DW$T$35, DW_AT_name("CAP_Reset_e")
    1189                      .dwattr $C$DW$T$35, DW_AT_type(*$C$DW$T$34)
    1190                      .dwattr $C$DW$T$35, DW_AT_language(DW_LANG_C)
    1191              
    1192              $C$DW$93        .dwtag  DW_TAG_TI_far_type
    1193                      .dwattr $C$DW$93, DW_AT_type(*$C$DW$T$35)
    1194              
    1195              $C$DW$T$36      .dwtag  DW_TAG_const_type
    1196                      .dwattr $C$DW$T$36, DW_AT_type(*$C$DW$93)
TMS320C2000 Assembler PC v15.12.3 Sun Oct 30 14:01:41 2016

Tools Copyright (c) 1996-2015 Texas Instruments Incorporated
C:\Users\MaCHaDo\AppData\Local\Temp\4410010                          PAGE   23

    1197              
    1198              
    1199              $C$DW$T$37      .dwtag  DW_TAG_enumeration_type
    1200                      .dwattr $C$DW$T$37, DW_AT_byte_size(0x01)
    1201              $C$DW$94        .dwtag  DW_TAG_enumerator
    1202                      .dwattr $C$DW$94, DW_AT_name("CAP_Stop_Wrap_CEVT1")
    1203                      .dwattr $C$DW$94, DW_AT_const_value(0x00)
    1204              
    1205              $C$DW$95        .dwtag  DW_TAG_enumerator
    1206                      .dwattr $C$DW$95, DW_AT_name("CAP_Stop_Wrap_CEVT2")
    1207                      .dwattr $C$DW$95, DW_AT_const_value(0x02)
    1208              
    1209              $C$DW$96        .dwtag  DW_TAG_enumerator
    1210                      .dwattr $C$DW$96, DW_AT_name("CAP_Stop_Wrap_CEVT3")
    1211                      .dwattr $C$DW$96, DW_AT_const_value(0x04)
    1212              
    1213              $C$DW$97        .dwtag  DW_TAG_enumerator
    1214                      .dwattr $C$DW$97, DW_AT_name("CAP_Stop_Wrap_CEVT4")
    1215                      .dwattr $C$DW$97, DW_AT_const_value(0x06)
    1216              
    1217                      .dwendtag $C$DW$T$37
    1218              
    1219              $C$DW$T$38      .dwtag  DW_TAG_typedef
    1220                      .dwattr $C$DW$T$38, DW_AT_name("CAP_Stop_Wrap_e")
    1221                      .dwattr $C$DW$T$38, DW_AT_type(*$C$DW$T$37)
    1222                      .dwattr $C$DW$T$38, DW_AT_language(DW_LANG_C)
    1223              
    1224              $C$DW$98        .dwtag  DW_TAG_TI_far_type
    1225                      .dwattr $C$DW$98, DW_AT_type(*$C$DW$T$38)
    1226              
    1227              $C$DW$T$39      .dwtag  DW_TAG_const_type
    1228                      .dwattr $C$DW$T$39, DW_AT_type(*$C$DW$98)
    1229              
    1230              
    1231              $C$DW$T$40      .dwtag  DW_TAG_enumeration_type
    1232                      .dwattr $C$DW$T$40, DW_AT_byte_size(0x01)
    1233              $C$DW$99        .dwtag  DW_TAG_enumerator
    1234                      .dwattr $C$DW$99, DW_AT_name("CAP_SyncOut_SyncIn")
    1235                      .dwattr $C$DW$99, DW_AT_const_value(0x00)
    1236              
    1237              $C$DW$100       .dwtag  DW_TAG_enumerator
    1238                      .dwattr $C$DW$100, DW_AT_name("CAP_SyncOut_CTRPRD")
    1239                      .dwattr $C$DW$100, DW_AT_const_value(0x40)
    1240              
    1241              $C$DW$101       .dwtag  DW_TAG_enumerator
    1242                      .dwattr $C$DW$101, DW_AT_name("CAP_SyncOut_Disable")
    1243                      .dwattr $C$DW$101, DW_AT_const_value(0x80)
    1244              
    1245                      .dwendtag $C$DW$T$40
    1246              
    1247              $C$DW$T$41      .dwtag  DW_TAG_typedef
    1248                      .dwattr $C$DW$T$41, DW_AT_name("CAP_SyncOut_e")
    1249                      .dwattr $C$DW$T$41, DW_AT_type(*$C$DW$T$40)
    1250                      .dwattr $C$DW$T$41, DW_AT_language(DW_LANG_C)
    1251              
TMS320C2000 Assembler PC v15.12.3 Sun Oct 30 14:01:41 2016

Tools Copyright (c) 1996-2015 Texas Instruments Incorporated
C:\Users\MaCHaDo\AppData\Local\Temp\4410010                          PAGE   24

    1252              $C$DW$102       .dwtag  DW_TAG_TI_far_type
    1253                      .dwattr $C$DW$102, DW_AT_type(*$C$DW$T$41)
    1254              
    1255              $C$DW$T$42      .dwtag  DW_TAG_const_type
    1256                      .dwattr $C$DW$T$42, DW_AT_type(*$C$DW$102)
    1257              
    1258              
    1259              $C$DW$T$24      .dwtag  DW_TAG_structure_type
    1260                      .dwattr $C$DW$T$24, DW_AT_name("_CAP_Obj_")
    1261                      .dwattr $C$DW$T$24, DW_AT_byte_size(0x1a)
    1262              $C$DW$103       .dwtag  DW_TAG_member
    1263                      .dwattr $C$DW$103, DW_AT_type(*$C$DW$T$20)
    1264                      .dwattr $C$DW$103, DW_AT_name("TSCTR")
    1265                      .dwattr $C$DW$103, DW_AT_TI_symbol_name("_TSCTR")
    1266                      .dwattr $C$DW$103, DW_AT_data_member_location[DW_OP_plus_uconst 0x0]
    1267                      .dwattr $C$DW$103, DW_AT_accessibility(DW_ACCESS_public)
    1268              
    1269              $C$DW$104       .dwtag  DW_TAG_member
    1270                      .dwattr $C$DW$104, DW_AT_type(*$C$DW$T$20)
    1271                      .dwattr $C$DW$104, DW_AT_name("CTRPHS")
    1272                      .dwattr $C$DW$104, DW_AT_TI_symbol_name("_CTRPHS")
    1273                      .dwattr $C$DW$104, DW_AT_data_member_location[DW_OP_plus_uconst 0x2]
    1274                      .dwattr $C$DW$104, DW_AT_accessibility(DW_ACCESS_public)
    1275              
    1276              $C$DW$105       .dwtag  DW_TAG_member
    1277                      .dwattr $C$DW$105, DW_AT_type(*$C$DW$T$20)
    1278                      .dwattr $C$DW$105, DW_AT_name("CAP1")
    1279                      .dwattr $C$DW$105, DW_AT_TI_symbol_name("_CAP1")
    1280                      .dwattr $C$DW$105, DW_AT_data_member_location[DW_OP_plus_uconst 0x4]
    1281                      .dwattr $C$DW$105, DW_AT_accessibility(DW_ACCESS_public)
    1282              
    1283              $C$DW$106       .dwtag  DW_TAG_member
    1284                      .dwattr $C$DW$106, DW_AT_type(*$C$DW$T$20)
    1285                      .dwattr $C$DW$106, DW_AT_name("CAP2")
    1286                      .dwattr $C$DW$106, DW_AT_TI_symbol_name("_CAP2")
    1287                      .dwattr $C$DW$106, DW_AT_data_member_location[DW_OP_plus_uconst 0x6]
    1288                      .dwattr $C$DW$106, DW_AT_accessibility(DW_ACCESS_public)
    1289              
    1290              $C$DW$107       .dwtag  DW_TAG_member
    1291                      .dwattr $C$DW$107, DW_AT_type(*$C$DW$T$20)
    1292                      .dwattr $C$DW$107, DW_AT_name("CAP3")
    1293                      .dwattr $C$DW$107, DW_AT_TI_symbol_name("_CAP3")
    1294                      .dwattr $C$DW$107, DW_AT_data_member_location[DW_OP_plus_uconst 0x8]
    1295                      .dwattr $C$DW$107, DW_AT_accessibility(DW_ACCESS_public)
    1296              
    1297              $C$DW$108       .dwtag  DW_TAG_member
    1298                      .dwattr $C$DW$108, DW_AT_type(*$C$DW$T$20)
    1299                      .dwattr $C$DW$108, DW_AT_name("CAP4")
    1300                      .dwattr $C$DW$108, DW_AT_TI_symbol_name("_CAP4")
    1301                      .dwattr $C$DW$108, DW_AT_data_member_location[DW_OP_plus_uconst 0xa]
    1302                      .dwattr $C$DW$108, DW_AT_accessibility(DW_ACCESS_public)
    1303              
    1304              $C$DW$109       .dwtag  DW_TAG_member
    1305                      .dwattr $C$DW$109, DW_AT_type(*$C$DW$T$23)
    1306                      .dwattr $C$DW$109, DW_AT_name("Rsvd_1")
TMS320C2000 Assembler PC v15.12.3 Sun Oct 30 14:01:41 2016

Tools Copyright (c) 1996-2015 Texas Instruments Incorporated
C:\Users\MaCHaDo\AppData\Local\Temp\4410010                          PAGE   25

    1307                      .dwattr $C$DW$109, DW_AT_TI_symbol_name("_Rsvd_1")
    1308                      .dwattr $C$DW$109, DW_AT_data_member_location[DW_OP_plus_uconst 0xc]
    1309                      .dwattr $C$DW$109, DW_AT_accessibility(DW_ACCESS_public)
    1310              
    1311              $C$DW$110       .dwtag  DW_TAG_member
    1312                      .dwattr $C$DW$110, DW_AT_type(*$C$DW$T$22)
    1313                      .dwattr $C$DW$110, DW_AT_name("ECCTL1")
    1314                      .dwattr $C$DW$110, DW_AT_TI_symbol_name("_ECCTL1")
    1315                      .dwattr $C$DW$110, DW_AT_data_member_location[DW_OP_plus_uconst 0x14]
    1316                      .dwattr $C$DW$110, DW_AT_accessibility(DW_ACCESS_public)
    1317              
    1318              $C$DW$111       .dwtag  DW_TAG_member
    1319                      .dwattr $C$DW$111, DW_AT_type(*$C$DW$T$22)
    1320                      .dwattr $C$DW$111, DW_AT_name("ECCTL2")
    1321                      .dwattr $C$DW$111, DW_AT_TI_symbol_name("_ECCTL2")
    1322                      .dwattr $C$DW$111, DW_AT_data_member_location[DW_OP_plus_uconst 0x15]
    1323                      .dwattr $C$DW$111, DW_AT_accessibility(DW_ACCESS_public)
    1324              
    1325              $C$DW$112       .dwtag  DW_TAG_member
    1326                      .dwattr $C$DW$112, DW_AT_type(*$C$DW$T$22)
    1327                      .dwattr $C$DW$112, DW_AT_name("ECEINT")
    1328                      .dwattr $C$DW$112, DW_AT_TI_symbol_name("_ECEINT")
    1329                      .dwattr $C$DW$112, DW_AT_data_member_location[DW_OP_plus_uconst 0x16]
    1330                      .dwattr $C$DW$112, DW_AT_accessibility(DW_ACCESS_public)
    1331              
    1332              $C$DW$113       .dwtag  DW_TAG_member
    1333                      .dwattr $C$DW$113, DW_AT_type(*$C$DW$T$22)
    1334                      .dwattr $C$DW$113, DW_AT_name("ECEFLG")
    1335                      .dwattr $C$DW$113, DW_AT_TI_symbol_name("_ECEFLG")
    1336                      .dwattr $C$DW$113, DW_AT_data_member_location[DW_OP_plus_uconst 0x17]
    1337                      .dwattr $C$DW$113, DW_AT_accessibility(DW_ACCESS_public)
    1338              
    1339              $C$DW$114       .dwtag  DW_TAG_member
    1340                      .dwattr $C$DW$114, DW_AT_type(*$C$DW$T$22)
    1341                      .dwattr $C$DW$114, DW_AT_name("ECECLR")
    1342                      .dwattr $C$DW$114, DW_AT_TI_symbol_name("_ECECLR")
    1343                      .dwattr $C$DW$114, DW_AT_data_member_location[DW_OP_plus_uconst 0x18]
    1344                      .dwattr $C$DW$114, DW_AT_accessibility(DW_ACCESS_public)
    1345              
    1346              $C$DW$115       .dwtag  DW_TAG_member
    1347                      .dwattr $C$DW$115, DW_AT_type(*$C$DW$T$22)
    1348                      .dwattr $C$DW$115, DW_AT_name("ECEFRC")
    1349                      .dwattr $C$DW$115, DW_AT_TI_symbol_name("_ECEFRC")
    1350                      .dwattr $C$DW$115, DW_AT_data_member_location[DW_OP_plus_uconst 0x19]
    1351                      .dwattr $C$DW$115, DW_AT_accessibility(DW_ACCESS_public)
    1352              
    1353                      .dwendtag $C$DW$T$24
    1354              
    1355              $C$DW$T$43      .dwtag  DW_TAG_typedef
    1356                      .dwattr $C$DW$T$43, DW_AT_name("CAP_Obj")
    1357                      .dwattr $C$DW$T$43, DW_AT_type(*$C$DW$T$24)
    1358                      .dwattr $C$DW$T$43, DW_AT_language(DW_LANG_C)
    1359              
    1360              $C$DW$T$44      .dwtag  DW_TAG_pointer_type
    1361                      .dwattr $C$DW$T$44, DW_AT_type(*$C$DW$T$24)
TMS320C2000 Assembler PC v15.12.3 Sun Oct 30 14:01:41 2016

Tools Copyright (c) 1996-2015 Texas Instruments Incorporated
C:\Users\MaCHaDo\AppData\Local\Temp\4410010                          PAGE   26

    1362                      .dwattr $C$DW$T$44, DW_AT_address_class(0x20)
    1363              
    1364              $C$DW$T$45      .dwtag  DW_TAG_typedef
    1365                      .dwattr $C$DW$T$45, DW_AT_name("CAP_Handle")
    1366                      .dwattr $C$DW$T$45, DW_AT_type(*$C$DW$T$44)
    1367                      .dwattr $C$DW$T$45, DW_AT_language(DW_LANG_C)
    1368              
    1369              $C$DW$116       .dwtag  DW_TAG_TI_far_type
    1370                      .dwattr $C$DW$116, DW_AT_type(*$C$DW$T$45)
    1371              
    1372              $C$DW$T$46      .dwtag  DW_TAG_const_type
    1373                      .dwattr $C$DW$T$46, DW_AT_type(*$C$DW$116)
    1374              
    1375              $C$DW$T$2       .dwtag  DW_TAG_unspecified_type
    1376                      .dwattr $C$DW$T$2, DW_AT_name("void")
    1377              
    1378              $C$DW$T$3       .dwtag  DW_TAG_pointer_type
    1379                      .dwattr $C$DW$T$3, DW_AT_type(*$C$DW$T$2)
    1380                      .dwattr $C$DW$T$3, DW_AT_address_class(0x20)
    1381              
    1382              $C$DW$T$4       .dwtag  DW_TAG_base_type
    1383                      .dwattr $C$DW$T$4, DW_AT_encoding(DW_ATE_boolean)
    1384                      .dwattr $C$DW$T$4, DW_AT_name("bool")
    1385                      .dwattr $C$DW$T$4, DW_AT_byte_size(0x01)
    1386              
    1387              $C$DW$T$5       .dwtag  DW_TAG_base_type
    1388                      .dwattr $C$DW$T$5, DW_AT_encoding(DW_ATE_signed_char)
    1389                      .dwattr $C$DW$T$5, DW_AT_name("signed char")
    1390                      .dwattr $C$DW$T$5, DW_AT_byte_size(0x01)
    1391              
    1392              $C$DW$T$6       .dwtag  DW_TAG_base_type
    1393                      .dwattr $C$DW$T$6, DW_AT_encoding(DW_ATE_unsigned_char)
    1394                      .dwattr $C$DW$T$6, DW_AT_name("unsigned char")
    1395                      .dwattr $C$DW$T$6, DW_AT_byte_size(0x01)
    1396              
    1397              $C$DW$T$7       .dwtag  DW_TAG_base_type
    1398                      .dwattr $C$DW$T$7, DW_AT_encoding(DW_ATE_signed_char)
    1399                      .dwattr $C$DW$T$7, DW_AT_name("wchar_t")
    1400                      .dwattr $C$DW$T$7, DW_AT_byte_size(0x01)
    1401              
    1402              $C$DW$T$8       .dwtag  DW_TAG_base_type
    1403                      .dwattr $C$DW$T$8, DW_AT_encoding(DW_ATE_signed)
    1404                      .dwattr $C$DW$T$8, DW_AT_name("short")
    1405                      .dwattr $C$DW$T$8, DW_AT_byte_size(0x01)
    1406              
    1407              $C$DW$T$9       .dwtag  DW_TAG_base_type
    1408                      .dwattr $C$DW$T$9, DW_AT_encoding(DW_ATE_unsigned)
    1409                      .dwattr $C$DW$T$9, DW_AT_name("unsigned short")
    1410                      .dwattr $C$DW$T$9, DW_AT_byte_size(0x01)
    1411              
    1412              $C$DW$T$10      .dwtag  DW_TAG_base_type
    1413                      .dwattr $C$DW$T$10, DW_AT_encoding(DW_ATE_signed)
    1414                      .dwattr $C$DW$T$10, DW_AT_name("int")
    1415                      .dwattr $C$DW$T$10, DW_AT_byte_size(0x01)
    1416              
TMS320C2000 Assembler PC v15.12.3 Sun Oct 30 14:01:41 2016

Tools Copyright (c) 1996-2015 Texas Instruments Incorporated
C:\Users\MaCHaDo\AppData\Local\Temp\4410010                          PAGE   27

    1417              $C$DW$T$11      .dwtag  DW_TAG_base_type
    1418                      .dwattr $C$DW$T$11, DW_AT_encoding(DW_ATE_unsigned)
    1419                      .dwattr $C$DW$T$11, DW_AT_name("unsigned int")
    1420                      .dwattr $C$DW$T$11, DW_AT_byte_size(0x01)
    1421              
    1422              $C$DW$T$21      .dwtag  DW_TAG_typedef
    1423                      .dwattr $C$DW$T$21, DW_AT_name("uint16_t")
    1424                      .dwattr $C$DW$T$21, DW_AT_type(*$C$DW$T$11)
    1425                      .dwattr $C$DW$T$21, DW_AT_language(DW_LANG_C)
    1426              
    1427              $C$DW$117       .dwtag  DW_TAG_TI_far_type
    1428                      .dwattr $C$DW$117, DW_AT_type(*$C$DW$T$21)
    1429              
    1430              $C$DW$T$22      .dwtag  DW_TAG_volatile_type
    1431                      .dwattr $C$DW$T$22, DW_AT_type(*$C$DW$117)
    1432              
    1433              
    1434              $C$DW$T$23      .dwtag  DW_TAG_array_type
    1435                      .dwattr $C$DW$T$23, DW_AT_type(*$C$DW$T$22)
    1436                      .dwattr $C$DW$T$23, DW_AT_language(DW_LANG_C)
    1437                      .dwattr $C$DW$T$23, DW_AT_byte_size(0x08)
    1438              $C$DW$118       .dwtag  DW_TAG_subrange_type
    1439                      .dwattr $C$DW$118, DW_AT_upper_bound(0x07)
    1440              
    1441                      .dwendtag $C$DW$T$23
    1442              
    1443              $C$DW$T$12      .dwtag  DW_TAG_base_type
    1444                      .dwattr $C$DW$T$12, DW_AT_encoding(DW_ATE_signed)
    1445                      .dwattr $C$DW$T$12, DW_AT_name("long")
    1446                      .dwattr $C$DW$T$12, DW_AT_byte_size(0x02)
    1447              
    1448              $C$DW$T$13      .dwtag  DW_TAG_base_type
    1449                      .dwattr $C$DW$T$13, DW_AT_encoding(DW_ATE_unsigned)
    1450                      .dwattr $C$DW$T$13, DW_AT_name("unsigned long")
    1451                      .dwattr $C$DW$T$13, DW_AT_byte_size(0x02)
    1452              
    1453              $C$DW$T$47      .dwtag  DW_TAG_typedef
    1454                      .dwattr $C$DW$T$47, DW_AT_name("size_t")
    1455                      .dwattr $C$DW$T$47, DW_AT_type(*$C$DW$T$13)
    1456                      .dwattr $C$DW$T$47, DW_AT_language(DW_LANG_C)
    1457              
    1458              $C$DW$119       .dwtag  DW_TAG_TI_far_type
    1459                      .dwattr $C$DW$119, DW_AT_type(*$C$DW$T$47)
    1460              
    1461              $C$DW$T$48      .dwtag  DW_TAG_const_type
    1462                      .dwattr $C$DW$T$48, DW_AT_type(*$C$DW$119)
    1463              
    1464              $C$DW$T$19      .dwtag  DW_TAG_typedef
    1465                      .dwattr $C$DW$T$19, DW_AT_name("uint32_t")
    1466                      .dwattr $C$DW$T$19, DW_AT_type(*$C$DW$T$13)
    1467                      .dwattr $C$DW$T$19, DW_AT_language(DW_LANG_C)
    1468              
    1469              $C$DW$120       .dwtag  DW_TAG_TI_far_type
    1470                      .dwattr $C$DW$120, DW_AT_type(*$C$DW$T$19)
    1471              
TMS320C2000 Assembler PC v15.12.3 Sun Oct 30 14:01:41 2016

Tools Copyright (c) 1996-2015 Texas Instruments Incorporated
C:\Users\MaCHaDo\AppData\Local\Temp\4410010                          PAGE   28

    1472              $C$DW$T$20      .dwtag  DW_TAG_volatile_type
    1473                      .dwattr $C$DW$T$20, DW_AT_type(*$C$DW$120)
    1474              
    1475              $C$DW$T$14      .dwtag  DW_TAG_base_type
    1476                      .dwattr $C$DW$T$14, DW_AT_encoding(DW_ATE_signed)
    1477                      .dwattr $C$DW$T$14, DW_AT_name("long long")
    1478                      .dwattr $C$DW$T$14, DW_AT_byte_size(0x04)
    1479              
    1480              $C$DW$T$15      .dwtag  DW_TAG_base_type
    1481                      .dwattr $C$DW$T$15, DW_AT_encoding(DW_ATE_unsigned)
    1482                      .dwattr $C$DW$T$15, DW_AT_name("unsigned long long")
    1483                      .dwattr $C$DW$T$15, DW_AT_byte_size(0x04)
    1484              
    1485              $C$DW$T$16      .dwtag  DW_TAG_base_type
    1486                      .dwattr $C$DW$T$16, DW_AT_encoding(DW_ATE_float)
    1487                      .dwattr $C$DW$T$16, DW_AT_name("float")
    1488                      .dwattr $C$DW$T$16, DW_AT_byte_size(0x02)
    1489              
    1490              $C$DW$T$17      .dwtag  DW_TAG_base_type
    1491                      .dwattr $C$DW$T$17, DW_AT_encoding(DW_ATE_float)
    1492                      .dwattr $C$DW$T$17, DW_AT_name("double")
    1493                      .dwattr $C$DW$T$17, DW_AT_byte_size(0x02)
    1494              
    1495              $C$DW$T$18      .dwtag  DW_TAG_base_type
    1496                      .dwattr $C$DW$T$18, DW_AT_encoding(DW_ATE_float)
    1497                      .dwattr $C$DW$T$18, DW_AT_name("long double")
    1498                      .dwattr $C$DW$T$18, DW_AT_byte_size(0x04)
    1499              
    1500                      .dwattr $C$DW$CU, DW_AT_language(DW_LANG_C)
    1501              
    1502              ;***************************************************************
    1503              ;* DWARF CIE ENTRIES                                           *
    1504              ;***************************************************************
    1505              
    1506              $C$DW$CIE       .dwcie 26
    1507                      .dwcfi  cfa_register, 20
    1508                      .dwcfi  cfa_offset, 0
    1509                      .dwcfi  undefined, 0
    1510                      .dwcfi  undefined, 1
    1511                      .dwcfi  undefined, 2
    1512                      .dwcfi  undefined, 3
    1513                      .dwcfi  undefined, 20
    1514                      .dwcfi  undefined, 21
    1515                      .dwcfi  undefined, 22
    1516                      .dwcfi  undefined, 23
    1517                      .dwcfi  undefined, 24
    1518                      .dwcfi  undefined, 25
    1519                      .dwcfi  undefined, 26
    1520                      .dwcfi  same_value, 28
    1521                      .dwcfi  undefined, 29
    1522                      .dwcfi  undefined, 30
    1523                      .dwcfi  undefined, 31
    1524                      .dwcfi  undefined, 32
    1525                      .dwcfi  undefined, 33
    1526                      .dwcfi  undefined, 34
TMS320C2000 Assembler PC v15.12.3 Sun Oct 30 14:01:41 2016

Tools Copyright (c) 1996-2015 Texas Instruments Incorporated
C:\Users\MaCHaDo\AppData\Local\Temp\4410010                          PAGE   29

    1527                      .dwcfi  undefined, 35
    1528                      .dwcfi  undefined, 36
    1529                      .dwcfi  undefined, 37
    1530                      .dwcfi  undefined, 38
    1531                      .dwcfi  undefined, 75
    1532                      .dwcfi  undefined, 76
    1533                      .dwcfi  undefined, 77
    1534                      .dwcfi  undefined, 4
    1535                      .dwcfi  undefined, 5
    1536                      .dwcfi  same_value, 6
    1537                      .dwcfi  same_value, 7
    1538                      .dwcfi  same_value, 8
    1539                      .dwcfi  same_value, 9
    1540                      .dwcfi  same_value, 10
    1541                      .dwcfi  same_value, 11
    1542                      .dwcfi  undefined, 12
    1543                      .dwcfi  undefined, 13
    1544                      .dwcfi  undefined, 14
    1545                      .dwcfi  undefined, 15
    1546                      .dwcfi  undefined, 16
    1547                      .dwcfi  undefined, 17
    1548                      .dwcfi  undefined, 18
    1549                      .dwcfi  undefined, 19
    1550                      .dwendentry
    1551              
    1552              ;***************************************************************
    1553              ;* DWARF REGISTER MAP                                          *
    1554              ;***************************************************************
    1555              
    1556              $C$DW$121       .dwtag  DW_TAG_TI_assign_register
    1557                      .dwattr $C$DW$121, DW_AT_name("AL")
    1558                      .dwattr $C$DW$121, DW_AT_location[DW_OP_reg0]
    1559              
    1560              $C$DW$122       .dwtag  DW_TAG_TI_assign_register
    1561                      .dwattr $C$DW$122, DW_AT_name("AH")
    1562                      .dwattr $C$DW$122, DW_AT_location[DW_OP_reg1]
    1563              
    1564              $C$DW$123       .dwtag  DW_TAG_TI_assign_register
    1565                      .dwattr $C$DW$123, DW_AT_name("PL")
    1566                      .dwattr $C$DW$123, DW_AT_location[DW_OP_reg2]
    1567              
    1568              $C$DW$124       .dwtag  DW_TAG_TI_assign_register
    1569                      .dwattr $C$DW$124, DW_AT_name("PH")
    1570                      .dwattr $C$DW$124, DW_AT_location[DW_OP_reg3]
    1571              
    1572              $C$DW$125       .dwtag  DW_TAG_TI_assign_register
    1573                      .dwattr $C$DW$125, DW_AT_name("SP")
    1574                      .dwattr $C$DW$125, DW_AT_location[DW_OP_reg20]
    1575              
    1576              $C$DW$126       .dwtag  DW_TAG_TI_assign_register
    1577                      .dwattr $C$DW$126, DW_AT_name("XT")
    1578                      .dwattr $C$DW$126, DW_AT_location[DW_OP_reg21]
    1579              
    1580              $C$DW$127       .dwtag  DW_TAG_TI_assign_register
    1581                      .dwattr $C$DW$127, DW_AT_name("T")
TMS320C2000 Assembler PC v15.12.3 Sun Oct 30 14:01:41 2016

Tools Copyright (c) 1996-2015 Texas Instruments Incorporated
C:\Users\MaCHaDo\AppData\Local\Temp\4410010                          PAGE   30

    1582                      .dwattr $C$DW$127, DW_AT_location[DW_OP_reg22]
    1583              
    1584              $C$DW$128       .dwtag  DW_TAG_TI_assign_register
    1585                      .dwattr $C$DW$128, DW_AT_name("ST0")
    1586                      .dwattr $C$DW$128, DW_AT_location[DW_OP_reg23]
    1587              
    1588              $C$DW$129       .dwtag  DW_TAG_TI_assign_register
    1589                      .dwattr $C$DW$129, DW_AT_name("ST1")
    1590                      .dwattr $C$DW$129, DW_AT_location[DW_OP_reg24]
    1591              
    1592              $C$DW$130       .dwtag  DW_TAG_TI_assign_register
    1593                      .dwattr $C$DW$130, DW_AT_name("PC")
    1594                      .dwattr $C$DW$130, DW_AT_location[DW_OP_reg25]
    1595              
    1596              $C$DW$131       .dwtag  DW_TAG_TI_assign_register
    1597                      .dwattr $C$DW$131, DW_AT_name("RPC")
    1598                      .dwattr $C$DW$131, DW_AT_location[DW_OP_reg26]
    1599              
    1600              $C$DW$132       .dwtag  DW_TAG_TI_assign_register
    1601                      .dwattr $C$DW$132, DW_AT_name("FP")
    1602                      .dwattr $C$DW$132, DW_AT_location[DW_OP_reg28]
    1603              
    1604              $C$DW$133       .dwtag  DW_TAG_TI_assign_register
    1605                      .dwattr $C$DW$133, DW_AT_name("DP")
    1606                      .dwattr $C$DW$133, DW_AT_location[DW_OP_reg29]
    1607              
    1608              $C$DW$134       .dwtag  DW_TAG_TI_assign_register
    1609                      .dwattr $C$DW$134, DW_AT_name("SXM")
    1610                      .dwattr $C$DW$134, DW_AT_location[DW_OP_reg30]
    1611              
    1612              $C$DW$135       .dwtag  DW_TAG_TI_assign_register
    1613                      .dwattr $C$DW$135, DW_AT_name("PM")
    1614                      .dwattr $C$DW$135, DW_AT_location[DW_OP_reg31]
    1615              
    1616              $C$DW$136       .dwtag  DW_TAG_TI_assign_register
    1617                      .dwattr $C$DW$136, DW_AT_name("OVM")
    1618                      .dwattr $C$DW$136, DW_AT_location[DW_OP_regx 0x20]
    1619              
    1620              $C$DW$137       .dwtag  DW_TAG_TI_assign_register
    1621                      .dwattr $C$DW$137, DW_AT_name("PAGE0")
    1622                      .dwattr $C$DW$137, DW_AT_location[DW_OP_regx 0x21]
    1623              
    1624              $C$DW$138       .dwtag  DW_TAG_TI_assign_register
    1625                      .dwattr $C$DW$138, DW_AT_name("AMODE")
    1626                      .dwattr $C$DW$138, DW_AT_location[DW_OP_regx 0x22]
    1627              
    1628              $C$DW$139       .dwtag  DW_TAG_TI_assign_register
    1629                      .dwattr $C$DW$139, DW_AT_name("INTM")
    1630                      .dwattr $C$DW$139, DW_AT_location[DW_OP_regx 0x23]
    1631              
    1632              $C$DW$140       .dwtag  DW_TAG_TI_assign_register
    1633                      .dwattr $C$DW$140, DW_AT_name("IFR")
    1634                      .dwattr $C$DW$140, DW_AT_location[DW_OP_regx 0x24]
    1635              
    1636              $C$DW$141       .dwtag  DW_TAG_TI_assign_register
TMS320C2000 Assembler PC v15.12.3 Sun Oct 30 14:01:41 2016

Tools Copyright (c) 1996-2015 Texas Instruments Incorporated
C:\Users\MaCHaDo\AppData\Local\Temp\4410010                          PAGE   31

    1637                      .dwattr $C$DW$141, DW_AT_name("IER")
    1638                      .dwattr $C$DW$141, DW_AT_location[DW_OP_regx 0x25]
    1639              
    1640              $C$DW$142       .dwtag  DW_TAG_TI_assign_register
    1641                      .dwattr $C$DW$142, DW_AT_name("V")
    1642                      .dwattr $C$DW$142, DW_AT_location[DW_OP_regx 0x26]
    1643              
    1644              $C$DW$143       .dwtag  DW_TAG_TI_assign_register
    1645                      .dwattr $C$DW$143, DW_AT_name("PSEUDOH")
    1646                      .dwattr $C$DW$143, DW_AT_location[DW_OP_regx 0x4c]
    1647              
    1648              $C$DW$144       .dwtag  DW_TAG_TI_assign_register
    1649                      .dwattr $C$DW$144, DW_AT_name("VOL")
    1650                      .dwattr $C$DW$144, DW_AT_location[DW_OP_regx 0x4d]
    1651              
    1652              $C$DW$145       .dwtag  DW_TAG_TI_assign_register
    1653                      .dwattr $C$DW$145, DW_AT_name("AR0")
    1654                      .dwattr $C$DW$145, DW_AT_location[DW_OP_reg4]
    1655              
    1656              $C$DW$146       .dwtag  DW_TAG_TI_assign_register
    1657                      .dwattr $C$DW$146, DW_AT_name("XAR0")
    1658                      .dwattr $C$DW$146, DW_AT_location[DW_OP_reg5]
    1659              
    1660              $C$DW$147       .dwtag  DW_TAG_TI_assign_register
    1661                      .dwattr $C$DW$147, DW_AT_name("AR1")
    1662                      .dwattr $C$DW$147, DW_AT_location[DW_OP_reg6]
    1663              
    1664              $C$DW$148       .dwtag  DW_TAG_TI_assign_register
    1665                      .dwattr $C$DW$148, DW_AT_name("XAR1")
    1666                      .dwattr $C$DW$148, DW_AT_location[DW_OP_reg7]
    1667              
    1668              $C$DW$149       .dwtag  DW_TAG_TI_assign_register
    1669                      .dwattr $C$DW$149, DW_AT_name("AR2")
    1670                      .dwattr $C$DW$149, DW_AT_location[DW_OP_reg8]
    1671              
    1672              $C$DW$150       .dwtag  DW_TAG_TI_assign_register
    1673                      .dwattr $C$DW$150, DW_AT_name("XAR2")
    1674                      .dwattr $C$DW$150, DW_AT_location[DW_OP_reg9]
    1675              
    1676              $C$DW$151       .dwtag  DW_TAG_TI_assign_register
    1677                      .dwattr $C$DW$151, DW_AT_name("AR3")
    1678                      .dwattr $C$DW$151, DW_AT_location[DW_OP_reg10]
    1679              
    1680              $C$DW$152       .dwtag  DW_TAG_TI_assign_register
    1681                      .dwattr $C$DW$152, DW_AT_name("XAR3")
    1682                      .dwattr $C$DW$152, DW_AT_location[DW_OP_reg11]
    1683              
    1684              $C$DW$153       .dwtag  DW_TAG_TI_assign_register
    1685                      .dwattr $C$DW$153, DW_AT_name("AR4")
    1686                      .dwattr $C$DW$153, DW_AT_location[DW_OP_reg12]
    1687              
    1688              $C$DW$154       .dwtag  DW_TAG_TI_assign_register
    1689                      .dwattr $C$DW$154, DW_AT_name("XAR4")
    1690                      .dwattr $C$DW$154, DW_AT_location[DW_OP_reg13]
    1691              
TMS320C2000 Assembler PC v15.12.3 Sun Oct 30 14:01:41 2016

Tools Copyright (c) 1996-2015 Texas Instruments Incorporated
C:\Users\MaCHaDo\AppData\Local\Temp\4410010                          PAGE   32

    1692              $C$DW$155       .dwtag  DW_TAG_TI_assign_register
    1693                      .dwattr $C$DW$155, DW_AT_name("AR5")
    1694                      .dwattr $C$DW$155, DW_AT_location[DW_OP_reg14]
    1695              
    1696              $C$DW$156       .dwtag  DW_TAG_TI_assign_register
    1697                      .dwattr $C$DW$156, DW_AT_name("XAR5")
    1698                      .dwattr $C$DW$156, DW_AT_location[DW_OP_reg15]
    1699              
    1700              $C$DW$157       .dwtag  DW_TAG_TI_assign_register
    1701                      .dwattr $C$DW$157, DW_AT_name("AR6")
    1702                      .dwattr $C$DW$157, DW_AT_location[DW_OP_reg16]
    1703              
    1704              $C$DW$158       .dwtag  DW_TAG_TI_assign_register
    1705                      .dwattr $C$DW$158, DW_AT_name("XAR6")
    1706                      .dwattr $C$DW$158, DW_AT_location[DW_OP_reg17]
    1707              
    1708              $C$DW$159       .dwtag  DW_TAG_TI_assign_register
    1709                      .dwattr $C$DW$159, DW_AT_name("AR7")
    1710                      .dwattr $C$DW$159, DW_AT_location[DW_OP_reg18]
    1711              
    1712              $C$DW$160       .dwtag  DW_TAG_TI_assign_register
    1713                      .dwattr $C$DW$160, DW_AT_name("XAR7")
    1714                      .dwattr $C$DW$160, DW_AT_location[DW_OP_reg19]
    1715              
    1716                      .dwendtag $C$DW$CU
    1717              

No Assembly Errors, No Assembly Warnings
