TMS320C2000 Assembler PC v15.12.3 Sun Oct 30 14:01:42 2016

Tools Copyright (c) 1996-2015 Texas Instruments Incorporated
C:\Users\MaCHaDo\AppData\Local\Temp\4588011                          PAGE    1

       1              ;***************************************************************
       2              ;* TMS320C2000 C/C++ Codegen                   PC v15.12.3.LTS *
       3              ;* Date/Time created: Sun Oct 30 14:01:42 2016                 *
       4              ;***************************************************************
       5                      .compiler_opts --abi=coffabi --float_support=softlib --hll_source=on --mem_model:code=flat --mem_mode
       6        0002  FP      .set    XAR2
       7              
       8              $C$DW$CU        .dwtag  DW_TAG_compile_unit
       9                      .dwattr $C$DW$CU, DW_AT_name("../drivers/source/clk.c")
      10                      .dwattr $C$DW$CU, DW_AT_producer("TI TMS320C2000 C/C++ Codegen PC v15.12.3.LTS Copyright (c) 1996-201
      11                      .dwattr $C$DW$CU, DW_AT_TI_version(0x01)
      12                      .dwattr $C$DW$CU, DW_AT_comp_dir("D:\Users\MaCHaDo\Documents\GitHub\LegStrong\Debug")
      13              ;       C:\ti\ccsv6\tools\compiler\c2000_15.12.3.LTS\bin\opt2000.exe C:\\Users\\MaCHaDo\\AppData\\Local\\Temp
      14              ;       C:\ti\ccsv6\tools\compiler\c2000_15.12.3.LTS\bin\ac2000.exe -@C:\\Users\\MaCHaDo\\AppData\\Local\\Tem
      15 00000000               .sect   ".text"
      16                      .clink
      17                      .global _CLK_setXClkInSrc
      18              
      19              $C$DW$1 .dwtag  DW_TAG_subprogram
      20                      .dwattr $C$DW$1, DW_AT_name("CLK_setXClkInSrc")
      21                      .dwattr $C$DW$1, DW_AT_low_pc(_CLK_setXClkInSrc)
      22                      .dwattr $C$DW$1, DW_AT_high_pc(0x00)
      23                      .dwattr $C$DW$1, DW_AT_TI_symbol_name("_CLK_setXClkInSrc")
      24                      .dwattr $C$DW$1, DW_AT_external
      25                      .dwattr $C$DW$1, DW_AT_TI_begin_file("../drivers/source/clk.c")
      26                      .dwattr $C$DW$1, DW_AT_TI_begin_line(0x2cf)
      27                      .dwattr $C$DW$1, DW_AT_TI_begin_column(0x06)
      28                      .dwattr $C$DW$1, DW_AT_TI_max_frame_size(-2)
      29                      .dwpsn  file "../drivers/source/clk.c",line 720,column 1,is_stmt,address _CLK_setXClkInSrc,isa 0
      30              
      31                      .dwfde $C$DW$CIE, _CLK_setXClkInSrc
      32              $C$DW$2 .dwtag  DW_TAG_formal_parameter
      33                      .dwattr $C$DW$2, DW_AT_name("clkHandle")
      34                      .dwattr $C$DW$2, DW_AT_TI_symbol_name("_clkHandle")
      35                      .dwattr $C$DW$2, DW_AT_type(*$C$DW$T$59)
      36                      .dwattr $C$DW$2, DW_AT_location[DW_OP_reg12]
      37              
      38              $C$DW$3 .dwtag  DW_TAG_formal_parameter
      39                      .dwattr $C$DW$3, DW_AT_name("src")
      40                      .dwattr $C$DW$3, DW_AT_TI_symbol_name("_src")
      41                      .dwattr $C$DW$3, DW_AT_type(*$C$DW$T$47)
      42                      .dwattr $C$DW$3, DW_AT_location[DW_OP_reg0]
      43              
      44              
      45              ;***************************************************************
      46              ;* FNAME: _CLK_setXClkInSrc             FR SIZE:   0           *
      47              ;*                                                             *
      48              ;* FUNCTION ENVIRONMENT                                        *
      49              ;*                                                             *
      50              ;* FUNCTION PROPERTIES                                         *
      51              ;*                            0 Parameter,  0 Auto,  0 SOE     *
      52              ;***************************************************************
      53              
      54              _CLK_setXClkInSrc:
      55              ;* AR4   assigned to _clkHandle
TMS320C2000 Assembler PC v15.12.3 Sun Oct 30 14:01:42 2016

Tools Copyright (c) 1996-2015 Texas Instruments Incorporated
C:\Users\MaCHaDo\AppData\Local\Temp\4588011                          PAGE    2

      56              $C$DW$4 .dwtag  DW_TAG_variable
      57                      .dwattr $C$DW$4, DW_AT_name("clkHandle")
      58                      .dwattr $C$DW$4, DW_AT_TI_symbol_name("_clkHandle")
      59                      .dwattr $C$DW$4, DW_AT_type(*$C$DW$T$60)
      60                      .dwattr $C$DW$4, DW_AT_location[DW_OP_reg12]
      61              
      62              ;* AL    assigned to _src
      63              $C$DW$5 .dwtag  DW_TAG_variable
      64                      .dwattr $C$DW$5, DW_AT_name("src")
      65                      .dwattr $C$DW$5, DW_AT_TI_symbol_name("_src")
      66                      .dwattr $C$DW$5, DW_AT_type(*$C$DW$T$47)
      67                      .dwattr $C$DW$5, DW_AT_location[DW_OP_reg0]
      68              
      69                      .dwcfi  cfa_offset, -2
      70                      .dwcfi  save_reg_to_mem, 26, 0
      71 00000000 7622   EALLOW
      72                      .dwpsn  file "../drivers/source/clk.c",line 726,column 2,is_stmt,isa 0
      73 00000001 18C4          AND       *+XAR4[0],#0xffbf     ; [CPU_] |726| 
         00000002 FFBF 
      74                      .dwpsn  file "../drivers/source/clk.c",line 729,column 2,is_stmt,isa 0
      75 00000003 98C4          OR        *+XAR4[0],AL          ; [CPU_] |729| 
      76 00000004 761A   EDIS
      77 00000005 FF69          SPM       #0                    ; [CPU_] 
      78              $C$DW$6 .dwtag  DW_TAG_TI_branch
      79                      .dwattr $C$DW$6, DW_AT_low_pc(0x00)
      80                      .dwattr $C$DW$6, DW_AT_TI_return
      81              
      82 00000006 0006          LRETR     ; [CPU_] 
      83                      ; return occurs ; [] 
      84                      .dwattr $C$DW$1, DW_AT_TI_end_file("../drivers/source/clk.c")
      85                      .dwattr $C$DW$1, DW_AT_TI_end_line(0x2de)
      86                      .dwattr $C$DW$1, DW_AT_TI_end_column(0x01)
      87                      .dwendentry
      88                      .dwendtag $C$DW$1
      89              
      90 00000007               .sect   ".text"
      91                      .clink
      92                      .global _CLK_setWatchDogSrc
      93              
      94              $C$DW$7 .dwtag  DW_TAG_subprogram
      95                      .dwattr $C$DW$7, DW_AT_name("CLK_setWatchDogSrc")
      96                      .dwattr $C$DW$7, DW_AT_low_pc(_CLK_setWatchDogSrc)
      97                      .dwattr $C$DW$7, DW_AT_high_pc(0x00)
      98                      .dwattr $C$DW$7, DW_AT_TI_symbol_name("_CLK_setWatchDogSrc")
      99                      .dwattr $C$DW$7, DW_AT_external
     100                      .dwattr $C$DW$7, DW_AT_TI_begin_file("../drivers/source/clk.c")
     101                      .dwattr $C$DW$7, DW_AT_TI_begin_line(0x308)
     102                      .dwattr $C$DW$7, DW_AT_TI_begin_column(0x06)
     103                      .dwattr $C$DW$7, DW_AT_TI_max_frame_size(-2)
     104                      .dwpsn  file "../drivers/source/clk.c",line 777,column 1,is_stmt,address _CLK_setWatchDogSrc,isa 0
     105              
     106                      .dwfde $C$DW$CIE, _CLK_setWatchDogSrc
     107              $C$DW$8 .dwtag  DW_TAG_formal_parameter
     108                      .dwattr $C$DW$8, DW_AT_name("clkHandle")
     109                      .dwattr $C$DW$8, DW_AT_TI_symbol_name("_clkHandle")
TMS320C2000 Assembler PC v15.12.3 Sun Oct 30 14:01:42 2016

Tools Copyright (c) 1996-2015 Texas Instruments Incorporated
C:\Users\MaCHaDo\AppData\Local\Temp\4588011                          PAGE    3

     110                      .dwattr $C$DW$8, DW_AT_type(*$C$DW$T$59)
     111                      .dwattr $C$DW$8, DW_AT_location[DW_OP_reg12]
     112              
     113              $C$DW$9 .dwtag  DW_TAG_formal_parameter
     114                      .dwattr $C$DW$9, DW_AT_name("src")
     115                      .dwattr $C$DW$9, DW_AT_TI_symbol_name("_src")
     116                      .dwattr $C$DW$9, DW_AT_type(*$C$DW$T$56)
     117                      .dwattr $C$DW$9, DW_AT_location[DW_OP_reg0]
     118              
     119              
     120              ;***************************************************************
     121              ;* FNAME: _CLK_setWatchDogSrc           FR SIZE:   0           *
     122              ;*                                                             *
     123              ;* FUNCTION ENVIRONMENT                                        *
     124              ;*                                                             *
     125              ;* FUNCTION PROPERTIES                                         *
     126              ;*                            0 Parameter,  0 Auto,  0 SOE     *
     127              ;***************************************************************
     128              
     129              _CLK_setWatchDogSrc:
     130              ;* AR4   assigned to _clkHandle
     131              $C$DW$10        .dwtag  DW_TAG_variable
     132                      .dwattr $C$DW$10, DW_AT_name("clkHandle")
     133                      .dwattr $C$DW$10, DW_AT_TI_symbol_name("_clkHandle")
     134                      .dwattr $C$DW$10, DW_AT_type(*$C$DW$T$60)
     135                      .dwattr $C$DW$10, DW_AT_location[DW_OP_reg12]
     136              
     137              ;* AL    assigned to _src
     138              $C$DW$11        .dwtag  DW_TAG_variable
     139                      .dwattr $C$DW$11, DW_AT_name("src")
     140                      .dwattr $C$DW$11, DW_AT_TI_symbol_name("_src")
     141                      .dwattr $C$DW$11, DW_AT_type(*$C$DW$T$56)
     142                      .dwattr $C$DW$11, DW_AT_location[DW_OP_reg0]
     143              
     144                      .dwcfi  cfa_offset, -2
     145                      .dwcfi  save_reg_to_mem, 26, 0
     146 00000007 7622   EALLOW
     147                      .dwpsn  file "../drivers/source/clk.c",line 784,column 3,is_stmt,isa 0
     148 00000008 18D4          AND       *+XAR4[2],#0xfffb     ; [CPU_] |784| 
         00000009 FFFB 
     149                      .dwpsn  file "../drivers/source/clk.c",line 787,column 3,is_stmt,isa 0
     150 0000000a 98D4          OR        *+XAR4[2],AL          ; [CPU_] |787| 
     151 0000000b 761A   EDIS
     152 0000000c FF69          SPM       #0                    ; [CPU_] 
     153              $C$DW$12        .dwtag  DW_TAG_TI_branch
     154                      .dwattr $C$DW$12, DW_AT_low_pc(0x00)
     155                      .dwattr $C$DW$12, DW_AT_TI_return
     156              
     157 0000000d 0006          LRETR     ; [CPU_] 
     158                      ; return occurs ; [] 
     159                      .dwattr $C$DW$7, DW_AT_TI_end_file("../drivers/source/clk.c")
     160                      .dwattr $C$DW$7, DW_AT_TI_end_line(0x318)
     161                      .dwattr $C$DW$7, DW_AT_TI_end_column(0x01)
     162                      .dwendentry
     163                      .dwendtag $C$DW$7
TMS320C2000 Assembler PC v15.12.3 Sun Oct 30 14:01:42 2016

Tools Copyright (c) 1996-2015 Texas Instruments Incorporated
C:\Users\MaCHaDo\AppData\Local\Temp\4588011                          PAGE    4

     164              
     165 0000000e               .sect   ".text"
     166                      .clink
     167                      .global _CLK_setTimer2Src
     168              
     169              $C$DW$13        .dwtag  DW_TAG_subprogram
     170                      .dwattr $C$DW$13, DW_AT_name("CLK_setTimer2Src")
     171                      .dwattr $C$DW$13, DW_AT_low_pc(_CLK_setTimer2Src)
     172                      .dwattr $C$DW$13, DW_AT_high_pc(0x00)
     173                      .dwattr $C$DW$13, DW_AT_TI_symbol_name("_CLK_setTimer2Src")
     174                      .dwattr $C$DW$13, DW_AT_external
     175                      .dwattr $C$DW$13, DW_AT_TI_begin_file("../drivers/source/clk.c")
     176                      .dwattr $C$DW$13, DW_AT_TI_begin_line(0x2f5)
     177                      .dwattr $C$DW$13, DW_AT_TI_begin_column(0x06)
     178                      .dwattr $C$DW$13, DW_AT_TI_max_frame_size(-2)
     179                      .dwpsn  file "../drivers/source/clk.c",line 758,column 1,is_stmt,address _CLK_setTimer2Src,isa 0
     180              
     181                      .dwfde $C$DW$CIE, _CLK_setTimer2Src
     182              $C$DW$14        .dwtag  DW_TAG_formal_parameter
     183                      .dwattr $C$DW$14, DW_AT_name("clkHandle")
     184                      .dwattr $C$DW$14, DW_AT_TI_symbol_name("_clkHandle")
     185                      .dwattr $C$DW$14, DW_AT_type(*$C$DW$T$59)
     186                      .dwattr $C$DW$14, DW_AT_location[DW_OP_reg12]
     187              
     188              $C$DW$15        .dwtag  DW_TAG_formal_parameter
     189                      .dwattr $C$DW$15, DW_AT_name("src")
     190                      .dwattr $C$DW$15, DW_AT_TI_symbol_name("_src")
     191                      .dwattr $C$DW$15, DW_AT_type(*$C$DW$T$53)
     192                      .dwattr $C$DW$15, DW_AT_location[DW_OP_reg0]
     193              
     194              
     195              ;***************************************************************
     196              ;* FNAME: _CLK_setTimer2Src             FR SIZE:   0           *
     197              ;*                                                             *
     198              ;* FUNCTION ENVIRONMENT                                        *
     199              ;*                                                             *
     200              ;* FUNCTION PROPERTIES                                         *
     201              ;*                            0 Parameter,  0 Auto,  0 SOE     *
     202              ;***************************************************************
     203              
     204              _CLK_setTimer2Src:
     205              ;* AR4   assigned to _clkHandle
     206              $C$DW$16        .dwtag  DW_TAG_variable
     207                      .dwattr $C$DW$16, DW_AT_name("clkHandle")
     208                      .dwattr $C$DW$16, DW_AT_TI_symbol_name("_clkHandle")
     209                      .dwattr $C$DW$16, DW_AT_type(*$C$DW$T$60)
     210                      .dwattr $C$DW$16, DW_AT_location[DW_OP_reg12]
     211              
     212              ;* AL    assigned to _src
     213              $C$DW$17        .dwtag  DW_TAG_variable
     214                      .dwattr $C$DW$17, DW_AT_name("src")
     215                      .dwattr $C$DW$17, DW_AT_TI_symbol_name("_src")
     216                      .dwattr $C$DW$17, DW_AT_type(*$C$DW$T$53)
     217                      .dwattr $C$DW$17, DW_AT_location[DW_OP_reg0]
     218              
TMS320C2000 Assembler PC v15.12.3 Sun Oct 30 14:01:42 2016

Tools Copyright (c) 1996-2015 Texas Instruments Incorporated
C:\Users\MaCHaDo\AppData\Local\Temp\4588011                          PAGE    5

     219                      .dwcfi  cfa_offset, -2
     220                      .dwcfi  save_reg_to_mem, 26, 0
     221 0000000e 7622   EALLOW
     222                      .dwpsn  file "../drivers/source/clk.c",line 765,column 3,is_stmt,isa 0
     223 0000000f 18D4          AND       *+XAR4[2],#0xffe7     ; [CPU_] |765| 
         00000010 FFE7 
     224                      .dwpsn  file "../drivers/source/clk.c",line 768,column 3,is_stmt,isa 0
     225 00000011 98D4          OR        *+XAR4[2],AL          ; [CPU_] |768| 
     226 00000012 761A   EDIS
     227 00000013 FF69          SPM       #0                    ; [CPU_] 
     228              $C$DW$18        .dwtag  DW_TAG_TI_branch
     229                      .dwattr $C$DW$18, DW_AT_low_pc(0x00)
     230                      .dwattr $C$DW$18, DW_AT_TI_return
     231              
     232 00000014 0006          LRETR     ; [CPU_] 
     233                      ; return occurs ; [] 
     234                      .dwattr $C$DW$13, DW_AT_TI_end_file("../drivers/source/clk.c")
     235                      .dwattr $C$DW$13, DW_AT_TI_end_line(0x305)
     236                      .dwattr $C$DW$13, DW_AT_TI_end_column(0x01)
     237                      .dwendentry
     238                      .dwendtag $C$DW$13
     239              
     240 00000015               .sect   ".text"
     241                      .clink
     242                      .global _CLK_setTimer2PreScale
     243              
     244              $C$DW$19        .dwtag  DW_TAG_subprogram
     245                      .dwattr $C$DW$19, DW_AT_name("CLK_setTimer2PreScale")
     246                      .dwattr $C$DW$19, DW_AT_low_pc(_CLK_setTimer2PreScale)
     247                      .dwattr $C$DW$19, DW_AT_high_pc(0x00)
     248                      .dwattr $C$DW$19, DW_AT_TI_symbol_name("_CLK_setTimer2PreScale")
     249                      .dwattr $C$DW$19, DW_AT_external
     250                      .dwattr $C$DW$19, DW_AT_TI_begin_file("../drivers/source/clk.c")
     251                      .dwattr $C$DW$19, DW_AT_TI_begin_line(0x2e1)
     252                      .dwattr $C$DW$19, DW_AT_TI_begin_column(0x06)
     253                      .dwattr $C$DW$19, DW_AT_TI_max_frame_size(-2)
     254                      .dwpsn  file "../drivers/source/clk.c",line 739,column 1,is_stmt,address _CLK_setTimer2PreScale,isa 0
     255              
     256                      .dwfde $C$DW$CIE, _CLK_setTimer2PreScale
     257              $C$DW$20        .dwtag  DW_TAG_formal_parameter
     258                      .dwattr $C$DW$20, DW_AT_name("clkHandle")
     259                      .dwattr $C$DW$20, DW_AT_TI_symbol_name("_clkHandle")
     260                      .dwattr $C$DW$20, DW_AT_type(*$C$DW$T$59)
     261                      .dwattr $C$DW$20, DW_AT_location[DW_OP_reg12]
     262              
     263              $C$DW$21        .dwtag  DW_TAG_formal_parameter
     264                      .dwattr $C$DW$21, DW_AT_name("preScaler")
     265                      .dwattr $C$DW$21, DW_AT_TI_symbol_name("_preScaler")
     266                      .dwattr $C$DW$21, DW_AT_type(*$C$DW$T$50)
     267                      .dwattr $C$DW$21, DW_AT_location[DW_OP_reg0]
     268              
     269              
     270              ;***************************************************************
     271              ;* FNAME: _CLK_setTimer2PreScale        FR SIZE:   0           *
     272              ;*                                                             *
TMS320C2000 Assembler PC v15.12.3 Sun Oct 30 14:01:42 2016

Tools Copyright (c) 1996-2015 Texas Instruments Incorporated
C:\Users\MaCHaDo\AppData\Local\Temp\4588011                          PAGE    6

     273              ;* FUNCTION ENVIRONMENT                                        *
     274              ;*                                                             *
     275              ;* FUNCTION PROPERTIES                                         *
     276              ;*                            0 Parameter,  0 Auto,  0 SOE     *
     277              ;***************************************************************
     278              
     279              _CLK_setTimer2PreScale:
     280              ;* AR4   assigned to _clkHandle
     281              $C$DW$22        .dwtag  DW_TAG_variable
     282                      .dwattr $C$DW$22, DW_AT_name("clkHandle")
     283                      .dwattr $C$DW$22, DW_AT_TI_symbol_name("_clkHandle")
     284                      .dwattr $C$DW$22, DW_AT_type(*$C$DW$T$60)
     285                      .dwattr $C$DW$22, DW_AT_location[DW_OP_reg12]
     286              
     287              ;* AL    assigned to _preScaler
     288              $C$DW$23        .dwtag  DW_TAG_variable
     289                      .dwattr $C$DW$23, DW_AT_name("preScaler")
     290                      .dwattr $C$DW$23, DW_AT_TI_symbol_name("_preScaler")
     291                      .dwattr $C$DW$23, DW_AT_type(*$C$DW$T$50)
     292                      .dwattr $C$DW$23, DW_AT_location[DW_OP_reg0]
     293              
     294                      .dwcfi  cfa_offset, -2
     295                      .dwcfi  save_reg_to_mem, 26, 0
     296 00000015 7622   EALLOW
     297                      .dwpsn  file "../drivers/source/clk.c",line 746,column 3,is_stmt,isa 0
     298 00000016 18D4          AND       *+XAR4[2],#0xff1f     ; [CPU_] |746| 
         00000017 FF1F 
     299                      .dwpsn  file "../drivers/source/clk.c",line 749,column 3,is_stmt,isa 0
     300 00000018 98D4          OR        *+XAR4[2],AL          ; [CPU_] |749| 
     301 00000019 761A   EDIS
     302 0000001a FF69          SPM       #0                    ; [CPU_] 
     303              $C$DW$24        .dwtag  DW_TAG_TI_branch
     304                      .dwattr $C$DW$24, DW_AT_low_pc(0x00)
     305                      .dwattr $C$DW$24, DW_AT_TI_return
     306              
     307 0000001b 0006          LRETR     ; [CPU_] 
     308                      ; return occurs ; [] 
     309                      .dwattr $C$DW$19, DW_AT_TI_end_file("../drivers/source/clk.c")
     310                      .dwattr $C$DW$19, DW_AT_TI_end_line(0x2f2)
     311                      .dwattr $C$DW$19, DW_AT_TI_end_column(0x01)
     312                      .dwendentry
     313                      .dwendtag $C$DW$19
     314              
     315 0000001c               .sect   ".text"
     316                      .clink
     317                      .global _CLK_setOscSrc
     318              
     319              $C$DW$25        .dwtag  DW_TAG_subprogram
     320                      .dwattr $C$DW$25, DW_AT_name("CLK_setOscSrc")
     321                      .dwattr $C$DW$25, DW_AT_low_pc(_CLK_setOscSrc)
     322                      .dwattr $C$DW$25, DW_AT_high_pc(0x00)
     323                      .dwattr $C$DW$25, DW_AT_TI_symbol_name("_CLK_setOscSrc")
     324                      .dwattr $C$DW$25, DW_AT_external
     325                      .dwattr $C$DW$25, DW_AT_TI_begin_file("../drivers/source/clk.c")
     326                      .dwattr $C$DW$25, DW_AT_TI_begin_line(0x2a9)
TMS320C2000 Assembler PC v15.12.3 Sun Oct 30 14:01:42 2016

Tools Copyright (c) 1996-2015 Texas Instruments Incorporated
C:\Users\MaCHaDo\AppData\Local\Temp\4588011                          PAGE    7

     327                      .dwattr $C$DW$25, DW_AT_TI_begin_column(0x06)
     328                      .dwattr $C$DW$25, DW_AT_TI_max_frame_size(-2)
     329                      .dwpsn  file "../drivers/source/clk.c",line 682,column 1,is_stmt,address _CLK_setOscSrc,isa 0
     330              
     331                      .dwfde $C$DW$CIE, _CLK_setOscSrc
     332              $C$DW$26        .dwtag  DW_TAG_formal_parameter
     333                      .dwattr $C$DW$26, DW_AT_name("clkHandle")
     334                      .dwattr $C$DW$26, DW_AT_TI_symbol_name("_clkHandle")
     335                      .dwattr $C$DW$26, DW_AT_type(*$C$DW$T$59)
     336                      .dwattr $C$DW$26, DW_AT_location[DW_OP_reg12]
     337              
     338              $C$DW$27        .dwtag  DW_TAG_formal_parameter
     339                      .dwattr $C$DW$27, DW_AT_name("src")
     340                      .dwattr $C$DW$27, DW_AT_TI_symbol_name("_src")
     341                      .dwattr $C$DW$27, DW_AT_type(*$C$DW$T$41)
     342                      .dwattr $C$DW$27, DW_AT_location[DW_OP_reg0]
     343              
     344              
     345              ;***************************************************************
     346              ;* FNAME: _CLK_setOscSrc                FR SIZE:   0           *
     347              ;*                                                             *
     348              ;* FUNCTION ENVIRONMENT                                        *
     349              ;*                                                             *
     350              ;* FUNCTION PROPERTIES                                         *
     351              ;*                            0 Parameter,  0 Auto,  0 SOE     *
     352              ;***************************************************************
     353              
     354              _CLK_setOscSrc:
     355              ;* AR4   assigned to _clkHandle
     356              $C$DW$28        .dwtag  DW_TAG_variable
     357                      .dwattr $C$DW$28, DW_AT_name("clkHandle")
     358                      .dwattr $C$DW$28, DW_AT_TI_symbol_name("_clkHandle")
     359                      .dwattr $C$DW$28, DW_AT_type(*$C$DW$T$60)
     360                      .dwattr $C$DW$28, DW_AT_location[DW_OP_reg12]
     361              
     362              ;* AL    assigned to _src
     363              $C$DW$29        .dwtag  DW_TAG_variable
     364                      .dwattr $C$DW$29, DW_AT_name("src")
     365                      .dwattr $C$DW$29, DW_AT_TI_symbol_name("_src")
     366                      .dwattr $C$DW$29, DW_AT_type(*$C$DW$T$41)
     367                      .dwattr $C$DW$29, DW_AT_location[DW_OP_reg0]
     368              
     369                      .dwcfi  cfa_offset, -2
     370                      .dwcfi  save_reg_to_mem, 26, 0
     371 0000001c 7622   EALLOW
     372                      .dwpsn  file "../drivers/source/clk.c",line 689,column 3,is_stmt,isa 0
     373 0000001d 18D4          AND       *+XAR4[2],#0xfffe     ; [CPU_] |689| 
         0000001e FFFE 
     374                      .dwpsn  file "../drivers/source/clk.c",line 692,column 3,is_stmt,isa 0
     375 0000001f 98D4          OR        *+XAR4[2],AL          ; [CPU_] |692| 
     376 00000020 761A   EDIS
     377 00000021 FF69          SPM       #0                    ; [CPU_] 
     378              $C$DW$30        .dwtag  DW_TAG_TI_branch
     379                      .dwattr $C$DW$30, DW_AT_low_pc(0x00)
     380                      .dwattr $C$DW$30, DW_AT_TI_return
TMS320C2000 Assembler PC v15.12.3 Sun Oct 30 14:01:42 2016

Tools Copyright (c) 1996-2015 Texas Instruments Incorporated
C:\Users\MaCHaDo\AppData\Local\Temp\4588011                          PAGE    8

     381              
     382 00000022 0006          LRETR     ; [CPU_] 
     383                      ; return occurs ; [] 
     384                      .dwattr $C$DW$25, DW_AT_TI_end_file("../drivers/source/clk.c")
     385                      .dwattr $C$DW$25, DW_AT_TI_end_line(0x2b9)
     386                      .dwattr $C$DW$25, DW_AT_TI_end_column(0x01)
     387                      .dwendentry
     388                      .dwendtag $C$DW$25
     389              
     390 00000023               .sect   ".text"
     391                      .clink
     392                      .global _CLK_setOsc2Src
     393              
     394              $C$DW$31        .dwtag  DW_TAG_subprogram
     395                      .dwattr $C$DW$31, DW_AT_name("CLK_setOsc2Src")
     396                      .dwattr $C$DW$31, DW_AT_low_pc(_CLK_setOsc2Src)
     397                      .dwattr $C$DW$31, DW_AT_high_pc(0x00)
     398                      .dwattr $C$DW$31, DW_AT_TI_symbol_name("_CLK_setOsc2Src")
     399                      .dwattr $C$DW$31, DW_AT_external
     400                      .dwattr $C$DW$31, DW_AT_TI_begin_file("../drivers/source/clk.c")
     401                      .dwattr $C$DW$31, DW_AT_TI_begin_line(0x2bc)
     402                      .dwattr $C$DW$31, DW_AT_TI_begin_column(0x06)
     403                      .dwattr $C$DW$31, DW_AT_TI_max_frame_size(-2)
     404                      .dwpsn  file "../drivers/source/clk.c",line 701,column 1,is_stmt,address _CLK_setOsc2Src,isa 0
     405              
     406                      .dwfde $C$DW$CIE, _CLK_setOsc2Src
     407              $C$DW$32        .dwtag  DW_TAG_formal_parameter
     408                      .dwattr $C$DW$32, DW_AT_name("clkHandle")
     409                      .dwattr $C$DW$32, DW_AT_TI_symbol_name("_clkHandle")
     410                      .dwattr $C$DW$32, DW_AT_type(*$C$DW$T$59)
     411                      .dwattr $C$DW$32, DW_AT_location[DW_OP_reg12]
     412              
     413              $C$DW$33        .dwtag  DW_TAG_formal_parameter
     414                      .dwattr $C$DW$33, DW_AT_name("src")
     415                      .dwattr $C$DW$33, DW_AT_TI_symbol_name("_src")
     416                      .dwattr $C$DW$33, DW_AT_type(*$C$DW$T$44)
     417                      .dwattr $C$DW$33, DW_AT_location[DW_OP_reg0]
     418              
     419              
     420              ;***************************************************************
     421              ;* FNAME: _CLK_setOsc2Src               FR SIZE:   0           *
     422              ;*                                                             *
     423              ;* FUNCTION ENVIRONMENT                                        *
     424              ;*                                                             *
     425              ;* FUNCTION PROPERTIES                                         *
     426              ;*                            0 Parameter,  0 Auto,  0 SOE     *
     427              ;***************************************************************
     428              
     429              _CLK_setOsc2Src:
     430              ;* AR4   assigned to _clkHandle
     431              $C$DW$34        .dwtag  DW_TAG_variable
     432                      .dwattr $C$DW$34, DW_AT_name("clkHandle")
     433                      .dwattr $C$DW$34, DW_AT_TI_symbol_name("_clkHandle")
     434                      .dwattr $C$DW$34, DW_AT_type(*$C$DW$T$60)
     435                      .dwattr $C$DW$34, DW_AT_location[DW_OP_reg12]
TMS320C2000 Assembler PC v15.12.3 Sun Oct 30 14:01:42 2016

Tools Copyright (c) 1996-2015 Texas Instruments Incorporated
C:\Users\MaCHaDo\AppData\Local\Temp\4588011                          PAGE    9

     436              
     437              ;* AL    assigned to _src
     438              $C$DW$35        .dwtag  DW_TAG_variable
     439                      .dwattr $C$DW$35, DW_AT_name("src")
     440                      .dwattr $C$DW$35, DW_AT_TI_symbol_name("_src")
     441                      .dwattr $C$DW$35, DW_AT_type(*$C$DW$T$44)
     442                      .dwattr $C$DW$35, DW_AT_location[DW_OP_reg0]
     443              
     444                      .dwcfi  cfa_offset, -2
     445                      .dwcfi  save_reg_to_mem, 26, 0
     446 00000023 7622   EALLOW
     447                      .dwpsn  file "../drivers/source/clk.c",line 708,column 3,is_stmt,isa 0
     448 00000024 18D4          AND       *+XAR4[2],#0xfffd     ; [CPU_] |708| 
         00000025 FFFD 
     449                      .dwpsn  file "../drivers/source/clk.c",line 711,column 3,is_stmt,isa 0
     450 00000026 98D4          OR        *+XAR4[2],AL          ; [CPU_] |711| 
     451 00000027 761A   EDIS
     452 00000028 FF69          SPM       #0                    ; [CPU_] 
     453              $C$DW$36        .dwtag  DW_TAG_TI_branch
     454                      .dwattr $C$DW$36, DW_AT_low_pc(0x00)
     455                      .dwattr $C$DW$36, DW_AT_TI_return
     456              
     457 00000029 0006          LRETR     ; [CPU_] 
     458                      ; return occurs ; [] 
     459                      .dwattr $C$DW$31, DW_AT_TI_end_file("../drivers/source/clk.c")
     460                      .dwattr $C$DW$31, DW_AT_TI_end_line(0x2cc)
     461                      .dwattr $C$DW$31, DW_AT_TI_end_column(0x01)
     462                      .dwendentry
     463                      .dwendtag $C$DW$31
     464              
     465 0000002a               .sect   ".text"
     466                      .clink
     467                      .global _CLK_setLowSpdPreScaler
     468              
     469              $C$DW$37        .dwtag  DW_TAG_subprogram
     470                      .dwattr $C$DW$37, DW_AT_name("CLK_setLowSpdPreScaler")
     471                      .dwattr $C$DW$37, DW_AT_low_pc(_CLK_setLowSpdPreScaler)
     472                      .dwattr $C$DW$37, DW_AT_high_pc(0x00)
     473                      .dwattr $C$DW$37, DW_AT_TI_symbol_name("_CLK_setLowSpdPreScaler")
     474                      .dwattr $C$DW$37, DW_AT_external
     475                      .dwattr $C$DW$37, DW_AT_TI_begin_file("../drivers/source/clk.c")
     476                      .dwattr $C$DW$37, DW_AT_TI_begin_line(0x298)
     477                      .dwattr $C$DW$37, DW_AT_TI_begin_column(0x06)
     478                      .dwattr $C$DW$37, DW_AT_TI_max_frame_size(-2)
     479                      .dwpsn  file "../drivers/source/clk.c",line 666,column 1,is_stmt,address _CLK_setLowSpdPreScaler,isa 
     480              
     481                      .dwfde $C$DW$CIE, _CLK_setLowSpdPreScaler
     482              $C$DW$38        .dwtag  DW_TAG_formal_parameter
     483                      .dwattr $C$DW$38, DW_AT_name("clkHandle")
     484                      .dwattr $C$DW$38, DW_AT_TI_symbol_name("_clkHandle")
     485                      .dwattr $C$DW$38, DW_AT_type(*$C$DW$T$59)
     486                      .dwattr $C$DW$38, DW_AT_location[DW_OP_reg12]
     487              
     488              $C$DW$39        .dwtag  DW_TAG_formal_parameter
     489                      .dwattr $C$DW$39, DW_AT_name("preScaler")
TMS320C2000 Assembler PC v15.12.3 Sun Oct 30 14:01:42 2016

Tools Copyright (c) 1996-2015 Texas Instruments Incorporated
C:\Users\MaCHaDo\AppData\Local\Temp\4588011                          PAGE   10

     490                      .dwattr $C$DW$39, DW_AT_TI_symbol_name("_preScaler")
     491                      .dwattr $C$DW$39, DW_AT_type(*$C$DW$T$38)
     492                      .dwattr $C$DW$39, DW_AT_location[DW_OP_reg0]
     493              
     494              
     495              ;***************************************************************
     496              ;* FNAME: _CLK_setLowSpdPreScaler       FR SIZE:   0           *
     497              ;*                                                             *
     498              ;* FUNCTION ENVIRONMENT                                        *
     499              ;*                                                             *
     500              ;* FUNCTION PROPERTIES                                         *
     501              ;*                            0 Parameter,  0 Auto,  0 SOE     *
     502              ;***************************************************************
     503              
     504              _CLK_setLowSpdPreScaler:
     505              ;* AR4   assigned to _clkHandle
     506              $C$DW$40        .dwtag  DW_TAG_variable
     507                      .dwattr $C$DW$40, DW_AT_name("clkHandle")
     508                      .dwattr $C$DW$40, DW_AT_TI_symbol_name("_clkHandle")
     509                      .dwattr $C$DW$40, DW_AT_type(*$C$DW$T$60)
     510                      .dwattr $C$DW$40, DW_AT_location[DW_OP_reg12]
     511              
     512              ;* AL    assigned to _preScaler
     513              $C$DW$41        .dwtag  DW_TAG_variable
     514                      .dwattr $C$DW$41, DW_AT_name("preScaler")
     515                      .dwattr $C$DW$41, DW_AT_TI_symbol_name("_preScaler")
     516                      .dwattr $C$DW$41, DW_AT_type(*$C$DW$T$38)
     517                      .dwattr $C$DW$41, DW_AT_location[DW_OP_reg0]
     518              
     519                      .dwcfi  cfa_offset, -2
     520                      .dwcfi  save_reg_to_mem, 26, 0
     521 0000002a 7622   EALLOW
     522                      .dwpsn  file "../drivers/source/clk.c",line 673,column 5,is_stmt,isa 0
     523 0000002b D00B          MOVB      XAR0,#11              ; [CPU_] |673| 
     524 0000002c 9694          MOV       *+XAR4[AR0],AL        ; [CPU_] |673| 
     525 0000002d 761A   EDIS
     526 0000002e FF69          SPM       #0                    ; [CPU_] 
     527              $C$DW$42        .dwtag  DW_TAG_TI_branch
     528                      .dwattr $C$DW$42, DW_AT_low_pc(0x00)
     529                      .dwattr $C$DW$42, DW_AT_TI_return
     530              
     531 0000002f 0006          LRETR     ; [CPU_] 
     532                      ; return occurs ; [] 
     533                      .dwattr $C$DW$37, DW_AT_TI_end_file("../drivers/source/clk.c")
     534                      .dwattr $C$DW$37, DW_AT_TI_end_line(0x2a6)
     535                      .dwattr $C$DW$37, DW_AT_TI_end_column(0x01)
     536                      .dwendentry
     537                      .dwendtag $C$DW$37
     538              
     539 00000030               .sect   ".text"
     540                      .clink
     541                      .global _CLK_setClkOutPreScaler
     542              
     543              $C$DW$43        .dwtag  DW_TAG_subprogram
     544                      .dwattr $C$DW$43, DW_AT_name("CLK_setClkOutPreScaler")
TMS320C2000 Assembler PC v15.12.3 Sun Oct 30 14:01:42 2016

Tools Copyright (c) 1996-2015 Texas Instruments Incorporated
C:\Users\MaCHaDo\AppData\Local\Temp\4588011                          PAGE   11

     545                      .dwattr $C$DW$43, DW_AT_low_pc(_CLK_setClkOutPreScaler)
     546                      .dwattr $C$DW$43, DW_AT_high_pc(0x00)
     547                      .dwattr $C$DW$43, DW_AT_TI_symbol_name("_CLK_setClkOutPreScaler")
     548                      .dwattr $C$DW$43, DW_AT_external
     549                      .dwattr $C$DW$43, DW_AT_TI_begin_file("../drivers/source/clk.c")
     550                      .dwattr $C$DW$43, DW_AT_TI_begin_line(0x284)
     551                      .dwattr $C$DW$43, DW_AT_TI_begin_column(0x06)
     552                      .dwattr $C$DW$43, DW_AT_TI_max_frame_size(-2)
     553                      .dwpsn  file "../drivers/source/clk.c",line 646,column 1,is_stmt,address _CLK_setClkOutPreScaler,isa 
     554              
     555                      .dwfde $C$DW$CIE, _CLK_setClkOutPreScaler
     556              $C$DW$44        .dwtag  DW_TAG_formal_parameter
     557                      .dwattr $C$DW$44, DW_AT_name("clkHandle")
     558                      .dwattr $C$DW$44, DW_AT_TI_symbol_name("_clkHandle")
     559                      .dwattr $C$DW$44, DW_AT_type(*$C$DW$T$59)
     560                      .dwattr $C$DW$44, DW_AT_location[DW_OP_reg12]
     561              
     562              $C$DW$45        .dwtag  DW_TAG_formal_parameter
     563                      .dwattr $C$DW$45, DW_AT_name("preScaler")
     564                      .dwattr $C$DW$45, DW_AT_TI_symbol_name("_preScaler")
     565                      .dwattr $C$DW$45, DW_AT_type(*$C$DW$T$35)
     566                      .dwattr $C$DW$45, DW_AT_location[DW_OP_reg0]
     567              
     568              
     569              ;***************************************************************
     570              ;* FNAME: _CLK_setClkOutPreScaler       FR SIZE:   0           *
     571              ;*                                                             *
     572              ;* FUNCTION ENVIRONMENT                                        *
     573              ;*                                                             *
     574              ;* FUNCTION PROPERTIES                                         *
     575              ;*                            0 Parameter,  0 Auto,  0 SOE     *
     576              ;***************************************************************
     577              
     578              _CLK_setClkOutPreScaler:
     579              ;* AR4   assigned to _clkHandle
     580              $C$DW$46        .dwtag  DW_TAG_variable
     581                      .dwattr $C$DW$46, DW_AT_name("clkHandle")
     582                      .dwattr $C$DW$46, DW_AT_TI_symbol_name("_clkHandle")
     583                      .dwattr $C$DW$46, DW_AT_type(*$C$DW$T$60)
     584                      .dwattr $C$DW$46, DW_AT_location[DW_OP_reg12]
     585              
     586              ;* AL    assigned to _preScaler
     587              $C$DW$47        .dwtag  DW_TAG_variable
     588                      .dwattr $C$DW$47, DW_AT_name("preScaler")
     589                      .dwattr $C$DW$47, DW_AT_TI_symbol_name("_preScaler")
     590                      .dwattr $C$DW$47, DW_AT_type(*$C$DW$T$35)
     591                      .dwattr $C$DW$47, DW_AT_location[DW_OP_reg0]
     592              
     593                      .dwcfi  cfa_offset, -2
     594                      .dwcfi  save_reg_to_mem, 26, 0
     595 00000030 7622   EALLOW
     596                      .dwpsn  file "../drivers/source/clk.c",line 653,column 3,is_stmt,isa 0
     597 00000031 18C4          AND       *+XAR4[0],#0xfffc     ; [CPU_] |653| 
         00000032 FFFC 
     598                      .dwpsn  file "../drivers/source/clk.c",line 656,column 3,is_stmt,isa 0
TMS320C2000 Assembler PC v15.12.3 Sun Oct 30 14:01:42 2016

Tools Copyright (c) 1996-2015 Texas Instruments Incorporated
C:\Users\MaCHaDo\AppData\Local\Temp\4588011                          PAGE   12

     599 00000033 98C4          OR        *+XAR4[0],AL          ; [CPU_] |656| 
     600 00000034 761A   EDIS
     601 00000035 FF69          SPM       #0                    ; [CPU_] 
     602              $C$DW$48        .dwtag  DW_TAG_TI_branch
     603                      .dwattr $C$DW$48, DW_AT_low_pc(0x00)
     604                      .dwattr $C$DW$48, DW_AT_TI_return
     605              
     606 00000036 0006          LRETR     ; [CPU_] 
     607                      ; return occurs ; [] 
     608                      .dwattr $C$DW$43, DW_AT_TI_end_file("../drivers/source/clk.c")
     609                      .dwattr $C$DW$43, DW_AT_TI_end_line(0x295)
     610                      .dwattr $C$DW$43, DW_AT_TI_end_column(0x01)
     611                      .dwendentry
     612                      .dwendtag $C$DW$43
     613              
     614 00000037               .sect   ".text"
     615                      .clink
     616                      .global _CLK_init
     617              
     618              $C$DW$49        .dwtag  DW_TAG_subprogram
     619                      .dwattr $C$DW$49, DW_AT_name("CLK_init")
     620                      .dwattr $C$DW$49, DW_AT_low_pc(_CLK_init)
     621                      .dwattr $C$DW$49, DW_AT_high_pc(0x00)
     622                      .dwattr $C$DW$49, DW_AT_TI_symbol_name("_CLK_init")
     623                      .dwattr $C$DW$49, DW_AT_external
     624                      .dwattr $C$DW$49, DW_AT_type(*$C$DW$T$59)
     625                      .dwattr $C$DW$49, DW_AT_TI_begin_file("../drivers/source/clk.c")
     626                      .dwattr $C$DW$49, DW_AT_TI_begin_line(0x275)
     627                      .dwattr $C$DW$49, DW_AT_TI_begin_column(0x0c)
     628                      .dwattr $C$DW$49, DW_AT_TI_max_frame_size(-2)
     629                      .dwpsn  file "../drivers/source/clk.c",line 630,column 1,is_stmt,address _CLK_init,isa 0
     630              
     631                      .dwfde $C$DW$CIE, _CLK_init
     632              $C$DW$50        .dwtag  DW_TAG_formal_parameter
     633                      .dwattr $C$DW$50, DW_AT_name("pMemory")
     634                      .dwattr $C$DW$50, DW_AT_TI_symbol_name("_pMemory")
     635                      .dwattr $C$DW$50, DW_AT_type(*$C$DW$T$3)
     636                      .dwattr $C$DW$50, DW_AT_location[DW_OP_reg12]
     637              
     638              $C$DW$51        .dwtag  DW_TAG_formal_parameter
     639                      .dwattr $C$DW$51, DW_AT_name("numBytes")
     640                      .dwattr $C$DW$51, DW_AT_TI_symbol_name("_numBytes")
     641                      .dwattr $C$DW$51, DW_AT_type(*$C$DW$T$62)
     642                      .dwattr $C$DW$51, DW_AT_location[DW_OP_reg0]
     643              
     644              
     645              ;***************************************************************
     646              ;* FNAME: _CLK_init                     FR SIZE:   0           *
     647              ;*                                                             *
     648              ;* FUNCTION ENVIRONMENT                                        *
     649              ;*                                                             *
     650              ;* FUNCTION PROPERTIES                                         *
     651              ;*                            0 Parameter,  0 Auto,  0 SOE     *
     652              ;***************************************************************
     653              
TMS320C2000 Assembler PC v15.12.3 Sun Oct 30 14:01:42 2016

Tools Copyright (c) 1996-2015 Texas Instruments Incorporated
C:\Users\MaCHaDo\AppData\Local\Temp\4588011                          PAGE   13

     654              _CLK_init:
     655              ;* AR6   assigned to _numBytes
     656              $C$DW$52        .dwtag  DW_TAG_variable
     657                      .dwattr $C$DW$52, DW_AT_name("numBytes")
     658                      .dwattr $C$DW$52, DW_AT_TI_symbol_name("_numBytes")
     659                      .dwattr $C$DW$52, DW_AT_type(*$C$DW$T$62)
     660                      .dwattr $C$DW$52, DW_AT_location[DW_OP_reg16]
     661              
     662                      .dwcfi  cfa_offset, -2
     663                      .dwcfi  save_reg_to_mem, 26, 0
     664 00000037 1EA6          MOVL      XAR6,ACC              ; [CPU_] |630| 
     665                      .dwpsn  file "../drivers/source/clk.c",line 635,column 5,is_stmt,isa 0
     666 00000038 0211          MOVB      ACC,#17               ; [CPU_] |635| 
     667 00000039 0FA6          CMPL      ACC,XAR6              ; [CPU_] |635| 
     668 0000003a 6902          B         $C$L1,LOS             ; [CPU_] |635| 
     669                      ; branchcc occurs ; [] |635| 
     670 0000003b D400          MOVB      XAR4,#0               ; [CPU_] |635| 
     671              $C$L1:    
     672              $C$DW$53        .dwtag  DW_TAG_TI_branch
     673                      .dwattr $C$DW$53, DW_AT_low_pc(0x00)
     674                      .dwattr $C$DW$53, DW_AT_TI_return
     675              
     676 0000003c 0006          LRETR     ; [CPU_] 
     677                      ; return occurs ; [] 
     678                      .dwattr $C$DW$49, DW_AT_TI_end_file("../drivers/source/clk.c")
     679                      .dwattr $C$DW$49, DW_AT_TI_end_line(0x281)
     680                      .dwattr $C$DW$49, DW_AT_TI_end_column(0x01)
     681                      .dwendentry
     682                      .dwendtag $C$DW$49
     683              
     684 0000003d               .sect   ".text"
     685                      .clink
     686                      .global _CLK_enableWatchDogHaltMode
     687              
     688              $C$DW$54        .dwtag  DW_TAG_subprogram
     689                      .dwattr $C$DW$54, DW_AT_name("CLK_enableWatchDogHaltMode")
     690                      .dwattr $C$DW$54, DW_AT_low_pc(_CLK_enableWatchDogHaltMode)
     691                      .dwattr $C$DW$54, DW_AT_high_pc(0x00)
     692                      .dwattr $C$DW$54, DW_AT_TI_symbol_name("_CLK_enableWatchDogHaltMode")
     693                      .dwattr $C$DW$54, DW_AT_external
     694                      .dwattr $C$DW$54, DW_AT_TI_begin_file("../drivers/source/clk.c")
     695                      .dwattr $C$DW$54, DW_AT_TI_begin_line(0x265)
     696                      .dwattr $C$DW$54, DW_AT_TI_begin_column(0x06)
     697                      .dwattr $C$DW$54, DW_AT_TI_max_frame_size(-2)
     698                      .dwpsn  file "../drivers/source/clk.c",line 614,column 1,is_stmt,address _CLK_enableWatchDogHaltMode,
     699              
     700                      .dwfde $C$DW$CIE, _CLK_enableWatchDogHaltMode
     701              $C$DW$55        .dwtag  DW_TAG_formal_parameter
     702                      .dwattr $C$DW$55, DW_AT_name("clkHandle")
     703                      .dwattr $C$DW$55, DW_AT_TI_symbol_name("_clkHandle")
     704                      .dwattr $C$DW$55, DW_AT_type(*$C$DW$T$59)
     705                      .dwattr $C$DW$55, DW_AT_location[DW_OP_reg12]
     706              
     707              
     708              ;***************************************************************
TMS320C2000 Assembler PC v15.12.3 Sun Oct 30 14:01:42 2016

Tools Copyright (c) 1996-2015 Texas Instruments Incorporated
C:\Users\MaCHaDo\AppData\Local\Temp\4588011                          PAGE   14

     709              ;* FNAME: _CLK_enableWatchDogHaltMode   FR SIZE:   0           *
     710              ;*                                                             *
     711              ;* FUNCTION ENVIRONMENT                                        *
     712              ;*                                                             *
     713              ;* FUNCTION PROPERTIES                                         *
     714              ;*                            0 Parameter,  0 Auto,  0 SOE     *
     715              ;***************************************************************
     716              
     717              _CLK_enableWatchDogHaltMode:
     718              ;* AR4   assigned to _clkHandle
     719              $C$DW$56        .dwtag  DW_TAG_variable
     720                      .dwattr $C$DW$56, DW_AT_name("clkHandle")
     721                      .dwattr $C$DW$56, DW_AT_TI_symbol_name("_clkHandle")
     722                      .dwattr $C$DW$56, DW_AT_type(*$C$DW$T$60)
     723                      .dwattr $C$DW$56, DW_AT_location[DW_OP_reg12]
     724              
     725                      .dwcfi  cfa_offset, -2
     726                      .dwcfi  save_reg_to_mem, 26, 0
     727 0000003d 7622   EALLOW
     728                      .dwpsn  file "../drivers/source/clk.c",line 621,column 3,is_stmt,isa 0
     729 0000003e 18D4          AND       *+XAR4[2],#0xefff     ; [CPU_] |621| 
         0000003f EFFF 
     730 00000040 761A   EDIS
     731 00000041 FF69          SPM       #0                    ; [CPU_] 
     732              $C$DW$57        .dwtag  DW_TAG_TI_branch
     733                      .dwattr $C$DW$57, DW_AT_low_pc(0x00)
     734                      .dwattr $C$DW$57, DW_AT_TI_return
     735              
     736 00000042 0006          LRETR     ; [CPU_] 
     737                      ; return occurs ; [] 
     738                      .dwattr $C$DW$54, DW_AT_TI_end_file("../drivers/source/clk.c")
     739                      .dwattr $C$DW$54, DW_AT_TI_end_line(0x272)
     740                      .dwattr $C$DW$54, DW_AT_TI_end_column(0x01)
     741                      .dwendentry
     742                      .dwendtag $C$DW$54
     743              
     744 00000043               .sect   ".text"
     745                      .clink
     746                      .global _CLK_enableTbClockSync
     747              
     748              $C$DW$58        .dwtag  DW_TAG_subprogram
     749                      .dwattr $C$DW$58, DW_AT_name("CLK_enableTbClockSync")
     750                      .dwattr $C$DW$58, DW_AT_low_pc(_CLK_enableTbClockSync)
     751                      .dwattr $C$DW$58, DW_AT_high_pc(0x00)
     752                      .dwattr $C$DW$58, DW_AT_TI_symbol_name("_CLK_enableTbClockSync")
     753                      .dwattr $C$DW$58, DW_AT_external
     754                      .dwattr $C$DW$58, DW_AT_TI_begin_file("../drivers/source/clk.c")
     755                      .dwattr $C$DW$58, DW_AT_TI_begin_line(0x255)
     756                      .dwattr $C$DW$58, DW_AT_TI_begin_column(0x06)
     757                      .dwattr $C$DW$58, DW_AT_TI_max_frame_size(-2)
     758                      .dwpsn  file "../drivers/source/clk.c",line 598,column 1,is_stmt,address _CLK_enableTbClockSync,isa 0
     759              
     760                      .dwfde $C$DW$CIE, _CLK_enableTbClockSync
     761              $C$DW$59        .dwtag  DW_TAG_formal_parameter
     762                      .dwattr $C$DW$59, DW_AT_name("clkHandle")
TMS320C2000 Assembler PC v15.12.3 Sun Oct 30 14:01:42 2016

Tools Copyright (c) 1996-2015 Texas Instruments Incorporated
C:\Users\MaCHaDo\AppData\Local\Temp\4588011                          PAGE   15

     763                      .dwattr $C$DW$59, DW_AT_TI_symbol_name("_clkHandle")
     764                      .dwattr $C$DW$59, DW_AT_type(*$C$DW$T$59)
     765                      .dwattr $C$DW$59, DW_AT_location[DW_OP_reg12]
     766              
     767              
     768              ;***************************************************************
     769              ;* FNAME: _CLK_enableTbClockSync        FR SIZE:   0           *
     770              ;*                                                             *
     771              ;* FUNCTION ENVIRONMENT                                        *
     772              ;*                                                             *
     773              ;* FUNCTION PROPERTIES                                         *
     774              ;*                            0 Parameter,  0 Auto,  0 SOE     *
     775              ;***************************************************************
     776              
     777 00000043       _CLK_enableTbClockSync:
     778                      .dwcfi  cfa_offset, -2
     779                      .dwcfi  save_reg_to_mem, 26, 0
     780 00000043 7622   EALLOW
     781                      .dwpsn  file "../drivers/source/clk.c",line 605,column 3,is_stmt,isa 0
     782 00000044 DC0C          ADDB      XAR4,#12              ; [CPU_] |605| 
     783 00000045 1AC4          OR        *+XAR4[0],#0x0004     ; [CPU_] |605| 
         00000046 0004 
     784 00000047 761A   EDIS
     785 00000048 FF69          SPM       #0                    ; [CPU_] 
     786              $C$DW$60        .dwtag  DW_TAG_TI_branch
     787                      .dwattr $C$DW$60, DW_AT_low_pc(0x00)
     788                      .dwattr $C$DW$60, DW_AT_TI_return
     789              
     790 00000049 0006          LRETR     ; [CPU_] 
     791                      ; return occurs ; [] 
     792                      .dwattr $C$DW$58, DW_AT_TI_end_file("../drivers/source/clk.c")
     793                      .dwattr $C$DW$58, DW_AT_TI_end_line(0x262)
     794                      .dwattr $C$DW$58, DW_AT_TI_end_column(0x01)
     795                      .dwendentry
     796                      .dwendtag $C$DW$58
     797              
     798 0000004a               .sect   ".text"
     799                      .clink
     800                      .global _CLK_enableSpiaClock
     801              
     802              $C$DW$61        .dwtag  DW_TAG_subprogram
     803                      .dwattr $C$DW$61, DW_AT_name("CLK_enableSpiaClock")
     804                      .dwattr $C$DW$61, DW_AT_low_pc(_CLK_enableSpiaClock)
     805                      .dwattr $C$DW$61, DW_AT_high_pc(0x00)
     806                      .dwattr $C$DW$61, DW_AT_TI_symbol_name("_CLK_enableSpiaClock")
     807                      .dwattr $C$DW$61, DW_AT_external
     808                      .dwattr $C$DW$61, DW_AT_TI_begin_file("../drivers/source/clk.c")
     809                      .dwattr $C$DW$61, DW_AT_TI_begin_line(0x245)
     810                      .dwattr $C$DW$61, DW_AT_TI_begin_column(0x06)
     811                      .dwattr $C$DW$61, DW_AT_TI_max_frame_size(-2)
     812                      .dwpsn  file "../drivers/source/clk.c",line 582,column 1,is_stmt,address _CLK_enableSpiaClock,isa 0
     813              
     814                      .dwfde $C$DW$CIE, _CLK_enableSpiaClock
     815              $C$DW$62        .dwtag  DW_TAG_formal_parameter
     816                      .dwattr $C$DW$62, DW_AT_name("clkHandle")
TMS320C2000 Assembler PC v15.12.3 Sun Oct 30 14:01:42 2016

Tools Copyright (c) 1996-2015 Texas Instruments Incorporated
C:\Users\MaCHaDo\AppData\Local\Temp\4588011                          PAGE   16

     817                      .dwattr $C$DW$62, DW_AT_TI_symbol_name("_clkHandle")
     818                      .dwattr $C$DW$62, DW_AT_type(*$C$DW$T$59)
     819                      .dwattr $C$DW$62, DW_AT_location[DW_OP_reg12]
     820              
     821              
     822              ;***************************************************************
     823              ;* FNAME: _CLK_enableSpiaClock          FR SIZE:   0           *
     824              ;*                                                             *
     825              ;* FUNCTION ENVIRONMENT                                        *
     826              ;*                                                             *
     827              ;* FUNCTION PROPERTIES                                         *
     828              ;*                            0 Parameter,  0 Auto,  0 SOE     *
     829              ;***************************************************************
     830              
     831 0000004a       _CLK_enableSpiaClock:
     832                      .dwcfi  cfa_offset, -2
     833                      .dwcfi  save_reg_to_mem, 26, 0
     834 0000004a 7622   EALLOW
     835                      .dwpsn  file "../drivers/source/clk.c",line 589,column 3,is_stmt,isa 0
     836 0000004b DC0C          ADDB      XAR4,#12              ; [CPU_] |589| 
     837 0000004c 1AC4          OR        *+XAR4[0],#0x0100     ; [CPU_] |589| 
         0000004d 0100 
     838 0000004e 761A   EDIS
     839 0000004f FF69          SPM       #0                    ; [CPU_] 
     840              $C$DW$63        .dwtag  DW_TAG_TI_branch
     841                      .dwattr $C$DW$63, DW_AT_low_pc(0x00)
     842                      .dwattr $C$DW$63, DW_AT_TI_return
     843              
     844 00000050 0006          LRETR     ; [CPU_] 
     845                      ; return occurs ; [] 
     846                      .dwattr $C$DW$61, DW_AT_TI_end_file("../drivers/source/clk.c")
     847                      .dwattr $C$DW$61, DW_AT_TI_end_line(0x252)
     848                      .dwattr $C$DW$61, DW_AT_TI_end_column(0x01)
     849                      .dwendentry
     850                      .dwendtag $C$DW$61
     851              
     852 00000051               .sect   ".text"
     853                      .clink
     854                      .global _CLK_enableSciaClock
     855              
     856              $C$DW$64        .dwtag  DW_TAG_subprogram
     857                      .dwattr $C$DW$64, DW_AT_name("CLK_enableSciaClock")
     858                      .dwattr $C$DW$64, DW_AT_low_pc(_CLK_enableSciaClock)
     859                      .dwattr $C$DW$64, DW_AT_high_pc(0x00)
     860                      .dwattr $C$DW$64, DW_AT_TI_symbol_name("_CLK_enableSciaClock")
     861                      .dwattr $C$DW$64, DW_AT_external
     862                      .dwattr $C$DW$64, DW_AT_TI_begin_file("../drivers/source/clk.c")
     863                      .dwattr $C$DW$64, DW_AT_TI_begin_line(0x235)
     864                      .dwattr $C$DW$64, DW_AT_TI_begin_column(0x06)
     865                      .dwattr $C$DW$64, DW_AT_TI_max_frame_size(-2)
     866                      .dwpsn  file "../drivers/source/clk.c",line 566,column 1,is_stmt,address _CLK_enableSciaClock,isa 0
     867              
     868                      .dwfde $C$DW$CIE, _CLK_enableSciaClock
     869              $C$DW$65        .dwtag  DW_TAG_formal_parameter
     870                      .dwattr $C$DW$65, DW_AT_name("clkHandle")
TMS320C2000 Assembler PC v15.12.3 Sun Oct 30 14:01:42 2016

Tools Copyright (c) 1996-2015 Texas Instruments Incorporated
C:\Users\MaCHaDo\AppData\Local\Temp\4588011                          PAGE   17

     871                      .dwattr $C$DW$65, DW_AT_TI_symbol_name("_clkHandle")
     872                      .dwattr $C$DW$65, DW_AT_type(*$C$DW$T$59)
     873                      .dwattr $C$DW$65, DW_AT_location[DW_OP_reg12]
     874              
     875              
     876              ;***************************************************************
     877              ;* FNAME: _CLK_enableSciaClock          FR SIZE:   0           *
     878              ;*                                                             *
     879              ;* FUNCTION ENVIRONMENT                                        *
     880              ;*                                                             *
     881              ;* FUNCTION PROPERTIES                                         *
     882              ;*                            0 Parameter,  0 Auto,  0 SOE     *
     883              ;***************************************************************
     884              
     885 00000051       _CLK_enableSciaClock:
     886                      .dwcfi  cfa_offset, -2
     887                      .dwcfi  save_reg_to_mem, 26, 0
     888 00000051 7622   EALLOW
     889                      .dwpsn  file "../drivers/source/clk.c",line 573,column 3,is_stmt,isa 0
     890 00000052 DC0C          ADDB      XAR4,#12              ; [CPU_] |573| 
     891 00000053 1AC4          OR        *+XAR4[0],#0x0400     ; [CPU_] |573| 
         00000054 0400 
     892 00000055 761A   EDIS
     893 00000056 FF69          SPM       #0                    ; [CPU_] 
     894              $C$DW$66        .dwtag  DW_TAG_TI_branch
     895                      .dwattr $C$DW$66, DW_AT_low_pc(0x00)
     896                      .dwattr $C$DW$66, DW_AT_TI_return
     897              
     898 00000057 0006          LRETR     ; [CPU_] 
     899                      ; return occurs ; [] 
     900                      .dwattr $C$DW$64, DW_AT_TI_end_file("../drivers/source/clk.c")
     901                      .dwattr $C$DW$64, DW_AT_TI_end_line(0x242)
     902                      .dwattr $C$DW$64, DW_AT_TI_end_column(0x01)
     903                      .dwendentry
     904                      .dwendtag $C$DW$64
     905              
     906 00000058               .sect   ".text"
     907                      .clink
     908                      .global _CLK_enablePwmClock
     909              
     910              $C$DW$67        .dwtag  DW_TAG_subprogram
     911                      .dwattr $C$DW$67, DW_AT_name("CLK_enablePwmClock")
     912                      .dwattr $C$DW$67, DW_AT_low_pc(_CLK_enablePwmClock)
     913                      .dwattr $C$DW$67, DW_AT_high_pc(0x00)
     914                      .dwattr $C$DW$67, DW_AT_TI_symbol_name("_CLK_enablePwmClock")
     915                      .dwattr $C$DW$67, DW_AT_external
     916                      .dwattr $C$DW$67, DW_AT_TI_begin_file("../drivers/source/clk.c")
     917                      .dwattr $C$DW$67, DW_AT_TI_begin_line(0x225)
     918                      .dwattr $C$DW$67, DW_AT_TI_begin_column(0x06)
     919                      .dwattr $C$DW$67, DW_AT_TI_max_frame_size(-2)
     920                      .dwpsn  file "../drivers/source/clk.c",line 550,column 1,is_stmt,address _CLK_enablePwmClock,isa 0
     921              
     922                      .dwfde $C$DW$CIE, _CLK_enablePwmClock
     923              $C$DW$68        .dwtag  DW_TAG_formal_parameter
     924                      .dwattr $C$DW$68, DW_AT_name("clkHandle")
TMS320C2000 Assembler PC v15.12.3 Sun Oct 30 14:01:42 2016

Tools Copyright (c) 1996-2015 Texas Instruments Incorporated
C:\Users\MaCHaDo\AppData\Local\Temp\4588011                          PAGE   18

     925                      .dwattr $C$DW$68, DW_AT_TI_symbol_name("_clkHandle")
     926                      .dwattr $C$DW$68, DW_AT_type(*$C$DW$T$59)
     927                      .dwattr $C$DW$68, DW_AT_location[DW_OP_reg12]
     928              
     929              $C$DW$69        .dwtag  DW_TAG_formal_parameter
     930                      .dwattr $C$DW$69, DW_AT_name("pwmNumber")
     931                      .dwattr $C$DW$69, DW_AT_TI_symbol_name("_pwmNumber")
     932                      .dwattr $C$DW$69, DW_AT_type(*$C$DW$T$32)
     933                      .dwattr $C$DW$69, DW_AT_location[DW_OP_reg0]
     934              
     935              
     936              ;***************************************************************
     937              ;* FNAME: _CLK_enablePwmClock           FR SIZE:   0           *
     938              ;*                                                             *
     939              ;* FUNCTION ENVIRONMENT                                        *
     940              ;*                                                             *
     941              ;* FUNCTION PROPERTIES                                         *
     942              ;*                            0 Parameter,  0 Auto,  0 SOE     *
     943              ;***************************************************************
     944              
     945              _CLK_enablePwmClock:
     946              ;* T     assigned to _pwmNumber
     947              $C$DW$70        .dwtag  DW_TAG_variable
     948                      .dwattr $C$DW$70, DW_AT_name("pwmNumber")
     949                      .dwattr $C$DW$70, DW_AT_TI_symbol_name("_pwmNumber")
     950                      .dwattr $C$DW$70, DW_AT_type(*$C$DW$T$32)
     951                      .dwattr $C$DW$70, DW_AT_location[DW_OP_reg22]
     952              
     953                      .dwcfi  cfa_offset, -2
     954                      .dwcfi  save_reg_to_mem, 26, 0
     955 00000058 2DA9          MOV       T,AL                  ; [CPU_] |550| 
     956 00000059 7622   EALLOW
     957                      .dwpsn  file "../drivers/source/clk.c",line 557,column 3,is_stmt,isa 0
     958 0000005a DC0D          ADDB      XAR4,#13              ; [CPU_] |557| 
     959 0000005b 9A01          MOVB      AL,#1                 ; [CPU_] |557| 
     960 0000005c FF66          LSL       AL,T                  ; [CPU_] |557| 
     961 0000005d 98C4          OR        *+XAR4[0],AL          ; [CPU_] |557| 
     962 0000005e 761A   EDIS
     963 0000005f FF69          SPM       #0                    ; [CPU_] 
     964              $C$DW$71        .dwtag  DW_TAG_TI_branch
     965                      .dwattr $C$DW$71, DW_AT_low_pc(0x00)
     966                      .dwattr $C$DW$71, DW_AT_TI_return
     967              
     968 00000060 0006          LRETR     ; [CPU_] 
     969                      ; return occurs ; [] 
     970                      .dwattr $C$DW$67, DW_AT_TI_end_file("../drivers/source/clk.c")
     971                      .dwattr $C$DW$67, DW_AT_TI_end_line(0x232)
     972                      .dwattr $C$DW$67, DW_AT_TI_end_column(0x01)
     973                      .dwendentry
     974                      .dwendtag $C$DW$67
     975              
     976 00000061               .sect   ".text"
     977                      .clink
     978                      .global _CLK_enableOsc2HaltMode
     979              
TMS320C2000 Assembler PC v15.12.3 Sun Oct 30 14:01:42 2016

Tools Copyright (c) 1996-2015 Texas Instruments Incorporated
C:\Users\MaCHaDo\AppData\Local\Temp\4588011                          PAGE   19

     980              $C$DW$72        .dwtag  DW_TAG_subprogram
     981                      .dwattr $C$DW$72, DW_AT_name("CLK_enableOsc2HaltMode")
     982                      .dwattr $C$DW$72, DW_AT_low_pc(_CLK_enableOsc2HaltMode)
     983                      .dwattr $C$DW$72, DW_AT_high_pc(0x00)
     984                      .dwattr $C$DW$72, DW_AT_TI_symbol_name("_CLK_enableOsc2HaltMode")
     985                      .dwattr $C$DW$72, DW_AT_external
     986                      .dwattr $C$DW$72, DW_AT_TI_begin_file("../drivers/source/clk.c")
     987                      .dwattr $C$DW$72, DW_AT_TI_begin_line(0x215)
     988                      .dwattr $C$DW$72, DW_AT_TI_begin_column(0x06)
     989                      .dwattr $C$DW$72, DW_AT_TI_max_frame_size(-2)
     990                      .dwpsn  file "../drivers/source/clk.c",line 534,column 1,is_stmt,address _CLK_enableOsc2HaltMode,isa 
     991              
     992                      .dwfde $C$DW$CIE, _CLK_enableOsc2HaltMode
     993              $C$DW$73        .dwtag  DW_TAG_formal_parameter
     994                      .dwattr $C$DW$73, DW_AT_name("clkHandle")
     995                      .dwattr $C$DW$73, DW_AT_TI_symbol_name("_clkHandle")
     996                      .dwattr $C$DW$73, DW_AT_type(*$C$DW$T$59)
     997                      .dwattr $C$DW$73, DW_AT_location[DW_OP_reg12]
     998              
     999              
    1000              ;***************************************************************
    1001              ;* FNAME: _CLK_enableOsc2HaltMode       FR SIZE:   0           *
    1002              ;*                                                             *
    1003              ;* FUNCTION ENVIRONMENT                                        *
    1004              ;*                                                             *
    1005              ;* FUNCTION PROPERTIES                                         *
    1006              ;*                            0 Parameter,  0 Auto,  0 SOE     *
    1007              ;***************************************************************
    1008              
    1009              _CLK_enableOsc2HaltMode:
    1010              ;* AR4   assigned to _clkHandle
    1011              $C$DW$74        .dwtag  DW_TAG_variable
    1012                      .dwattr $C$DW$74, DW_AT_name("clkHandle")
    1013                      .dwattr $C$DW$74, DW_AT_TI_symbol_name("_clkHandle")
    1014                      .dwattr $C$DW$74, DW_AT_type(*$C$DW$T$60)
    1015                      .dwattr $C$DW$74, DW_AT_location[DW_OP_reg12]
    1016              
    1017                      .dwcfi  cfa_offset, -2
    1018                      .dwcfi  save_reg_to_mem, 26, 0
    1019 00000061 7622   EALLOW
    1020                      .dwpsn  file "../drivers/source/clk.c",line 541,column 3,is_stmt,isa 0
    1021 00000062 18D4          AND       *+XAR4[2],#0xf7ff     ; [CPU_] |541| 
         00000063 F7FF 
    1022 00000064 761A   EDIS
    1023 00000065 FF69          SPM       #0                    ; [CPU_] 
    1024              $C$DW$75        .dwtag  DW_TAG_TI_branch
    1025                      .dwattr $C$DW$75, DW_AT_low_pc(0x00)
    1026                      .dwattr $C$DW$75, DW_AT_TI_return
    1027              
    1028 00000066 0006          LRETR     ; [CPU_] 
    1029                      ; return occurs ; [] 
    1030                      .dwattr $C$DW$72, DW_AT_TI_end_file("../drivers/source/clk.c")
    1031                      .dwattr $C$DW$72, DW_AT_TI_end_line(0x222)
    1032                      .dwattr $C$DW$72, DW_AT_TI_end_column(0x01)
    1033                      .dwendentry
TMS320C2000 Assembler PC v15.12.3 Sun Oct 30 14:01:42 2016

Tools Copyright (c) 1996-2015 Texas Instruments Incorporated
C:\Users\MaCHaDo\AppData\Local\Temp\4588011                          PAGE   20

    1034                      .dwendtag $C$DW$72
    1035              
    1036 00000067               .sect   ".text"
    1037                      .clink
    1038                      .global _CLK_enableOsc2
    1039              
    1040              $C$DW$76        .dwtag  DW_TAG_subprogram
    1041                      .dwattr $C$DW$76, DW_AT_name("CLK_enableOsc2")
    1042                      .dwattr $C$DW$76, DW_AT_low_pc(_CLK_enableOsc2)
    1043                      .dwattr $C$DW$76, DW_AT_high_pc(0x00)
    1044                      .dwattr $C$DW$76, DW_AT_TI_symbol_name("_CLK_enableOsc2")
    1045                      .dwattr $C$DW$76, DW_AT_external
    1046                      .dwattr $C$DW$76, DW_AT_TI_begin_file("../drivers/source/clk.c")
    1047                      .dwattr $C$DW$76, DW_AT_TI_begin_line(0x205)
    1048                      .dwattr $C$DW$76, DW_AT_TI_begin_column(0x06)
    1049                      .dwattr $C$DW$76, DW_AT_TI_max_frame_size(-2)
    1050                      .dwpsn  file "../drivers/source/clk.c",line 518,column 1,is_stmt,address _CLK_enableOsc2,isa 0
    1051              
    1052                      .dwfde $C$DW$CIE, _CLK_enableOsc2
    1053              $C$DW$77        .dwtag  DW_TAG_formal_parameter
    1054                      .dwattr $C$DW$77, DW_AT_name("clkHandle")
    1055                      .dwattr $C$DW$77, DW_AT_TI_symbol_name("_clkHandle")
    1056                      .dwattr $C$DW$77, DW_AT_type(*$C$DW$T$59)
    1057                      .dwattr $C$DW$77, DW_AT_location[DW_OP_reg12]
    1058              
    1059              
    1060              ;***************************************************************
    1061              ;* FNAME: _CLK_enableOsc2               FR SIZE:   0           *
    1062              ;*                                                             *
    1063              ;* FUNCTION ENVIRONMENT                                        *
    1064              ;*                                                             *
    1065              ;* FUNCTION PROPERTIES                                         *
    1066              ;*                            0 Parameter,  0 Auto,  0 SOE     *
    1067              ;***************************************************************
    1068              
    1069              _CLK_enableOsc2:
    1070              ;* AR4   assigned to _clkHandle
    1071              $C$DW$78        .dwtag  DW_TAG_variable
    1072                      .dwattr $C$DW$78, DW_AT_name("clkHandle")
    1073                      .dwattr $C$DW$78, DW_AT_TI_symbol_name("_clkHandle")
    1074                      .dwattr $C$DW$78, DW_AT_type(*$C$DW$T$60)
    1075                      .dwattr $C$DW$78, DW_AT_location[DW_OP_reg12]
    1076              
    1077                      .dwcfi  cfa_offset, -2
    1078                      .dwcfi  save_reg_to_mem, 26, 0
    1079 00000067 7622   EALLOW
    1080                      .dwpsn  file "../drivers/source/clk.c",line 525,column 3,is_stmt,isa 0
    1081 00000068 18D4          AND       *+XAR4[2],#0xfbff     ; [CPU_] |525| 
         00000069 FBFF 
    1082 0000006a 761A   EDIS
    1083 0000006b FF69          SPM       #0                    ; [CPU_] 
    1084              $C$DW$79        .dwtag  DW_TAG_TI_branch
    1085                      .dwattr $C$DW$79, DW_AT_low_pc(0x00)
    1086                      .dwattr $C$DW$79, DW_AT_TI_return
    1087              
TMS320C2000 Assembler PC v15.12.3 Sun Oct 30 14:01:42 2016

Tools Copyright (c) 1996-2015 Texas Instruments Incorporated
C:\Users\MaCHaDo\AppData\Local\Temp\4588011                          PAGE   21

    1088 0000006c 0006          LRETR     ; [CPU_] 
    1089                      ; return occurs ; [] 
    1090                      .dwattr $C$DW$76, DW_AT_TI_end_file("../drivers/source/clk.c")
    1091                      .dwattr $C$DW$76, DW_AT_TI_end_line(0x212)
    1092                      .dwattr $C$DW$76, DW_AT_TI_end_column(0x01)
    1093                      .dwendentry
    1094                      .dwendtag $C$DW$76
    1095              
    1096 0000006d               .sect   ".text"
    1097                      .clink
    1098                      .global _CLK_enableOsc1HaltMode
    1099              
    1100              $C$DW$80        .dwtag  DW_TAG_subprogram
    1101                      .dwattr $C$DW$80, DW_AT_name("CLK_enableOsc1HaltMode")
    1102                      .dwattr $C$DW$80, DW_AT_low_pc(_CLK_enableOsc1HaltMode)
    1103                      .dwattr $C$DW$80, DW_AT_high_pc(0x00)
    1104                      .dwattr $C$DW$80, DW_AT_TI_symbol_name("_CLK_enableOsc1HaltMode")
    1105                      .dwattr $C$DW$80, DW_AT_external
    1106                      .dwattr $C$DW$80, DW_AT_TI_begin_file("../drivers/source/clk.c")
    1107                      .dwattr $C$DW$80, DW_AT_TI_begin_line(0x1f5)
    1108                      .dwattr $C$DW$80, DW_AT_TI_begin_column(0x06)
    1109                      .dwattr $C$DW$80, DW_AT_TI_max_frame_size(-2)
    1110                      .dwpsn  file "../drivers/source/clk.c",line 502,column 1,is_stmt,address _CLK_enableOsc1HaltMode,isa 
    1111              
    1112                      .dwfde $C$DW$CIE, _CLK_enableOsc1HaltMode
    1113              $C$DW$81        .dwtag  DW_TAG_formal_parameter
    1114                      .dwattr $C$DW$81, DW_AT_name("clkHandle")
    1115                      .dwattr $C$DW$81, DW_AT_TI_symbol_name("_clkHandle")
    1116                      .dwattr $C$DW$81, DW_AT_type(*$C$DW$T$59)
    1117                      .dwattr $C$DW$81, DW_AT_location[DW_OP_reg12]
    1118              
    1119              
    1120              ;***************************************************************
    1121              ;* FNAME: _CLK_enableOsc1HaltMode       FR SIZE:   0           *
    1122              ;*                                                             *
    1123              ;* FUNCTION ENVIRONMENT                                        *
    1124              ;*                                                             *
    1125              ;* FUNCTION PROPERTIES                                         *
    1126              ;*                            0 Parameter,  0 Auto,  0 SOE     *
    1127              ;***************************************************************
    1128              
    1129              _CLK_enableOsc1HaltMode:
    1130              ;* AR4   assigned to _clkHandle
    1131              $C$DW$82        .dwtag  DW_TAG_variable
    1132                      .dwattr $C$DW$82, DW_AT_name("clkHandle")
    1133                      .dwattr $C$DW$82, DW_AT_TI_symbol_name("_clkHandle")
    1134                      .dwattr $C$DW$82, DW_AT_type(*$C$DW$T$60)
    1135                      .dwattr $C$DW$82, DW_AT_location[DW_OP_reg12]
    1136              
    1137                      .dwcfi  cfa_offset, -2
    1138                      .dwcfi  save_reg_to_mem, 26, 0
    1139 0000006d 7622   EALLOW
    1140                      .dwpsn  file "../drivers/source/clk.c",line 509,column 3,is_stmt,isa 0
    1141 0000006e 18D4          AND       *+XAR4[2],#0xfdff     ; [CPU_] |509| 
         0000006f FDFF 
TMS320C2000 Assembler PC v15.12.3 Sun Oct 30 14:01:42 2016

Tools Copyright (c) 1996-2015 Texas Instruments Incorporated
C:\Users\MaCHaDo\AppData\Local\Temp\4588011                          PAGE   22

    1142 00000070 761A   EDIS
    1143 00000071 FF69          SPM       #0                    ; [CPU_] 
    1144              $C$DW$83        .dwtag  DW_TAG_TI_branch
    1145                      .dwattr $C$DW$83, DW_AT_low_pc(0x00)
    1146                      .dwattr $C$DW$83, DW_AT_TI_return
    1147              
    1148 00000072 0006          LRETR     ; [CPU_] 
    1149                      ; return occurs ; [] 
    1150                      .dwattr $C$DW$80, DW_AT_TI_end_file("../drivers/source/clk.c")
    1151                      .dwattr $C$DW$80, DW_AT_TI_end_line(0x202)
    1152                      .dwattr $C$DW$80, DW_AT_TI_end_column(0x01)
    1153                      .dwendentry
    1154                      .dwendtag $C$DW$80
    1155              
    1156 00000073               .sect   ".text"
    1157                      .clink
    1158                      .global _CLK_enableOsc1
    1159              
    1160              $C$DW$84        .dwtag  DW_TAG_subprogram
    1161                      .dwattr $C$DW$84, DW_AT_name("CLK_enableOsc1")
    1162                      .dwattr $C$DW$84, DW_AT_low_pc(_CLK_enableOsc1)
    1163                      .dwattr $C$DW$84, DW_AT_high_pc(0x00)
    1164                      .dwattr $C$DW$84, DW_AT_TI_symbol_name("_CLK_enableOsc1")
    1165                      .dwattr $C$DW$84, DW_AT_external
    1166                      .dwattr $C$DW$84, DW_AT_TI_begin_file("../drivers/source/clk.c")
    1167                      .dwattr $C$DW$84, DW_AT_TI_begin_line(0x1e5)
    1168                      .dwattr $C$DW$84, DW_AT_TI_begin_column(0x06)
    1169                      .dwattr $C$DW$84, DW_AT_TI_max_frame_size(-2)
    1170                      .dwpsn  file "../drivers/source/clk.c",line 486,column 1,is_stmt,address _CLK_enableOsc1,isa 0
    1171              
    1172                      .dwfde $C$DW$CIE, _CLK_enableOsc1
    1173              $C$DW$85        .dwtag  DW_TAG_formal_parameter
    1174                      .dwattr $C$DW$85, DW_AT_name("clkHandle")
    1175                      .dwattr $C$DW$85, DW_AT_TI_symbol_name("_clkHandle")
    1176                      .dwattr $C$DW$85, DW_AT_type(*$C$DW$T$59)
    1177                      .dwattr $C$DW$85, DW_AT_location[DW_OP_reg12]
    1178              
    1179              
    1180              ;***************************************************************
    1181              ;* FNAME: _CLK_enableOsc1               FR SIZE:   0           *
    1182              ;*                                                             *
    1183              ;* FUNCTION ENVIRONMENT                                        *
    1184              ;*                                                             *
    1185              ;* FUNCTION PROPERTIES                                         *
    1186              ;*                            0 Parameter,  0 Auto,  0 SOE     *
    1187              ;***************************************************************
    1188              
    1189              _CLK_enableOsc1:
    1190              ;* AR4   assigned to _clkHandle
    1191              $C$DW$86        .dwtag  DW_TAG_variable
    1192                      .dwattr $C$DW$86, DW_AT_name("clkHandle")
    1193                      .dwattr $C$DW$86, DW_AT_TI_symbol_name("_clkHandle")
    1194                      .dwattr $C$DW$86, DW_AT_type(*$C$DW$T$60)
    1195                      .dwattr $C$DW$86, DW_AT_location[DW_OP_reg12]
    1196              
TMS320C2000 Assembler PC v15.12.3 Sun Oct 30 14:01:42 2016

Tools Copyright (c) 1996-2015 Texas Instruments Incorporated
C:\Users\MaCHaDo\AppData\Local\Temp\4588011                          PAGE   23

    1197                      .dwcfi  cfa_offset, -2
    1198                      .dwcfi  save_reg_to_mem, 26, 0
    1199 00000073 7622   EALLOW
    1200                      .dwpsn  file "../drivers/source/clk.c",line 493,column 3,is_stmt,isa 0
    1201 00000074 18D4          AND       *+XAR4[2],#0xfeff     ; [CPU_] |493| 
         00000075 FEFF 
    1202 00000076 761A   EDIS
    1203 00000077 FF69          SPM       #0                    ; [CPU_] 
    1204              $C$DW$87        .dwtag  DW_TAG_TI_branch
    1205                      .dwattr $C$DW$87, DW_AT_low_pc(0x00)
    1206                      .dwattr $C$DW$87, DW_AT_TI_return
    1207              
    1208 00000078 0006          LRETR     ; [CPU_] 
    1209                      ; return occurs ; [] 
    1210                      .dwattr $C$DW$84, DW_AT_TI_end_file("../drivers/source/clk.c")
    1211                      .dwattr $C$DW$84, DW_AT_TI_end_line(0x1f2)
    1212                      .dwattr $C$DW$84, DW_AT_TI_end_column(0x01)
    1213                      .dwendentry
    1214                      .dwendtag $C$DW$84
    1215              
    1216 00000079               .sect   ".text"
    1217                      .clink
    1218                      .global _CLK_enableI2cClock
    1219              
    1220              $C$DW$88        .dwtag  DW_TAG_subprogram
    1221                      .dwattr $C$DW$88, DW_AT_name("CLK_enableI2cClock")
    1222                      .dwattr $C$DW$88, DW_AT_low_pc(_CLK_enableI2cClock)
    1223                      .dwattr $C$DW$88, DW_AT_high_pc(0x00)
    1224                      .dwattr $C$DW$88, DW_AT_TI_symbol_name("_CLK_enableI2cClock")
    1225                      .dwattr $C$DW$88, DW_AT_external
    1226                      .dwattr $C$DW$88, DW_AT_TI_begin_file("../drivers/source/clk.c")
    1227                      .dwattr $C$DW$88, DW_AT_TI_begin_line(0x1d5)
    1228                      .dwattr $C$DW$88, DW_AT_TI_begin_column(0x06)
    1229                      .dwattr $C$DW$88, DW_AT_TI_max_frame_size(-2)
    1230                      .dwpsn  file "../drivers/source/clk.c",line 470,column 1,is_stmt,address _CLK_enableI2cClock,isa 0
    1231              
    1232                      .dwfde $C$DW$CIE, _CLK_enableI2cClock
    1233              $C$DW$89        .dwtag  DW_TAG_formal_parameter
    1234                      .dwattr $C$DW$89, DW_AT_name("clkHandle")
    1235                      .dwattr $C$DW$89, DW_AT_TI_symbol_name("_clkHandle")
    1236                      .dwattr $C$DW$89, DW_AT_type(*$C$DW$T$59)
    1237                      .dwattr $C$DW$89, DW_AT_location[DW_OP_reg12]
    1238              
    1239              
    1240              ;***************************************************************
    1241              ;* FNAME: _CLK_enableI2cClock           FR SIZE:   0           *
    1242              ;*                                                             *
    1243              ;* FUNCTION ENVIRONMENT                                        *
    1244              ;*                                                             *
    1245              ;* FUNCTION PROPERTIES                                         *
    1246              ;*                            0 Parameter,  0 Auto,  0 SOE     *
    1247              ;***************************************************************
    1248              
    1249 00000079       _CLK_enableI2cClock:
    1250                      .dwcfi  cfa_offset, -2
TMS320C2000 Assembler PC v15.12.3 Sun Oct 30 14:01:42 2016

Tools Copyright (c) 1996-2015 Texas Instruments Incorporated
C:\Users\MaCHaDo\AppData\Local\Temp\4588011                          PAGE   24

    1251                      .dwcfi  save_reg_to_mem, 26, 0
    1252 00000079 7622   EALLOW
    1253                      .dwpsn  file "../drivers/source/clk.c",line 477,column 3,is_stmt,isa 0
    1254 0000007a DC0C          ADDB      XAR4,#12              ; [CPU_] |477| 
    1255 0000007b 1AC4          OR        *+XAR4[0],#0x0010     ; [CPU_] |477| 
         0000007c 0010 
    1256 0000007d 761A   EDIS
    1257 0000007e FF69          SPM       #0                    ; [CPU_] 
    1258              $C$DW$90        .dwtag  DW_TAG_TI_branch
    1259                      .dwattr $C$DW$90, DW_AT_low_pc(0x00)
    1260                      .dwattr $C$DW$90, DW_AT_TI_return
    1261              
    1262 0000007f 0006          LRETR     ; [CPU_] 
    1263                      ; return occurs ; [] 
    1264                      .dwattr $C$DW$88, DW_AT_TI_end_file("../drivers/source/clk.c")
    1265                      .dwattr $C$DW$88, DW_AT_TI_end_line(0x1e2)
    1266                      .dwattr $C$DW$88, DW_AT_TI_end_column(0x01)
    1267                      .dwendentry
    1268                      .dwendtag $C$DW$88
    1269              
    1270 00000080               .sect   ".text"
    1271                      .clink
    1272                      .global _CLK_enableHrPwmClock
    1273              
    1274              $C$DW$91        .dwtag  DW_TAG_subprogram
    1275                      .dwattr $C$DW$91, DW_AT_name("CLK_enableHrPwmClock")
    1276                      .dwattr $C$DW$91, DW_AT_low_pc(_CLK_enableHrPwmClock)
    1277                      .dwattr $C$DW$91, DW_AT_high_pc(0x00)
    1278                      .dwattr $C$DW$91, DW_AT_TI_symbol_name("_CLK_enableHrPwmClock")
    1279                      .dwattr $C$DW$91, DW_AT_external
    1280                      .dwattr $C$DW$91, DW_AT_TI_begin_file("../drivers/source/clk.c")
    1281                      .dwattr $C$DW$91, DW_AT_TI_begin_line(0x1c5)
    1282                      .dwattr $C$DW$91, DW_AT_TI_begin_column(0x06)
    1283                      .dwattr $C$DW$91, DW_AT_TI_max_frame_size(-2)
    1284                      .dwpsn  file "../drivers/source/clk.c",line 454,column 1,is_stmt,address _CLK_enableHrPwmClock,isa 0
    1285              
    1286                      .dwfde $C$DW$CIE, _CLK_enableHrPwmClock
    1287              $C$DW$92        .dwtag  DW_TAG_formal_parameter
    1288                      .dwattr $C$DW$92, DW_AT_name("clkHandle")
    1289                      .dwattr $C$DW$92, DW_AT_TI_symbol_name("_clkHandle")
    1290                      .dwattr $C$DW$92, DW_AT_type(*$C$DW$T$59)
    1291                      .dwattr $C$DW$92, DW_AT_location[DW_OP_reg12]
    1292              
    1293              
    1294              ;***************************************************************
    1295              ;* FNAME: _CLK_enableHrPwmClock         FR SIZE:   0           *
    1296              ;*                                                             *
    1297              ;* FUNCTION ENVIRONMENT                                        *
    1298              ;*                                                             *
    1299              ;* FUNCTION PROPERTIES                                         *
    1300              ;*                            0 Parameter,  0 Auto,  0 SOE     *
    1301              ;***************************************************************
    1302              
    1303 00000080       _CLK_enableHrPwmClock:
    1304                      .dwcfi  cfa_offset, -2
TMS320C2000 Assembler PC v15.12.3 Sun Oct 30 14:01:42 2016

Tools Copyright (c) 1996-2015 Texas Instruments Incorporated
C:\Users\MaCHaDo\AppData\Local\Temp\4588011                          PAGE   25

    1305                      .dwcfi  save_reg_to_mem, 26, 0
    1306 00000080 7622   EALLOW
    1307                      .dwpsn  file "../drivers/source/clk.c",line 461,column 3,is_stmt,isa 0
    1308 00000081 DC0C          ADDB      XAR4,#12              ; [CPU_] |461| 
    1309 00000082 1AC4          OR        *+XAR4[0],#0x0001     ; [CPU_] |461| 
         00000083 0001 
    1310 00000084 761A   EDIS
    1311 00000085 FF69          SPM       #0                    ; [CPU_] 
    1312              $C$DW$93        .dwtag  DW_TAG_TI_branch
    1313                      .dwattr $C$DW$93, DW_AT_low_pc(0x00)
    1314                      .dwattr $C$DW$93, DW_AT_TI_return
    1315              
    1316 00000086 0006          LRETR     ; [CPU_] 
    1317                      ; return occurs ; [] 
    1318                      .dwattr $C$DW$91, DW_AT_TI_end_file("../drivers/source/clk.c")
    1319                      .dwattr $C$DW$91, DW_AT_TI_end_line(0x1d2)
    1320                      .dwattr $C$DW$91, DW_AT_TI_end_column(0x01)
    1321                      .dwendentry
    1322                      .dwendtag $C$DW$91
    1323              
    1324 00000087               .sect   ".text"
    1325                      .clink
    1326                      .global _CLK_enableGpioInputClock
    1327              
    1328              $C$DW$94        .dwtag  DW_TAG_subprogram
    1329                      .dwattr $C$DW$94, DW_AT_name("CLK_enableGpioInputClock")
    1330                      .dwattr $C$DW$94, DW_AT_low_pc(_CLK_enableGpioInputClock)
    1331                      .dwattr $C$DW$94, DW_AT_high_pc(0x00)
    1332                      .dwattr $C$DW$94, DW_AT_TI_symbol_name("_CLK_enableGpioInputClock")
    1333                      .dwattr $C$DW$94, DW_AT_external
    1334                      .dwattr $C$DW$94, DW_AT_TI_begin_file("../drivers/source/clk.c")
    1335                      .dwattr $C$DW$94, DW_AT_TI_begin_line(0x1b5)
    1336                      .dwattr $C$DW$94, DW_AT_TI_begin_column(0x06)
    1337                      .dwattr $C$DW$94, DW_AT_TI_max_frame_size(-2)
    1338                      .dwpsn  file "../drivers/source/clk.c",line 438,column 1,is_stmt,address _CLK_enableGpioInputClock,is
    1339              
    1340                      .dwfde $C$DW$CIE, _CLK_enableGpioInputClock
    1341              $C$DW$95        .dwtag  DW_TAG_formal_parameter
    1342                      .dwattr $C$DW$95, DW_AT_name("clkHandle")
    1343                      .dwattr $C$DW$95, DW_AT_TI_symbol_name("_clkHandle")
    1344                      .dwattr $C$DW$95, DW_AT_type(*$C$DW$T$59)
    1345                      .dwattr $C$DW$95, DW_AT_location[DW_OP_reg12]
    1346              
    1347              
    1348              ;***************************************************************
    1349              ;* FNAME: _CLK_enableGpioInputClock     FR SIZE:   0           *
    1350              ;*                                                             *
    1351              ;* FUNCTION ENVIRONMENT                                        *
    1352              ;*                                                             *
    1353              ;* FUNCTION PROPERTIES                                         *
    1354              ;*                            0 Parameter,  0 Auto,  0 SOE     *
    1355              ;***************************************************************
    1356              
    1357 00000087       _CLK_enableGpioInputClock:
    1358                      .dwcfi  cfa_offset, -2
TMS320C2000 Assembler PC v15.12.3 Sun Oct 30 14:01:42 2016

Tools Copyright (c) 1996-2015 Texas Instruments Incorporated
C:\Users\MaCHaDo\AppData\Local\Temp\4588011                          PAGE   26

    1359                      .dwcfi  save_reg_to_mem, 26, 0
    1360 00000087 7622   EALLOW
    1361                      .dwpsn  file "../drivers/source/clk.c",line 445,column 3,is_stmt,isa 0
    1362 00000088 DC10          ADDB      XAR4,#16              ; [CPU_] |445| 
    1363 00000089 1AC4          OR        *+XAR4[0],#0x2000     ; [CPU_] |445| 
         0000008a 2000 
    1364 0000008b 761A   EDIS
    1365 0000008c FF69          SPM       #0                    ; [CPU_] 
    1366              $C$DW$96        .dwtag  DW_TAG_TI_branch
    1367                      .dwattr $C$DW$96, DW_AT_low_pc(0x00)
    1368                      .dwattr $C$DW$96, DW_AT_TI_return
    1369              
    1370 0000008d 0006          LRETR     ; [CPU_] 
    1371                      ; return occurs ; [] 
    1372                      .dwattr $C$DW$94, DW_AT_TI_end_file("../drivers/source/clk.c")
    1373                      .dwattr $C$DW$94, DW_AT_TI_end_line(0x1c2)
    1374                      .dwattr $C$DW$94, DW_AT_TI_end_column(0x01)
    1375                      .dwendentry
    1376                      .dwendtag $C$DW$94
    1377              
    1378 0000008e               .sect   ".text"
    1379                      .clink
    1380                      .global _CLK_enableEcap1Clock
    1381              
    1382              $C$DW$97        .dwtag  DW_TAG_subprogram
    1383                      .dwattr $C$DW$97, DW_AT_name("CLK_enableEcap1Clock")
    1384                      .dwattr $C$DW$97, DW_AT_low_pc(_CLK_enableEcap1Clock)
    1385                      .dwattr $C$DW$97, DW_AT_high_pc(0x00)
    1386                      .dwattr $C$DW$97, DW_AT_TI_symbol_name("_CLK_enableEcap1Clock")
    1387                      .dwattr $C$DW$97, DW_AT_external
    1388                      .dwattr $C$DW$97, DW_AT_TI_begin_file("../drivers/source/clk.c")
    1389                      .dwattr $C$DW$97, DW_AT_TI_begin_line(0x195)
    1390                      .dwattr $C$DW$97, DW_AT_TI_begin_column(0x06)
    1391                      .dwattr $C$DW$97, DW_AT_TI_max_frame_size(-2)
    1392                      .dwpsn  file "../drivers/source/clk.c",line 406,column 1,is_stmt,address _CLK_enableEcap1Clock,isa 0
    1393              
    1394                      .dwfde $C$DW$CIE, _CLK_enableEcap1Clock
    1395              $C$DW$98        .dwtag  DW_TAG_formal_parameter
    1396                      .dwattr $C$DW$98, DW_AT_name("clkHandle")
    1397                      .dwattr $C$DW$98, DW_AT_TI_symbol_name("_clkHandle")
    1398                      .dwattr $C$DW$98, DW_AT_type(*$C$DW$T$59)
    1399                      .dwattr $C$DW$98, DW_AT_location[DW_OP_reg12]
    1400              
    1401              
    1402              ;***************************************************************
    1403              ;* FNAME: _CLK_enableEcap1Clock         FR SIZE:   0           *
    1404              ;*                                                             *
    1405              ;* FUNCTION ENVIRONMENT                                        *
    1406              ;*                                                             *
    1407              ;* FUNCTION PROPERTIES                                         *
    1408              ;*                            0 Parameter,  0 Auto,  0 SOE     *
    1409              ;***************************************************************
    1410              
    1411 0000008e       _CLK_enableEcap1Clock:
    1412                      .dwcfi  cfa_offset, -2
TMS320C2000 Assembler PC v15.12.3 Sun Oct 30 14:01:42 2016

Tools Copyright (c) 1996-2015 Texas Instruments Incorporated
C:\Users\MaCHaDo\AppData\Local\Temp\4588011                          PAGE   27

    1413                      .dwcfi  save_reg_to_mem, 26, 0
    1414 0000008e 7622   EALLOW
    1415                      .dwpsn  file "../drivers/source/clk.c",line 413,column 3,is_stmt,isa 0
    1416 0000008f DC0D          ADDB      XAR4,#13              ; [CPU_] |413| 
    1417 00000090 1AC4          OR        *+XAR4[0],#0x0100     ; [CPU_] |413| 
         00000091 0100 
    1418 00000092 761A   EDIS
    1419 00000093 FF69          SPM       #0                    ; [CPU_] 
    1420              $C$DW$99        .dwtag  DW_TAG_TI_branch
    1421                      .dwattr $C$DW$99, DW_AT_low_pc(0x00)
    1422                      .dwattr $C$DW$99, DW_AT_TI_return
    1423              
    1424 00000094 0006          LRETR     ; [CPU_] 
    1425                      ; return occurs ; [] 
    1426                      .dwattr $C$DW$97, DW_AT_TI_end_file("../drivers/source/clk.c")
    1427                      .dwattr $C$DW$97, DW_AT_TI_end_line(0x1a2)
    1428                      .dwattr $C$DW$97, DW_AT_TI_end_column(0x01)
    1429                      .dwendentry
    1430                      .dwendtag $C$DW$97
    1431              
    1432 00000095               .sect   ".text"
    1433                      .clink
    1434                      .global _CLK_enableCrystalOsc
    1435              
    1436              $C$DW$100       .dwtag  DW_TAG_subprogram
    1437                      .dwattr $C$DW$100, DW_AT_name("CLK_enableCrystalOsc")
    1438                      .dwattr $C$DW$100, DW_AT_low_pc(_CLK_enableCrystalOsc)
    1439                      .dwattr $C$DW$100, DW_AT_high_pc(0x00)
    1440                      .dwattr $C$DW$100, DW_AT_TI_symbol_name("_CLK_enableCrystalOsc")
    1441                      .dwattr $C$DW$100, DW_AT_external
    1442                      .dwattr $C$DW$100, DW_AT_TI_begin_file("../drivers/source/clk.c")
    1443                      .dwattr $C$DW$100, DW_AT_TI_begin_line(0x185)
    1444                      .dwattr $C$DW$100, DW_AT_TI_begin_column(0x06)
    1445                      .dwattr $C$DW$100, DW_AT_TI_max_frame_size(-2)
    1446                      .dwpsn  file "../drivers/source/clk.c",line 390,column 1,is_stmt,address _CLK_enableCrystalOsc,isa 0
    1447              
    1448                      .dwfde $C$DW$CIE, _CLK_enableCrystalOsc
    1449              $C$DW$101       .dwtag  DW_TAG_formal_parameter
    1450                      .dwattr $C$DW$101, DW_AT_name("clkHandle")
    1451                      .dwattr $C$DW$101, DW_AT_TI_symbol_name("_clkHandle")
    1452                      .dwattr $C$DW$101, DW_AT_type(*$C$DW$T$59)
    1453                      .dwattr $C$DW$101, DW_AT_location[DW_OP_reg12]
    1454              
    1455              
    1456              ;***************************************************************
    1457              ;* FNAME: _CLK_enableCrystalOsc         FR SIZE:   0           *
    1458              ;*                                                             *
    1459              ;* FUNCTION ENVIRONMENT                                        *
    1460              ;*                                                             *
    1461              ;* FUNCTION PROPERTIES                                         *
    1462              ;*                            0 Parameter,  0 Auto,  0 SOE     *
    1463              ;***************************************************************
    1464              
    1465              _CLK_enableCrystalOsc:
    1466              ;* AR4   assigned to _clkHandle
TMS320C2000 Assembler PC v15.12.3 Sun Oct 30 14:01:42 2016

Tools Copyright (c) 1996-2015 Texas Instruments Incorporated
C:\Users\MaCHaDo\AppData\Local\Temp\4588011                          PAGE   28

    1467              $C$DW$102       .dwtag  DW_TAG_variable
    1468                      .dwattr $C$DW$102, DW_AT_name("clkHandle")
    1469                      .dwattr $C$DW$102, DW_AT_TI_symbol_name("_clkHandle")
    1470                      .dwattr $C$DW$102, DW_AT_type(*$C$DW$T$60)
    1471                      .dwattr $C$DW$102, DW_AT_location[DW_OP_reg12]
    1472              
    1473                      .dwcfi  cfa_offset, -2
    1474                      .dwcfi  save_reg_to_mem, 26, 0
    1475 00000095 7622   EALLOW
    1476                      .dwpsn  file "../drivers/source/clk.c",line 397,column 3,is_stmt,isa 0
    1477 00000096 18D4          AND       *+XAR4[2],#0xbfff     ; [CPU_] |397| 
         00000097 BFFF 
    1478 00000098 761A   EDIS
    1479 00000099 FF69          SPM       #0                    ; [CPU_] 
    1480              $C$DW$103       .dwtag  DW_TAG_TI_branch
    1481                      .dwattr $C$DW$103, DW_AT_low_pc(0x00)
    1482                      .dwattr $C$DW$103, DW_AT_TI_return
    1483              
    1484 0000009a 0006          LRETR     ; [CPU_] 
    1485                      ; return occurs ; [] 
    1486                      .dwattr $C$DW$100, DW_AT_TI_end_file("../drivers/source/clk.c")
    1487                      .dwattr $C$DW$100, DW_AT_TI_end_line(0x192)
    1488                      .dwattr $C$DW$100, DW_AT_TI_end_column(0x01)
    1489                      .dwendentry
    1490                      .dwendtag $C$DW$100
    1491              
    1492 0000009b               .sect   ".text"
    1493                      .clink
    1494                      .global _CLK_enableCpuTimerClock
    1495              
    1496              $C$DW$104       .dwtag  DW_TAG_subprogram
    1497                      .dwattr $C$DW$104, DW_AT_name("CLK_enableCpuTimerClock")
    1498                      .dwattr $C$DW$104, DW_AT_low_pc(_CLK_enableCpuTimerClock)
    1499                      .dwattr $C$DW$104, DW_AT_high_pc(0x00)
    1500                      .dwattr $C$DW$104, DW_AT_TI_symbol_name("_CLK_enableCpuTimerClock")
    1501                      .dwattr $C$DW$104, DW_AT_external
    1502                      .dwattr $C$DW$104, DW_AT_TI_begin_file("../drivers/source/clk.c")
    1503                      .dwattr $C$DW$104, DW_AT_TI_begin_line(0x175)
    1504                      .dwattr $C$DW$104, DW_AT_TI_begin_column(0x06)
    1505                      .dwattr $C$DW$104, DW_AT_TI_max_frame_size(-2)
    1506                      .dwpsn  file "../drivers/source/clk.c",line 374,column 1,is_stmt,address _CLK_enableCpuTimerClock,isa
    1507              
    1508                      .dwfde $C$DW$CIE, _CLK_enableCpuTimerClock
    1509              $C$DW$105       .dwtag  DW_TAG_formal_parameter
    1510                      .dwattr $C$DW$105, DW_AT_name("clkHandle")
    1511                      .dwattr $C$DW$105, DW_AT_TI_symbol_name("_clkHandle")
    1512                      .dwattr $C$DW$105, DW_AT_type(*$C$DW$T$59)
    1513                      .dwattr $C$DW$105, DW_AT_location[DW_OP_reg12]
    1514              
    1515              $C$DW$106       .dwtag  DW_TAG_formal_parameter
    1516                      .dwattr $C$DW$106, DW_AT_name("cpuTimerNumber")
    1517                      .dwattr $C$DW$106, DW_AT_TI_symbol_name("_cpuTimerNumber")
    1518                      .dwattr $C$DW$106, DW_AT_type(*$C$DW$T$29)
    1519                      .dwattr $C$DW$106, DW_AT_location[DW_OP_reg0]
    1520              
TMS320C2000 Assembler PC v15.12.3 Sun Oct 30 14:01:42 2016

Tools Copyright (c) 1996-2015 Texas Instruments Incorporated
C:\Users\MaCHaDo\AppData\Local\Temp\4588011                          PAGE   29

    1521              
    1522              ;***************************************************************
    1523              ;* FNAME: _CLK_enableCpuTimerClock      FR SIZE:   0           *
    1524              ;*                                                             *
    1525              ;* FUNCTION ENVIRONMENT                                        *
    1526              ;*                                                             *
    1527              ;* FUNCTION PROPERTIES                                         *
    1528              ;*                            0 Parameter,  0 Auto,  0 SOE     *
    1529              ;***************************************************************
    1530              
    1531              _CLK_enableCpuTimerClock:
    1532              ;* AL    assigned to _cpuTimerNumber
    1533              $C$DW$107       .dwtag  DW_TAG_variable
    1534                      .dwattr $C$DW$107, DW_AT_name("cpuTimerNumber")
    1535                      .dwattr $C$DW$107, DW_AT_TI_symbol_name("_cpuTimerNumber")
    1536                      .dwattr $C$DW$107, DW_AT_type(*$C$DW$T$29)
    1537                      .dwattr $C$DW$107, DW_AT_location[DW_OP_reg0]
    1538              
    1539                      .dwcfi  cfa_offset, -2
    1540                      .dwcfi  save_reg_to_mem, 26, 0
    1541 0000009b 7622   EALLOW
    1542                      .dwpsn  file "../drivers/source/clk.c",line 381,column 3,is_stmt,isa 0
    1543 0000009c DC10          ADDB      XAR4,#16              ; [CPU_] |381| 
    1544 0000009d 98C4          OR        *+XAR4[0],AL          ; [CPU_] |381| 
    1545 0000009e 761A   EDIS
    1546 0000009f FF69          SPM       #0                    ; [CPU_] 
    1547              $C$DW$108       .dwtag  DW_TAG_TI_branch
    1548                      .dwattr $C$DW$108, DW_AT_low_pc(0x00)
    1549                      .dwattr $C$DW$108, DW_AT_TI_return
    1550              
    1551 000000a0 0006          LRETR     ; [CPU_] 
    1552                      ; return occurs ; [] 
    1553                      .dwattr $C$DW$104, DW_AT_TI_end_file("../drivers/source/clk.c")
    1554                      .dwattr $C$DW$104, DW_AT_TI_end_line(0x182)
    1555                      .dwattr $C$DW$104, DW_AT_TI_end_column(0x01)
    1556                      .dwendentry
    1557                      .dwendtag $C$DW$104
    1558              
    1559 000000a1               .sect   ".text"
    1560                      .clink
    1561                      .global _CLK_enableCompClock
    1562              
    1563              $C$DW$109       .dwtag  DW_TAG_subprogram
    1564                      .dwattr $C$DW$109, DW_AT_name("CLK_enableCompClock")
    1565                      .dwattr $C$DW$109, DW_AT_low_pc(_CLK_enableCompClock)
    1566                      .dwattr $C$DW$109, DW_AT_high_pc(0x00)
    1567                      .dwattr $C$DW$109, DW_AT_TI_symbol_name("_CLK_enableCompClock")
    1568                      .dwattr $C$DW$109, DW_AT_external
    1569                      .dwattr $C$DW$109, DW_AT_TI_begin_file("../drivers/source/clk.c")
    1570                      .dwattr $C$DW$109, DW_AT_TI_begin_line(0x165)
    1571                      .dwattr $C$DW$109, DW_AT_TI_begin_column(0x06)
    1572                      .dwattr $C$DW$109, DW_AT_TI_max_frame_size(-2)
    1573                      .dwpsn  file "../drivers/source/clk.c",line 358,column 1,is_stmt,address _CLK_enableCompClock,isa 0
    1574              
    1575                      .dwfde $C$DW$CIE, _CLK_enableCompClock
TMS320C2000 Assembler PC v15.12.3 Sun Oct 30 14:01:42 2016

Tools Copyright (c) 1996-2015 Texas Instruments Incorporated
C:\Users\MaCHaDo\AppData\Local\Temp\4588011                          PAGE   30

    1576              $C$DW$110       .dwtag  DW_TAG_formal_parameter
    1577                      .dwattr $C$DW$110, DW_AT_name("clkHandle")
    1578                      .dwattr $C$DW$110, DW_AT_TI_symbol_name("_clkHandle")
    1579                      .dwattr $C$DW$110, DW_AT_type(*$C$DW$T$59)
    1580                      .dwattr $C$DW$110, DW_AT_location[DW_OP_reg12]
    1581              
    1582              $C$DW$111       .dwtag  DW_TAG_formal_parameter
    1583                      .dwattr $C$DW$111, DW_AT_name("compNumber")
    1584                      .dwattr $C$DW$111, DW_AT_TI_symbol_name("_compNumber")
    1585                      .dwattr $C$DW$111, DW_AT_type(*$C$DW$T$26)
    1586                      .dwattr $C$DW$111, DW_AT_location[DW_OP_reg0]
    1587              
    1588              
    1589              ;***************************************************************
    1590              ;* FNAME: _CLK_enableCompClock          FR SIZE:   0           *
    1591              ;*                                                             *
    1592              ;* FUNCTION ENVIRONMENT                                        *
    1593              ;*                                                             *
    1594              ;* FUNCTION PROPERTIES                                         *
    1595              ;*                            0 Parameter,  0 Auto,  0 SOE     *
    1596              ;***************************************************************
    1597              
    1598              _CLK_enableCompClock:
    1599              ;* AL    assigned to _compNumber
    1600              $C$DW$112       .dwtag  DW_TAG_variable
    1601                      .dwattr $C$DW$112, DW_AT_name("compNumber")
    1602                      .dwattr $C$DW$112, DW_AT_TI_symbol_name("_compNumber")
    1603                      .dwattr $C$DW$112, DW_AT_type(*$C$DW$T$26)
    1604                      .dwattr $C$DW$112, DW_AT_location[DW_OP_reg0]
    1605              
    1606                      .dwcfi  cfa_offset, -2
    1607                      .dwcfi  save_reg_to_mem, 26, 0
    1608 000000a1 7622   EALLOW
    1609                      .dwpsn  file "../drivers/source/clk.c",line 365,column 3,is_stmt,isa 0
    1610 000000a2 DC10          ADDB      XAR4,#16              ; [CPU_] |365| 
    1611 000000a3 98C4          OR        *+XAR4[0],AL          ; [CPU_] |365| 
    1612 000000a4 761A   EDIS
    1613 000000a5 FF69          SPM       #0                    ; [CPU_] 
    1614              $C$DW$113       .dwtag  DW_TAG_TI_branch
    1615                      .dwattr $C$DW$113, DW_AT_low_pc(0x00)
    1616                      .dwattr $C$DW$113, DW_AT_TI_return
    1617              
    1618 000000a6 0006          LRETR     ; [CPU_] 
    1619                      ; return occurs ; [] 
    1620                      .dwattr $C$DW$109, DW_AT_TI_end_file("../drivers/source/clk.c")
    1621                      .dwattr $C$DW$109, DW_AT_TI_end_line(0x172)
    1622                      .dwattr $C$DW$109, DW_AT_TI_end_column(0x01)
    1623                      .dwendentry
    1624                      .dwendtag $C$DW$109
    1625              
    1626 000000a7               .sect   ".text"
    1627                      .clink
    1628                      .global _CLK_enableClkIn
    1629              
    1630              $C$DW$114       .dwtag  DW_TAG_subprogram
TMS320C2000 Assembler PC v15.12.3 Sun Oct 30 14:01:42 2016

Tools Copyright (c) 1996-2015 Texas Instruments Incorporated
C:\Users\MaCHaDo\AppData\Local\Temp\4588011                          PAGE   31

    1631                      .dwattr $C$DW$114, DW_AT_name("CLK_enableClkIn")
    1632                      .dwattr $C$DW$114, DW_AT_low_pc(_CLK_enableClkIn)
    1633                      .dwattr $C$DW$114, DW_AT_high_pc(0x00)
    1634                      .dwattr $C$DW$114, DW_AT_TI_symbol_name("_CLK_enableClkIn")
    1635                      .dwattr $C$DW$114, DW_AT_external
    1636                      .dwattr $C$DW$114, DW_AT_TI_begin_file("../drivers/source/clk.c")
    1637                      .dwattr $C$DW$114, DW_AT_TI_begin_line(0x1a5)
    1638                      .dwattr $C$DW$114, DW_AT_TI_begin_column(0x06)
    1639                      .dwattr $C$DW$114, DW_AT_TI_max_frame_size(-2)
    1640                      .dwpsn  file "../drivers/source/clk.c",line 422,column 1,is_stmt,address _CLK_enableClkIn,isa 0
    1641              
    1642                      .dwfde $C$DW$CIE, _CLK_enableClkIn
    1643              $C$DW$115       .dwtag  DW_TAG_formal_parameter
    1644                      .dwattr $C$DW$115, DW_AT_name("clkHandle")
    1645                      .dwattr $C$DW$115, DW_AT_TI_symbol_name("_clkHandle")
    1646                      .dwattr $C$DW$115, DW_AT_type(*$C$DW$T$59)
    1647                      .dwattr $C$DW$115, DW_AT_location[DW_OP_reg12]
    1648              
    1649              
    1650              ;***************************************************************
    1651              ;* FNAME: _CLK_enableClkIn              FR SIZE:   0           *
    1652              ;*                                                             *
    1653              ;* FUNCTION ENVIRONMENT                                        *
    1654              ;*                                                             *
    1655              ;* FUNCTION PROPERTIES                                         *
    1656              ;*                            0 Parameter,  0 Auto,  0 SOE     *
    1657              ;***************************************************************
    1658              
    1659              _CLK_enableClkIn:
    1660              ;* AR4   assigned to _clkHandle
    1661              $C$DW$116       .dwtag  DW_TAG_variable
    1662                      .dwattr $C$DW$116, DW_AT_name("clkHandle")
    1663                      .dwattr $C$DW$116, DW_AT_TI_symbol_name("_clkHandle")
    1664                      .dwattr $C$DW$116, DW_AT_type(*$C$DW$T$60)
    1665                      .dwattr $C$DW$116, DW_AT_location[DW_OP_reg12]
    1666              
    1667                      .dwcfi  cfa_offset, -2
    1668                      .dwcfi  save_reg_to_mem, 26, 0
    1669 000000a7 7622   EALLOW
    1670                      .dwpsn  file "../drivers/source/clk.c",line 429,column 3,is_stmt,isa 0
    1671 000000a8 18D4          AND       *+XAR4[2],#0xdfff     ; [CPU_] |429| 
         000000a9 DFFF 
    1672 000000aa 761A   EDIS
    1673 000000ab FF69          SPM       #0                    ; [CPU_] 
    1674              $C$DW$117       .dwtag  DW_TAG_TI_branch
    1675                      .dwattr $C$DW$117, DW_AT_low_pc(0x00)
    1676                      .dwattr $C$DW$117, DW_AT_TI_return
    1677              
    1678 000000ac 0006          LRETR     ; [CPU_] 
    1679                      ; return occurs ; [] 
    1680                      .dwattr $C$DW$114, DW_AT_TI_end_file("../drivers/source/clk.c")
    1681                      .dwattr $C$DW$114, DW_AT_TI_end_line(0x1b2)
    1682                      .dwattr $C$DW$114, DW_AT_TI_end_column(0x01)
    1683                      .dwendentry
    1684                      .dwendtag $C$DW$114
TMS320C2000 Assembler PC v15.12.3 Sun Oct 30 14:01:42 2016

Tools Copyright (c) 1996-2015 Texas Instruments Incorporated
C:\Users\MaCHaDo\AppData\Local\Temp\4588011                          PAGE   32

    1685              
    1686 000000ad               .sect   ".text"
    1687                      .clink
    1688                      .global _CLK_enableAdcClock
    1689              
    1690              $C$DW$118       .dwtag  DW_TAG_subprogram
    1691                      .dwattr $C$DW$118, DW_AT_name("CLK_enableAdcClock")
    1692                      .dwattr $C$DW$118, DW_AT_low_pc(_CLK_enableAdcClock)
    1693                      .dwattr $C$DW$118, DW_AT_high_pc(0x00)
    1694                      .dwattr $C$DW$118, DW_AT_TI_symbol_name("_CLK_enableAdcClock")
    1695                      .dwattr $C$DW$118, DW_AT_external
    1696                      .dwattr $C$DW$118, DW_AT_TI_begin_file("../drivers/source/clk.c")
    1697                      .dwattr $C$DW$118, DW_AT_TI_begin_line(0x155)
    1698                      .dwattr $C$DW$118, DW_AT_TI_begin_column(0x06)
    1699                      .dwattr $C$DW$118, DW_AT_TI_max_frame_size(-2)
    1700                      .dwpsn  file "../drivers/source/clk.c",line 342,column 1,is_stmt,address _CLK_enableAdcClock,isa 0
    1701              
    1702                      .dwfde $C$DW$CIE, _CLK_enableAdcClock
    1703              $C$DW$119       .dwtag  DW_TAG_formal_parameter
    1704                      .dwattr $C$DW$119, DW_AT_name("clkHandle")
    1705                      .dwattr $C$DW$119, DW_AT_TI_symbol_name("_clkHandle")
    1706                      .dwattr $C$DW$119, DW_AT_type(*$C$DW$T$59)
    1707                      .dwattr $C$DW$119, DW_AT_location[DW_OP_reg12]
    1708              
    1709              
    1710              ;***************************************************************
    1711              ;* FNAME: _CLK_enableAdcClock           FR SIZE:   0           *
    1712              ;*                                                             *
    1713              ;* FUNCTION ENVIRONMENT                                        *
    1714              ;*                                                             *
    1715              ;* FUNCTION PROPERTIES                                         *
    1716              ;*                            0 Parameter,  0 Auto,  0 SOE     *
    1717              ;***************************************************************
    1718              
    1719 000000ad       _CLK_enableAdcClock:
    1720                      .dwcfi  cfa_offset, -2
    1721                      .dwcfi  save_reg_to_mem, 26, 0
    1722 000000ad 7622   EALLOW
    1723                      .dwpsn  file "../drivers/source/clk.c",line 349,column 3,is_stmt,isa 0
    1724 000000ae DC0C          ADDB      XAR4,#12              ; [CPU_] |349| 
    1725 000000af 1AC4          OR        *+XAR4[0],#0x0008     ; [CPU_] |349| 
         000000b0 0008 
    1726 000000b1 761A   EDIS
    1727 000000b2 FF69          SPM       #0                    ; [CPU_] 
    1728              $C$DW$120       .dwtag  DW_TAG_TI_branch
    1729                      .dwattr $C$DW$120, DW_AT_low_pc(0x00)
    1730                      .dwattr $C$DW$120, DW_AT_TI_return
    1731              
    1732 000000b3 0006          LRETR     ; [CPU_] 
    1733                      ; return occurs ; [] 
    1734                      .dwattr $C$DW$118, DW_AT_TI_end_file("../drivers/source/clk.c")
    1735                      .dwattr $C$DW$118, DW_AT_TI_end_line(0x162)
    1736                      .dwattr $C$DW$118, DW_AT_TI_end_column(0x01)
    1737                      .dwendentry
    1738                      .dwendtag $C$DW$118
TMS320C2000 Assembler PC v15.12.3 Sun Oct 30 14:01:42 2016

Tools Copyright (c) 1996-2015 Texas Instruments Incorporated
C:\Users\MaCHaDo\AppData\Local\Temp\4588011                          PAGE   33

    1739              
    1740 000000b4               .sect   ".text"
    1741                      .clink
    1742                      .global _CLK_disableWatchDogHaltMode
    1743              
    1744              $C$DW$121       .dwtag  DW_TAG_subprogram
    1745                      .dwattr $C$DW$121, DW_AT_name("CLK_disableWatchDogHaltMode")
    1746                      .dwattr $C$DW$121, DW_AT_low_pc(_CLK_disableWatchDogHaltMode)
    1747                      .dwattr $C$DW$121, DW_AT_high_pc(0x00)
    1748                      .dwattr $C$DW$121, DW_AT_TI_symbol_name("_CLK_disableWatchDogHaltMode")
    1749                      .dwattr $C$DW$121, DW_AT_external
    1750                      .dwattr $C$DW$121, DW_AT_TI_begin_file("../drivers/source/clk.c")
    1751                      .dwattr $C$DW$121, DW_AT_TI_begin_line(0x145)
    1752                      .dwattr $C$DW$121, DW_AT_TI_begin_column(0x06)
    1753                      .dwattr $C$DW$121, DW_AT_TI_max_frame_size(-2)
    1754                      .dwpsn  file "../drivers/source/clk.c",line 326,column 1,is_stmt,address _CLK_disableWatchDogHaltMode
    1755              
    1756                      .dwfde $C$DW$CIE, _CLK_disableWatchDogHaltMode
    1757              $C$DW$122       .dwtag  DW_TAG_formal_parameter
    1758                      .dwattr $C$DW$122, DW_AT_name("clkHandle")
    1759                      .dwattr $C$DW$122, DW_AT_TI_symbol_name("_clkHandle")
    1760                      .dwattr $C$DW$122, DW_AT_type(*$C$DW$T$59)
    1761                      .dwattr $C$DW$122, DW_AT_location[DW_OP_reg12]
    1762              
    1763              
    1764              ;***************************************************************
    1765              ;* FNAME: _CLK_disableWatchDogHaltMode  FR SIZE:   0           *
    1766              ;*                                                             *
    1767              ;* FUNCTION ENVIRONMENT                                        *
    1768              ;*                                                             *
    1769              ;* FUNCTION PROPERTIES                                         *
    1770              ;*                            0 Parameter,  0 Auto,  0 SOE     *
    1771              ;***************************************************************
    1772              
    1773              _CLK_disableWatchDogHaltMode:
    1774              ;* AR4   assigned to _clkHandle
    1775              $C$DW$123       .dwtag  DW_TAG_variable
    1776                      .dwattr $C$DW$123, DW_AT_name("clkHandle")
    1777                      .dwattr $C$DW$123, DW_AT_TI_symbol_name("_clkHandle")
    1778                      .dwattr $C$DW$123, DW_AT_type(*$C$DW$T$60)
    1779                      .dwattr $C$DW$123, DW_AT_location[DW_OP_reg12]
    1780              
    1781                      .dwcfi  cfa_offset, -2
    1782                      .dwcfi  save_reg_to_mem, 26, 0
    1783 000000b4 7622   EALLOW
    1784                      .dwpsn  file "../drivers/source/clk.c",line 333,column 3,is_stmt,isa 0
    1785 000000b5 1AD4          OR        *+XAR4[2],#0x1000     ; [CPU_] |333| 
         000000b6 1000 
    1786 000000b7 761A   EDIS
    1787 000000b8 FF69          SPM       #0                    ; [CPU_] 
    1788              $C$DW$124       .dwtag  DW_TAG_TI_branch
    1789                      .dwattr $C$DW$124, DW_AT_low_pc(0x00)
    1790                      .dwattr $C$DW$124, DW_AT_TI_return
    1791              
    1792 000000b9 0006          LRETR     ; [CPU_] 
TMS320C2000 Assembler PC v15.12.3 Sun Oct 30 14:01:42 2016

Tools Copyright (c) 1996-2015 Texas Instruments Incorporated
C:\Users\MaCHaDo\AppData\Local\Temp\4588011                          PAGE   34

    1793                      ; return occurs ; [] 
    1794                      .dwattr $C$DW$121, DW_AT_TI_end_file("../drivers/source/clk.c")
    1795                      .dwattr $C$DW$121, DW_AT_TI_end_line(0x152)
    1796                      .dwattr $C$DW$121, DW_AT_TI_end_column(0x01)
    1797                      .dwendentry
    1798                      .dwendtag $C$DW$121
    1799              
    1800 000000ba               .sect   ".text"
    1801                      .clink
    1802                      .global _CLK_disableTbClockSync
    1803              
    1804              $C$DW$125       .dwtag  DW_TAG_subprogram
    1805                      .dwattr $C$DW$125, DW_AT_name("CLK_disableTbClockSync")
    1806                      .dwattr $C$DW$125, DW_AT_low_pc(_CLK_disableTbClockSync)
    1807                      .dwattr $C$DW$125, DW_AT_high_pc(0x00)
    1808                      .dwattr $C$DW$125, DW_AT_TI_symbol_name("_CLK_disableTbClockSync")
    1809                      .dwattr $C$DW$125, DW_AT_external
    1810                      .dwattr $C$DW$125, DW_AT_TI_begin_file("../drivers/source/clk.c")
    1811                      .dwattr $C$DW$125, DW_AT_TI_begin_line(0x135)
    1812                      .dwattr $C$DW$125, DW_AT_TI_begin_column(0x06)
    1813                      .dwattr $C$DW$125, DW_AT_TI_max_frame_size(-2)
    1814                      .dwpsn  file "../drivers/source/clk.c",line 310,column 1,is_stmt,address _CLK_disableTbClockSync,isa 
    1815              
    1816                      .dwfde $C$DW$CIE, _CLK_disableTbClockSync
    1817              $C$DW$126       .dwtag  DW_TAG_formal_parameter
    1818                      .dwattr $C$DW$126, DW_AT_name("clkHandle")
    1819                      .dwattr $C$DW$126, DW_AT_TI_symbol_name("_clkHandle")
    1820                      .dwattr $C$DW$126, DW_AT_type(*$C$DW$T$59)
    1821                      .dwattr $C$DW$126, DW_AT_location[DW_OP_reg12]
    1822              
    1823              
    1824              ;***************************************************************
    1825              ;* FNAME: _CLK_disableTbClockSync       FR SIZE:   0           *
    1826              ;*                                                             *
    1827              ;* FUNCTION ENVIRONMENT                                        *
    1828              ;*                                                             *
    1829              ;* FUNCTION PROPERTIES                                         *
    1830              ;*                            0 Parameter,  0 Auto,  0 SOE     *
    1831              ;***************************************************************
    1832              
    1833 000000ba       _CLK_disableTbClockSync:
    1834                      .dwcfi  cfa_offset, -2
    1835                      .dwcfi  save_reg_to_mem, 26, 0
    1836 000000ba 7622   EALLOW
    1837                      .dwpsn  file "../drivers/source/clk.c",line 317,column 3,is_stmt,isa 0
    1838 000000bb DC0C          ADDB      XAR4,#12              ; [CPU_] |317| 
    1839 000000bc 18C4          AND       *+XAR4[0],#0xfffb     ; [CPU_] |317| 
         000000bd FFFB 
    1840 000000be 761A   EDIS
    1841 000000bf FF69          SPM       #0                    ; [CPU_] 
    1842              $C$DW$127       .dwtag  DW_TAG_TI_branch
    1843                      .dwattr $C$DW$127, DW_AT_low_pc(0x00)
    1844                      .dwattr $C$DW$127, DW_AT_TI_return
    1845              
    1846 000000c0 0006          LRETR     ; [CPU_] 
TMS320C2000 Assembler PC v15.12.3 Sun Oct 30 14:01:42 2016

Tools Copyright (c) 1996-2015 Texas Instruments Incorporated
C:\Users\MaCHaDo\AppData\Local\Temp\4588011                          PAGE   35

    1847                      ; return occurs ; [] 
    1848                      .dwattr $C$DW$125, DW_AT_TI_end_file("../drivers/source/clk.c")
    1849                      .dwattr $C$DW$125, DW_AT_TI_end_line(0x142)
    1850                      .dwattr $C$DW$125, DW_AT_TI_end_column(0x01)
    1851                      .dwendentry
    1852                      .dwendtag $C$DW$125
    1853              
    1854 000000c1               .sect   ".text"
    1855                      .clink
    1856                      .global _CLK_disableSpiaClock
    1857              
    1858              $C$DW$128       .dwtag  DW_TAG_subprogram
    1859                      .dwattr $C$DW$128, DW_AT_name("CLK_disableSpiaClock")
    1860                      .dwattr $C$DW$128, DW_AT_low_pc(_CLK_disableSpiaClock)
    1861                      .dwattr $C$DW$128, DW_AT_high_pc(0x00)
    1862                      .dwattr $C$DW$128, DW_AT_TI_symbol_name("_CLK_disableSpiaClock")
    1863                      .dwattr $C$DW$128, DW_AT_external
    1864                      .dwattr $C$DW$128, DW_AT_TI_begin_file("../drivers/source/clk.c")
    1865                      .dwattr $C$DW$128, DW_AT_TI_begin_line(0x125)
    1866                      .dwattr $C$DW$128, DW_AT_TI_begin_column(0x06)
    1867                      .dwattr $C$DW$128, DW_AT_TI_max_frame_size(-2)
    1868                      .dwpsn  file "../drivers/source/clk.c",line 294,column 1,is_stmt,address _CLK_disableSpiaClock,isa 0
    1869              
    1870                      .dwfde $C$DW$CIE, _CLK_disableSpiaClock
    1871              $C$DW$129       .dwtag  DW_TAG_formal_parameter
    1872                      .dwattr $C$DW$129, DW_AT_name("clkHandle")
    1873                      .dwattr $C$DW$129, DW_AT_TI_symbol_name("_clkHandle")
    1874                      .dwattr $C$DW$129, DW_AT_type(*$C$DW$T$59)
    1875                      .dwattr $C$DW$129, DW_AT_location[DW_OP_reg12]
    1876              
    1877              
    1878              ;***************************************************************
    1879              ;* FNAME: _CLK_disableSpiaClock         FR SIZE:   0           *
    1880              ;*                                                             *
    1881              ;* FUNCTION ENVIRONMENT                                        *
    1882              ;*                                                             *
    1883              ;* FUNCTION PROPERTIES                                         *
    1884              ;*                            0 Parameter,  0 Auto,  0 SOE     *
    1885              ;***************************************************************
    1886              
    1887 000000c1       _CLK_disableSpiaClock:
    1888                      .dwcfi  cfa_offset, -2
    1889                      .dwcfi  save_reg_to_mem, 26, 0
    1890 000000c1 7622   EALLOW
    1891                      .dwpsn  file "../drivers/source/clk.c",line 301,column 3,is_stmt,isa 0
    1892 000000c2 DC0C          ADDB      XAR4,#12              ; [CPU_] |301| 
    1893 000000c3 18C4          AND       *+XAR4[0],#0xfeff     ; [CPU_] |301| 
         000000c4 FEFF 
    1894 000000c5 761A   EDIS
    1895 000000c6 FF69          SPM       #0                    ; [CPU_] 
    1896              $C$DW$130       .dwtag  DW_TAG_TI_branch
    1897                      .dwattr $C$DW$130, DW_AT_low_pc(0x00)
    1898                      .dwattr $C$DW$130, DW_AT_TI_return
    1899              
    1900 000000c7 0006          LRETR     ; [CPU_] 
TMS320C2000 Assembler PC v15.12.3 Sun Oct 30 14:01:42 2016

Tools Copyright (c) 1996-2015 Texas Instruments Incorporated
C:\Users\MaCHaDo\AppData\Local\Temp\4588011                          PAGE   36

    1901                      ; return occurs ; [] 
    1902                      .dwattr $C$DW$128, DW_AT_TI_end_file("../drivers/source/clk.c")
    1903                      .dwattr $C$DW$128, DW_AT_TI_end_line(0x132)
    1904                      .dwattr $C$DW$128, DW_AT_TI_end_column(0x01)
    1905                      .dwendentry
    1906                      .dwendtag $C$DW$128
    1907              
    1908 000000c8               .sect   ".text"
    1909                      .clink
    1910                      .global _CLK_disableSciaClock
    1911              
    1912              $C$DW$131       .dwtag  DW_TAG_subprogram
    1913                      .dwattr $C$DW$131, DW_AT_name("CLK_disableSciaClock")
    1914                      .dwattr $C$DW$131, DW_AT_low_pc(_CLK_disableSciaClock)
    1915                      .dwattr $C$DW$131, DW_AT_high_pc(0x00)
    1916                      .dwattr $C$DW$131, DW_AT_TI_symbol_name("_CLK_disableSciaClock")
    1917                      .dwattr $C$DW$131, DW_AT_external
    1918                      .dwattr $C$DW$131, DW_AT_TI_begin_file("../drivers/source/clk.c")
    1919                      .dwattr $C$DW$131, DW_AT_TI_begin_line(0x115)
    1920                      .dwattr $C$DW$131, DW_AT_TI_begin_column(0x06)
    1921                      .dwattr $C$DW$131, DW_AT_TI_max_frame_size(-2)
    1922                      .dwpsn  file "../drivers/source/clk.c",line 278,column 1,is_stmt,address _CLK_disableSciaClock,isa 0
    1923              
    1924                      .dwfde $C$DW$CIE, _CLK_disableSciaClock
    1925              $C$DW$132       .dwtag  DW_TAG_formal_parameter
    1926                      .dwattr $C$DW$132, DW_AT_name("clkHandle")
    1927                      .dwattr $C$DW$132, DW_AT_TI_symbol_name("_clkHandle")
    1928                      .dwattr $C$DW$132, DW_AT_type(*$C$DW$T$59)
    1929                      .dwattr $C$DW$132, DW_AT_location[DW_OP_reg12]
    1930              
    1931              
    1932              ;***************************************************************
    1933              ;* FNAME: _CLK_disableSciaClock         FR SIZE:   0           *
    1934              ;*                                                             *
    1935              ;* FUNCTION ENVIRONMENT                                        *
    1936              ;*                                                             *
    1937              ;* FUNCTION PROPERTIES                                         *
    1938              ;*                            0 Parameter,  0 Auto,  0 SOE     *
    1939              ;***************************************************************
    1940              
    1941 000000c8       _CLK_disableSciaClock:
    1942                      .dwcfi  cfa_offset, -2
    1943                      .dwcfi  save_reg_to_mem, 26, 0
    1944 000000c8 7622   EALLOW
    1945                      .dwpsn  file "../drivers/source/clk.c",line 285,column 3,is_stmt,isa 0
    1946 000000c9 DC0C          ADDB      XAR4,#12              ; [CPU_] |285| 
    1947 000000ca 18C4          AND       *+XAR4[0],#0xfbff     ; [CPU_] |285| 
         000000cb FBFF 
    1948 000000cc 761A   EDIS
    1949 000000cd FF69          SPM       #0                    ; [CPU_] 
    1950              $C$DW$133       .dwtag  DW_TAG_TI_branch
    1951                      .dwattr $C$DW$133, DW_AT_low_pc(0x00)
    1952                      .dwattr $C$DW$133, DW_AT_TI_return
    1953              
    1954 000000ce 0006          LRETR     ; [CPU_] 
TMS320C2000 Assembler PC v15.12.3 Sun Oct 30 14:01:42 2016

Tools Copyright (c) 1996-2015 Texas Instruments Incorporated
C:\Users\MaCHaDo\AppData\Local\Temp\4588011                          PAGE   37

    1955                      ; return occurs ; [] 
    1956                      .dwattr $C$DW$131, DW_AT_TI_end_file("../drivers/source/clk.c")
    1957                      .dwattr $C$DW$131, DW_AT_TI_end_line(0x122)
    1958                      .dwattr $C$DW$131, DW_AT_TI_end_column(0x01)
    1959                      .dwendentry
    1960                      .dwendtag $C$DW$131
    1961              
    1962 000000cf               .sect   ".text"
    1963                      .clink
    1964                      .global _CLK_disablePwmClock
    1965              
    1966              $C$DW$134       .dwtag  DW_TAG_subprogram
    1967                      .dwattr $C$DW$134, DW_AT_name("CLK_disablePwmClock")
    1968                      .dwattr $C$DW$134, DW_AT_low_pc(_CLK_disablePwmClock)
    1969                      .dwattr $C$DW$134, DW_AT_high_pc(0x00)
    1970                      .dwattr $C$DW$134, DW_AT_TI_symbol_name("_CLK_disablePwmClock")
    1971                      .dwattr $C$DW$134, DW_AT_external
    1972                      .dwattr $C$DW$134, DW_AT_TI_begin_file("../drivers/source/clk.c")
    1973                      .dwattr $C$DW$134, DW_AT_TI_begin_line(0x105)
    1974                      .dwattr $C$DW$134, DW_AT_TI_begin_column(0x06)
    1975                      .dwattr $C$DW$134, DW_AT_TI_max_frame_size(-2)
    1976                      .dwpsn  file "../drivers/source/clk.c",line 262,column 1,is_stmt,address _CLK_disablePwmClock,isa 0
    1977              
    1978                      .dwfde $C$DW$CIE, _CLK_disablePwmClock
    1979              $C$DW$135       .dwtag  DW_TAG_formal_parameter
    1980                      .dwattr $C$DW$135, DW_AT_name("clkHandle")
    1981                      .dwattr $C$DW$135, DW_AT_TI_symbol_name("_clkHandle")
    1982                      .dwattr $C$DW$135, DW_AT_type(*$C$DW$T$59)
    1983                      .dwattr $C$DW$135, DW_AT_location[DW_OP_reg12]
    1984              
    1985              $C$DW$136       .dwtag  DW_TAG_formal_parameter
    1986                      .dwattr $C$DW$136, DW_AT_name("pwmNumber")
    1987                      .dwattr $C$DW$136, DW_AT_TI_symbol_name("_pwmNumber")
    1988                      .dwattr $C$DW$136, DW_AT_type(*$C$DW$T$32)
    1989                      .dwattr $C$DW$136, DW_AT_location[DW_OP_reg0]
    1990              
    1991              
    1992              ;***************************************************************
    1993              ;* FNAME: _CLK_disablePwmClock          FR SIZE:   0           *
    1994              ;*                                                             *
    1995              ;* FUNCTION ENVIRONMENT                                        *
    1996              ;*                                                             *
    1997              ;* FUNCTION PROPERTIES                                         *
    1998              ;*                            0 Parameter,  0 Auto,  0 SOE     *
    1999              ;***************************************************************
    2000              
    2001              _CLK_disablePwmClock:
    2002              ;* T     assigned to _pwmNumber
    2003              $C$DW$137       .dwtag  DW_TAG_variable
    2004                      .dwattr $C$DW$137, DW_AT_name("pwmNumber")
    2005                      .dwattr $C$DW$137, DW_AT_TI_symbol_name("_pwmNumber")
    2006                      .dwattr $C$DW$137, DW_AT_type(*$C$DW$T$32)
    2007                      .dwattr $C$DW$137, DW_AT_location[DW_OP_reg22]
    2008              
    2009                      .dwcfi  cfa_offset, -2
TMS320C2000 Assembler PC v15.12.3 Sun Oct 30 14:01:42 2016

Tools Copyright (c) 1996-2015 Texas Instruments Incorporated
C:\Users\MaCHaDo\AppData\Local\Temp\4588011                          PAGE   38

    2010                      .dwcfi  save_reg_to_mem, 26, 0
    2011 000000cf 2DA9          MOV       T,AL                  ; [CPU_] |262| 
    2012 000000d0 7622   EALLOW
    2013                      .dwpsn  file "../drivers/source/clk.c",line 269,column 3,is_stmt,isa 0
    2014 000000d1 9A01          MOVB      AL,#1                 ; [CPU_] |269| 
    2015 000000d2 DC0D          ADDB      XAR4,#13              ; [CPU_] |269| 
    2016 000000d3 FF66          LSL       AL,T                  ; [CPU_] |269| 
    2017 000000d4 FF5E          NOT       AL                    ; [CPU_] |269| 
    2018 000000d5 C0C4          AND       *+XAR4[0],AL          ; [CPU_] |269| 
    2019 000000d6 761A   EDIS
    2020 000000d7 FF69          SPM       #0                    ; [CPU_] 
    2021              $C$DW$138       .dwtag  DW_TAG_TI_branch
    2022                      .dwattr $C$DW$138, DW_AT_low_pc(0x00)
    2023                      .dwattr $C$DW$138, DW_AT_TI_return
    2024              
    2025 000000d8 0006          LRETR     ; [CPU_] 
    2026                      ; return occurs ; [] 
    2027                      .dwattr $C$DW$134, DW_AT_TI_end_file("../drivers/source/clk.c")
    2028                      .dwattr $C$DW$134, DW_AT_TI_end_line(0x112)
    2029                      .dwattr $C$DW$134, DW_AT_TI_end_column(0x01)
    2030                      .dwendentry
    2031                      .dwendtag $C$DW$134
    2032              
    2033 000000d9               .sect   ".text"
    2034                      .clink
    2035                      .global _CLK_disableOsc2HaltMode
    2036              
    2037              $C$DW$139       .dwtag  DW_TAG_subprogram
    2038                      .dwattr $C$DW$139, DW_AT_name("CLK_disableOsc2HaltMode")
    2039                      .dwattr $C$DW$139, DW_AT_low_pc(_CLK_disableOsc2HaltMode)
    2040                      .dwattr $C$DW$139, DW_AT_high_pc(0x00)
    2041                      .dwattr $C$DW$139, DW_AT_TI_symbol_name("_CLK_disableOsc2HaltMode")
    2042                      .dwattr $C$DW$139, DW_AT_external
    2043                      .dwattr $C$DW$139, DW_AT_TI_begin_file("../drivers/source/clk.c")
    2044                      .dwattr $C$DW$139, DW_AT_TI_begin_line(0xf5)
    2045                      .dwattr $C$DW$139, DW_AT_TI_begin_column(0x06)
    2046                      .dwattr $C$DW$139, DW_AT_TI_max_frame_size(-2)
    2047                      .dwpsn  file "../drivers/source/clk.c",line 246,column 1,is_stmt,address _CLK_disableOsc2HaltMode,isa
    2048              
    2049                      .dwfde $C$DW$CIE, _CLK_disableOsc2HaltMode
    2050              $C$DW$140       .dwtag  DW_TAG_formal_parameter
    2051                      .dwattr $C$DW$140, DW_AT_name("clkHandle")
    2052                      .dwattr $C$DW$140, DW_AT_TI_symbol_name("_clkHandle")
    2053                      .dwattr $C$DW$140, DW_AT_type(*$C$DW$T$59)
    2054                      .dwattr $C$DW$140, DW_AT_location[DW_OP_reg12]
    2055              
    2056              
    2057              ;***************************************************************
    2058              ;* FNAME: _CLK_disableOsc2HaltMode      FR SIZE:   0           *
    2059              ;*                                                             *
    2060              ;* FUNCTION ENVIRONMENT                                        *
    2061              ;*                                                             *
    2062              ;* FUNCTION PROPERTIES                                         *
    2063              ;*                            0 Parameter,  0 Auto,  0 SOE     *
    2064              ;***************************************************************
TMS320C2000 Assembler PC v15.12.3 Sun Oct 30 14:01:42 2016

Tools Copyright (c) 1996-2015 Texas Instruments Incorporated
C:\Users\MaCHaDo\AppData\Local\Temp\4588011                          PAGE   39

    2065              
    2066              _CLK_disableOsc2HaltMode:
    2067              ;* AR4   assigned to _clkHandle
    2068              $C$DW$141       .dwtag  DW_TAG_variable
    2069                      .dwattr $C$DW$141, DW_AT_name("clkHandle")
    2070                      .dwattr $C$DW$141, DW_AT_TI_symbol_name("_clkHandle")
    2071                      .dwattr $C$DW$141, DW_AT_type(*$C$DW$T$60)
    2072                      .dwattr $C$DW$141, DW_AT_location[DW_OP_reg12]
    2073              
    2074                      .dwcfi  cfa_offset, -2
    2075                      .dwcfi  save_reg_to_mem, 26, 0
    2076 000000d9 7622   EALLOW
    2077                      .dwpsn  file "../drivers/source/clk.c",line 253,column 3,is_stmt,isa 0
    2078 000000da 1AD4          OR        *+XAR4[2],#0x0800     ; [CPU_] |253| 
         000000db 0800 
    2079 000000dc 761A   EDIS
    2080 000000dd FF69          SPM       #0                    ; [CPU_] 
    2081              $C$DW$142       .dwtag  DW_TAG_TI_branch
    2082                      .dwattr $C$DW$142, DW_AT_low_pc(0x00)
    2083                      .dwattr $C$DW$142, DW_AT_TI_return
    2084              
    2085 000000de 0006          LRETR     ; [CPU_] 
    2086                      ; return occurs ; [] 
    2087                      .dwattr $C$DW$139, DW_AT_TI_end_file("../drivers/source/clk.c")
    2088                      .dwattr $C$DW$139, DW_AT_TI_end_line(0x102)
    2089                      .dwattr $C$DW$139, DW_AT_TI_end_column(0x01)
    2090                      .dwendentry
    2091                      .dwendtag $C$DW$139
    2092              
    2093 000000df               .sect   ".text"
    2094                      .clink
    2095                      .global _CLK_disableOsc2
    2096              
    2097              $C$DW$143       .dwtag  DW_TAG_subprogram
    2098                      .dwattr $C$DW$143, DW_AT_name("CLK_disableOsc2")
    2099                      .dwattr $C$DW$143, DW_AT_low_pc(_CLK_disableOsc2)
    2100                      .dwattr $C$DW$143, DW_AT_high_pc(0x00)
    2101                      .dwattr $C$DW$143, DW_AT_TI_symbol_name("_CLK_disableOsc2")
    2102                      .dwattr $C$DW$143, DW_AT_external
    2103                      .dwattr $C$DW$143, DW_AT_TI_begin_file("../drivers/source/clk.c")
    2104                      .dwattr $C$DW$143, DW_AT_TI_begin_line(0xe5)
    2105                      .dwattr $C$DW$143, DW_AT_TI_begin_column(0x06)
    2106                      .dwattr $C$DW$143, DW_AT_TI_max_frame_size(-2)
    2107                      .dwpsn  file "../drivers/source/clk.c",line 230,column 1,is_stmt,address _CLK_disableOsc2,isa 0
    2108              
    2109                      .dwfde $C$DW$CIE, _CLK_disableOsc2
    2110              $C$DW$144       .dwtag  DW_TAG_formal_parameter
    2111                      .dwattr $C$DW$144, DW_AT_name("clkHandle")
    2112                      .dwattr $C$DW$144, DW_AT_TI_symbol_name("_clkHandle")
    2113                      .dwattr $C$DW$144, DW_AT_type(*$C$DW$T$59)
    2114                      .dwattr $C$DW$144, DW_AT_location[DW_OP_reg12]
    2115              
    2116              
    2117              ;***************************************************************
    2118              ;* FNAME: _CLK_disableOsc2              FR SIZE:   0           *
TMS320C2000 Assembler PC v15.12.3 Sun Oct 30 14:01:42 2016

Tools Copyright (c) 1996-2015 Texas Instruments Incorporated
C:\Users\MaCHaDo\AppData\Local\Temp\4588011                          PAGE   40

    2119              ;*                                                             *
    2120              ;* FUNCTION ENVIRONMENT                                        *
    2121              ;*                                                             *
    2122              ;* FUNCTION PROPERTIES                                         *
    2123              ;*                            0 Parameter,  0 Auto,  0 SOE     *
    2124              ;***************************************************************
    2125              
    2126              _CLK_disableOsc2:
    2127              ;* AR4   assigned to _clkHandle
    2128              $C$DW$145       .dwtag  DW_TAG_variable
    2129                      .dwattr $C$DW$145, DW_AT_name("clkHandle")
    2130                      .dwattr $C$DW$145, DW_AT_TI_symbol_name("_clkHandle")
    2131                      .dwattr $C$DW$145, DW_AT_type(*$C$DW$T$60)
    2132                      .dwattr $C$DW$145, DW_AT_location[DW_OP_reg12]
    2133              
    2134                      .dwcfi  cfa_offset, -2
    2135                      .dwcfi  save_reg_to_mem, 26, 0
    2136 000000df 7622   EALLOW
    2137                      .dwpsn  file "../drivers/source/clk.c",line 237,column 3,is_stmt,isa 0
    2138 000000e0 1AD4          OR        *+XAR4[2],#0x0400     ; [CPU_] |237| 
         000000e1 0400 
    2139 000000e2 761A   EDIS
    2140 000000e3 FF69          SPM       #0                    ; [CPU_] 
    2141              $C$DW$146       .dwtag  DW_TAG_TI_branch
    2142                      .dwattr $C$DW$146, DW_AT_low_pc(0x00)
    2143                      .dwattr $C$DW$146, DW_AT_TI_return
    2144              
    2145 000000e4 0006          LRETR     ; [CPU_] 
    2146                      ; return occurs ; [] 
    2147                      .dwattr $C$DW$143, DW_AT_TI_end_file("../drivers/source/clk.c")
    2148                      .dwattr $C$DW$143, DW_AT_TI_end_line(0xf2)
    2149                      .dwattr $C$DW$143, DW_AT_TI_end_column(0x01)
    2150                      .dwendentry
    2151                      .dwendtag $C$DW$143
    2152              
    2153 000000e5               .sect   ".text"
    2154                      .clink
    2155                      .global _CLK_disableOsc1HaltMode
    2156              
    2157              $C$DW$147       .dwtag  DW_TAG_subprogram
    2158                      .dwattr $C$DW$147, DW_AT_name("CLK_disableOsc1HaltMode")
    2159                      .dwattr $C$DW$147, DW_AT_low_pc(_CLK_disableOsc1HaltMode)
    2160                      .dwattr $C$DW$147, DW_AT_high_pc(0x00)
    2161                      .dwattr $C$DW$147, DW_AT_TI_symbol_name("_CLK_disableOsc1HaltMode")
    2162                      .dwattr $C$DW$147, DW_AT_external
    2163                      .dwattr $C$DW$147, DW_AT_TI_begin_file("../drivers/source/clk.c")
    2164                      .dwattr $C$DW$147, DW_AT_TI_begin_line(0xd5)
    2165                      .dwattr $C$DW$147, DW_AT_TI_begin_column(0x06)
    2166                      .dwattr $C$DW$147, DW_AT_TI_max_frame_size(-2)
    2167                      .dwpsn  file "../drivers/source/clk.c",line 214,column 1,is_stmt,address _CLK_disableOsc1HaltMode,isa
    2168              
    2169                      .dwfde $C$DW$CIE, _CLK_disableOsc1HaltMode
    2170              $C$DW$148       .dwtag  DW_TAG_formal_parameter
    2171                      .dwattr $C$DW$148, DW_AT_name("clkHandle")
    2172                      .dwattr $C$DW$148, DW_AT_TI_symbol_name("_clkHandle")
TMS320C2000 Assembler PC v15.12.3 Sun Oct 30 14:01:42 2016

Tools Copyright (c) 1996-2015 Texas Instruments Incorporated
C:\Users\MaCHaDo\AppData\Local\Temp\4588011                          PAGE   41

    2173                      .dwattr $C$DW$148, DW_AT_type(*$C$DW$T$59)
    2174                      .dwattr $C$DW$148, DW_AT_location[DW_OP_reg12]
    2175              
    2176              
    2177              ;***************************************************************
    2178              ;* FNAME: _CLK_disableOsc1HaltMode      FR SIZE:   0           *
    2179              ;*                                                             *
    2180              ;* FUNCTION ENVIRONMENT                                        *
    2181              ;*                                                             *
    2182              ;* FUNCTION PROPERTIES                                         *
    2183              ;*                            0 Parameter,  0 Auto,  0 SOE     *
    2184              ;***************************************************************
    2185              
    2186              _CLK_disableOsc1HaltMode:
    2187              ;* AR4   assigned to _clkHandle
    2188              $C$DW$149       .dwtag  DW_TAG_variable
    2189                      .dwattr $C$DW$149, DW_AT_name("clkHandle")
    2190                      .dwattr $C$DW$149, DW_AT_TI_symbol_name("_clkHandle")
    2191                      .dwattr $C$DW$149, DW_AT_type(*$C$DW$T$60)
    2192                      .dwattr $C$DW$149, DW_AT_location[DW_OP_reg12]
    2193              
    2194                      .dwcfi  cfa_offset, -2
    2195                      .dwcfi  save_reg_to_mem, 26, 0
    2196 000000e5 7622   EALLOW
    2197                      .dwpsn  file "../drivers/source/clk.c",line 221,column 3,is_stmt,isa 0
    2198 000000e6 1AD4          OR        *+XAR4[2],#0x0200     ; [CPU_] |221| 
         000000e7 0200 
    2199 000000e8 761A   EDIS
    2200 000000e9 FF69          SPM       #0                    ; [CPU_] 
    2201              $C$DW$150       .dwtag  DW_TAG_TI_branch
    2202                      .dwattr $C$DW$150, DW_AT_low_pc(0x00)
    2203                      .dwattr $C$DW$150, DW_AT_TI_return
    2204              
    2205 000000ea 0006          LRETR     ; [CPU_] 
    2206                      ; return occurs ; [] 
    2207                      .dwattr $C$DW$147, DW_AT_TI_end_file("../drivers/source/clk.c")
    2208                      .dwattr $C$DW$147, DW_AT_TI_end_line(0xe2)
    2209                      .dwattr $C$DW$147, DW_AT_TI_end_column(0x01)
    2210                      .dwendentry
    2211                      .dwendtag $C$DW$147
    2212              
    2213 000000eb               .sect   ".text"
    2214                      .clink
    2215                      .global _CLK_disableOsc1
    2216              
    2217              $C$DW$151       .dwtag  DW_TAG_subprogram
    2218                      .dwattr $C$DW$151, DW_AT_name("CLK_disableOsc1")
    2219                      .dwattr $C$DW$151, DW_AT_low_pc(_CLK_disableOsc1)
    2220                      .dwattr $C$DW$151, DW_AT_high_pc(0x00)
    2221                      .dwattr $C$DW$151, DW_AT_TI_symbol_name("_CLK_disableOsc1")
    2222                      .dwattr $C$DW$151, DW_AT_external
    2223                      .dwattr $C$DW$151, DW_AT_TI_begin_file("../drivers/source/clk.c")
    2224                      .dwattr $C$DW$151, DW_AT_TI_begin_line(0xc5)
    2225                      .dwattr $C$DW$151, DW_AT_TI_begin_column(0x06)
    2226                      .dwattr $C$DW$151, DW_AT_TI_max_frame_size(-2)
TMS320C2000 Assembler PC v15.12.3 Sun Oct 30 14:01:42 2016

Tools Copyright (c) 1996-2015 Texas Instruments Incorporated
C:\Users\MaCHaDo\AppData\Local\Temp\4588011                          PAGE   42

    2227                      .dwpsn  file "../drivers/source/clk.c",line 198,column 1,is_stmt,address _CLK_disableOsc1,isa 0
    2228              
    2229                      .dwfde $C$DW$CIE, _CLK_disableOsc1
    2230              $C$DW$152       .dwtag  DW_TAG_formal_parameter
    2231                      .dwattr $C$DW$152, DW_AT_name("clkHandle")
    2232                      .dwattr $C$DW$152, DW_AT_TI_symbol_name("_clkHandle")
    2233                      .dwattr $C$DW$152, DW_AT_type(*$C$DW$T$59)
    2234                      .dwattr $C$DW$152, DW_AT_location[DW_OP_reg12]
    2235              
    2236              
    2237              ;***************************************************************
    2238              ;* FNAME: _CLK_disableOsc1              FR SIZE:   0           *
    2239              ;*                                                             *
    2240              ;* FUNCTION ENVIRONMENT                                        *
    2241              ;*                                                             *
    2242              ;* FUNCTION PROPERTIES                                         *
    2243              ;*                            0 Parameter,  0 Auto,  0 SOE     *
    2244              ;***************************************************************
    2245              
    2246              _CLK_disableOsc1:
    2247              ;* AR4   assigned to _clkHandle
    2248              $C$DW$153       .dwtag  DW_TAG_variable
    2249                      .dwattr $C$DW$153, DW_AT_name("clkHandle")
    2250                      .dwattr $C$DW$153, DW_AT_TI_symbol_name("_clkHandle")
    2251                      .dwattr $C$DW$153, DW_AT_type(*$C$DW$T$60)
    2252                      .dwattr $C$DW$153, DW_AT_location[DW_OP_reg12]
    2253              
    2254                      .dwcfi  cfa_offset, -2
    2255                      .dwcfi  save_reg_to_mem, 26, 0
    2256 000000eb 7622   EALLOW
    2257                      .dwpsn  file "../drivers/source/clk.c",line 205,column 3,is_stmt,isa 0
    2258 000000ec 1AD4          OR        *+XAR4[2],#0x0100     ; [CPU_] |205| 
         000000ed 0100 
    2259 000000ee 761A   EDIS
    2260 000000ef FF69          SPM       #0                    ; [CPU_] 
    2261              $C$DW$154       .dwtag  DW_TAG_TI_branch
    2262                      .dwattr $C$DW$154, DW_AT_low_pc(0x00)
    2263                      .dwattr $C$DW$154, DW_AT_TI_return
    2264              
    2265 000000f0 0006          LRETR     ; [CPU_] 
    2266                      ; return occurs ; [] 
    2267                      .dwattr $C$DW$151, DW_AT_TI_end_file("../drivers/source/clk.c")
    2268                      .dwattr $C$DW$151, DW_AT_TI_end_line(0xd2)
    2269                      .dwattr $C$DW$151, DW_AT_TI_end_column(0x01)
    2270                      .dwendentry
    2271                      .dwendtag $C$DW$151
    2272              
    2273 000000f1               .sect   ".text"
    2274                      .clink
    2275                      .global _CLK_disableI2cClock
    2276              
    2277              $C$DW$155       .dwtag  DW_TAG_subprogram
    2278                      .dwattr $C$DW$155, DW_AT_name("CLK_disableI2cClock")
    2279                      .dwattr $C$DW$155, DW_AT_low_pc(_CLK_disableI2cClock)
    2280                      .dwattr $C$DW$155, DW_AT_high_pc(0x00)
TMS320C2000 Assembler PC v15.12.3 Sun Oct 30 14:01:42 2016

Tools Copyright (c) 1996-2015 Texas Instruments Incorporated
C:\Users\MaCHaDo\AppData\Local\Temp\4588011                          PAGE   43

    2281                      .dwattr $C$DW$155, DW_AT_TI_symbol_name("_CLK_disableI2cClock")
    2282                      .dwattr $C$DW$155, DW_AT_external
    2283                      .dwattr $C$DW$155, DW_AT_TI_begin_file("../drivers/source/clk.c")
    2284                      .dwattr $C$DW$155, DW_AT_TI_begin_line(0xb5)
    2285                      .dwattr $C$DW$155, DW_AT_TI_begin_column(0x06)
    2286                      .dwattr $C$DW$155, DW_AT_TI_max_frame_size(-2)
    2287                      .dwpsn  file "../drivers/source/clk.c",line 182,column 1,is_stmt,address _CLK_disableI2cClock,isa 0
    2288              
    2289                      .dwfde $C$DW$CIE, _CLK_disableI2cClock
    2290              $C$DW$156       .dwtag  DW_TAG_formal_parameter
    2291                      .dwattr $C$DW$156, DW_AT_name("clkHandle")
    2292                      .dwattr $C$DW$156, DW_AT_TI_symbol_name("_clkHandle")
    2293                      .dwattr $C$DW$156, DW_AT_type(*$C$DW$T$59)
    2294                      .dwattr $C$DW$156, DW_AT_location[DW_OP_reg12]
    2295              
    2296              
    2297              ;***************************************************************
    2298              ;* FNAME: _CLK_disableI2cClock          FR SIZE:   0           *
    2299              ;*                                                             *
    2300              ;* FUNCTION ENVIRONMENT                                        *
    2301              ;*                                                             *
    2302              ;* FUNCTION PROPERTIES                                         *
    2303              ;*                            0 Parameter,  0 Auto,  0 SOE     *
    2304              ;***************************************************************
    2305              
    2306 000000f1       _CLK_disableI2cClock:
    2307                      .dwcfi  cfa_offset, -2
    2308                      .dwcfi  save_reg_to_mem, 26, 0
    2309 000000f1 7622   EALLOW
    2310                      .dwpsn  file "../drivers/source/clk.c",line 189,column 3,is_stmt,isa 0
    2311 000000f2 DC0C          ADDB      XAR4,#12              ; [CPU_] |189| 
    2312 000000f3 18C4          AND       *+XAR4[0],#0xffef     ; [CPU_] |189| 
         000000f4 FFEF 
    2313 000000f5 761A   EDIS
    2314 000000f6 FF69          SPM       #0                    ; [CPU_] 
    2315              $C$DW$157       .dwtag  DW_TAG_TI_branch
    2316                      .dwattr $C$DW$157, DW_AT_low_pc(0x00)
    2317                      .dwattr $C$DW$157, DW_AT_TI_return
    2318              
    2319 000000f7 0006          LRETR     ; [CPU_] 
    2320                      ; return occurs ; [] 
    2321                      .dwattr $C$DW$155, DW_AT_TI_end_file("../drivers/source/clk.c")
    2322                      .dwattr $C$DW$155, DW_AT_TI_end_line(0xc2)
    2323                      .dwattr $C$DW$155, DW_AT_TI_end_column(0x01)
    2324                      .dwendentry
    2325                      .dwendtag $C$DW$155
    2326              
    2327 000000f8               .sect   ".text"
    2328                      .clink
    2329                      .global _CLK_disableHrPwmClock
    2330              
    2331              $C$DW$158       .dwtag  DW_TAG_subprogram
    2332                      .dwattr $C$DW$158, DW_AT_name("CLK_disableHrPwmClock")
    2333                      .dwattr $C$DW$158, DW_AT_low_pc(_CLK_disableHrPwmClock)
    2334                      .dwattr $C$DW$158, DW_AT_high_pc(0x00)
TMS320C2000 Assembler PC v15.12.3 Sun Oct 30 14:01:42 2016

Tools Copyright (c) 1996-2015 Texas Instruments Incorporated
C:\Users\MaCHaDo\AppData\Local\Temp\4588011                          PAGE   44

    2335                      .dwattr $C$DW$158, DW_AT_TI_symbol_name("_CLK_disableHrPwmClock")
    2336                      .dwattr $C$DW$158, DW_AT_external
    2337                      .dwattr $C$DW$158, DW_AT_TI_begin_file("../drivers/source/clk.c")
    2338                      .dwattr $C$DW$158, DW_AT_TI_begin_line(0xa5)
    2339                      .dwattr $C$DW$158, DW_AT_TI_begin_column(0x06)
    2340                      .dwattr $C$DW$158, DW_AT_TI_max_frame_size(-2)
    2341                      .dwpsn  file "../drivers/source/clk.c",line 166,column 1,is_stmt,address _CLK_disableHrPwmClock,isa 0
    2342              
    2343                      .dwfde $C$DW$CIE, _CLK_disableHrPwmClock
    2344              $C$DW$159       .dwtag  DW_TAG_formal_parameter
    2345                      .dwattr $C$DW$159, DW_AT_name("clkHandle")
    2346                      .dwattr $C$DW$159, DW_AT_TI_symbol_name("_clkHandle")
    2347                      .dwattr $C$DW$159, DW_AT_type(*$C$DW$T$59)
    2348                      .dwattr $C$DW$159, DW_AT_location[DW_OP_reg12]
    2349              
    2350              
    2351              ;***************************************************************
    2352              ;* FNAME: _CLK_disableHrPwmClock        FR SIZE:   0           *
    2353              ;*                                                             *
    2354              ;* FUNCTION ENVIRONMENT                                        *
    2355              ;*                                                             *
    2356              ;* FUNCTION PROPERTIES                                         *
    2357              ;*                            0 Parameter,  0 Auto,  0 SOE     *
    2358              ;***************************************************************
    2359              
    2360 000000f8       _CLK_disableHrPwmClock:
    2361                      .dwcfi  cfa_offset, -2
    2362                      .dwcfi  save_reg_to_mem, 26, 0
    2363 000000f8 7622   EALLOW
    2364                      .dwpsn  file "../drivers/source/clk.c",line 173,column 3,is_stmt,isa 0
    2365 000000f9 DC0C          ADDB      XAR4,#12              ; [CPU_] |173| 
    2366 000000fa 18C4          AND       *+XAR4[0],#0xfffe     ; [CPU_] |173| 
         000000fb FFFE 
    2367 000000fc 761A   EDIS
    2368 000000fd FF69          SPM       #0                    ; [CPU_] 
    2369              $C$DW$160       .dwtag  DW_TAG_TI_branch
    2370                      .dwattr $C$DW$160, DW_AT_low_pc(0x00)
    2371                      .dwattr $C$DW$160, DW_AT_TI_return
    2372              
    2373 000000fe 0006          LRETR     ; [CPU_] 
    2374                      ; return occurs ; [] 
    2375                      .dwattr $C$DW$158, DW_AT_TI_end_file("../drivers/source/clk.c")
    2376                      .dwattr $C$DW$158, DW_AT_TI_end_line(0xb2)
    2377                      .dwattr $C$DW$158, DW_AT_TI_end_column(0x01)
    2378                      .dwendentry
    2379                      .dwendtag $C$DW$158
    2380              
    2381 000000ff               .sect   ".text"
    2382                      .clink
    2383                      .global _CLK_disableGpioInputClock
    2384              
    2385              $C$DW$161       .dwtag  DW_TAG_subprogram
    2386                      .dwattr $C$DW$161, DW_AT_name("CLK_disableGpioInputClock")
    2387                      .dwattr $C$DW$161, DW_AT_low_pc(_CLK_disableGpioInputClock)
    2388                      .dwattr $C$DW$161, DW_AT_high_pc(0x00)
TMS320C2000 Assembler PC v15.12.3 Sun Oct 30 14:01:42 2016

Tools Copyright (c) 1996-2015 Texas Instruments Incorporated
C:\Users\MaCHaDo\AppData\Local\Temp\4588011                          PAGE   45

    2389                      .dwattr $C$DW$161, DW_AT_TI_symbol_name("_CLK_disableGpioInputClock")
    2390                      .dwattr $C$DW$161, DW_AT_external
    2391                      .dwattr $C$DW$161, DW_AT_TI_begin_file("../drivers/source/clk.c")
    2392                      .dwattr $C$DW$161, DW_AT_TI_begin_line(0x95)
    2393                      .dwattr $C$DW$161, DW_AT_TI_begin_column(0x06)
    2394                      .dwattr $C$DW$161, DW_AT_TI_max_frame_size(-2)
    2395                      .dwpsn  file "../drivers/source/clk.c",line 150,column 1,is_stmt,address _CLK_disableGpioInputClock,i
    2396              
    2397                      .dwfde $C$DW$CIE, _CLK_disableGpioInputClock
    2398              $C$DW$162       .dwtag  DW_TAG_formal_parameter
    2399                      .dwattr $C$DW$162, DW_AT_name("clkHandle")
    2400                      .dwattr $C$DW$162, DW_AT_TI_symbol_name("_clkHandle")
    2401                      .dwattr $C$DW$162, DW_AT_type(*$C$DW$T$59)
    2402                      .dwattr $C$DW$162, DW_AT_location[DW_OP_reg12]
    2403              
    2404              
    2405              ;***************************************************************
    2406              ;* FNAME: _CLK_disableGpioInputClock    FR SIZE:   0           *
    2407              ;*                                                             *
    2408              ;* FUNCTION ENVIRONMENT                                        *
    2409              ;*                                                             *
    2410              ;* FUNCTION PROPERTIES                                         *
    2411              ;*                            0 Parameter,  0 Auto,  0 SOE     *
    2412              ;***************************************************************
    2413              
    2414 000000ff       _CLK_disableGpioInputClock:
    2415                      .dwcfi  cfa_offset, -2
    2416                      .dwcfi  save_reg_to_mem, 26, 0
    2417 000000ff 7622   EALLOW
    2418                      .dwpsn  file "../drivers/source/clk.c",line 157,column 3,is_stmt,isa 0
    2419 00000100 DC10          ADDB      XAR4,#16              ; [CPU_] |157| 
    2420 00000101 18C4          AND       *+XAR4[0],#0xdfff     ; [CPU_] |157| 
         00000102 DFFF 
    2421 00000103 761A   EDIS
    2422 00000104 FF69          SPM       #0                    ; [CPU_] 
    2423              $C$DW$163       .dwtag  DW_TAG_TI_branch
    2424                      .dwattr $C$DW$163, DW_AT_low_pc(0x00)
    2425                      .dwattr $C$DW$163, DW_AT_TI_return
    2426              
    2427 00000105 0006          LRETR     ; [CPU_] 
    2428                      ; return occurs ; [] 
    2429                      .dwattr $C$DW$161, DW_AT_TI_end_file("../drivers/source/clk.c")
    2430                      .dwattr $C$DW$161, DW_AT_TI_end_line(0xa2)
    2431                      .dwattr $C$DW$161, DW_AT_TI_end_column(0x01)
    2432                      .dwendentry
    2433                      .dwendtag $C$DW$161
    2434              
    2435 00000106               .sect   ".text"
    2436                      .clink
    2437                      .global _CLK_disableEcap1Clock
    2438              
    2439              $C$DW$164       .dwtag  DW_TAG_subprogram
    2440                      .dwattr $C$DW$164, DW_AT_name("CLK_disableEcap1Clock")
    2441                      .dwattr $C$DW$164, DW_AT_low_pc(_CLK_disableEcap1Clock)
    2442                      .dwattr $C$DW$164, DW_AT_high_pc(0x00)
TMS320C2000 Assembler PC v15.12.3 Sun Oct 30 14:01:42 2016

Tools Copyright (c) 1996-2015 Texas Instruments Incorporated
C:\Users\MaCHaDo\AppData\Local\Temp\4588011                          PAGE   46

    2443                      .dwattr $C$DW$164, DW_AT_TI_symbol_name("_CLK_disableEcap1Clock")
    2444                      .dwattr $C$DW$164, DW_AT_external
    2445                      .dwattr $C$DW$164, DW_AT_TI_begin_file("../drivers/source/clk.c")
    2446                      .dwattr $C$DW$164, DW_AT_TI_begin_line(0x85)
    2447                      .dwattr $C$DW$164, DW_AT_TI_begin_column(0x06)
    2448                      .dwattr $C$DW$164, DW_AT_TI_max_frame_size(-2)
    2449                      .dwpsn  file "../drivers/source/clk.c",line 134,column 1,is_stmt,address _CLK_disableEcap1Clock,isa 0
    2450              
    2451                      .dwfde $C$DW$CIE, _CLK_disableEcap1Clock
    2452              $C$DW$165       .dwtag  DW_TAG_formal_parameter
    2453                      .dwattr $C$DW$165, DW_AT_name("clkHandle")
    2454                      .dwattr $C$DW$165, DW_AT_TI_symbol_name("_clkHandle")
    2455                      .dwattr $C$DW$165, DW_AT_type(*$C$DW$T$59)
    2456                      .dwattr $C$DW$165, DW_AT_location[DW_OP_reg12]
    2457              
    2458              
    2459              ;***************************************************************
    2460              ;* FNAME: _CLK_disableEcap1Clock        FR SIZE:   0           *
    2461              ;*                                                             *
    2462              ;* FUNCTION ENVIRONMENT                                        *
    2463              ;*                                                             *
    2464              ;* FUNCTION PROPERTIES                                         *
    2465              ;*                            0 Parameter,  0 Auto,  0 SOE     *
    2466              ;***************************************************************
    2467              
    2468 00000106       _CLK_disableEcap1Clock:
    2469                      .dwcfi  cfa_offset, -2
    2470                      .dwcfi  save_reg_to_mem, 26, 0
    2471 00000106 7622   EALLOW
    2472                      .dwpsn  file "../drivers/source/clk.c",line 141,column 3,is_stmt,isa 0
    2473 00000107 DC0D          ADDB      XAR4,#13              ; [CPU_] |141| 
    2474 00000108 18C4          AND       *+XAR4[0],#0xfeff     ; [CPU_] |141| 
         00000109 FEFF 
    2475 0000010a 761A   EDIS
    2476 0000010b FF69          SPM       #0                    ; [CPU_] 
    2477              $C$DW$166       .dwtag  DW_TAG_TI_branch
    2478                      .dwattr $C$DW$166, DW_AT_low_pc(0x00)
    2479                      .dwattr $C$DW$166, DW_AT_TI_return
    2480              
    2481 0000010c 0006          LRETR     ; [CPU_] 
    2482                      ; return occurs ; [] 
    2483                      .dwattr $C$DW$164, DW_AT_TI_end_file("../drivers/source/clk.c")
    2484                      .dwattr $C$DW$164, DW_AT_TI_end_line(0x92)
    2485                      .dwattr $C$DW$164, DW_AT_TI_end_column(0x01)
    2486                      .dwendentry
    2487                      .dwendtag $C$DW$164
    2488              
    2489 0000010d               .sect   ".text"
    2490                      .clink
    2491                      .global _CLK_disableCrystalOsc
    2492              
    2493              $C$DW$167       .dwtag  DW_TAG_subprogram
    2494                      .dwattr $C$DW$167, DW_AT_name("CLK_disableCrystalOsc")
    2495                      .dwattr $C$DW$167, DW_AT_low_pc(_CLK_disableCrystalOsc)
    2496                      .dwattr $C$DW$167, DW_AT_high_pc(0x00)
TMS320C2000 Assembler PC v15.12.3 Sun Oct 30 14:01:42 2016

Tools Copyright (c) 1996-2015 Texas Instruments Incorporated
C:\Users\MaCHaDo\AppData\Local\Temp\4588011                          PAGE   47

    2497                      .dwattr $C$DW$167, DW_AT_TI_symbol_name("_CLK_disableCrystalOsc")
    2498                      .dwattr $C$DW$167, DW_AT_external
    2499                      .dwattr $C$DW$167, DW_AT_TI_begin_file("../drivers/source/clk.c")
    2500                      .dwattr $C$DW$167, DW_AT_TI_begin_line(0x75)
    2501                      .dwattr $C$DW$167, DW_AT_TI_begin_column(0x06)
    2502                      .dwattr $C$DW$167, DW_AT_TI_max_frame_size(-2)
    2503                      .dwpsn  file "../drivers/source/clk.c",line 118,column 1,is_stmt,address _CLK_disableCrystalOsc,isa 0
    2504              
    2505                      .dwfde $C$DW$CIE, _CLK_disableCrystalOsc
    2506              $C$DW$168       .dwtag  DW_TAG_formal_parameter
    2507                      .dwattr $C$DW$168, DW_AT_name("clkHandle")
    2508                      .dwattr $C$DW$168, DW_AT_TI_symbol_name("_clkHandle")
    2509                      .dwattr $C$DW$168, DW_AT_type(*$C$DW$T$59)
    2510                      .dwattr $C$DW$168, DW_AT_location[DW_OP_reg12]
    2511              
    2512              
    2513              ;***************************************************************
    2514              ;* FNAME: _CLK_disableCrystalOsc        FR SIZE:   0           *
    2515              ;*                                                             *
    2516              ;* FUNCTION ENVIRONMENT                                        *
    2517              ;*                                                             *
    2518              ;* FUNCTION PROPERTIES                                         *
    2519              ;*                            0 Parameter,  0 Auto,  0 SOE     *
    2520              ;***************************************************************
    2521              
    2522              _CLK_disableCrystalOsc:
    2523              ;* AR4   assigned to _clkHandle
    2524              $C$DW$169       .dwtag  DW_TAG_variable
    2525                      .dwattr $C$DW$169, DW_AT_name("clkHandle")
    2526                      .dwattr $C$DW$169, DW_AT_TI_symbol_name("_clkHandle")
    2527                      .dwattr $C$DW$169, DW_AT_type(*$C$DW$T$60)
    2528                      .dwattr $C$DW$169, DW_AT_location[DW_OP_reg12]
    2529              
    2530                      .dwcfi  cfa_offset, -2
    2531                      .dwcfi  save_reg_to_mem, 26, 0
    2532 0000010d 7622   EALLOW
    2533                      .dwpsn  file "../drivers/source/clk.c",line 125,column 3,is_stmt,isa 0
    2534 0000010e 1AD4          OR        *+XAR4[2],#0x4000     ; [CPU_] |125| 
         0000010f 4000 
    2535 00000110 761A   EDIS
    2536 00000111 FF69          SPM       #0                    ; [CPU_] 
    2537              $C$DW$170       .dwtag  DW_TAG_TI_branch
    2538                      .dwattr $C$DW$170, DW_AT_low_pc(0x00)
    2539                      .dwattr $C$DW$170, DW_AT_TI_return
    2540              
    2541 00000112 0006          LRETR     ; [CPU_] 
    2542                      ; return occurs ; [] 
    2543                      .dwattr $C$DW$167, DW_AT_TI_end_file("../drivers/source/clk.c")
    2544                      .dwattr $C$DW$167, DW_AT_TI_end_line(0x82)
    2545                      .dwattr $C$DW$167, DW_AT_TI_end_column(0x01)
    2546                      .dwendentry
    2547                      .dwendtag $C$DW$167
    2548              
    2549 00000113               .sect   ".text"
    2550                      .clink
TMS320C2000 Assembler PC v15.12.3 Sun Oct 30 14:01:42 2016

Tools Copyright (c) 1996-2015 Texas Instruments Incorporated
C:\Users\MaCHaDo\AppData\Local\Temp\4588011                          PAGE   48

    2551                      .global _CLK_disableCpuTimerClock
    2552              
    2553              $C$DW$171       .dwtag  DW_TAG_subprogram
    2554                      .dwattr $C$DW$171, DW_AT_name("CLK_disableCpuTimerClock")
    2555                      .dwattr $C$DW$171, DW_AT_low_pc(_CLK_disableCpuTimerClock)
    2556                      .dwattr $C$DW$171, DW_AT_high_pc(0x00)
    2557                      .dwattr $C$DW$171, DW_AT_TI_symbol_name("_CLK_disableCpuTimerClock")
    2558                      .dwattr $C$DW$171, DW_AT_external
    2559                      .dwattr $C$DW$171, DW_AT_TI_begin_file("../drivers/source/clk.c")
    2560                      .dwattr $C$DW$171, DW_AT_TI_begin_line(0x65)
    2561                      .dwattr $C$DW$171, DW_AT_TI_begin_column(0x06)
    2562                      .dwattr $C$DW$171, DW_AT_TI_max_frame_size(-2)
    2563                      .dwpsn  file "../drivers/source/clk.c",line 102,column 1,is_stmt,address _CLK_disableCpuTimerClock,is
    2564              
    2565                      .dwfde $C$DW$CIE, _CLK_disableCpuTimerClock
    2566              $C$DW$172       .dwtag  DW_TAG_formal_parameter
    2567                      .dwattr $C$DW$172, DW_AT_name("clkHandle")
    2568                      .dwattr $C$DW$172, DW_AT_TI_symbol_name("_clkHandle")
    2569                      .dwattr $C$DW$172, DW_AT_type(*$C$DW$T$59)
    2570                      .dwattr $C$DW$172, DW_AT_location[DW_OP_reg12]
    2571              
    2572              $C$DW$173       .dwtag  DW_TAG_formal_parameter
    2573                      .dwattr $C$DW$173, DW_AT_name("cpuTimerNumber")
    2574                      .dwattr $C$DW$173, DW_AT_TI_symbol_name("_cpuTimerNumber")
    2575                      .dwattr $C$DW$173, DW_AT_type(*$C$DW$T$29)
    2576                      .dwattr $C$DW$173, DW_AT_location[DW_OP_reg0]
    2577              
    2578              
    2579              ;***************************************************************
    2580              ;* FNAME: _CLK_disableCpuTimerClock     FR SIZE:   0           *
    2581              ;*                                                             *
    2582              ;* FUNCTION ENVIRONMENT                                        *
    2583              ;*                                                             *
    2584              ;* FUNCTION PROPERTIES                                         *
    2585              ;*                            0 Parameter,  0 Auto,  0 SOE     *
    2586              ;***************************************************************
    2587              
    2588 00000113       _CLK_disableCpuTimerClock:
    2589                      .dwcfi  cfa_offset, -2
    2590                      .dwcfi  save_reg_to_mem, 26, 0
    2591 00000113 7622   EALLOW
    2592                      .dwpsn  file "../drivers/source/clk.c",line 109,column 3,is_stmt,isa 0
    2593 00000114 DC10          ADDB      XAR4,#16              ; [CPU_] |109| 
    2594 00000115 FF5E          NOT       AL                    ; [CPU_] |109| 
    2595 00000116 C0C4          AND       *+XAR4[0],AL          ; [CPU_] |109| 
    2596 00000117 761A   EDIS
    2597 00000118 FF69          SPM       #0                    ; [CPU_] 
    2598              $C$DW$174       .dwtag  DW_TAG_TI_branch
    2599                      .dwattr $C$DW$174, DW_AT_low_pc(0x00)
    2600                      .dwattr $C$DW$174, DW_AT_TI_return
    2601              
    2602 00000119 0006          LRETR     ; [CPU_] 
    2603                      ; return occurs ; [] 
    2604                      .dwattr $C$DW$171, DW_AT_TI_end_file("../drivers/source/clk.c")
    2605                      .dwattr $C$DW$171, DW_AT_TI_end_line(0x72)
TMS320C2000 Assembler PC v15.12.3 Sun Oct 30 14:01:42 2016

Tools Copyright (c) 1996-2015 Texas Instruments Incorporated
C:\Users\MaCHaDo\AppData\Local\Temp\4588011                          PAGE   49

    2606                      .dwattr $C$DW$171, DW_AT_TI_end_column(0x01)
    2607                      .dwendentry
    2608                      .dwendtag $C$DW$171
    2609              
    2610 0000011a               .sect   ".text"
    2611                      .clink
    2612                      .global _CLK_disableCompClock
    2613              
    2614              $C$DW$175       .dwtag  DW_TAG_subprogram
    2615                      .dwattr $C$DW$175, DW_AT_name("CLK_disableCompClock")
    2616                      .dwattr $C$DW$175, DW_AT_low_pc(_CLK_disableCompClock)
    2617                      .dwattr $C$DW$175, DW_AT_high_pc(0x00)
    2618                      .dwattr $C$DW$175, DW_AT_TI_symbol_name("_CLK_disableCompClock")
    2619                      .dwattr $C$DW$175, DW_AT_external
    2620                      .dwattr $C$DW$175, DW_AT_TI_begin_file("../drivers/source/clk.c")
    2621                      .dwattr $C$DW$175, DW_AT_TI_begin_line(0x59)
    2622                      .dwattr $C$DW$175, DW_AT_TI_begin_column(0x06)
    2623                      .dwattr $C$DW$175, DW_AT_TI_max_frame_size(-2)
    2624                      .dwpsn  file "../drivers/source/clk.c",line 90,column 1,is_stmt,address _CLK_disableCompClock,isa 0
    2625              
    2626                      .dwfde $C$DW$CIE, _CLK_disableCompClock
    2627              $C$DW$176       .dwtag  DW_TAG_formal_parameter
    2628                      .dwattr $C$DW$176, DW_AT_name("clkHandle")
    2629                      .dwattr $C$DW$176, DW_AT_TI_symbol_name("_clkHandle")
    2630                      .dwattr $C$DW$176, DW_AT_type(*$C$DW$T$59)
    2631                      .dwattr $C$DW$176, DW_AT_location[DW_OP_reg12]
    2632              
    2633              $C$DW$177       .dwtag  DW_TAG_formal_parameter
    2634                      .dwattr $C$DW$177, DW_AT_name("compNumber")
    2635                      .dwattr $C$DW$177, DW_AT_TI_symbol_name("_compNumber")
    2636                      .dwattr $C$DW$177, DW_AT_type(*$C$DW$T$26)
    2637                      .dwattr $C$DW$177, DW_AT_location[DW_OP_reg0]
    2638              
    2639              
    2640              ;***************************************************************
    2641              ;* FNAME: _CLK_disableCompClock         FR SIZE:   0           *
    2642              ;*                                                             *
    2643              ;* FUNCTION ENVIRONMENT                                        *
    2644              ;*                                                             *
    2645              ;* FUNCTION PROPERTIES                                         *
    2646              ;*                            0 Parameter,  0 Auto,  0 SOE     *
    2647              ;***************************************************************
    2648              
    2649 0000011a       _CLK_disableCompClock:
    2650                      .dwcfi  cfa_offset, -2
    2651                      .dwcfi  save_reg_to_mem, 26, 0
    2652                      .dwpsn  file "../drivers/source/clk.c",line 95,column 3,is_stmt,isa 0
    2653 0000011a FF5E          NOT       AL                    ; [CPU_] |95| 
    2654 0000011b DC10          ADDB      XAR4,#16              ; [CPU_] |95| 
    2655 0000011c C0C4          AND       *+XAR4[0],AL          ; [CPU_] |95| 
    2656              $C$DW$178       .dwtag  DW_TAG_TI_branch
    2657                      .dwattr $C$DW$178, DW_AT_low_pc(0x00)
    2658                      .dwattr $C$DW$178, DW_AT_TI_return
    2659              
    2660 0000011d 0006          LRETR     ; [CPU_] 
TMS320C2000 Assembler PC v15.12.3 Sun Oct 30 14:01:42 2016

Tools Copyright (c) 1996-2015 Texas Instruments Incorporated
C:\Users\MaCHaDo\AppData\Local\Temp\4588011                          PAGE   50

    2661                      ; return occurs ; [] 
    2662                      .dwattr $C$DW$175, DW_AT_TI_end_file("../drivers/source/clk.c")
    2663                      .dwattr $C$DW$175, DW_AT_TI_end_line(0x62)
    2664                      .dwattr $C$DW$175, DW_AT_TI_end_column(0x01)
    2665                      .dwendentry
    2666                      .dwendtag $C$DW$175
    2667              
    2668 0000011e               .sect   ".text"
    2669                      .clink
    2670                      .global _CLK_disableClkIn
    2671              
    2672              $C$DW$179       .dwtag  DW_TAG_subprogram
    2673                      .dwattr $C$DW$179, DW_AT_name("CLK_disableClkIn")
    2674                      .dwattr $C$DW$179, DW_AT_low_pc(_CLK_disableClkIn)
    2675                      .dwattr $C$DW$179, DW_AT_high_pc(0x00)
    2676                      .dwattr $C$DW$179, DW_AT_TI_symbol_name("_CLK_disableClkIn")
    2677                      .dwattr $C$DW$179, DW_AT_external
    2678                      .dwattr $C$DW$179, DW_AT_TI_begin_file("../drivers/source/clk.c")
    2679                      .dwattr $C$DW$179, DW_AT_TI_begin_line(0x49)
    2680                      .dwattr $C$DW$179, DW_AT_TI_begin_column(0x06)
    2681                      .dwattr $C$DW$179, DW_AT_TI_max_frame_size(-2)
    2682                      .dwpsn  file "../drivers/source/clk.c",line 74,column 1,is_stmt,address _CLK_disableClkIn,isa 0
    2683              
    2684                      .dwfde $C$DW$CIE, _CLK_disableClkIn
    2685              $C$DW$180       .dwtag  DW_TAG_formal_parameter
    2686                      .dwattr $C$DW$180, DW_AT_name("clkHandle")
    2687                      .dwattr $C$DW$180, DW_AT_TI_symbol_name("_clkHandle")
    2688                      .dwattr $C$DW$180, DW_AT_type(*$C$DW$T$59)
    2689                      .dwattr $C$DW$180, DW_AT_location[DW_OP_reg12]
    2690              
    2691              
    2692              ;***************************************************************
    2693              ;* FNAME: _CLK_disableClkIn             FR SIZE:   0           *
    2694              ;*                                                             *
    2695              ;* FUNCTION ENVIRONMENT                                        *
    2696              ;*                                                             *
    2697              ;* FUNCTION PROPERTIES                                         *
    2698              ;*                            0 Parameter,  0 Auto,  0 SOE     *
    2699              ;***************************************************************
    2700              
    2701              _CLK_disableClkIn:
    2702              ;* AR4   assigned to _clkHandle
    2703              $C$DW$181       .dwtag  DW_TAG_variable
    2704                      .dwattr $C$DW$181, DW_AT_name("clkHandle")
    2705                      .dwattr $C$DW$181, DW_AT_TI_symbol_name("_clkHandle")
    2706                      .dwattr $C$DW$181, DW_AT_type(*$C$DW$T$60)
    2707                      .dwattr $C$DW$181, DW_AT_location[DW_OP_reg12]
    2708              
    2709                      .dwcfi  cfa_offset, -2
    2710                      .dwcfi  save_reg_to_mem, 26, 0
    2711 0000011e 7622   EALLOW
    2712                      .dwpsn  file "../drivers/source/clk.c",line 81,column 3,is_stmt,isa 0
    2713 0000011f 1AD4          OR        *+XAR4[2],#0x2000     ; [CPU_] |81| 
         00000120 2000 
    2714 00000121 761A   EDIS
TMS320C2000 Assembler PC v15.12.3 Sun Oct 30 14:01:42 2016

Tools Copyright (c) 1996-2015 Texas Instruments Incorporated
C:\Users\MaCHaDo\AppData\Local\Temp\4588011                          PAGE   51

    2715 00000122 FF69          SPM       #0                    ; [CPU_] 
    2716              $C$DW$182       .dwtag  DW_TAG_TI_branch
    2717                      .dwattr $C$DW$182, DW_AT_low_pc(0x00)
    2718                      .dwattr $C$DW$182, DW_AT_TI_return
    2719              
    2720 00000123 0006          LRETR     ; [CPU_] 
    2721                      ; return occurs ; [] 
    2722                      .dwattr $C$DW$179, DW_AT_TI_end_file("../drivers/source/clk.c")
    2723                      .dwattr $C$DW$179, DW_AT_TI_end_line(0x56)
    2724                      .dwattr $C$DW$179, DW_AT_TI_end_column(0x01)
    2725                      .dwendentry
    2726                      .dwendtag $C$DW$179
    2727              
    2728 00000124               .sect   ".text"
    2729                      .clink
    2730                      .global _CLK_disableAdcClock
    2731              
    2732              $C$DW$183       .dwtag  DW_TAG_subprogram
    2733                      .dwattr $C$DW$183, DW_AT_name("CLK_disableAdcClock")
    2734                      .dwattr $C$DW$183, DW_AT_low_pc(_CLK_disableAdcClock)
    2735                      .dwattr $C$DW$183, DW_AT_high_pc(0x00)
    2736                      .dwattr $C$DW$183, DW_AT_TI_symbol_name("_CLK_disableAdcClock")
    2737                      .dwattr $C$DW$183, DW_AT_external
    2738                      .dwattr $C$DW$183, DW_AT_TI_begin_file("../drivers/source/clk.c")
    2739                      .dwattr $C$DW$183, DW_AT_TI_begin_line(0x39)
    2740                      .dwattr $C$DW$183, DW_AT_TI_begin_column(0x06)
    2741                      .dwattr $C$DW$183, DW_AT_TI_max_frame_size(-2)
    2742                      .dwpsn  file "../drivers/source/clk.c",line 58,column 1,is_stmt,address _CLK_disableAdcClock,isa 0
    2743              
    2744                      .dwfde $C$DW$CIE, _CLK_disableAdcClock
    2745              $C$DW$184       .dwtag  DW_TAG_formal_parameter
    2746                      .dwattr $C$DW$184, DW_AT_name("clkHandle")
    2747                      .dwattr $C$DW$184, DW_AT_TI_symbol_name("_clkHandle")
    2748                      .dwattr $C$DW$184, DW_AT_type(*$C$DW$T$59)
    2749                      .dwattr $C$DW$184, DW_AT_location[DW_OP_reg12]
    2750              
    2751              
    2752              ;***************************************************************
    2753              ;* FNAME: _CLK_disableAdcClock          FR SIZE:   0           *
    2754              ;*                                                             *
    2755              ;* FUNCTION ENVIRONMENT                                        *
    2756              ;*                                                             *
    2757              ;* FUNCTION PROPERTIES                                         *
    2758              ;*                            0 Parameter,  0 Auto,  0 SOE     *
    2759              ;***************************************************************
    2760              
    2761 00000124       _CLK_disableAdcClock:
    2762                      .dwcfi  cfa_offset, -2
    2763                      .dwcfi  save_reg_to_mem, 26, 0
    2764 00000124 7622   EALLOW
    2765                      .dwpsn  file "../drivers/source/clk.c",line 65,column 3,is_stmt,isa 0
    2766 00000125 DC0C          ADDB      XAR4,#12              ; [CPU_] |65| 
    2767 00000126 18C4          AND       *+XAR4[0],#0xfff7     ; [CPU_] |65| 
         00000127 FFF7 
    2768 00000128 761A   EDIS
TMS320C2000 Assembler PC v15.12.3 Sun Oct 30 14:01:42 2016

Tools Copyright (c) 1996-2015 Texas Instruments Incorporated
C:\Users\MaCHaDo\AppData\Local\Temp\4588011                          PAGE   52

    2769 00000129 FF69          SPM       #0                    ; [CPU_] 
    2770              $C$DW$185       .dwtag  DW_TAG_TI_branch
    2771                      .dwattr $C$DW$185, DW_AT_low_pc(0x00)
    2772                      .dwattr $C$DW$185, DW_AT_TI_return
    2773              
    2774 0000012a 0006          LRETR     ; [CPU_] 
    2775                      ; return occurs ; [] 
    2776                      .dwattr $C$DW$183, DW_AT_TI_end_file("../drivers/source/clk.c")
    2777                      .dwattr $C$DW$183, DW_AT_TI_end_line(0x46)
    2778                      .dwattr $C$DW$183, DW_AT_TI_end_column(0x01)
    2779                      .dwendentry
    2780                      .dwendtag $C$DW$183
    2781              
    2782              
    2783              ;***************************************************************
    2784              ;* TYPE INFORMATION                                            *
    2785              ;***************************************************************
    2786              
    2787              $C$DW$T$24      .dwtag  DW_TAG_enumeration_type
    2788                      .dwattr $C$DW$T$24, DW_AT_byte_size(0x01)
    2789              $C$DW$186       .dwtag  DW_TAG_enumerator
    2790                      .dwattr $C$DW$186, DW_AT_name("CLK_CompNumber_1")
    2791                      .dwattr $C$DW$186, DW_AT_const_value(0x01)
    2792              
    2793              $C$DW$187       .dwtag  DW_TAG_enumerator
    2794                      .dwattr $C$DW$187, DW_AT_name("CLK_CompNumber_2")
    2795                      .dwattr $C$DW$187, DW_AT_const_value(0x02)
    2796              
    2797              $C$DW$188       .dwtag  DW_TAG_enumerator
    2798                      .dwattr $C$DW$188, DW_AT_name("CLK_CompNumber_3")
    2799                      .dwattr $C$DW$188, DW_AT_const_value(0x04)
    2800              
    2801                      .dwendtag $C$DW$T$24
    2802              
    2803              $C$DW$T$25      .dwtag  DW_TAG_typedef
    2804                      .dwattr $C$DW$T$25, DW_AT_name("CLK_CompNumber_e")
    2805                      .dwattr $C$DW$T$25, DW_AT_type(*$C$DW$T$24)
    2806                      .dwattr $C$DW$T$25, DW_AT_language(DW_LANG_C)
    2807              
    2808              $C$DW$189       .dwtag  DW_TAG_TI_far_type
    2809                      .dwattr $C$DW$189, DW_AT_type(*$C$DW$T$25)
    2810              
    2811              $C$DW$T$26      .dwtag  DW_TAG_const_type
    2812                      .dwattr $C$DW$T$26, DW_AT_type(*$C$DW$189)
    2813              
    2814              
    2815              $C$DW$T$27      .dwtag  DW_TAG_enumeration_type
    2816                      .dwattr $C$DW$T$27, DW_AT_byte_size(0x01)
    2817              $C$DW$190       .dwtag  DW_TAG_enumerator
    2818                      .dwattr $C$DW$190, DW_AT_name("CLK_CpuTimerNumber_0")
    2819                      .dwattr $C$DW$190, DW_AT_const_value(0x100)
    2820              
    2821              $C$DW$191       .dwtag  DW_TAG_enumerator
    2822                      .dwattr $C$DW$191, DW_AT_name("CLK_CpuTimerNumber_1")
    2823                      .dwattr $C$DW$191, DW_AT_const_value(0x200)
TMS320C2000 Assembler PC v15.12.3 Sun Oct 30 14:01:42 2016

Tools Copyright (c) 1996-2015 Texas Instruments Incorporated
C:\Users\MaCHaDo\AppData\Local\Temp\4588011                          PAGE   53

    2824              
    2825              $C$DW$192       .dwtag  DW_TAG_enumerator
    2826                      .dwattr $C$DW$192, DW_AT_name("CLK_CpuTimerNumber_2")
    2827                      .dwattr $C$DW$192, DW_AT_const_value(0x400)
    2828              
    2829                      .dwendtag $C$DW$T$27
    2830              
    2831              $C$DW$T$28      .dwtag  DW_TAG_typedef
    2832                      .dwattr $C$DW$T$28, DW_AT_name("CLK_CpuTimerNumber_e")
    2833                      .dwattr $C$DW$T$28, DW_AT_type(*$C$DW$T$27)
    2834                      .dwattr $C$DW$T$28, DW_AT_language(DW_LANG_C)
    2835              
    2836              $C$DW$193       .dwtag  DW_TAG_TI_far_type
    2837                      .dwattr $C$DW$193, DW_AT_type(*$C$DW$T$28)
    2838              
    2839              $C$DW$T$29      .dwtag  DW_TAG_const_type
    2840                      .dwattr $C$DW$T$29, DW_AT_type(*$C$DW$193)
    2841              
    2842              
    2843              $C$DW$T$30      .dwtag  DW_TAG_enumeration_type
    2844                      .dwattr $C$DW$T$30, DW_AT_byte_size(0x01)
    2845              $C$DW$194       .dwtag  DW_TAG_enumerator
    2846                      .dwattr $C$DW$194, DW_AT_name("PWM_Number_1")
    2847                      .dwattr $C$DW$194, DW_AT_const_value(0x00)
    2848              
    2849              $C$DW$195       .dwtag  DW_TAG_enumerator
    2850                      .dwattr $C$DW$195, DW_AT_name("PWM_Number_2")
    2851                      .dwattr $C$DW$195, DW_AT_const_value(0x01)
    2852              
    2853              $C$DW$196       .dwtag  DW_TAG_enumerator
    2854                      .dwattr $C$DW$196, DW_AT_name("PWM_Number_3")
    2855                      .dwattr $C$DW$196, DW_AT_const_value(0x02)
    2856              
    2857              $C$DW$197       .dwtag  DW_TAG_enumerator
    2858                      .dwattr $C$DW$197, DW_AT_name("PWM_Number_4")
    2859                      .dwattr $C$DW$197, DW_AT_const_value(0x03)
    2860              
    2861                      .dwendtag $C$DW$T$30
    2862              
    2863              $C$DW$T$31      .dwtag  DW_TAG_typedef
    2864                      .dwattr $C$DW$T$31, DW_AT_name("PWM_Number_e")
    2865                      .dwattr $C$DW$T$31, DW_AT_type(*$C$DW$T$30)
    2866                      .dwattr $C$DW$T$31, DW_AT_language(DW_LANG_C)
    2867              
    2868              $C$DW$198       .dwtag  DW_TAG_TI_far_type
    2869                      .dwattr $C$DW$198, DW_AT_type(*$C$DW$T$31)
    2870              
    2871              $C$DW$T$32      .dwtag  DW_TAG_const_type
    2872                      .dwattr $C$DW$T$32, DW_AT_type(*$C$DW$198)
    2873              
    2874              
    2875              $C$DW$T$33      .dwtag  DW_TAG_enumeration_type
    2876                      .dwattr $C$DW$T$33, DW_AT_byte_size(0x01)
    2877              $C$DW$199       .dwtag  DW_TAG_enumerator
    2878                      .dwattr $C$DW$199, DW_AT_name("CLK_ClkOutPreScaler_SysClkOut_by_4")
TMS320C2000 Assembler PC v15.12.3 Sun Oct 30 14:01:42 2016

Tools Copyright (c) 1996-2015 Texas Instruments Incorporated
C:\Users\MaCHaDo\AppData\Local\Temp\4588011                          PAGE   54

    2879                      .dwattr $C$DW$199, DW_AT_const_value(0x00)
    2880              
    2881              $C$DW$200       .dwtag  DW_TAG_enumerator
    2882                      .dwattr $C$DW$200, DW_AT_name("CLK_ClkOutPreScaler_SysClkOut_by_2")
    2883                      .dwattr $C$DW$200, DW_AT_const_value(0x01)
    2884              
    2885              $C$DW$201       .dwtag  DW_TAG_enumerator
    2886                      .dwattr $C$DW$201, DW_AT_name("CLK_ClkOutPreScaler_SysClkOut_by_1")
    2887                      .dwattr $C$DW$201, DW_AT_const_value(0x02)
    2888              
    2889              $C$DW$202       .dwtag  DW_TAG_enumerator
    2890                      .dwattr $C$DW$202, DW_AT_name("CLK_ClkOutPreScaler_Off")
    2891                      .dwattr $C$DW$202, DW_AT_const_value(0x03)
    2892              
    2893                      .dwendtag $C$DW$T$33
    2894              
    2895              $C$DW$T$34      .dwtag  DW_TAG_typedef
    2896                      .dwattr $C$DW$T$34, DW_AT_name("CLK_ClkOutPreScaler_e")
    2897                      .dwattr $C$DW$T$34, DW_AT_type(*$C$DW$T$33)
    2898                      .dwattr $C$DW$T$34, DW_AT_language(DW_LANG_C)
    2899              
    2900              $C$DW$203       .dwtag  DW_TAG_TI_far_type
    2901                      .dwattr $C$DW$203, DW_AT_type(*$C$DW$T$34)
    2902              
    2903              $C$DW$T$35      .dwtag  DW_TAG_const_type
    2904                      .dwattr $C$DW$T$35, DW_AT_type(*$C$DW$203)
    2905              
    2906              
    2907              $C$DW$T$36      .dwtag  DW_TAG_enumeration_type
    2908                      .dwattr $C$DW$T$36, DW_AT_byte_size(0x01)
    2909              $C$DW$204       .dwtag  DW_TAG_enumerator
    2910                      .dwattr $C$DW$204, DW_AT_name("CLK_LowSpdPreScaler_SysClkOut_by_1")
    2911                      .dwattr $C$DW$204, DW_AT_const_value(0x00)
    2912              
    2913              $C$DW$205       .dwtag  DW_TAG_enumerator
    2914                      .dwattr $C$DW$205, DW_AT_name("CLK_LowSpdPreScaler_SysClkOut_by_2")
    2915                      .dwattr $C$DW$205, DW_AT_const_value(0x01)
    2916              
    2917              $C$DW$206       .dwtag  DW_TAG_enumerator
    2918                      .dwattr $C$DW$206, DW_AT_name("CLK_LowSpdPreScaler_SysClkOut_by_4")
    2919                      .dwattr $C$DW$206, DW_AT_const_value(0x02)
    2920              
    2921              $C$DW$207       .dwtag  DW_TAG_enumerator
    2922                      .dwattr $C$DW$207, DW_AT_name("CLK_LowSpdPreScaler_SysClkOut_by_6")
    2923                      .dwattr $C$DW$207, DW_AT_const_value(0x03)
    2924              
    2925              $C$DW$208       .dwtag  DW_TAG_enumerator
    2926                      .dwattr $C$DW$208, DW_AT_name("CLK_LowSpdPreScaler_SysClkOut_by_8")
    2927                      .dwattr $C$DW$208, DW_AT_const_value(0x04)
    2928              
    2929              $C$DW$209       .dwtag  DW_TAG_enumerator
    2930                      .dwattr $C$DW$209, DW_AT_name("CLK_LowSpdPreScaler_SysClkOut_by_10")
    2931                      .dwattr $C$DW$209, DW_AT_const_value(0x05)
    2932              
    2933              $C$DW$210       .dwtag  DW_TAG_enumerator
TMS320C2000 Assembler PC v15.12.3 Sun Oct 30 14:01:42 2016

Tools Copyright (c) 1996-2015 Texas Instruments Incorporated
C:\Users\MaCHaDo\AppData\Local\Temp\4588011                          PAGE   55

    2934                      .dwattr $C$DW$210, DW_AT_name("CLK_LowSpdPreScaler_SysClkOut_by_12")
    2935                      .dwattr $C$DW$210, DW_AT_const_value(0x06)
    2936              
    2937              $C$DW$211       .dwtag  DW_TAG_enumerator
    2938                      .dwattr $C$DW$211, DW_AT_name("CLK_LowSpdPreScaler_SysClkOut_by_14")
    2939                      .dwattr $C$DW$211, DW_AT_const_value(0x07)
    2940              
    2941                      .dwendtag $C$DW$T$36
    2942              
    2943              $C$DW$T$37      .dwtag  DW_TAG_typedef
    2944                      .dwattr $C$DW$T$37, DW_AT_name("CLK_LowSpdPreScaler_e")
    2945                      .dwattr $C$DW$T$37, DW_AT_type(*$C$DW$T$36)
    2946                      .dwattr $C$DW$T$37, DW_AT_language(DW_LANG_C)
    2947              
    2948              $C$DW$212       .dwtag  DW_TAG_TI_far_type
    2949                      .dwattr $C$DW$212, DW_AT_type(*$C$DW$T$37)
    2950              
    2951              $C$DW$T$38      .dwtag  DW_TAG_const_type
    2952                      .dwattr $C$DW$T$38, DW_AT_type(*$C$DW$212)
    2953              
    2954              
    2955              $C$DW$T$39      .dwtag  DW_TAG_enumeration_type
    2956                      .dwattr $C$DW$T$39, DW_AT_byte_size(0x01)
    2957              $C$DW$213       .dwtag  DW_TAG_enumerator
    2958                      .dwattr $C$DW$213, DW_AT_name("CLK_OscSrc_Internal")
    2959                      .dwattr $C$DW$213, DW_AT_const_value(0x00)
    2960              
    2961              $C$DW$214       .dwtag  DW_TAG_enumerator
    2962                      .dwattr $C$DW$214, DW_AT_name("CLK_OscSrc_External")
    2963                      .dwattr $C$DW$214, DW_AT_const_value(0x01)
    2964              
    2965                      .dwendtag $C$DW$T$39
    2966              
    2967              $C$DW$T$40      .dwtag  DW_TAG_typedef
    2968                      .dwattr $C$DW$T$40, DW_AT_name("CLK_OscSrc_e")
    2969                      .dwattr $C$DW$T$40, DW_AT_type(*$C$DW$T$39)
    2970                      .dwattr $C$DW$T$40, DW_AT_language(DW_LANG_C)
    2971              
    2972              $C$DW$215       .dwtag  DW_TAG_TI_far_type
    2973                      .dwattr $C$DW$215, DW_AT_type(*$C$DW$T$40)
    2974              
    2975              $C$DW$T$41      .dwtag  DW_TAG_const_type
    2976                      .dwattr $C$DW$T$41, DW_AT_type(*$C$DW$215)
    2977              
    2978              
    2979              $C$DW$T$42      .dwtag  DW_TAG_enumeration_type
    2980                      .dwattr $C$DW$T$42, DW_AT_byte_size(0x01)
    2981              $C$DW$216       .dwtag  DW_TAG_enumerator
    2982                      .dwattr $C$DW$216, DW_AT_name("CLK_Osc2Src_Internal")
    2983                      .dwattr $C$DW$216, DW_AT_const_value(0x02)
    2984              
    2985              $C$DW$217       .dwtag  DW_TAG_enumerator
    2986                      .dwattr $C$DW$217, DW_AT_name("CLK_Osc2Src_External")
    2987                      .dwattr $C$DW$217, DW_AT_const_value(0x00)
    2988              
TMS320C2000 Assembler PC v15.12.3 Sun Oct 30 14:01:42 2016

Tools Copyright (c) 1996-2015 Texas Instruments Incorporated
C:\Users\MaCHaDo\AppData\Local\Temp\4588011                          PAGE   56

    2989                      .dwendtag $C$DW$T$42
    2990              
    2991              $C$DW$T$43      .dwtag  DW_TAG_typedef
    2992                      .dwattr $C$DW$T$43, DW_AT_name("CLK_Osc2Src_e")
    2993                      .dwattr $C$DW$T$43, DW_AT_type(*$C$DW$T$42)
    2994                      .dwattr $C$DW$T$43, DW_AT_language(DW_LANG_C)
    2995              
    2996              $C$DW$218       .dwtag  DW_TAG_TI_far_type
    2997                      .dwattr $C$DW$218, DW_AT_type(*$C$DW$T$43)
    2998              
    2999              $C$DW$T$44      .dwtag  DW_TAG_const_type
    3000                      .dwattr $C$DW$T$44, DW_AT_type(*$C$DW$218)
    3001              
    3002              
    3003              $C$DW$T$45      .dwtag  DW_TAG_enumeration_type
    3004                      .dwattr $C$DW$T$45, DW_AT_byte_size(0x01)
    3005              $C$DW$219       .dwtag  DW_TAG_enumerator
    3006                      .dwattr $C$DW$219, DW_AT_name("CLK_XClkInSrc_Gpio38")
    3007                      .dwattr $C$DW$219, DW_AT_const_value(0x00)
    3008              
    3009              $C$DW$220       .dwtag  DW_TAG_enumerator
    3010                      .dwattr $C$DW$220, DW_AT_name("CLK_XClkInSrc_Gpio19")
    3011                      .dwattr $C$DW$220, DW_AT_const_value(0x40)
    3012              
    3013                      .dwendtag $C$DW$T$45
    3014              
    3015              $C$DW$T$46      .dwtag  DW_TAG_typedef
    3016                      .dwattr $C$DW$T$46, DW_AT_name("CLK_XClkInSrc_e")
    3017                      .dwattr $C$DW$T$46, DW_AT_type(*$C$DW$T$45)
    3018                      .dwattr $C$DW$T$46, DW_AT_language(DW_LANG_C)
    3019              
    3020              $C$DW$221       .dwtag  DW_TAG_TI_far_type
    3021                      .dwattr $C$DW$221, DW_AT_type(*$C$DW$T$46)
    3022              
    3023              $C$DW$T$47      .dwtag  DW_TAG_const_type
    3024                      .dwattr $C$DW$T$47, DW_AT_type(*$C$DW$221)
    3025              
    3026              
    3027              $C$DW$T$48      .dwtag  DW_TAG_enumeration_type
    3028                      .dwattr $C$DW$T$48, DW_AT_byte_size(0x01)
    3029              $C$DW$222       .dwtag  DW_TAG_enumerator
    3030                      .dwattr $C$DW$222, DW_AT_name("CLK_Timer2PreScaler_by_1")
    3031                      .dwattr $C$DW$222, DW_AT_const_value(0x00)
    3032              
    3033              $C$DW$223       .dwtag  DW_TAG_enumerator
    3034                      .dwattr $C$DW$223, DW_AT_name("CLK_Timer2PreScaler_by_2")
    3035                      .dwattr $C$DW$223, DW_AT_const_value(0x20)
    3036              
    3037              $C$DW$224       .dwtag  DW_TAG_enumerator
    3038                      .dwattr $C$DW$224, DW_AT_name("CLK_Timer2PreScaler_by_4")
    3039                      .dwattr $C$DW$224, DW_AT_const_value(0x40)
    3040              
    3041              $C$DW$225       .dwtag  DW_TAG_enumerator
    3042                      .dwattr $C$DW$225, DW_AT_name("CLK_Timer2PreScaler_by_8")
    3043                      .dwattr $C$DW$225, DW_AT_const_value(0x60)
TMS320C2000 Assembler PC v15.12.3 Sun Oct 30 14:01:42 2016

Tools Copyright (c) 1996-2015 Texas Instruments Incorporated
C:\Users\MaCHaDo\AppData\Local\Temp\4588011                          PAGE   57

    3044              
    3045              $C$DW$226       .dwtag  DW_TAG_enumerator
    3046                      .dwattr $C$DW$226, DW_AT_name("CLK_Timer2PreScaler_by_16")
    3047                      .dwattr $C$DW$226, DW_AT_const_value(0x80)
    3048              
    3049                      .dwendtag $C$DW$T$48
    3050              
    3051              $C$DW$T$49      .dwtag  DW_TAG_typedef
    3052                      .dwattr $C$DW$T$49, DW_AT_name("CLK_Timer2PreScaler_e")
    3053                      .dwattr $C$DW$T$49, DW_AT_type(*$C$DW$T$48)
    3054                      .dwattr $C$DW$T$49, DW_AT_language(DW_LANG_C)
    3055              
    3056              $C$DW$227       .dwtag  DW_TAG_TI_far_type
    3057                      .dwattr $C$DW$227, DW_AT_type(*$C$DW$T$49)
    3058              
    3059              $C$DW$T$50      .dwtag  DW_TAG_const_type
    3060                      .dwattr $C$DW$T$50, DW_AT_type(*$C$DW$227)
    3061              
    3062              
    3063              $C$DW$T$51      .dwtag  DW_TAG_enumeration_type
    3064                      .dwattr $C$DW$T$51, DW_AT_byte_size(0x01)
    3065              $C$DW$228       .dwtag  DW_TAG_enumerator
    3066                      .dwattr $C$DW$228, DW_AT_name("CLK_Timer2Src_SysClk")
    3067                      .dwattr $C$DW$228, DW_AT_const_value(0x00)
    3068              
    3069              $C$DW$229       .dwtag  DW_TAG_enumerator
    3070                      .dwattr $C$DW$229, DW_AT_name("CLK_Timer2Src_ExtOsc")
    3071                      .dwattr $C$DW$229, DW_AT_const_value(0x08)
    3072              
    3073              $C$DW$230       .dwtag  DW_TAG_enumerator
    3074                      .dwattr $C$DW$230, DW_AT_name("CLK_Timer2Src_IntOsc1")
    3075                      .dwattr $C$DW$230, DW_AT_const_value(0x10)
    3076              
    3077              $C$DW$231       .dwtag  DW_TAG_enumerator
    3078                      .dwattr $C$DW$231, DW_AT_name("CLK_Timer2Src_IntOsc2")
    3079                      .dwattr $C$DW$231, DW_AT_const_value(0x18)
    3080              
    3081                      .dwendtag $C$DW$T$51
    3082              
    3083              $C$DW$T$52      .dwtag  DW_TAG_typedef
    3084                      .dwattr $C$DW$T$52, DW_AT_name("CLK_Timer2Src_e")
    3085                      .dwattr $C$DW$T$52, DW_AT_type(*$C$DW$T$51)
    3086                      .dwattr $C$DW$T$52, DW_AT_language(DW_LANG_C)
    3087              
    3088              $C$DW$232       .dwtag  DW_TAG_TI_far_type
    3089                      .dwattr $C$DW$232, DW_AT_type(*$C$DW$T$52)
    3090              
    3091              $C$DW$T$53      .dwtag  DW_TAG_const_type
    3092                      .dwattr $C$DW$T$53, DW_AT_type(*$C$DW$232)
    3093              
    3094              
    3095              $C$DW$T$54      .dwtag  DW_TAG_enumeration_type
    3096                      .dwattr $C$DW$T$54, DW_AT_byte_size(0x01)
    3097              $C$DW$233       .dwtag  DW_TAG_enumerator
    3098                      .dwattr $C$DW$233, DW_AT_name("CLK_WdClkSrc_IntOsc1")
TMS320C2000 Assembler PC v15.12.3 Sun Oct 30 14:01:42 2016

Tools Copyright (c) 1996-2015 Texas Instruments Incorporated
C:\Users\MaCHaDo\AppData\Local\Temp\4588011                          PAGE   58

    3099                      .dwattr $C$DW$233, DW_AT_const_value(0x00)
    3100              
    3101              $C$DW$234       .dwtag  DW_TAG_enumerator
    3102                      .dwattr $C$DW$234, DW_AT_name("CLK_WdClkSrc_ExtOscOrIntOsc2")
    3103                      .dwattr $C$DW$234, DW_AT_const_value(0x04)
    3104              
    3105                      .dwendtag $C$DW$T$54
    3106              
    3107              $C$DW$T$55      .dwtag  DW_TAG_typedef
    3108                      .dwattr $C$DW$T$55, DW_AT_name("CLK_WdClkSrc_e")
    3109                      .dwattr $C$DW$T$55, DW_AT_type(*$C$DW$T$54)
    3110                      .dwattr $C$DW$T$55, DW_AT_language(DW_LANG_C)
    3111              
    3112              $C$DW$235       .dwtag  DW_TAG_TI_far_type
    3113                      .dwattr $C$DW$235, DW_AT_type(*$C$DW$T$55)
    3114              
    3115              $C$DW$T$56      .dwtag  DW_TAG_const_type
    3116                      .dwattr $C$DW$T$56, DW_AT_type(*$C$DW$235)
    3117              
    3118              
    3119              $C$DW$T$23      .dwtag  DW_TAG_structure_type
    3120                      .dwattr $C$DW$T$23, DW_AT_name("_CLK_Obj_")
    3121                      .dwattr $C$DW$T$23, DW_AT_byte_size(0x11)
    3122              $C$DW$236       .dwtag  DW_TAG_member
    3123                      .dwattr $C$DW$236, DW_AT_type(*$C$DW$T$20)
    3124                      .dwattr $C$DW$236, DW_AT_name("XCLK")
    3125                      .dwattr $C$DW$236, DW_AT_TI_symbol_name("_XCLK")
    3126                      .dwattr $C$DW$236, DW_AT_data_member_location[DW_OP_plus_uconst 0x0]
    3127                      .dwattr $C$DW$236, DW_AT_accessibility(DW_ACCESS_public)
    3128              
    3129              $C$DW$237       .dwtag  DW_TAG_member
    3130                      .dwattr $C$DW$237, DW_AT_type(*$C$DW$T$20)
    3131                      .dwattr $C$DW$237, DW_AT_name("rsvd_1")
    3132                      .dwattr $C$DW$237, DW_AT_TI_symbol_name("_rsvd_1")
    3133                      .dwattr $C$DW$237, DW_AT_data_member_location[DW_OP_plus_uconst 0x1]
    3134                      .dwattr $C$DW$237, DW_AT_accessibility(DW_ACCESS_public)
    3135              
    3136              $C$DW$238       .dwtag  DW_TAG_member
    3137                      .dwattr $C$DW$238, DW_AT_type(*$C$DW$T$20)
    3138                      .dwattr $C$DW$238, DW_AT_name("CLKCTL")
    3139                      .dwattr $C$DW$238, DW_AT_TI_symbol_name("_CLKCTL")
    3140                      .dwattr $C$DW$238, DW_AT_data_member_location[DW_OP_plus_uconst 0x2]
    3141                      .dwattr $C$DW$238, DW_AT_accessibility(DW_ACCESS_public)
    3142              
    3143              $C$DW$239       .dwtag  DW_TAG_member
    3144                      .dwattr $C$DW$239, DW_AT_type(*$C$DW$T$21)
    3145                      .dwattr $C$DW$239, DW_AT_name("rsvd_2")
    3146                      .dwattr $C$DW$239, DW_AT_TI_symbol_name("_rsvd_2")
    3147                      .dwattr $C$DW$239, DW_AT_data_member_location[DW_OP_plus_uconst 0x3]
    3148                      .dwattr $C$DW$239, DW_AT_accessibility(DW_ACCESS_public)
    3149              
    3150              $C$DW$240       .dwtag  DW_TAG_member
    3151                      .dwattr $C$DW$240, DW_AT_type(*$C$DW$T$20)
    3152                      .dwattr $C$DW$240, DW_AT_name("LOSPCP")
    3153                      .dwattr $C$DW$240, DW_AT_TI_symbol_name("_LOSPCP")
TMS320C2000 Assembler PC v15.12.3 Sun Oct 30 14:01:42 2016

Tools Copyright (c) 1996-2015 Texas Instruments Incorporated
C:\Users\MaCHaDo\AppData\Local\Temp\4588011                          PAGE   59

    3154                      .dwattr $C$DW$240, DW_AT_data_member_location[DW_OP_plus_uconst 0xb]
    3155                      .dwattr $C$DW$240, DW_AT_accessibility(DW_ACCESS_public)
    3156              
    3157              $C$DW$241       .dwtag  DW_TAG_member
    3158                      .dwattr $C$DW$241, DW_AT_type(*$C$DW$T$20)
    3159                      .dwattr $C$DW$241, DW_AT_name("PCLKCR0")
    3160                      .dwattr $C$DW$241, DW_AT_TI_symbol_name("_PCLKCR0")
    3161                      .dwattr $C$DW$241, DW_AT_data_member_location[DW_OP_plus_uconst 0xc]
    3162                      .dwattr $C$DW$241, DW_AT_accessibility(DW_ACCESS_public)
    3163              
    3164              $C$DW$242       .dwtag  DW_TAG_member
    3165                      .dwattr $C$DW$242, DW_AT_type(*$C$DW$T$20)
    3166                      .dwattr $C$DW$242, DW_AT_name("PCLKCR1")
    3167                      .dwattr $C$DW$242, DW_AT_TI_symbol_name("_PCLKCR1")
    3168                      .dwattr $C$DW$242, DW_AT_data_member_location[DW_OP_plus_uconst 0xd]
    3169                      .dwattr $C$DW$242, DW_AT_accessibility(DW_ACCESS_public)
    3170              
    3171              $C$DW$243       .dwtag  DW_TAG_member
    3172                      .dwattr $C$DW$243, DW_AT_type(*$C$DW$T$22)
    3173                      .dwattr $C$DW$243, DW_AT_name("rsvd_3")
    3174                      .dwattr $C$DW$243, DW_AT_TI_symbol_name("_rsvd_3")
    3175                      .dwattr $C$DW$243, DW_AT_data_member_location[DW_OP_plus_uconst 0xe]
    3176                      .dwattr $C$DW$243, DW_AT_accessibility(DW_ACCESS_public)
    3177              
    3178              $C$DW$244       .dwtag  DW_TAG_member
    3179                      .dwattr $C$DW$244, DW_AT_type(*$C$DW$T$20)
    3180                      .dwattr $C$DW$244, DW_AT_name("PCLKCR3")
    3181                      .dwattr $C$DW$244, DW_AT_TI_symbol_name("_PCLKCR3")
    3182                      .dwattr $C$DW$244, DW_AT_data_member_location[DW_OP_plus_uconst 0x10]
    3183                      .dwattr $C$DW$244, DW_AT_accessibility(DW_ACCESS_public)
    3184              
    3185                      .dwendtag $C$DW$T$23
    3186              
    3187              $C$DW$T$57      .dwtag  DW_TAG_typedef
    3188                      .dwattr $C$DW$T$57, DW_AT_name("CLK_Obj")
    3189                      .dwattr $C$DW$T$57, DW_AT_type(*$C$DW$T$23)
    3190                      .dwattr $C$DW$T$57, DW_AT_language(DW_LANG_C)
    3191              
    3192              $C$DW$T$58      .dwtag  DW_TAG_pointer_type
    3193                      .dwattr $C$DW$T$58, DW_AT_type(*$C$DW$T$23)
    3194                      .dwattr $C$DW$T$58, DW_AT_address_class(0x20)
    3195              
    3196              $C$DW$T$59      .dwtag  DW_TAG_typedef
    3197                      .dwattr $C$DW$T$59, DW_AT_name("CLK_Handle")
    3198                      .dwattr $C$DW$T$59, DW_AT_type(*$C$DW$T$58)
    3199                      .dwattr $C$DW$T$59, DW_AT_language(DW_LANG_C)
    3200              
    3201              $C$DW$245       .dwtag  DW_TAG_TI_far_type
    3202                      .dwattr $C$DW$245, DW_AT_type(*$C$DW$T$59)
    3203              
    3204              $C$DW$T$60      .dwtag  DW_TAG_const_type
    3205                      .dwattr $C$DW$T$60, DW_AT_type(*$C$DW$245)
    3206              
    3207              $C$DW$T$2       .dwtag  DW_TAG_unspecified_type
    3208                      .dwattr $C$DW$T$2, DW_AT_name("void")
TMS320C2000 Assembler PC v15.12.3 Sun Oct 30 14:01:42 2016

Tools Copyright (c) 1996-2015 Texas Instruments Incorporated
C:\Users\MaCHaDo\AppData\Local\Temp\4588011                          PAGE   60

    3209              
    3210              $C$DW$T$3       .dwtag  DW_TAG_pointer_type
    3211                      .dwattr $C$DW$T$3, DW_AT_type(*$C$DW$T$2)
    3212                      .dwattr $C$DW$T$3, DW_AT_address_class(0x20)
    3213              
    3214              $C$DW$T$4       .dwtag  DW_TAG_base_type
    3215                      .dwattr $C$DW$T$4, DW_AT_encoding(DW_ATE_boolean)
    3216                      .dwattr $C$DW$T$4, DW_AT_name("bool")
    3217                      .dwattr $C$DW$T$4, DW_AT_byte_size(0x01)
    3218              
    3219              $C$DW$T$5       .dwtag  DW_TAG_base_type
    3220                      .dwattr $C$DW$T$5, DW_AT_encoding(DW_ATE_signed_char)
    3221                      .dwattr $C$DW$T$5, DW_AT_name("signed char")
    3222                      .dwattr $C$DW$T$5, DW_AT_byte_size(0x01)
    3223              
    3224              $C$DW$T$6       .dwtag  DW_TAG_base_type
    3225                      .dwattr $C$DW$T$6, DW_AT_encoding(DW_ATE_unsigned_char)
    3226                      .dwattr $C$DW$T$6, DW_AT_name("unsigned char")
    3227                      .dwattr $C$DW$T$6, DW_AT_byte_size(0x01)
    3228              
    3229              $C$DW$T$7       .dwtag  DW_TAG_base_type
    3230                      .dwattr $C$DW$T$7, DW_AT_encoding(DW_ATE_signed_char)
    3231                      .dwattr $C$DW$T$7, DW_AT_name("wchar_t")
    3232                      .dwattr $C$DW$T$7, DW_AT_byte_size(0x01)
    3233              
    3234              $C$DW$T$8       .dwtag  DW_TAG_base_type
    3235                      .dwattr $C$DW$T$8, DW_AT_encoding(DW_ATE_signed)
    3236                      .dwattr $C$DW$T$8, DW_AT_name("short")
    3237                      .dwattr $C$DW$T$8, DW_AT_byte_size(0x01)
    3238              
    3239              $C$DW$T$9       .dwtag  DW_TAG_base_type
    3240                      .dwattr $C$DW$T$9, DW_AT_encoding(DW_ATE_unsigned)
    3241                      .dwattr $C$DW$T$9, DW_AT_name("unsigned short")
    3242                      .dwattr $C$DW$T$9, DW_AT_byte_size(0x01)
    3243              
    3244              $C$DW$T$10      .dwtag  DW_TAG_base_type
    3245                      .dwattr $C$DW$T$10, DW_AT_encoding(DW_ATE_signed)
    3246                      .dwattr $C$DW$T$10, DW_AT_name("int")
    3247                      .dwattr $C$DW$T$10, DW_AT_byte_size(0x01)
    3248              
    3249              $C$DW$T$11      .dwtag  DW_TAG_base_type
    3250                      .dwattr $C$DW$T$11, DW_AT_encoding(DW_ATE_unsigned)
    3251                      .dwattr $C$DW$T$11, DW_AT_name("unsigned int")
    3252                      .dwattr $C$DW$T$11, DW_AT_byte_size(0x01)
    3253              
    3254              $C$DW$T$19      .dwtag  DW_TAG_typedef
    3255                      .dwattr $C$DW$T$19, DW_AT_name("uint16_t")
    3256                      .dwattr $C$DW$T$19, DW_AT_type(*$C$DW$T$11)
    3257                      .dwattr $C$DW$T$19, DW_AT_language(DW_LANG_C)
    3258              
    3259              $C$DW$246       .dwtag  DW_TAG_TI_far_type
    3260                      .dwattr $C$DW$246, DW_AT_type(*$C$DW$T$19)
    3261              
    3262              $C$DW$T$20      .dwtag  DW_TAG_volatile_type
    3263                      .dwattr $C$DW$T$20, DW_AT_type(*$C$DW$246)
TMS320C2000 Assembler PC v15.12.3 Sun Oct 30 14:01:42 2016

Tools Copyright (c) 1996-2015 Texas Instruments Incorporated
C:\Users\MaCHaDo\AppData\Local\Temp\4588011                          PAGE   61

    3264              
    3265              
    3266              $C$DW$T$21      .dwtag  DW_TAG_array_type
    3267                      .dwattr $C$DW$T$21, DW_AT_type(*$C$DW$T$20)
    3268                      .dwattr $C$DW$T$21, DW_AT_language(DW_LANG_C)
    3269                      .dwattr $C$DW$T$21, DW_AT_byte_size(0x08)
    3270              $C$DW$247       .dwtag  DW_TAG_subrange_type
    3271                      .dwattr $C$DW$247, DW_AT_upper_bound(0x07)
    3272              
    3273                      .dwendtag $C$DW$T$21
    3274              
    3275              
    3276              $C$DW$T$22      .dwtag  DW_TAG_array_type
    3277                      .dwattr $C$DW$T$22, DW_AT_type(*$C$DW$T$20)
    3278                      .dwattr $C$DW$T$22, DW_AT_language(DW_LANG_C)
    3279                      .dwattr $C$DW$T$22, DW_AT_byte_size(0x02)
    3280              $C$DW$248       .dwtag  DW_TAG_subrange_type
    3281                      .dwattr $C$DW$248, DW_AT_upper_bound(0x01)
    3282              
    3283                      .dwendtag $C$DW$T$22
    3284              
    3285              $C$DW$T$12      .dwtag  DW_TAG_base_type
    3286                      .dwattr $C$DW$T$12, DW_AT_encoding(DW_ATE_signed)
    3287                      .dwattr $C$DW$T$12, DW_AT_name("long")
    3288                      .dwattr $C$DW$T$12, DW_AT_byte_size(0x02)
    3289              
    3290              $C$DW$T$13      .dwtag  DW_TAG_base_type
    3291                      .dwattr $C$DW$T$13, DW_AT_encoding(DW_ATE_unsigned)
    3292                      .dwattr $C$DW$T$13, DW_AT_name("unsigned long")
    3293                      .dwattr $C$DW$T$13, DW_AT_byte_size(0x02)
    3294              
    3295              $C$DW$T$61      .dwtag  DW_TAG_typedef
    3296                      .dwattr $C$DW$T$61, DW_AT_name("size_t")
    3297                      .dwattr $C$DW$T$61, DW_AT_type(*$C$DW$T$13)
    3298                      .dwattr $C$DW$T$61, DW_AT_language(DW_LANG_C)
    3299              
    3300              $C$DW$249       .dwtag  DW_TAG_TI_far_type
    3301                      .dwattr $C$DW$249, DW_AT_type(*$C$DW$T$61)
    3302              
    3303              $C$DW$T$62      .dwtag  DW_TAG_const_type
    3304                      .dwattr $C$DW$T$62, DW_AT_type(*$C$DW$249)
    3305              
    3306              $C$DW$T$14      .dwtag  DW_TAG_base_type
    3307                      .dwattr $C$DW$T$14, DW_AT_encoding(DW_ATE_signed)
    3308                      .dwattr $C$DW$T$14, DW_AT_name("long long")
    3309                      .dwattr $C$DW$T$14, DW_AT_byte_size(0x04)
    3310              
    3311              $C$DW$T$15      .dwtag  DW_TAG_base_type
    3312                      .dwattr $C$DW$T$15, DW_AT_encoding(DW_ATE_unsigned)
    3313                      .dwattr $C$DW$T$15, DW_AT_name("unsigned long long")
    3314                      .dwattr $C$DW$T$15, DW_AT_byte_size(0x04)
    3315              
    3316              $C$DW$T$16      .dwtag  DW_TAG_base_type
    3317                      .dwattr $C$DW$T$16, DW_AT_encoding(DW_ATE_float)
    3318                      .dwattr $C$DW$T$16, DW_AT_name("float")
TMS320C2000 Assembler PC v15.12.3 Sun Oct 30 14:01:42 2016

Tools Copyright (c) 1996-2015 Texas Instruments Incorporated
C:\Users\MaCHaDo\AppData\Local\Temp\4588011                          PAGE   62

    3319                      .dwattr $C$DW$T$16, DW_AT_byte_size(0x02)
    3320              
    3321              $C$DW$T$17      .dwtag  DW_TAG_base_type
    3322                      .dwattr $C$DW$T$17, DW_AT_encoding(DW_ATE_float)
    3323                      .dwattr $C$DW$T$17, DW_AT_name("double")
    3324                      .dwattr $C$DW$T$17, DW_AT_byte_size(0x02)
    3325              
    3326              $C$DW$T$18      .dwtag  DW_TAG_base_type
    3327                      .dwattr $C$DW$T$18, DW_AT_encoding(DW_ATE_float)
    3328                      .dwattr $C$DW$T$18, DW_AT_name("long double")
    3329                      .dwattr $C$DW$T$18, DW_AT_byte_size(0x04)
    3330              
    3331                      .dwattr $C$DW$CU, DW_AT_language(DW_LANG_C)
    3332              
    3333              ;***************************************************************
    3334              ;* DWARF CIE ENTRIES                                           *
    3335              ;***************************************************************
    3336              
    3337              $C$DW$CIE       .dwcie 26
    3338                      .dwcfi  cfa_register, 20
    3339                      .dwcfi  cfa_offset, 0
    3340                      .dwcfi  undefined, 0
    3341                      .dwcfi  undefined, 1
    3342                      .dwcfi  undefined, 2
    3343                      .dwcfi  undefined, 3
    3344                      .dwcfi  undefined, 20
    3345                      .dwcfi  undefined, 21
    3346                      .dwcfi  undefined, 22
    3347                      .dwcfi  undefined, 23
    3348                      .dwcfi  undefined, 24
    3349                      .dwcfi  undefined, 25
    3350                      .dwcfi  undefined, 26
    3351                      .dwcfi  same_value, 28
    3352                      .dwcfi  undefined, 29
    3353                      .dwcfi  undefined, 30
    3354                      .dwcfi  undefined, 31
    3355                      .dwcfi  undefined, 32
    3356                      .dwcfi  undefined, 33
    3357                      .dwcfi  undefined, 34
    3358                      .dwcfi  undefined, 35
    3359                      .dwcfi  undefined, 36
    3360                      .dwcfi  undefined, 37
    3361                      .dwcfi  undefined, 38
    3362                      .dwcfi  undefined, 75
    3363                      .dwcfi  undefined, 76
    3364                      .dwcfi  undefined, 77
    3365                      .dwcfi  undefined, 4
    3366                      .dwcfi  undefined, 5
    3367                      .dwcfi  same_value, 6
    3368                      .dwcfi  same_value, 7
    3369                      .dwcfi  same_value, 8
    3370                      .dwcfi  same_value, 9
    3371                      .dwcfi  same_value, 10
    3372                      .dwcfi  same_value, 11
    3373                      .dwcfi  undefined, 12
TMS320C2000 Assembler PC v15.12.3 Sun Oct 30 14:01:42 2016

Tools Copyright (c) 1996-2015 Texas Instruments Incorporated
C:\Users\MaCHaDo\AppData\Local\Temp\4588011                          PAGE   63

    3374                      .dwcfi  undefined, 13
    3375                      .dwcfi  undefined, 14
    3376                      .dwcfi  undefined, 15
    3377                      .dwcfi  undefined, 16
    3378                      .dwcfi  undefined, 17
    3379                      .dwcfi  undefined, 18
    3380                      .dwcfi  undefined, 19
    3381                      .dwendentry
    3382              
    3383              ;***************************************************************
    3384              ;* DWARF REGISTER MAP                                          *
    3385              ;***************************************************************
    3386              
    3387              $C$DW$250       .dwtag  DW_TAG_TI_assign_register
    3388                      .dwattr $C$DW$250, DW_AT_name("AL")
    3389                      .dwattr $C$DW$250, DW_AT_location[DW_OP_reg0]
    3390              
    3391              $C$DW$251       .dwtag  DW_TAG_TI_assign_register
    3392                      .dwattr $C$DW$251, DW_AT_name("AH")
    3393                      .dwattr $C$DW$251, DW_AT_location[DW_OP_reg1]
    3394              
    3395              $C$DW$252       .dwtag  DW_TAG_TI_assign_register
    3396                      .dwattr $C$DW$252, DW_AT_name("PL")
    3397                      .dwattr $C$DW$252, DW_AT_location[DW_OP_reg2]
    3398              
    3399              $C$DW$253       .dwtag  DW_TAG_TI_assign_register
    3400                      .dwattr $C$DW$253, DW_AT_name("PH")
    3401                      .dwattr $C$DW$253, DW_AT_location[DW_OP_reg3]
    3402              
    3403              $C$DW$254       .dwtag  DW_TAG_TI_assign_register
    3404                      .dwattr $C$DW$254, DW_AT_name("SP")
    3405                      .dwattr $C$DW$254, DW_AT_location[DW_OP_reg20]
    3406              
    3407              $C$DW$255       .dwtag  DW_TAG_TI_assign_register
    3408                      .dwattr $C$DW$255, DW_AT_name("XT")
    3409                      .dwattr $C$DW$255, DW_AT_location[DW_OP_reg21]
    3410              
    3411              $C$DW$256       .dwtag  DW_TAG_TI_assign_register
    3412                      .dwattr $C$DW$256, DW_AT_name("T")
    3413                      .dwattr $C$DW$256, DW_AT_location[DW_OP_reg22]
    3414              
    3415              $C$DW$257       .dwtag  DW_TAG_TI_assign_register
    3416                      .dwattr $C$DW$257, DW_AT_name("ST0")
    3417                      .dwattr $C$DW$257, DW_AT_location[DW_OP_reg23]
    3418              
    3419              $C$DW$258       .dwtag  DW_TAG_TI_assign_register
    3420                      .dwattr $C$DW$258, DW_AT_name("ST1")
    3421                      .dwattr $C$DW$258, DW_AT_location[DW_OP_reg24]
    3422              
    3423              $C$DW$259       .dwtag  DW_TAG_TI_assign_register
    3424                      .dwattr $C$DW$259, DW_AT_name("PC")
    3425                      .dwattr $C$DW$259, DW_AT_location[DW_OP_reg25]
    3426              
    3427              $C$DW$260       .dwtag  DW_TAG_TI_assign_register
    3428                      .dwattr $C$DW$260, DW_AT_name("RPC")
TMS320C2000 Assembler PC v15.12.3 Sun Oct 30 14:01:42 2016

Tools Copyright (c) 1996-2015 Texas Instruments Incorporated
C:\Users\MaCHaDo\AppData\Local\Temp\4588011                          PAGE   64

    3429                      .dwattr $C$DW$260, DW_AT_location[DW_OP_reg26]
    3430              
    3431              $C$DW$261       .dwtag  DW_TAG_TI_assign_register
    3432                      .dwattr $C$DW$261, DW_AT_name("FP")
    3433                      .dwattr $C$DW$261, DW_AT_location[DW_OP_reg28]
    3434              
    3435              $C$DW$262       .dwtag  DW_TAG_TI_assign_register
    3436                      .dwattr $C$DW$262, DW_AT_name("DP")
    3437                      .dwattr $C$DW$262, DW_AT_location[DW_OP_reg29]
    3438              
    3439              $C$DW$263       .dwtag  DW_TAG_TI_assign_register
    3440                      .dwattr $C$DW$263, DW_AT_name("SXM")
    3441                      .dwattr $C$DW$263, DW_AT_location[DW_OP_reg30]
    3442              
    3443              $C$DW$264       .dwtag  DW_TAG_TI_assign_register
    3444                      .dwattr $C$DW$264, DW_AT_name("PM")
    3445                      .dwattr $C$DW$264, DW_AT_location[DW_OP_reg31]
    3446              
    3447              $C$DW$265       .dwtag  DW_TAG_TI_assign_register
    3448                      .dwattr $C$DW$265, DW_AT_name("OVM")
    3449                      .dwattr $C$DW$265, DW_AT_location[DW_OP_regx 0x20]
    3450              
    3451              $C$DW$266       .dwtag  DW_TAG_TI_assign_register
    3452                      .dwattr $C$DW$266, DW_AT_name("PAGE0")
    3453                      .dwattr $C$DW$266, DW_AT_location[DW_OP_regx 0x21]
    3454              
    3455              $C$DW$267       .dwtag  DW_TAG_TI_assign_register
    3456                      .dwattr $C$DW$267, DW_AT_name("AMODE")
    3457                      .dwattr $C$DW$267, DW_AT_location[DW_OP_regx 0x22]
    3458              
    3459              $C$DW$268       .dwtag  DW_TAG_TI_assign_register
    3460                      .dwattr $C$DW$268, DW_AT_name("INTM")
    3461                      .dwattr $C$DW$268, DW_AT_location[DW_OP_regx 0x23]
    3462              
    3463              $C$DW$269       .dwtag  DW_TAG_TI_assign_register
    3464                      .dwattr $C$DW$269, DW_AT_name("IFR")
    3465                      .dwattr $C$DW$269, DW_AT_location[DW_OP_regx 0x24]
    3466              
    3467              $C$DW$270       .dwtag  DW_TAG_TI_assign_register
    3468                      .dwattr $C$DW$270, DW_AT_name("IER")
    3469                      .dwattr $C$DW$270, DW_AT_location[DW_OP_regx 0x25]
    3470              
    3471              $C$DW$271       .dwtag  DW_TAG_TI_assign_register
    3472                      .dwattr $C$DW$271, DW_AT_name("V")
    3473                      .dwattr $C$DW$271, DW_AT_location[DW_OP_regx 0x26]
    3474              
    3475              $C$DW$272       .dwtag  DW_TAG_TI_assign_register
    3476                      .dwattr $C$DW$272, DW_AT_name("PSEUDOH")
    3477                      .dwattr $C$DW$272, DW_AT_location[DW_OP_regx 0x4c]
    3478              
    3479              $C$DW$273       .dwtag  DW_TAG_TI_assign_register
    3480                      .dwattr $C$DW$273, DW_AT_name("VOL")
    3481                      .dwattr $C$DW$273, DW_AT_location[DW_OP_regx 0x4d]
    3482              
    3483              $C$DW$274       .dwtag  DW_TAG_TI_assign_register
TMS320C2000 Assembler PC v15.12.3 Sun Oct 30 14:01:42 2016

Tools Copyright (c) 1996-2015 Texas Instruments Incorporated
C:\Users\MaCHaDo\AppData\Local\Temp\4588011                          PAGE   65

    3484                      .dwattr $C$DW$274, DW_AT_name("AR0")
    3485                      .dwattr $C$DW$274, DW_AT_location[DW_OP_reg4]
    3486              
    3487              $C$DW$275       .dwtag  DW_TAG_TI_assign_register
    3488                      .dwattr $C$DW$275, DW_AT_name("XAR0")
    3489                      .dwattr $C$DW$275, DW_AT_location[DW_OP_reg5]
    3490              
    3491              $C$DW$276       .dwtag  DW_TAG_TI_assign_register
    3492                      .dwattr $C$DW$276, DW_AT_name("AR1")
    3493                      .dwattr $C$DW$276, DW_AT_location[DW_OP_reg6]
    3494              
    3495              $C$DW$277       .dwtag  DW_TAG_TI_assign_register
    3496                      .dwattr $C$DW$277, DW_AT_name("XAR1")
    3497                      .dwattr $C$DW$277, DW_AT_location[DW_OP_reg7]
    3498              
    3499              $C$DW$278       .dwtag  DW_TAG_TI_assign_register
    3500                      .dwattr $C$DW$278, DW_AT_name("AR2")
    3501                      .dwattr $C$DW$278, DW_AT_location[DW_OP_reg8]
    3502              
    3503              $C$DW$279       .dwtag  DW_TAG_TI_assign_register
    3504                      .dwattr $C$DW$279, DW_AT_name("XAR2")
    3505                      .dwattr $C$DW$279, DW_AT_location[DW_OP_reg9]
    3506              
    3507              $C$DW$280       .dwtag  DW_TAG_TI_assign_register
    3508                      .dwattr $C$DW$280, DW_AT_name("AR3")
    3509                      .dwattr $C$DW$280, DW_AT_location[DW_OP_reg10]
    3510              
    3511              $C$DW$281       .dwtag  DW_TAG_TI_assign_register
    3512                      .dwattr $C$DW$281, DW_AT_name("XAR3")
    3513                      .dwattr $C$DW$281, DW_AT_location[DW_OP_reg11]
    3514              
    3515              $C$DW$282       .dwtag  DW_TAG_TI_assign_register
    3516                      .dwattr $C$DW$282, DW_AT_name("AR4")
    3517                      .dwattr $C$DW$282, DW_AT_location[DW_OP_reg12]
    3518              
    3519              $C$DW$283       .dwtag  DW_TAG_TI_assign_register
    3520                      .dwattr $C$DW$283, DW_AT_name("XAR4")
    3521                      .dwattr $C$DW$283, DW_AT_location[DW_OP_reg13]
    3522              
    3523              $C$DW$284       .dwtag  DW_TAG_TI_assign_register
    3524                      .dwattr $C$DW$284, DW_AT_name("AR5")
    3525                      .dwattr $C$DW$284, DW_AT_location[DW_OP_reg14]
    3526              
    3527              $C$DW$285       .dwtag  DW_TAG_TI_assign_register
    3528                      .dwattr $C$DW$285, DW_AT_name("XAR5")
    3529                      .dwattr $C$DW$285, DW_AT_location[DW_OP_reg15]
    3530              
    3531              $C$DW$286       .dwtag  DW_TAG_TI_assign_register
    3532                      .dwattr $C$DW$286, DW_AT_name("AR6")
    3533                      .dwattr $C$DW$286, DW_AT_location[DW_OP_reg16]
    3534              
    3535              $C$DW$287       .dwtag  DW_TAG_TI_assign_register
    3536                      .dwattr $C$DW$287, DW_AT_name("XAR6")
    3537                      .dwattr $C$DW$287, DW_AT_location[DW_OP_reg17]
    3538              
TMS320C2000 Assembler PC v15.12.3 Sun Oct 30 14:01:42 2016

Tools Copyright (c) 1996-2015 Texas Instruments Incorporated
C:\Users\MaCHaDo\AppData\Local\Temp\4588011                          PAGE   66

    3539              $C$DW$288       .dwtag  DW_TAG_TI_assign_register
    3540                      .dwattr $C$DW$288, DW_AT_name("AR7")
    3541                      .dwattr $C$DW$288, DW_AT_location[DW_OP_reg18]
    3542              
    3543              $C$DW$289       .dwtag  DW_TAG_TI_assign_register
    3544                      .dwattr $C$DW$289, DW_AT_name("XAR7")
    3545                      .dwattr $C$DW$289, DW_AT_location[DW_OP_reg19]
    3546              
    3547                      .dwendtag $C$DW$CU
    3548              

No Assembly Errors, No Assembly Warnings
