TMS320C2000 Assembler PC v15.12.3 Tue Sep 20 20:30:07 2016

Tools Copyright (c) 1996-2015 Texas Instruments Incorporated
C:\Users\MaCHaDo\AppData\Local\Temp\2170410                          PAGE    1

       1              ;***************************************************************
       2              ;* TMS320C2000 C/C++ Codegen                   PC v15.12.3.LTS *
       3              ;* Date/Time created: Tue Sep 20 20:30:06 2016                 *
       4              ;***************************************************************
       5                      .compiler_opts --abi=coffabi --float_support=softlib --hll_source=on --mem_model:code=flat --mem_mode
       6        0002  FP      .set    XAR2
       7              
       8              $C$DW$CU        .dwtag  DW_TAG_compile_unit
       9                      .dwattr $C$DW$CU, DW_AT_name("../drivers/source/pwm.c")
      10                      .dwattr $C$DW$CU, DW_AT_producer("TI TMS320C2000 C/C++ Codegen PC v15.12.3.LTS Copyright (c) 1996-201
      11                      .dwattr $C$DW$CU, DW_AT_TI_version(0x01)
      12                      .dwattr $C$DW$CU, DW_AT_comp_dir("D:\Users\MaCHaDo\Dropbox\Legstrong\drv8301\legstrong\LegStrong\Debu
      13              ;       C:\ti\ccsv6\tools\compiler\c2000_15.12.3.LTS\bin\opt2000.exe C:\\Users\\MaCHaDo\\AppData\\Local\\Temp
      14              ;       C:\ti\ccsv6\tools\compiler\c2000_15.12.3.LTS\bin\ac2000.exe -@C:\\Users\\MaCHaDo\\AppData\\Local\\Tem
      15 00000000               .sect   ".text"
      16                      .clink
      17                      .global _PWM_setTripZoneState_TZB
      18              
      19              $C$DW$1 .dwtag  DW_TAG_subprogram
      20                      .dwattr $C$DW$1, DW_AT_name("PWM_setTripZoneState_TZB")
      21                      .dwattr $C$DW$1, DW_AT_low_pc(_PWM_setTripZoneState_TZB)
      22                      .dwattr $C$DW$1, DW_AT_high_pc(0x00)
      23                      .dwattr $C$DW$1, DW_AT_TI_symbol_name("_PWM_setTripZoneState_TZB")
      24                      .dwattr $C$DW$1, DW_AT_external
      25                      .dwattr $C$DW$1, DW_AT_TI_begin_file("../drivers/source/pwm.c")
      26                      .dwattr $C$DW$1, DW_AT_TI_begin_line(0x654)
      27                      .dwattr $C$DW$1, DW_AT_TI_begin_column(0x06)
      28                      .dwattr $C$DW$1, DW_AT_TI_max_frame_size(-2)
      29                      .dwpsn  file "../drivers/source/pwm.c",line 1621,column 1,is_stmt,address _PWM_setTripZoneState_TZB,i
      30              
      31                      .dwfde $C$DW$CIE, _PWM_setTripZoneState_TZB
      32              $C$DW$2 .dwtag  DW_TAG_formal_parameter
      33                      .dwattr $C$DW$2, DW_AT_name("pwmHandle")
      34                      .dwattr $C$DW$2, DW_AT_TI_symbol_name("_pwmHandle")
      35                      .dwattr $C$DW$2, DW_AT_type(*$C$DW$T$33)
      36                      .dwattr $C$DW$2, DW_AT_location[DW_OP_reg12]
      37              
      38              $C$DW$3 .dwtag  DW_TAG_formal_parameter
      39                      .dwattr $C$DW$3, DW_AT_name("tripZoneState")
      40                      .dwattr $C$DW$3, DW_AT_TI_symbol_name("_tripZoneState")
      41                      .dwattr $C$DW$3, DW_AT_type(*$C$DW$T$125)
      42                      .dwattr $C$DW$3, DW_AT_location[DW_OP_reg0]
      43              
      44              
      45              ;***************************************************************
      46              ;* FNAME: _PWM_setTripZoneState_TZB     FR SIZE:   0           *
      47              ;*                                                             *
      48              ;* FUNCTION ENVIRONMENT                                        *
      49              ;*                                                             *
      50              ;* FUNCTION PROPERTIES                                         *
      51              ;*                            0 Parameter,  0 Auto,  0 SOE     *
      52              ;***************************************************************
      53              
      54              _PWM_setTripZoneState_TZB:
      55              ;* AR4   assigned to _pwmHandle
TMS320C2000 Assembler PC v15.12.3 Tue Sep 20 20:30:07 2016

Tools Copyright (c) 1996-2015 Texas Instruments Incorporated
C:\Users\MaCHaDo\AppData\Local\Temp\2170410                          PAGE    2

      56              $C$DW$4 .dwtag  DW_TAG_variable
      57                      .dwattr $C$DW$4, DW_AT_name("pwmHandle")
      58                      .dwattr $C$DW$4, DW_AT_TI_symbol_name("_pwmHandle")
      59                      .dwattr $C$DW$4, DW_AT_type(*$C$DW$T$127)
      60                      .dwattr $C$DW$4, DW_AT_location[DW_OP_reg12]
      61              
      62              ;* AL    assigned to _tripZoneState
      63              $C$DW$5 .dwtag  DW_TAG_variable
      64                      .dwattr $C$DW$5, DW_AT_name("tripZoneState")
      65                      .dwattr $C$DW$5, DW_AT_TI_symbol_name("_tripZoneState")
      66                      .dwattr $C$DW$5, DW_AT_type(*$C$DW$T$125)
      67                      .dwattr $C$DW$5, DW_AT_location[DW_OP_reg0]
      68              
      69                      .dwcfi  cfa_offset, -2
      70                      .dwcfi  save_reg_to_mem, 26, 0
      71 00000000 7622   EALLOW
      72                      .dwpsn  file "../drivers/source/pwm.c",line 1628,column 5,is_stmt,isa 0
      73 00000001 83A4          MOVL      XAR5,XAR4             ; [CPU_] |1628| 
      74                      .dwpsn  file "../drivers/source/pwm.c",line 1631,column 5,is_stmt,isa 0
      75 00000002 5603          MOV       ACC,AL << #2          ; [CPU_] |1631| 
         00000003 02A9 
      76 00000004 DC14          ADDB      XAR4,#20              ; [CPU_] |1631| 
      77                      .dwpsn  file "../drivers/source/pwm.c",line 1628,column 5,is_stmt,isa 0
      78 00000005 DD14          ADDB      XAR5,#20              ; [CPU_] |1628| 
      79 00000006 18C5          AND       *+XAR5[0],#0xfff3     ; [CPU_] |1628| 
         00000007 FFF3 
      80                      .dwpsn  file "../drivers/source/pwm.c",line 1631,column 5,is_stmt,isa 0
      81 00000008 98C4          OR        *+XAR4[0],AL          ; [CPU_] |1631| 
      82 00000009 761A   EDIS
      83 0000000a FF69          SPM       #0                    ; [CPU_] 
      84              $C$DW$6 .dwtag  DW_TAG_TI_branch
      85                      .dwattr $C$DW$6, DW_AT_low_pc(0x00)
      86                      .dwattr $C$DW$6, DW_AT_TI_return
      87              
      88 0000000b 0006          LRETR     ; [CPU_] 
      89                      ; return occurs ; [] 
      90                      .dwattr $C$DW$1, DW_AT_TI_end_file("../drivers/source/pwm.c")
      91                      .dwattr $C$DW$1, DW_AT_TI_end_line(0x664)
      92                      .dwattr $C$DW$1, DW_AT_TI_end_column(0x01)
      93                      .dwendentry
      94                      .dwendtag $C$DW$1
      95              
      96 0000000c               .sect   ".text"
      97                      .clink
      98                      .global _PWM_setTripZoneState_TZA
      99              
     100              $C$DW$7 .dwtag  DW_TAG_subprogram
     101                      .dwattr $C$DW$7, DW_AT_name("PWM_setTripZoneState_TZA")
     102                      .dwattr $C$DW$7, DW_AT_low_pc(_PWM_setTripZoneState_TZA)
     103                      .dwattr $C$DW$7, DW_AT_high_pc(0x00)
     104                      .dwattr $C$DW$7, DW_AT_TI_symbol_name("_PWM_setTripZoneState_TZA")
     105                      .dwattr $C$DW$7, DW_AT_external
     106                      .dwattr $C$DW$7, DW_AT_TI_begin_file("../drivers/source/pwm.c")
     107                      .dwattr $C$DW$7, DW_AT_TI_begin_line(0x641)
     108                      .dwattr $C$DW$7, DW_AT_TI_begin_column(0x06)
TMS320C2000 Assembler PC v15.12.3 Tue Sep 20 20:30:07 2016

Tools Copyright (c) 1996-2015 Texas Instruments Incorporated
C:\Users\MaCHaDo\AppData\Local\Temp\2170410                          PAGE    3

     109                      .dwattr $C$DW$7, DW_AT_TI_max_frame_size(-2)
     110                      .dwpsn  file "../drivers/source/pwm.c",line 1602,column 1,is_stmt,address _PWM_setTripZoneState_TZA,i
     111              
     112                      .dwfde $C$DW$CIE, _PWM_setTripZoneState_TZA
     113              $C$DW$8 .dwtag  DW_TAG_formal_parameter
     114                      .dwattr $C$DW$8, DW_AT_name("pwmHandle")
     115                      .dwattr $C$DW$8, DW_AT_TI_symbol_name("_pwmHandle")
     116                      .dwattr $C$DW$8, DW_AT_type(*$C$DW$T$33)
     117                      .dwattr $C$DW$8, DW_AT_location[DW_OP_reg12]
     118              
     119              $C$DW$9 .dwtag  DW_TAG_formal_parameter
     120                      .dwattr $C$DW$9, DW_AT_name("tripZoneState")
     121                      .dwattr $C$DW$9, DW_AT_TI_symbol_name("_tripZoneState")
     122                      .dwattr $C$DW$9, DW_AT_type(*$C$DW$T$125)
     123                      .dwattr $C$DW$9, DW_AT_location[DW_OP_reg0]
     124              
     125              
     126              ;***************************************************************
     127              ;* FNAME: _PWM_setTripZoneState_TZA     FR SIZE:   0           *
     128              ;*                                                             *
     129              ;* FUNCTION ENVIRONMENT                                        *
     130              ;*                                                             *
     131              ;* FUNCTION PROPERTIES                                         *
     132              ;*                            0 Parameter,  0 Auto,  0 SOE     *
     133              ;***************************************************************
     134              
     135              _PWM_setTripZoneState_TZA:
     136              ;* AR4   assigned to _pwmHandle
     137              $C$DW$10        .dwtag  DW_TAG_variable
     138                      .dwattr $C$DW$10, DW_AT_name("pwmHandle")
     139                      .dwattr $C$DW$10, DW_AT_TI_symbol_name("_pwmHandle")
     140                      .dwattr $C$DW$10, DW_AT_type(*$C$DW$T$127)
     141                      .dwattr $C$DW$10, DW_AT_location[DW_OP_reg12]
     142              
     143              ;* AL    assigned to _tripZoneState
     144              $C$DW$11        .dwtag  DW_TAG_variable
     145                      .dwattr $C$DW$11, DW_AT_name("tripZoneState")
     146                      .dwattr $C$DW$11, DW_AT_TI_symbol_name("_tripZoneState")
     147                      .dwattr $C$DW$11, DW_AT_type(*$C$DW$T$125)
     148                      .dwattr $C$DW$11, DW_AT_location[DW_OP_reg0]
     149              
     150                      .dwcfi  cfa_offset, -2
     151                      .dwcfi  save_reg_to_mem, 26, 0
     152 0000000c 7622   EALLOW
     153                      .dwpsn  file "../drivers/source/pwm.c",line 1609,column 5,is_stmt,isa 0
     154 0000000d 83A4          MOVL      XAR5,XAR4             ; [CPU_] |1609| 
     155                      .dwpsn  file "../drivers/source/pwm.c",line 1612,column 5,is_stmt,isa 0
     156 0000000e DC14          ADDB      XAR4,#20              ; [CPU_] |1612| 
     157                      .dwpsn  file "../drivers/source/pwm.c",line 1609,column 5,is_stmt,isa 0
     158 0000000f DD14          ADDB      XAR5,#20              ; [CPU_] |1609| 
     159 00000010 18C5          AND       *+XAR5[0],#0xfffc     ; [CPU_] |1609| 
         00000011 FFFC 
     160                      .dwpsn  file "../drivers/source/pwm.c",line 1612,column 5,is_stmt,isa 0
     161 00000012 98C4          OR        *+XAR4[0],AL          ; [CPU_] |1612| 
     162 00000013 761A   EDIS
TMS320C2000 Assembler PC v15.12.3 Tue Sep 20 20:30:07 2016

Tools Copyright (c) 1996-2015 Texas Instruments Incorporated
C:\Users\MaCHaDo\AppData\Local\Temp\2170410                          PAGE    4

     163 00000014 FF69          SPM       #0                    ; [CPU_] 
     164              $C$DW$12        .dwtag  DW_TAG_TI_branch
     165                      .dwattr $C$DW$12, DW_AT_low_pc(0x00)
     166                      .dwattr $C$DW$12, DW_AT_TI_return
     167              
     168 00000015 0006          LRETR     ; [CPU_] 
     169                      ; return occurs ; [] 
     170                      .dwattr $C$DW$7, DW_AT_TI_end_file("../drivers/source/pwm.c")
     171                      .dwattr $C$DW$7, DW_AT_TI_end_line(0x651)
     172                      .dwattr $C$DW$7, DW_AT_TI_end_column(0x01)
     173                      .dwendentry
     174                      .dwendtag $C$DW$7
     175              
     176 00000016               .sect   ".text"
     177                      .clink
     178                      .global _PWM_setTripZoneState_DCBEVT2
     179              
     180              $C$DW$13        .dwtag  DW_TAG_subprogram
     181                      .dwattr $C$DW$13, DW_AT_name("PWM_setTripZoneState_DCBEVT2")
     182                      .dwattr $C$DW$13, DW_AT_low_pc(_PWM_setTripZoneState_DCBEVT2)
     183                      .dwattr $C$DW$13, DW_AT_high_pc(0x00)
     184                      .dwattr $C$DW$13, DW_AT_TI_symbol_name("_PWM_setTripZoneState_DCBEVT2")
     185                      .dwattr $C$DW$13, DW_AT_external
     186                      .dwattr $C$DW$13, DW_AT_TI_begin_file("../drivers/source/pwm.c")
     187                      .dwattr $C$DW$13, DW_AT_TI_begin_line(0x62e)
     188                      .dwattr $C$DW$13, DW_AT_TI_begin_column(0x06)
     189                      .dwattr $C$DW$13, DW_AT_TI_max_frame_size(-2)
     190                      .dwpsn  file "../drivers/source/pwm.c",line 1583,column 1,is_stmt,address _PWM_setTripZoneState_DCBEV
     191              
     192                      .dwfde $C$DW$CIE, _PWM_setTripZoneState_DCBEVT2
     193              $C$DW$14        .dwtag  DW_TAG_formal_parameter
     194                      .dwattr $C$DW$14, DW_AT_name("pwmHandle")
     195                      .dwattr $C$DW$14, DW_AT_TI_symbol_name("_pwmHandle")
     196                      .dwattr $C$DW$14, DW_AT_type(*$C$DW$T$33)
     197                      .dwattr $C$DW$14, DW_AT_location[DW_OP_reg12]
     198              
     199              $C$DW$15        .dwtag  DW_TAG_formal_parameter
     200                      .dwattr $C$DW$15, DW_AT_name("tripZoneState")
     201                      .dwattr $C$DW$15, DW_AT_TI_symbol_name("_tripZoneState")
     202                      .dwattr $C$DW$15, DW_AT_type(*$C$DW$T$125)
     203                      .dwattr $C$DW$15, DW_AT_location[DW_OP_reg0]
     204              
     205              
     206              ;***************************************************************
     207              ;* FNAME: _PWM_setTripZoneState_DCBEVT2 FR SIZE:   0           *
     208              ;*                                                             *
     209              ;* FUNCTION ENVIRONMENT                                        *
     210              ;*                                                             *
     211              ;* FUNCTION PROPERTIES                                         *
     212              ;*                            0 Parameter,  0 Auto,  0 SOE     *
     213              ;***************************************************************
     214              
     215              _PWM_setTripZoneState_DCBEVT2:
     216              ;* AR4   assigned to _pwmHandle
     217              $C$DW$16        .dwtag  DW_TAG_variable
TMS320C2000 Assembler PC v15.12.3 Tue Sep 20 20:30:07 2016

Tools Copyright (c) 1996-2015 Texas Instruments Incorporated
C:\Users\MaCHaDo\AppData\Local\Temp\2170410                          PAGE    5

     218                      .dwattr $C$DW$16, DW_AT_name("pwmHandle")
     219                      .dwattr $C$DW$16, DW_AT_TI_symbol_name("_pwmHandle")
     220                      .dwattr $C$DW$16, DW_AT_type(*$C$DW$T$127)
     221                      .dwattr $C$DW$16, DW_AT_location[DW_OP_reg12]
     222              
     223              ;* AL    assigned to _tripZoneState
     224              $C$DW$17        .dwtag  DW_TAG_variable
     225                      .dwattr $C$DW$17, DW_AT_name("tripZoneState")
     226                      .dwattr $C$DW$17, DW_AT_TI_symbol_name("_tripZoneState")
     227                      .dwattr $C$DW$17, DW_AT_type(*$C$DW$T$125)
     228                      .dwattr $C$DW$17, DW_AT_location[DW_OP_reg0]
     229              
     230                      .dwcfi  cfa_offset, -2
     231                      .dwcfi  save_reg_to_mem, 26, 0
     232 00000016 7622   EALLOW
     233                      .dwpsn  file "../drivers/source/pwm.c",line 1590,column 5,is_stmt,isa 0
     234 00000017 83A4          MOVL      XAR5,XAR4             ; [CPU_] |1590| 
     235                      .dwpsn  file "../drivers/source/pwm.c",line 1593,column 5,is_stmt,isa 0
     236 00000018 5603          MOV       ACC,AL << #10         ; [CPU_] |1593| 
         00000019 0AA9 
     237 0000001a DC14          ADDB      XAR4,#20              ; [CPU_] |1593| 
     238                      .dwpsn  file "../drivers/source/pwm.c",line 1590,column 5,is_stmt,isa 0
     239 0000001b DD14          ADDB      XAR5,#20              ; [CPU_] |1590| 
     240 0000001c 18C5          AND       *+XAR5[0],#0xf3ff     ; [CPU_] |1590| 
         0000001d F3FF 
     241                      .dwpsn  file "../drivers/source/pwm.c",line 1593,column 5,is_stmt,isa 0
     242 0000001e 98C4          OR        *+XAR4[0],AL          ; [CPU_] |1593| 
     243 0000001f 761A   EDIS
     244 00000020 FF69          SPM       #0                    ; [CPU_] 
     245              $C$DW$18        .dwtag  DW_TAG_TI_branch
     246                      .dwattr $C$DW$18, DW_AT_low_pc(0x00)
     247                      .dwattr $C$DW$18, DW_AT_TI_return
     248              
     249 00000021 0006          LRETR     ; [CPU_] 
     250                      ; return occurs ; [] 
     251                      .dwattr $C$DW$13, DW_AT_TI_end_file("../drivers/source/pwm.c")
     252                      .dwattr $C$DW$13, DW_AT_TI_end_line(0x63e)
     253                      .dwattr $C$DW$13, DW_AT_TI_end_column(0x01)
     254                      .dwendentry
     255                      .dwendtag $C$DW$13
     256              
     257 00000022               .sect   ".text"
     258                      .clink
     259                      .global _PWM_setTripZoneState_DCBEVT1
     260              
     261              $C$DW$19        .dwtag  DW_TAG_subprogram
     262                      .dwattr $C$DW$19, DW_AT_name("PWM_setTripZoneState_DCBEVT1")
     263                      .dwattr $C$DW$19, DW_AT_low_pc(_PWM_setTripZoneState_DCBEVT1)
     264                      .dwattr $C$DW$19, DW_AT_high_pc(0x00)
     265                      .dwattr $C$DW$19, DW_AT_TI_symbol_name("_PWM_setTripZoneState_DCBEVT1")
     266                      .dwattr $C$DW$19, DW_AT_external
     267                      .dwattr $C$DW$19, DW_AT_TI_begin_file("../drivers/source/pwm.c")
     268                      .dwattr $C$DW$19, DW_AT_TI_begin_line(0x61b)
     269                      .dwattr $C$DW$19, DW_AT_TI_begin_column(0x06)
     270                      .dwattr $C$DW$19, DW_AT_TI_max_frame_size(-2)
TMS320C2000 Assembler PC v15.12.3 Tue Sep 20 20:30:07 2016

Tools Copyright (c) 1996-2015 Texas Instruments Incorporated
C:\Users\MaCHaDo\AppData\Local\Temp\2170410                          PAGE    6

     271                      .dwpsn  file "../drivers/source/pwm.c",line 1564,column 1,is_stmt,address _PWM_setTripZoneState_DCBEV
     272              
     273                      .dwfde $C$DW$CIE, _PWM_setTripZoneState_DCBEVT1
     274              $C$DW$20        .dwtag  DW_TAG_formal_parameter
     275                      .dwattr $C$DW$20, DW_AT_name("pwmHandle")
     276                      .dwattr $C$DW$20, DW_AT_TI_symbol_name("_pwmHandle")
     277                      .dwattr $C$DW$20, DW_AT_type(*$C$DW$T$33)
     278                      .dwattr $C$DW$20, DW_AT_location[DW_OP_reg12]
     279              
     280              $C$DW$21        .dwtag  DW_TAG_formal_parameter
     281                      .dwattr $C$DW$21, DW_AT_name("tripZoneState")
     282                      .dwattr $C$DW$21, DW_AT_TI_symbol_name("_tripZoneState")
     283                      .dwattr $C$DW$21, DW_AT_type(*$C$DW$T$125)
     284                      .dwattr $C$DW$21, DW_AT_location[DW_OP_reg0]
     285              
     286              
     287              ;***************************************************************
     288              ;* FNAME: _PWM_setTripZoneState_DCBEVT1 FR SIZE:   0           *
     289              ;*                                                             *
     290              ;* FUNCTION ENVIRONMENT                                        *
     291              ;*                                                             *
     292              ;* FUNCTION PROPERTIES                                         *
     293              ;*                            0 Parameter,  0 Auto,  0 SOE     *
     294              ;***************************************************************
     295              
     296              _PWM_setTripZoneState_DCBEVT1:
     297              ;* AR4   assigned to _pwmHandle
     298              $C$DW$22        .dwtag  DW_TAG_variable
     299                      .dwattr $C$DW$22, DW_AT_name("pwmHandle")
     300                      .dwattr $C$DW$22, DW_AT_TI_symbol_name("_pwmHandle")
     301                      .dwattr $C$DW$22, DW_AT_type(*$C$DW$T$127)
     302                      .dwattr $C$DW$22, DW_AT_location[DW_OP_reg12]
     303              
     304              ;* AL    assigned to _tripZoneState
     305              $C$DW$23        .dwtag  DW_TAG_variable
     306                      .dwattr $C$DW$23, DW_AT_name("tripZoneState")
     307                      .dwattr $C$DW$23, DW_AT_TI_symbol_name("_tripZoneState")
     308                      .dwattr $C$DW$23, DW_AT_type(*$C$DW$T$125)
     309                      .dwattr $C$DW$23, DW_AT_location[DW_OP_reg0]
     310              
     311                      .dwcfi  cfa_offset, -2
     312                      .dwcfi  save_reg_to_mem, 26, 0
     313 00000022 7622   EALLOW
     314                      .dwpsn  file "../drivers/source/pwm.c",line 1571,column 5,is_stmt,isa 0
     315 00000023 83A4          MOVL      XAR5,XAR4             ; [CPU_] |1571| 
     316                      .dwpsn  file "../drivers/source/pwm.c",line 1574,column 5,is_stmt,isa 0
     317 00000024 5603          MOV       ACC,AL << #8          ; [CPU_] |1574| 
         00000025 08A9 
     318 00000026 DC14          ADDB      XAR4,#20              ; [CPU_] |1574| 
     319                      .dwpsn  file "../drivers/source/pwm.c",line 1571,column 5,is_stmt,isa 0
     320 00000027 DD14          ADDB      XAR5,#20              ; [CPU_] |1571| 
     321 00000028 18C5          AND       *+XAR5[0],#0xfcff     ; [CPU_] |1571| 
         00000029 FCFF 
     322                      .dwpsn  file "../drivers/source/pwm.c",line 1574,column 5,is_stmt,isa 0
     323 0000002a 98C4          OR        *+XAR4[0],AL          ; [CPU_] |1574| 
TMS320C2000 Assembler PC v15.12.3 Tue Sep 20 20:30:07 2016

Tools Copyright (c) 1996-2015 Texas Instruments Incorporated
C:\Users\MaCHaDo\AppData\Local\Temp\2170410                          PAGE    7

     324 0000002b 761A   EDIS
     325 0000002c FF69          SPM       #0                    ; [CPU_] 
     326              $C$DW$24        .dwtag  DW_TAG_TI_branch
     327                      .dwattr $C$DW$24, DW_AT_low_pc(0x00)
     328                      .dwattr $C$DW$24, DW_AT_TI_return
     329              
     330 0000002d 0006          LRETR     ; [CPU_] 
     331                      ; return occurs ; [] 
     332                      .dwattr $C$DW$19, DW_AT_TI_end_file("../drivers/source/pwm.c")
     333                      .dwattr $C$DW$19, DW_AT_TI_end_line(0x62b)
     334                      .dwattr $C$DW$19, DW_AT_TI_end_column(0x01)
     335                      .dwendentry
     336                      .dwendtag $C$DW$19
     337              
     338 0000002e               .sect   ".text"
     339                      .clink
     340                      .global _PWM_setTripZoneState_DCAEVT2
     341              
     342              $C$DW$25        .dwtag  DW_TAG_subprogram
     343                      .dwattr $C$DW$25, DW_AT_name("PWM_setTripZoneState_DCAEVT2")
     344                      .dwattr $C$DW$25, DW_AT_low_pc(_PWM_setTripZoneState_DCAEVT2)
     345                      .dwattr $C$DW$25, DW_AT_high_pc(0x00)
     346                      .dwattr $C$DW$25, DW_AT_TI_symbol_name("_PWM_setTripZoneState_DCAEVT2")
     347                      .dwattr $C$DW$25, DW_AT_external
     348                      .dwattr $C$DW$25, DW_AT_TI_begin_file("../drivers/source/pwm.c")
     349                      .dwattr $C$DW$25, DW_AT_TI_begin_line(0x608)
     350                      .dwattr $C$DW$25, DW_AT_TI_begin_column(0x06)
     351                      .dwattr $C$DW$25, DW_AT_TI_max_frame_size(-2)
     352                      .dwpsn  file "../drivers/source/pwm.c",line 1545,column 1,is_stmt,address _PWM_setTripZoneState_DCAEV
     353              
     354                      .dwfde $C$DW$CIE, _PWM_setTripZoneState_DCAEVT2
     355              $C$DW$26        .dwtag  DW_TAG_formal_parameter
     356                      .dwattr $C$DW$26, DW_AT_name("pwmHandle")
     357                      .dwattr $C$DW$26, DW_AT_TI_symbol_name("_pwmHandle")
     358                      .dwattr $C$DW$26, DW_AT_type(*$C$DW$T$33)
     359                      .dwattr $C$DW$26, DW_AT_location[DW_OP_reg12]
     360              
     361              $C$DW$27        .dwtag  DW_TAG_formal_parameter
     362                      .dwattr $C$DW$27, DW_AT_name("tripZoneState")
     363                      .dwattr $C$DW$27, DW_AT_TI_symbol_name("_tripZoneState")
     364                      .dwattr $C$DW$27, DW_AT_type(*$C$DW$T$125)
     365                      .dwattr $C$DW$27, DW_AT_location[DW_OP_reg0]
     366              
     367              
     368              ;***************************************************************
     369              ;* FNAME: _PWM_setTripZoneState_DCAEVT2 FR SIZE:   0           *
     370              ;*                                                             *
     371              ;* FUNCTION ENVIRONMENT                                        *
     372              ;*                                                             *
     373              ;* FUNCTION PROPERTIES                                         *
     374              ;*                            0 Parameter,  0 Auto,  0 SOE     *
     375              ;***************************************************************
     376              
     377              _PWM_setTripZoneState_DCAEVT2:
     378              ;* AR4   assigned to _pwmHandle
TMS320C2000 Assembler PC v15.12.3 Tue Sep 20 20:30:07 2016

Tools Copyright (c) 1996-2015 Texas Instruments Incorporated
C:\Users\MaCHaDo\AppData\Local\Temp\2170410                          PAGE    8

     379              $C$DW$28        .dwtag  DW_TAG_variable
     380                      .dwattr $C$DW$28, DW_AT_name("pwmHandle")
     381                      .dwattr $C$DW$28, DW_AT_TI_symbol_name("_pwmHandle")
     382                      .dwattr $C$DW$28, DW_AT_type(*$C$DW$T$127)
     383                      .dwattr $C$DW$28, DW_AT_location[DW_OP_reg12]
     384              
     385              ;* AL    assigned to _tripZoneState
     386              $C$DW$29        .dwtag  DW_TAG_variable
     387                      .dwattr $C$DW$29, DW_AT_name("tripZoneState")
     388                      .dwattr $C$DW$29, DW_AT_TI_symbol_name("_tripZoneState")
     389                      .dwattr $C$DW$29, DW_AT_type(*$C$DW$T$125)
     390                      .dwattr $C$DW$29, DW_AT_location[DW_OP_reg0]
     391              
     392                      .dwcfi  cfa_offset, -2
     393                      .dwcfi  save_reg_to_mem, 26, 0
     394 0000002e 7622   EALLOW
     395                      .dwpsn  file "../drivers/source/pwm.c",line 1552,column 5,is_stmt,isa 0
     396 0000002f 83A4          MOVL      XAR5,XAR4             ; [CPU_] |1552| 
     397                      .dwpsn  file "../drivers/source/pwm.c",line 1555,column 5,is_stmt,isa 0
     398 00000030 5603          MOV       ACC,AL << #6          ; [CPU_] |1555| 
         00000031 06A9 
     399 00000032 DC14          ADDB      XAR4,#20              ; [CPU_] |1555| 
     400                      .dwpsn  file "../drivers/source/pwm.c",line 1552,column 5,is_stmt,isa 0
     401 00000033 DD14          ADDB      XAR5,#20              ; [CPU_] |1552| 
     402 00000034 18C5          AND       *+XAR5[0],#0xff3f     ; [CPU_] |1552| 
         00000035 FF3F 
     403                      .dwpsn  file "../drivers/source/pwm.c",line 1555,column 5,is_stmt,isa 0
     404 00000036 98C4          OR        *+XAR4[0],AL          ; [CPU_] |1555| 
     405 00000037 761A   EDIS
     406 00000038 FF69          SPM       #0                    ; [CPU_] 
     407              $C$DW$30        .dwtag  DW_TAG_TI_branch
     408                      .dwattr $C$DW$30, DW_AT_low_pc(0x00)
     409                      .dwattr $C$DW$30, DW_AT_TI_return
     410              
     411 00000039 0006          LRETR     ; [CPU_] 
     412                      ; return occurs ; [] 
     413                      .dwattr $C$DW$25, DW_AT_TI_end_file("../drivers/source/pwm.c")
     414                      .dwattr $C$DW$25, DW_AT_TI_end_line(0x618)
     415                      .dwattr $C$DW$25, DW_AT_TI_end_column(0x01)
     416                      .dwendentry
     417                      .dwendtag $C$DW$25
     418              
     419 0000003a               .sect   ".text"
     420                      .clink
     421                      .global _PWM_setTripZoneState_DCAEVT1
     422              
     423              $C$DW$31        .dwtag  DW_TAG_subprogram
     424                      .dwattr $C$DW$31, DW_AT_name("PWM_setTripZoneState_DCAEVT1")
     425                      .dwattr $C$DW$31, DW_AT_low_pc(_PWM_setTripZoneState_DCAEVT1)
     426                      .dwattr $C$DW$31, DW_AT_high_pc(0x00)
     427                      .dwattr $C$DW$31, DW_AT_TI_symbol_name("_PWM_setTripZoneState_DCAEVT1")
     428                      .dwattr $C$DW$31, DW_AT_external
     429                      .dwattr $C$DW$31, DW_AT_TI_begin_file("../drivers/source/pwm.c")
     430                      .dwattr $C$DW$31, DW_AT_TI_begin_line(0x5f5)
     431                      .dwattr $C$DW$31, DW_AT_TI_begin_column(0x06)
TMS320C2000 Assembler PC v15.12.3 Tue Sep 20 20:30:07 2016

Tools Copyright (c) 1996-2015 Texas Instruments Incorporated
C:\Users\MaCHaDo\AppData\Local\Temp\2170410                          PAGE    9

     432                      .dwattr $C$DW$31, DW_AT_TI_max_frame_size(-2)
     433                      .dwpsn  file "../drivers/source/pwm.c",line 1526,column 1,is_stmt,address _PWM_setTripZoneState_DCAEV
     434              
     435                      .dwfde $C$DW$CIE, _PWM_setTripZoneState_DCAEVT1
     436              $C$DW$32        .dwtag  DW_TAG_formal_parameter
     437                      .dwattr $C$DW$32, DW_AT_name("pwmHandle")
     438                      .dwattr $C$DW$32, DW_AT_TI_symbol_name("_pwmHandle")
     439                      .dwattr $C$DW$32, DW_AT_type(*$C$DW$T$33)
     440                      .dwattr $C$DW$32, DW_AT_location[DW_OP_reg12]
     441              
     442              $C$DW$33        .dwtag  DW_TAG_formal_parameter
     443                      .dwattr $C$DW$33, DW_AT_name("tripZoneState")
     444                      .dwattr $C$DW$33, DW_AT_TI_symbol_name("_tripZoneState")
     445                      .dwattr $C$DW$33, DW_AT_type(*$C$DW$T$125)
     446                      .dwattr $C$DW$33, DW_AT_location[DW_OP_reg0]
     447              
     448              
     449              ;***************************************************************
     450              ;* FNAME: _PWM_setTripZoneState_DCAEVT1 FR SIZE:   0           *
     451              ;*                                                             *
     452              ;* FUNCTION ENVIRONMENT                                        *
     453              ;*                                                             *
     454              ;* FUNCTION PROPERTIES                                         *
     455              ;*                            0 Parameter,  0 Auto,  0 SOE     *
     456              ;***************************************************************
     457              
     458              _PWM_setTripZoneState_DCAEVT1:
     459              ;* AR4   assigned to _pwmHandle
     460              $C$DW$34        .dwtag  DW_TAG_variable
     461                      .dwattr $C$DW$34, DW_AT_name("pwmHandle")
     462                      .dwattr $C$DW$34, DW_AT_TI_symbol_name("_pwmHandle")
     463                      .dwattr $C$DW$34, DW_AT_type(*$C$DW$T$127)
     464                      .dwattr $C$DW$34, DW_AT_location[DW_OP_reg12]
     465              
     466              ;* AL    assigned to _tripZoneState
     467              $C$DW$35        .dwtag  DW_TAG_variable
     468                      .dwattr $C$DW$35, DW_AT_name("tripZoneState")
     469                      .dwattr $C$DW$35, DW_AT_TI_symbol_name("_tripZoneState")
     470                      .dwattr $C$DW$35, DW_AT_type(*$C$DW$T$125)
     471                      .dwattr $C$DW$35, DW_AT_location[DW_OP_reg0]
     472              
     473                      .dwcfi  cfa_offset, -2
     474                      .dwcfi  save_reg_to_mem, 26, 0
     475 0000003a 7622   EALLOW
     476                      .dwpsn  file "../drivers/source/pwm.c",line 1533,column 5,is_stmt,isa 0
     477 0000003b 83A4          MOVL      XAR5,XAR4             ; [CPU_] |1533| 
     478                      .dwpsn  file "../drivers/source/pwm.c",line 1536,column 5,is_stmt,isa 0
     479 0000003c 5603          MOV       ACC,AL << #4          ; [CPU_] |1536| 
         0000003d 04A9 
     480 0000003e DC14          ADDB      XAR4,#20              ; [CPU_] |1536| 
     481                      .dwpsn  file "../drivers/source/pwm.c",line 1533,column 5,is_stmt,isa 0
     482 0000003f DD14          ADDB      XAR5,#20              ; [CPU_] |1533| 
     483 00000040 18C5          AND       *+XAR5[0],#0xffcf     ; [CPU_] |1533| 
         00000041 FFCF 
     484                      .dwpsn  file "../drivers/source/pwm.c",line 1536,column 5,is_stmt,isa 0
TMS320C2000 Assembler PC v15.12.3 Tue Sep 20 20:30:07 2016

Tools Copyright (c) 1996-2015 Texas Instruments Incorporated
C:\Users\MaCHaDo\AppData\Local\Temp\2170410                          PAGE   10

     485 00000042 98C4          OR        *+XAR4[0],AL          ; [CPU_] |1536| 
     486 00000043 761A   EDIS
     487 00000044 FF69          SPM       #0                    ; [CPU_] 
     488              $C$DW$36        .dwtag  DW_TAG_TI_branch
     489                      .dwattr $C$DW$36, DW_AT_low_pc(0x00)
     490                      .dwattr $C$DW$36, DW_AT_TI_return
     491              
     492 00000045 0006          LRETR     ; [CPU_] 
     493                      ; return occurs ; [] 
     494                      .dwattr $C$DW$31, DW_AT_TI_end_file("../drivers/source/pwm.c")
     495                      .dwattr $C$DW$31, DW_AT_TI_end_line(0x605)
     496                      .dwattr $C$DW$31, DW_AT_TI_end_column(0x01)
     497                      .dwendentry
     498                      .dwendtag $C$DW$31
     499              
     500 00000046               .sect   ".text"
     501                      .clink
     502                      .global _PWM_setTripZoneDCEventSelect_DCBEVT2
     503              
     504              $C$DW$37        .dwtag  DW_TAG_subprogram
     505                      .dwattr $C$DW$37, DW_AT_name("PWM_setTripZoneDCEventSelect_DCBEVT2")
     506                      .dwattr $C$DW$37, DW_AT_low_pc(_PWM_setTripZoneDCEventSelect_DCBEVT2)
     507                      .dwattr $C$DW$37, DW_AT_high_pc(0x00)
     508                      .dwattr $C$DW$37, DW_AT_TI_symbol_name("_PWM_setTripZoneDCEventSelect_DCBEVT2")
     509                      .dwattr $C$DW$37, DW_AT_external
     510                      .dwattr $C$DW$37, DW_AT_TI_begin_file("../drivers/source/pwm.c")
     511                      .dwattr $C$DW$37, DW_AT_TI_begin_line(0x5e2)
     512                      .dwattr $C$DW$37, DW_AT_TI_begin_column(0x06)
     513                      .dwattr $C$DW$37, DW_AT_TI_max_frame_size(-2)
     514                      .dwpsn  file "../drivers/source/pwm.c",line 1507,column 1,is_stmt,address _PWM_setTripZoneDCEventSele
     515              
     516                      .dwfde $C$DW$CIE, _PWM_setTripZoneDCEventSelect_DCBEVT2
     517              $C$DW$38        .dwtag  DW_TAG_formal_parameter
     518                      .dwattr $C$DW$38, DW_AT_name("pwmHandle")
     519                      .dwattr $C$DW$38, DW_AT_TI_symbol_name("_pwmHandle")
     520                      .dwattr $C$DW$38, DW_AT_type(*$C$DW$T$33)
     521                      .dwattr $C$DW$38, DW_AT_location[DW_OP_reg12]
     522              
     523              $C$DW$39        .dwtag  DW_TAG_formal_parameter
     524                      .dwattr $C$DW$39, DW_AT_name("tripZoneEvent")
     525                      .dwattr $C$DW$39, DW_AT_TI_symbol_name("_tripZoneEvent")
     526                      .dwattr $C$DW$39, DW_AT_type(*$C$DW$T$122)
     527                      .dwattr $C$DW$39, DW_AT_location[DW_OP_reg0]
     528              
     529              
     530              ;***************************************************************
     531              ;* FNAME: _PWM_setTripZoneDCEventSelect_DCBEVT2 FR SIZE:   0           *
     532              ;*                                                             *
     533              ;* FUNCTION ENVIRONMENT                                        *
     534              ;*                                                             *
     535              ;* FUNCTION PROPERTIES                                         *
     536              ;*                            0 Parameter,  0 Auto,  0 SOE     *
     537              ;***************************************************************
     538              
     539              _PWM_setTripZoneDCEventSelect_DCBEVT2:
TMS320C2000 Assembler PC v15.12.3 Tue Sep 20 20:30:07 2016

Tools Copyright (c) 1996-2015 Texas Instruments Incorporated
C:\Users\MaCHaDo\AppData\Local\Temp\2170410                          PAGE   11

     540              ;* AR4   assigned to _pwmHandle
     541              $C$DW$40        .dwtag  DW_TAG_variable
     542                      .dwattr $C$DW$40, DW_AT_name("pwmHandle")
     543                      .dwattr $C$DW$40, DW_AT_TI_symbol_name("_pwmHandle")
     544                      .dwattr $C$DW$40, DW_AT_type(*$C$DW$T$127)
     545                      .dwattr $C$DW$40, DW_AT_location[DW_OP_reg12]
     546              
     547              ;* AL    assigned to _tripZoneEvent
     548              $C$DW$41        .dwtag  DW_TAG_variable
     549                      .dwattr $C$DW$41, DW_AT_name("tripZoneEvent")
     550                      .dwattr $C$DW$41, DW_AT_TI_symbol_name("_tripZoneEvent")
     551                      .dwattr $C$DW$41, DW_AT_type(*$C$DW$T$122)
     552                      .dwattr $C$DW$41, DW_AT_location[DW_OP_reg0]
     553              
     554                      .dwcfi  cfa_offset, -2
     555                      .dwcfi  save_reg_to_mem, 26, 0
     556 00000046 7622   EALLOW
     557                      .dwpsn  file "../drivers/source/pwm.c",line 1514,column 5,is_stmt,isa 0
     558 00000047 83A4          MOVL      XAR5,XAR4             ; [CPU_] |1514| 
     559                      .dwpsn  file "../drivers/source/pwm.c",line 1517,column 5,is_stmt,isa 0
     560 00000048 5603          MOV       ACC,AL << #9          ; [CPU_] |1517| 
         00000049 09A9 
     561 0000004a DC13          ADDB      XAR4,#19              ; [CPU_] |1517| 
     562                      .dwpsn  file "../drivers/source/pwm.c",line 1514,column 5,is_stmt,isa 0
     563 0000004b DD13          ADDB      XAR5,#19              ; [CPU_] |1514| 
     564 0000004c 18C5          AND       *+XAR5[0],#0xf1ff     ; [CPU_] |1514| 
         0000004d F1FF 
     565                      .dwpsn  file "../drivers/source/pwm.c",line 1517,column 5,is_stmt,isa 0
     566 0000004e 98C4          OR        *+XAR4[0],AL          ; [CPU_] |1517| 
     567 0000004f 761A   EDIS
     568 00000050 FF69          SPM       #0                    ; [CPU_] 
     569              $C$DW$42        .dwtag  DW_TAG_TI_branch
     570                      .dwattr $C$DW$42, DW_AT_low_pc(0x00)
     571                      .dwattr $C$DW$42, DW_AT_TI_return
     572              
     573 00000051 0006          LRETR     ; [CPU_] 
     574                      ; return occurs ; [] 
     575                      .dwattr $C$DW$37, DW_AT_TI_end_file("../drivers/source/pwm.c")
     576                      .dwattr $C$DW$37, DW_AT_TI_end_line(0x5f2)
     577                      .dwattr $C$DW$37, DW_AT_TI_end_column(0x01)
     578                      .dwendentry
     579                      .dwendtag $C$DW$37
     580              
     581 00000052               .sect   ".text"
     582                      .clink
     583                      .global _PWM_setTripZoneDCEventSelect_DCBEVT1
     584              
     585              $C$DW$43        .dwtag  DW_TAG_subprogram
     586                      .dwattr $C$DW$43, DW_AT_name("PWM_setTripZoneDCEventSelect_DCBEVT1")
     587                      .dwattr $C$DW$43, DW_AT_low_pc(_PWM_setTripZoneDCEventSelect_DCBEVT1)
     588                      .dwattr $C$DW$43, DW_AT_high_pc(0x00)
     589                      .dwattr $C$DW$43, DW_AT_TI_symbol_name("_PWM_setTripZoneDCEventSelect_DCBEVT1")
     590                      .dwattr $C$DW$43, DW_AT_external
     591                      .dwattr $C$DW$43, DW_AT_TI_begin_file("../drivers/source/pwm.c")
     592                      .dwattr $C$DW$43, DW_AT_TI_begin_line(0x5cf)
TMS320C2000 Assembler PC v15.12.3 Tue Sep 20 20:30:07 2016

Tools Copyright (c) 1996-2015 Texas Instruments Incorporated
C:\Users\MaCHaDo\AppData\Local\Temp\2170410                          PAGE   12

     593                      .dwattr $C$DW$43, DW_AT_TI_begin_column(0x06)
     594                      .dwattr $C$DW$43, DW_AT_TI_max_frame_size(-2)
     595                      .dwpsn  file "../drivers/source/pwm.c",line 1488,column 1,is_stmt,address _PWM_setTripZoneDCEventSele
     596              
     597                      .dwfde $C$DW$CIE, _PWM_setTripZoneDCEventSelect_DCBEVT1
     598              $C$DW$44        .dwtag  DW_TAG_formal_parameter
     599                      .dwattr $C$DW$44, DW_AT_name("pwmHandle")
     600                      .dwattr $C$DW$44, DW_AT_TI_symbol_name("_pwmHandle")
     601                      .dwattr $C$DW$44, DW_AT_type(*$C$DW$T$33)
     602                      .dwattr $C$DW$44, DW_AT_location[DW_OP_reg12]
     603              
     604              $C$DW$45        .dwtag  DW_TAG_formal_parameter
     605                      .dwattr $C$DW$45, DW_AT_name("tripZoneEvent")
     606                      .dwattr $C$DW$45, DW_AT_TI_symbol_name("_tripZoneEvent")
     607                      .dwattr $C$DW$45, DW_AT_type(*$C$DW$T$122)
     608                      .dwattr $C$DW$45, DW_AT_location[DW_OP_reg0]
     609              
     610              
     611              ;***************************************************************
     612              ;* FNAME: _PWM_setTripZoneDCEventSelect_DCBEVT1 FR SIZE:   0           *
     613              ;*                                                             *
     614              ;* FUNCTION ENVIRONMENT                                        *
     615              ;*                                                             *
     616              ;* FUNCTION PROPERTIES                                         *
     617              ;*                            0 Parameter,  0 Auto,  0 SOE     *
     618              ;***************************************************************
     619              
     620              _PWM_setTripZoneDCEventSelect_DCBEVT1:
     621              ;* AR4   assigned to _pwmHandle
     622              $C$DW$46        .dwtag  DW_TAG_variable
     623                      .dwattr $C$DW$46, DW_AT_name("pwmHandle")
     624                      .dwattr $C$DW$46, DW_AT_TI_symbol_name("_pwmHandle")
     625                      .dwattr $C$DW$46, DW_AT_type(*$C$DW$T$127)
     626                      .dwattr $C$DW$46, DW_AT_location[DW_OP_reg12]
     627              
     628              ;* AL    assigned to _tripZoneEvent
     629              $C$DW$47        .dwtag  DW_TAG_variable
     630                      .dwattr $C$DW$47, DW_AT_name("tripZoneEvent")
     631                      .dwattr $C$DW$47, DW_AT_TI_symbol_name("_tripZoneEvent")
     632                      .dwattr $C$DW$47, DW_AT_type(*$C$DW$T$122)
     633                      .dwattr $C$DW$47, DW_AT_location[DW_OP_reg0]
     634              
     635                      .dwcfi  cfa_offset, -2
     636                      .dwcfi  save_reg_to_mem, 26, 0
     637 00000052 7622   EALLOW
     638                      .dwpsn  file "../drivers/source/pwm.c",line 1495,column 5,is_stmt,isa 0
     639 00000053 83A4          MOVL      XAR5,XAR4             ; [CPU_] |1495| 
     640                      .dwpsn  file "../drivers/source/pwm.c",line 1498,column 5,is_stmt,isa 0
     641 00000054 5603          MOV       ACC,AL << #6          ; [CPU_] |1498| 
         00000055 06A9 
     642 00000056 DC13          ADDB      XAR4,#19              ; [CPU_] |1498| 
     643                      .dwpsn  file "../drivers/source/pwm.c",line 1495,column 5,is_stmt,isa 0
     644 00000057 DD13          ADDB      XAR5,#19              ; [CPU_] |1495| 
     645 00000058 18C5          AND       *+XAR5[0],#0xfe3f     ; [CPU_] |1495| 
         00000059 FE3F 
TMS320C2000 Assembler PC v15.12.3 Tue Sep 20 20:30:07 2016

Tools Copyright (c) 1996-2015 Texas Instruments Incorporated
C:\Users\MaCHaDo\AppData\Local\Temp\2170410                          PAGE   13

     646                      .dwpsn  file "../drivers/source/pwm.c",line 1498,column 5,is_stmt,isa 0
     647 0000005a 98C4          OR        *+XAR4[0],AL          ; [CPU_] |1498| 
     648 0000005b 761A   EDIS
     649 0000005c FF69          SPM       #0                    ; [CPU_] 
     650              $C$DW$48        .dwtag  DW_TAG_TI_branch
     651                      .dwattr $C$DW$48, DW_AT_low_pc(0x00)
     652                      .dwattr $C$DW$48, DW_AT_TI_return
     653              
     654 0000005d 0006          LRETR     ; [CPU_] 
     655                      ; return occurs ; [] 
     656                      .dwattr $C$DW$43, DW_AT_TI_end_file("../drivers/source/pwm.c")
     657                      .dwattr $C$DW$43, DW_AT_TI_end_line(0x5df)
     658                      .dwattr $C$DW$43, DW_AT_TI_end_column(0x01)
     659                      .dwendentry
     660                      .dwendtag $C$DW$43
     661              
     662 0000005e               .sect   ".text"
     663                      .clink
     664                      .global _PWM_setTripZoneDCEventSelect_DCAEVT2
     665              
     666              $C$DW$49        .dwtag  DW_TAG_subprogram
     667                      .dwattr $C$DW$49, DW_AT_name("PWM_setTripZoneDCEventSelect_DCAEVT2")
     668                      .dwattr $C$DW$49, DW_AT_low_pc(_PWM_setTripZoneDCEventSelect_DCAEVT2)
     669                      .dwattr $C$DW$49, DW_AT_high_pc(0x00)
     670                      .dwattr $C$DW$49, DW_AT_TI_symbol_name("_PWM_setTripZoneDCEventSelect_DCAEVT2")
     671                      .dwattr $C$DW$49, DW_AT_external
     672                      .dwattr $C$DW$49, DW_AT_TI_begin_file("../drivers/source/pwm.c")
     673                      .dwattr $C$DW$49, DW_AT_TI_begin_line(0x5bc)
     674                      .dwattr $C$DW$49, DW_AT_TI_begin_column(0x06)
     675                      .dwattr $C$DW$49, DW_AT_TI_max_frame_size(-2)
     676                      .dwpsn  file "../drivers/source/pwm.c",line 1469,column 1,is_stmt,address _PWM_setTripZoneDCEventSele
     677              
     678                      .dwfde $C$DW$CIE, _PWM_setTripZoneDCEventSelect_DCAEVT2
     679              $C$DW$50        .dwtag  DW_TAG_formal_parameter
     680                      .dwattr $C$DW$50, DW_AT_name("pwmHandle")
     681                      .dwattr $C$DW$50, DW_AT_TI_symbol_name("_pwmHandle")
     682                      .dwattr $C$DW$50, DW_AT_type(*$C$DW$T$33)
     683                      .dwattr $C$DW$50, DW_AT_location[DW_OP_reg12]
     684              
     685              $C$DW$51        .dwtag  DW_TAG_formal_parameter
     686                      .dwattr $C$DW$51, DW_AT_name("tripZoneEvent")
     687                      .dwattr $C$DW$51, DW_AT_TI_symbol_name("_tripZoneEvent")
     688                      .dwattr $C$DW$51, DW_AT_type(*$C$DW$T$122)
     689                      .dwattr $C$DW$51, DW_AT_location[DW_OP_reg0]
     690              
     691              
     692              ;***************************************************************
     693              ;* FNAME: _PWM_setTripZoneDCEventSelect_DCAEVT2 FR SIZE:   0           *
     694              ;*                                                             *
     695              ;* FUNCTION ENVIRONMENT                                        *
     696              ;*                                                             *
     697              ;* FUNCTION PROPERTIES                                         *
     698              ;*                            0 Parameter,  0 Auto,  0 SOE     *
     699              ;***************************************************************
     700              
TMS320C2000 Assembler PC v15.12.3 Tue Sep 20 20:30:07 2016

Tools Copyright (c) 1996-2015 Texas Instruments Incorporated
C:\Users\MaCHaDo\AppData\Local\Temp\2170410                          PAGE   14

     701              _PWM_setTripZoneDCEventSelect_DCAEVT2:
     702              ;* AR4   assigned to _pwmHandle
     703              $C$DW$52        .dwtag  DW_TAG_variable
     704                      .dwattr $C$DW$52, DW_AT_name("pwmHandle")
     705                      .dwattr $C$DW$52, DW_AT_TI_symbol_name("_pwmHandle")
     706                      .dwattr $C$DW$52, DW_AT_type(*$C$DW$T$127)
     707                      .dwattr $C$DW$52, DW_AT_location[DW_OP_reg12]
     708              
     709              ;* AL    assigned to _tripZoneEvent
     710              $C$DW$53        .dwtag  DW_TAG_variable
     711                      .dwattr $C$DW$53, DW_AT_name("tripZoneEvent")
     712                      .dwattr $C$DW$53, DW_AT_TI_symbol_name("_tripZoneEvent")
     713                      .dwattr $C$DW$53, DW_AT_type(*$C$DW$T$122)
     714                      .dwattr $C$DW$53, DW_AT_location[DW_OP_reg0]
     715              
     716                      .dwcfi  cfa_offset, -2
     717                      .dwcfi  save_reg_to_mem, 26, 0
     718 0000005e 7622   EALLOW
     719                      .dwpsn  file "../drivers/source/pwm.c",line 1476,column 5,is_stmt,isa 0
     720 0000005f 83A4          MOVL      XAR5,XAR4             ; [CPU_] |1476| 
     721                      .dwpsn  file "../drivers/source/pwm.c",line 1479,column 5,is_stmt,isa 0
     722 00000060 5603          MOV       ACC,AL << #3          ; [CPU_] |1479| 
         00000061 03A9 
     723 00000062 DC13          ADDB      XAR4,#19              ; [CPU_] |1479| 
     724                      .dwpsn  file "../drivers/source/pwm.c",line 1476,column 5,is_stmt,isa 0
     725 00000063 DD13          ADDB      XAR5,#19              ; [CPU_] |1476| 
     726 00000064 18C5          AND       *+XAR5[0],#0xffc7     ; [CPU_] |1476| 
         00000065 FFC7 
     727                      .dwpsn  file "../drivers/source/pwm.c",line 1479,column 5,is_stmt,isa 0
     728 00000066 98C4          OR        *+XAR4[0],AL          ; [CPU_] |1479| 
     729 00000067 761A   EDIS
     730 00000068 FF69          SPM       #0                    ; [CPU_] 
     731              $C$DW$54        .dwtag  DW_TAG_TI_branch
     732                      .dwattr $C$DW$54, DW_AT_low_pc(0x00)
     733                      .dwattr $C$DW$54, DW_AT_TI_return
     734              
     735 00000069 0006          LRETR     ; [CPU_] 
     736                      ; return occurs ; [] 
     737                      .dwattr $C$DW$49, DW_AT_TI_end_file("../drivers/source/pwm.c")
     738                      .dwattr $C$DW$49, DW_AT_TI_end_line(0x5cc)
     739                      .dwattr $C$DW$49, DW_AT_TI_end_column(0x01)
     740                      .dwendentry
     741                      .dwendtag $C$DW$49
     742              
     743 0000006a               .sect   ".text"
     744                      .clink
     745                      .global _PWM_setTripZoneDCEventSelect_DCAEVT1
     746              
     747              $C$DW$55        .dwtag  DW_TAG_subprogram
     748                      .dwattr $C$DW$55, DW_AT_name("PWM_setTripZoneDCEventSelect_DCAEVT1")
     749                      .dwattr $C$DW$55, DW_AT_low_pc(_PWM_setTripZoneDCEventSelect_DCAEVT1)
     750                      .dwattr $C$DW$55, DW_AT_high_pc(0x00)
     751                      .dwattr $C$DW$55, DW_AT_TI_symbol_name("_PWM_setTripZoneDCEventSelect_DCAEVT1")
     752                      .dwattr $C$DW$55, DW_AT_external
     753                      .dwattr $C$DW$55, DW_AT_TI_begin_file("../drivers/source/pwm.c")
TMS320C2000 Assembler PC v15.12.3 Tue Sep 20 20:30:07 2016

Tools Copyright (c) 1996-2015 Texas Instruments Incorporated
C:\Users\MaCHaDo\AppData\Local\Temp\2170410                          PAGE   15

     754                      .dwattr $C$DW$55, DW_AT_TI_begin_line(0x5a9)
     755                      .dwattr $C$DW$55, DW_AT_TI_begin_column(0x06)
     756                      .dwattr $C$DW$55, DW_AT_TI_max_frame_size(-2)
     757                      .dwpsn  file "../drivers/source/pwm.c",line 1450,column 1,is_stmt,address _PWM_setTripZoneDCEventSele
     758              
     759                      .dwfde $C$DW$CIE, _PWM_setTripZoneDCEventSelect_DCAEVT1
     760              $C$DW$56        .dwtag  DW_TAG_formal_parameter
     761                      .dwattr $C$DW$56, DW_AT_name("pwmHandle")
     762                      .dwattr $C$DW$56, DW_AT_TI_symbol_name("_pwmHandle")
     763                      .dwattr $C$DW$56, DW_AT_type(*$C$DW$T$33)
     764                      .dwattr $C$DW$56, DW_AT_location[DW_OP_reg12]
     765              
     766              $C$DW$57        .dwtag  DW_TAG_formal_parameter
     767                      .dwattr $C$DW$57, DW_AT_name("tripZoneEvent")
     768                      .dwattr $C$DW$57, DW_AT_TI_symbol_name("_tripZoneEvent")
     769                      .dwattr $C$DW$57, DW_AT_type(*$C$DW$T$122)
     770                      .dwattr $C$DW$57, DW_AT_location[DW_OP_reg0]
     771              
     772              
     773              ;***************************************************************
     774              ;* FNAME: _PWM_setTripZoneDCEventSelect_DCAEVT1 FR SIZE:   0           *
     775              ;*                                                             *
     776              ;* FUNCTION ENVIRONMENT                                        *
     777              ;*                                                             *
     778              ;* FUNCTION PROPERTIES                                         *
     779              ;*                            0 Parameter,  0 Auto,  0 SOE     *
     780              ;***************************************************************
     781              
     782              _PWM_setTripZoneDCEventSelect_DCAEVT1:
     783              ;* AR4   assigned to _pwmHandle
     784              $C$DW$58        .dwtag  DW_TAG_variable
     785                      .dwattr $C$DW$58, DW_AT_name("pwmHandle")
     786                      .dwattr $C$DW$58, DW_AT_TI_symbol_name("_pwmHandle")
     787                      .dwattr $C$DW$58, DW_AT_type(*$C$DW$T$127)
     788                      .dwattr $C$DW$58, DW_AT_location[DW_OP_reg12]
     789              
     790              ;* AL    assigned to _tripZoneEvent
     791              $C$DW$59        .dwtag  DW_TAG_variable
     792                      .dwattr $C$DW$59, DW_AT_name("tripZoneEvent")
     793                      .dwattr $C$DW$59, DW_AT_TI_symbol_name("_tripZoneEvent")
     794                      .dwattr $C$DW$59, DW_AT_type(*$C$DW$T$122)
     795                      .dwattr $C$DW$59, DW_AT_location[DW_OP_reg0]
     796              
     797                      .dwcfi  cfa_offset, -2
     798                      .dwcfi  save_reg_to_mem, 26, 0
     799 0000006a 7622   EALLOW
     800                      .dwpsn  file "../drivers/source/pwm.c",line 1457,column 5,is_stmt,isa 0
     801 0000006b 83A4          MOVL      XAR5,XAR4             ; [CPU_] |1457| 
     802                      .dwpsn  file "../drivers/source/pwm.c",line 1460,column 5,is_stmt,isa 0
     803 0000006c DC13          ADDB      XAR4,#19              ; [CPU_] |1460| 
     804                      .dwpsn  file "../drivers/source/pwm.c",line 1457,column 5,is_stmt,isa 0
     805 0000006d DD13          ADDB      XAR5,#19              ; [CPU_] |1457| 
     806 0000006e 18C5          AND       *+XAR5[0],#0xfff8     ; [CPU_] |1457| 
         0000006f FFF8 
     807                      .dwpsn  file "../drivers/source/pwm.c",line 1460,column 5,is_stmt,isa 0
TMS320C2000 Assembler PC v15.12.3 Tue Sep 20 20:30:07 2016

Tools Copyright (c) 1996-2015 Texas Instruments Incorporated
C:\Users\MaCHaDo\AppData\Local\Temp\2170410                          PAGE   16

     808 00000070 98C4          OR        *+XAR4[0],AL          ; [CPU_] |1460| 
     809 00000071 761A   EDIS
     810 00000072 FF69          SPM       #0                    ; [CPU_] 
     811              $C$DW$60        .dwtag  DW_TAG_TI_branch
     812                      .dwattr $C$DW$60, DW_AT_low_pc(0x00)
     813                      .dwattr $C$DW$60, DW_AT_TI_return
     814              
     815 00000073 0006          LRETR     ; [CPU_] 
     816                      ; return occurs ; [] 
     817                      .dwattr $C$DW$55, DW_AT_TI_end_file("../drivers/source/pwm.c")
     818                      .dwattr $C$DW$55, DW_AT_TI_end_line(0x5b9)
     819                      .dwattr $C$DW$55, DW_AT_TI_end_column(0x01)
     820                      .dwendentry
     821                      .dwendtag $C$DW$55
     822              
     823 00000074               .sect   ".text"
     824                      .clink
     825                      .global _PWM_setSyncMode
     826              
     827              $C$DW$61        .dwtag  DW_TAG_subprogram
     828                      .dwattr $C$DW$61, DW_AT_name("PWM_setSyncMode")
     829                      .dwattr $C$DW$61, DW_AT_low_pc(_PWM_setSyncMode)
     830                      .dwattr $C$DW$61, DW_AT_high_pc(0x00)
     831                      .dwattr $C$DW$61, DW_AT_TI_symbol_name("_PWM_setSyncMode")
     832                      .dwattr $C$DW$61, DW_AT_external
     833                      .dwattr $C$DW$61, DW_AT_TI_begin_file("../drivers/source/pwm.c")
     834                      .dwattr $C$DW$61, DW_AT_TI_begin_line(0x59b)
     835                      .dwattr $C$DW$61, DW_AT_TI_begin_column(0x06)
     836                      .dwattr $C$DW$61, DW_AT_TI_max_frame_size(-2)
     837                      .dwpsn  file "../drivers/source/pwm.c",line 1436,column 1,is_stmt,address _PWM_setSyncMode,isa 0
     838              
     839                      .dwfde $C$DW$CIE, _PWM_setSyncMode
     840              $C$DW$62        .dwtag  DW_TAG_formal_parameter
     841                      .dwattr $C$DW$62, DW_AT_name("pwmHandle")
     842                      .dwattr $C$DW$62, DW_AT_TI_symbol_name("_pwmHandle")
     843                      .dwattr $C$DW$62, DW_AT_type(*$C$DW$T$33)
     844                      .dwattr $C$DW$62, DW_AT_location[DW_OP_reg12]
     845              
     846              $C$DW$63        .dwtag  DW_TAG_formal_parameter
     847                      .dwattr $C$DW$63, DW_AT_name("syncMode")
     848                      .dwattr $C$DW$63, DW_AT_TI_symbol_name("_syncMode")
     849                      .dwattr $C$DW$63, DW_AT_type(*$C$DW$T$119)
     850                      .dwattr $C$DW$63, DW_AT_location[DW_OP_reg0]
     851              
     852              
     853              ;***************************************************************
     854              ;* FNAME: _PWM_setSyncMode              FR SIZE:   0           *
     855              ;*                                                             *
     856              ;* FUNCTION ENVIRONMENT                                        *
     857              ;*                                                             *
     858              ;* FUNCTION PROPERTIES                                         *
     859              ;*                            0 Parameter,  0 Auto,  0 SOE     *
     860              ;***************************************************************
     861              
     862              _PWM_setSyncMode:
TMS320C2000 Assembler PC v15.12.3 Tue Sep 20 20:30:07 2016

Tools Copyright (c) 1996-2015 Texas Instruments Incorporated
C:\Users\MaCHaDo\AppData\Local\Temp\2170410                          PAGE   17

     863              ;* AR4   assigned to _pwmHandle
     864              $C$DW$64        .dwtag  DW_TAG_variable
     865                      .dwattr $C$DW$64, DW_AT_name("pwmHandle")
     866                      .dwattr $C$DW$64, DW_AT_TI_symbol_name("_pwmHandle")
     867                      .dwattr $C$DW$64, DW_AT_type(*$C$DW$T$127)
     868                      .dwattr $C$DW$64, DW_AT_location[DW_OP_reg12]
     869              
     870              ;* AL    assigned to _syncMode
     871              $C$DW$65        .dwtag  DW_TAG_variable
     872                      .dwattr $C$DW$65, DW_AT_name("syncMode")
     873                      .dwattr $C$DW$65, DW_AT_TI_symbol_name("_syncMode")
     874                      .dwattr $C$DW$65, DW_AT_type(*$C$DW$T$119)
     875                      .dwattr $C$DW$65, DW_AT_location[DW_OP_reg0]
     876              
     877                      .dwcfi  cfa_offset, -2
     878                      .dwcfi  save_reg_to_mem, 26, 0
     879                      .dwpsn  file "../drivers/source/pwm.c",line 1441,column 5,is_stmt,isa 0
     880 00000074 18C4          AND       *+XAR4[0],#0xffcf     ; [CPU_] |1441| 
         00000075 FFCF 
     881                      .dwpsn  file "../drivers/source/pwm.c",line 1444,column 5,is_stmt,isa 0
     882 00000076 98C4          OR        *+XAR4[0],AL          ; [CPU_] |1444| 
     883              $C$DW$66        .dwtag  DW_TAG_TI_branch
     884                      .dwattr $C$DW$66, DW_AT_low_pc(0x00)
     885                      .dwattr $C$DW$66, DW_AT_TI_return
     886              
     887 00000077 0006          LRETR     ; [CPU_] 
     888                      ; return occurs ; [] 
     889                      .dwattr $C$DW$61, DW_AT_TI_end_file("../drivers/source/pwm.c")
     890                      .dwattr $C$DW$61, DW_AT_TI_end_line(0x5a7)
     891                      .dwattr $C$DW$61, DW_AT_TI_end_column(0x01)
     892                      .dwendentry
     893                      .dwendtag $C$DW$61
     894              
     895 00000078               .sect   ".text"
     896                      .clink
     897                      .global _PWM_setSwSync
     898              
     899              $C$DW$67        .dwtag  DW_TAG_subprogram
     900                      .dwattr $C$DW$67, DW_AT_name("PWM_setSwSync")
     901                      .dwattr $C$DW$67, DW_AT_low_pc(_PWM_setSwSync)
     902                      .dwattr $C$DW$67, DW_AT_high_pc(0x00)
     903                      .dwattr $C$DW$67, DW_AT_TI_symbol_name("_PWM_setSwSync")
     904                      .dwattr $C$DW$67, DW_AT_external
     905                      .dwattr $C$DW$67, DW_AT_TI_begin_file("../drivers/source/pwm.c")
     906                      .dwattr $C$DW$67, DW_AT_TI_begin_line(0x58f)
     907                      .dwattr $C$DW$67, DW_AT_TI_begin_column(0x06)
     908                      .dwattr $C$DW$67, DW_AT_TI_max_frame_size(-2)
     909                      .dwpsn  file "../drivers/source/pwm.c",line 1424,column 1,is_stmt,address _PWM_setSwSync,isa 0
     910              
     911                      .dwfde $C$DW$CIE, _PWM_setSwSync
     912              $C$DW$68        .dwtag  DW_TAG_formal_parameter
     913                      .dwattr $C$DW$68, DW_AT_name("pwmHandle")
     914                      .dwattr $C$DW$68, DW_AT_TI_symbol_name("_pwmHandle")
     915                      .dwattr $C$DW$68, DW_AT_type(*$C$DW$T$33)
     916                      .dwattr $C$DW$68, DW_AT_location[DW_OP_reg12]
TMS320C2000 Assembler PC v15.12.3 Tue Sep 20 20:30:07 2016

Tools Copyright (c) 1996-2015 Texas Instruments Incorporated
C:\Users\MaCHaDo\AppData\Local\Temp\2170410                          PAGE   18

     917              
     918              
     919              ;***************************************************************
     920              ;* FNAME: _PWM_setSwSync                FR SIZE:   0           *
     921              ;*                                                             *
     922              ;* FUNCTION ENVIRONMENT                                        *
     923              ;*                                                             *
     924              ;* FUNCTION PROPERTIES                                         *
     925              ;*                            0 Parameter,  0 Auto,  0 SOE     *
     926              ;***************************************************************
     927              
     928              _PWM_setSwSync:
     929              ;* AR4   assigned to _pwmHandle
     930              $C$DW$69        .dwtag  DW_TAG_variable
     931                      .dwattr $C$DW$69, DW_AT_name("pwmHandle")
     932                      .dwattr $C$DW$69, DW_AT_TI_symbol_name("_pwmHandle")
     933                      .dwattr $C$DW$69, DW_AT_type(*$C$DW$T$127)
     934                      .dwattr $C$DW$69, DW_AT_location[DW_OP_reg12]
     935              
     936                      .dwcfi  cfa_offset, -2
     937                      .dwcfi  save_reg_to_mem, 26, 0
     938                      .dwpsn  file "../drivers/source/pwm.c",line 1429,column 5,is_stmt,isa 0
     939 00000078 1AC4          OR        *+XAR4[0],#0x0040     ; [CPU_] |1429| 
         00000079 0040 
     940              $C$DW$70        .dwtag  DW_TAG_TI_branch
     941                      .dwattr $C$DW$70, DW_AT_low_pc(0x00)
     942                      .dwattr $C$DW$70, DW_AT_TI_return
     943              
     944 0000007a 0006          LRETR     ; [CPU_] 
     945                      ; return occurs ; [] 
     946                      .dwattr $C$DW$67, DW_AT_TI_end_file("../drivers/source/pwm.c")
     947                      .dwattr $C$DW$67, DW_AT_TI_end_line(0x598)
     948                      .dwattr $C$DW$67, DW_AT_TI_end_column(0x01)
     949                      .dwendentry
     950                      .dwendtag $C$DW$67
     951              
     952 0000007b               .sect   ".text"
     953                      .clink
     954                      .global _PWM_setSocBPulseSrc
     955              
     956              $C$DW$71        .dwtag  DW_TAG_subprogram
     957                      .dwattr $C$DW$71, DW_AT_name("PWM_setSocBPulseSrc")
     958                      .dwattr $C$DW$71, DW_AT_low_pc(_PWM_setSocBPulseSrc)
     959                      .dwattr $C$DW$71, DW_AT_high_pc(0x00)
     960                      .dwattr $C$DW$71, DW_AT_TI_symbol_name("_PWM_setSocBPulseSrc")
     961                      .dwattr $C$DW$71, DW_AT_external
     962                      .dwattr $C$DW$71, DW_AT_TI_begin_file("../drivers/source/pwm.c")
     963                      .dwattr $C$DW$71, DW_AT_TI_begin_line(0x562)
     964                      .dwattr $C$DW$71, DW_AT_TI_begin_column(0x06)
     965                      .dwattr $C$DW$71, DW_AT_TI_max_frame_size(-2)
     966                      .dwpsn  file "../drivers/source/pwm.c",line 1379,column 1,is_stmt,address _PWM_setSocBPulseSrc,isa 0
     967              
     968                      .dwfde $C$DW$CIE, _PWM_setSocBPulseSrc
     969              $C$DW$72        .dwtag  DW_TAG_formal_parameter
     970                      .dwattr $C$DW$72, DW_AT_name("pwmHandle")
TMS320C2000 Assembler PC v15.12.3 Tue Sep 20 20:30:07 2016

Tools Copyright (c) 1996-2015 Texas Instruments Incorporated
C:\Users\MaCHaDo\AppData\Local\Temp\2170410                          PAGE   19

     971                      .dwattr $C$DW$72, DW_AT_TI_symbol_name("_pwmHandle")
     972                      .dwattr $C$DW$72, DW_AT_type(*$C$DW$T$33)
     973                      .dwattr $C$DW$72, DW_AT_location[DW_OP_reg12]
     974              
     975              $C$DW$73        .dwtag  DW_TAG_formal_parameter
     976                      .dwattr $C$DW$73, DW_AT_name("pulseSrc")
     977                      .dwattr $C$DW$73, DW_AT_TI_symbol_name("_pulseSrc")
     978                      .dwattr $C$DW$73, DW_AT_type(*$C$DW$T$113)
     979                      .dwattr $C$DW$73, DW_AT_location[DW_OP_reg0]
     980              
     981              
     982              ;***************************************************************
     983              ;* FNAME: _PWM_setSocBPulseSrc          FR SIZE:   0           *
     984              ;*                                                             *
     985              ;* FUNCTION ENVIRONMENT                                        *
     986              ;*                                                             *
     987              ;* FUNCTION PROPERTIES                                         *
     988              ;*                            0 Parameter,  0 Auto,  0 SOE     *
     989              ;***************************************************************
     990              
     991              _PWM_setSocBPulseSrc:
     992              ;* AR4   assigned to _pwmHandle
     993              $C$DW$74        .dwtag  DW_TAG_variable
     994                      .dwattr $C$DW$74, DW_AT_name("pwmHandle")
     995                      .dwattr $C$DW$74, DW_AT_TI_symbol_name("_pwmHandle")
     996                      .dwattr $C$DW$74, DW_AT_type(*$C$DW$T$127)
     997                      .dwattr $C$DW$74, DW_AT_location[DW_OP_reg12]
     998              
     999              ;* AL    assigned to _pulseSrc
    1000              $C$DW$75        .dwtag  DW_TAG_variable
    1001                      .dwattr $C$DW$75, DW_AT_name("pulseSrc")
    1002                      .dwattr $C$DW$75, DW_AT_TI_symbol_name("_pulseSrc")
    1003                      .dwattr $C$DW$75, DW_AT_type(*$C$DW$T$113)
    1004                      .dwattr $C$DW$75, DW_AT_location[DW_OP_reg0]
    1005              
    1006                      .dwcfi  cfa_offset, -2
    1007                      .dwcfi  save_reg_to_mem, 26, 0
    1008                      .dwpsn  file "../drivers/source/pwm.c",line 1384,column 5,is_stmt,isa 0
    1009 0000007b 83A4          MOVL      XAR5,XAR4             ; [CPU_] |1384| 
    1010                      .dwpsn  file "../drivers/source/pwm.c",line 1387,column 5,is_stmt,isa 0
    1011 0000007c 5603          MOV       ACC,AL << #12         ; [CPU_] |1387| 
         0000007d 0CA9 
    1012                      .dwpsn  file "../drivers/source/pwm.c",line 1384,column 5,is_stmt,isa 0
    1013 0000007e DD19          ADDB      XAR5,#25              ; [CPU_] |1384| 
    1014 0000007f 18C5          AND       *+XAR5[0],#0x8fff     ; [CPU_] |1384| 
         00000080 8FFF 
    1015                      .dwpsn  file "../drivers/source/pwm.c",line 1387,column 5,is_stmt,isa 0
    1016 00000081 DC19          ADDB      XAR4,#25              ; [CPU_] |1387| 
    1017 00000082 98C4          OR        *+XAR4[0],AL          ; [CPU_] |1387| 
    1018              $C$DW$76        .dwtag  DW_TAG_TI_branch
    1019                      .dwattr $C$DW$76, DW_AT_low_pc(0x00)
    1020                      .dwattr $C$DW$76, DW_AT_TI_return
    1021              
    1022 00000083 0006          LRETR     ; [CPU_] 
    1023                      ; return occurs ; [] 
TMS320C2000 Assembler PC v15.12.3 Tue Sep 20 20:30:07 2016

Tools Copyright (c) 1996-2015 Texas Instruments Incorporated
C:\Users\MaCHaDo\AppData\Local\Temp\2170410                          PAGE   20

    1024                      .dwattr $C$DW$71, DW_AT_TI_end_file("../drivers/source/pwm.c")
    1025                      .dwattr $C$DW$71, DW_AT_TI_end_line(0x56e)
    1026                      .dwattr $C$DW$71, DW_AT_TI_end_column(0x01)
    1027                      .dwendentry
    1028                      .dwendtag $C$DW$71
    1029              
    1030 00000084               .sect   ".text"
    1031                      .clink
    1032                      .global _PWM_setSocBPeriod
    1033              
    1034              $C$DW$77        .dwtag  DW_TAG_subprogram
    1035                      .dwattr $C$DW$77, DW_AT_name("PWM_setSocBPeriod")
    1036                      .dwattr $C$DW$77, DW_AT_low_pc(_PWM_setSocBPeriod)
    1037                      .dwattr $C$DW$77, DW_AT_high_pc(0x00)
    1038                      .dwattr $C$DW$77, DW_AT_TI_symbol_name("_PWM_setSocBPeriod")
    1039                      .dwattr $C$DW$77, DW_AT_external
    1040                      .dwattr $C$DW$77, DW_AT_TI_begin_file("../drivers/source/pwm.c")
    1041                      .dwattr $C$DW$77, DW_AT_TI_begin_line(0x553)
    1042                      .dwattr $C$DW$77, DW_AT_TI_begin_column(0x06)
    1043                      .dwattr $C$DW$77, DW_AT_TI_max_frame_size(-2)
    1044                      .dwpsn  file "../drivers/source/pwm.c",line 1364,column 1,is_stmt,address _PWM_setSocBPeriod,isa 0
    1045              
    1046                      .dwfde $C$DW$CIE, _PWM_setSocBPeriod
    1047              $C$DW$78        .dwtag  DW_TAG_formal_parameter
    1048                      .dwattr $C$DW$78, DW_AT_name("pwmHandle")
    1049                      .dwattr $C$DW$78, DW_AT_TI_symbol_name("_pwmHandle")
    1050                      .dwattr $C$DW$78, DW_AT_type(*$C$DW$T$33)
    1051                      .dwattr $C$DW$78, DW_AT_location[DW_OP_reg12]
    1052              
    1053              $C$DW$79        .dwtag  DW_TAG_formal_parameter
    1054                      .dwattr $C$DW$79, DW_AT_name("intPeriod")
    1055                      .dwattr $C$DW$79, DW_AT_TI_symbol_name("_intPeriod")
    1056                      .dwattr $C$DW$79, DW_AT_type(*$C$DW$T$110)
    1057                      .dwattr $C$DW$79, DW_AT_location[DW_OP_reg0]
    1058              
    1059              
    1060              ;***************************************************************
    1061              ;* FNAME: _PWM_setSocBPeriod            FR SIZE:   0           *
    1062              ;*                                                             *
    1063              ;* FUNCTION ENVIRONMENT                                        *
    1064              ;*                                                             *
    1065              ;* FUNCTION PROPERTIES                                         *
    1066              ;*                            0 Parameter,  0 Auto,  0 SOE     *
    1067              ;***************************************************************
    1068              
    1069              _PWM_setSocBPeriod:
    1070              ;* AR4   assigned to _pwmHandle
    1071              $C$DW$80        .dwtag  DW_TAG_variable
    1072                      .dwattr $C$DW$80, DW_AT_name("pwmHandle")
    1073                      .dwattr $C$DW$80, DW_AT_TI_symbol_name("_pwmHandle")
    1074                      .dwattr $C$DW$80, DW_AT_type(*$C$DW$T$127)
    1075                      .dwattr $C$DW$80, DW_AT_location[DW_OP_reg12]
    1076              
    1077              ;* AL    assigned to _intPeriod
    1078              $C$DW$81        .dwtag  DW_TAG_variable
TMS320C2000 Assembler PC v15.12.3 Tue Sep 20 20:30:07 2016

Tools Copyright (c) 1996-2015 Texas Instruments Incorporated
C:\Users\MaCHaDo\AppData\Local\Temp\2170410                          PAGE   21

    1079                      .dwattr $C$DW$81, DW_AT_name("intPeriod")
    1080                      .dwattr $C$DW$81, DW_AT_TI_symbol_name("_intPeriod")
    1081                      .dwattr $C$DW$81, DW_AT_type(*$C$DW$T$110)
    1082                      .dwattr $C$DW$81, DW_AT_location[DW_OP_reg0]
    1083              
    1084                      .dwcfi  cfa_offset, -2
    1085                      .dwcfi  save_reg_to_mem, 26, 0
    1086                      .dwpsn  file "../drivers/source/pwm.c",line 1369,column 5,is_stmt,isa 0
    1087 00000084 83A4          MOVL      XAR5,XAR4             ; [CPU_] |1369| 
    1088                      .dwpsn  file "../drivers/source/pwm.c",line 1372,column 5,is_stmt,isa 0
    1089 00000085 5603          MOV       ACC,AL << #12         ; [CPU_] |1372| 
         00000086 0CA9 
    1090                      .dwpsn  file "../drivers/source/pwm.c",line 1369,column 5,is_stmt,isa 0
    1091 00000087 DD1A          ADDB      XAR5,#26              ; [CPU_] |1369| 
    1092 00000088 18C5          AND       *+XAR5[0],#0xcfff     ; [CPU_] |1369| 
         00000089 CFFF 
    1093                      .dwpsn  file "../drivers/source/pwm.c",line 1372,column 5,is_stmt,isa 0
    1094 0000008a DC1A          ADDB      XAR4,#26              ; [CPU_] |1372| 
    1095 0000008b 98C4          OR        *+XAR4[0],AL          ; [CPU_] |1372| 
    1096              $C$DW$82        .dwtag  DW_TAG_TI_branch
    1097                      .dwattr $C$DW$82, DW_AT_low_pc(0x00)
    1098                      .dwattr $C$DW$82, DW_AT_TI_return
    1099              
    1100 0000008c 0006          LRETR     ; [CPU_] 
    1101                      ; return occurs ; [] 
    1102                      .dwattr $C$DW$77, DW_AT_TI_end_file("../drivers/source/pwm.c")
    1103                      .dwattr $C$DW$77, DW_AT_TI_end_line(0x55f)
    1104                      .dwattr $C$DW$77, DW_AT_TI_end_column(0x01)
    1105                      .dwendentry
    1106                      .dwendtag $C$DW$77
    1107              
    1108 0000008d               .sect   ".text"
    1109                      .clink
    1110                      .global _PWM_setSocAPulseSrc
    1111              
    1112              $C$DW$83        .dwtag  DW_TAG_subprogram
    1113                      .dwattr $C$DW$83, DW_AT_name("PWM_setSocAPulseSrc")
    1114                      .dwattr $C$DW$83, DW_AT_low_pc(_PWM_setSocAPulseSrc)
    1115                      .dwattr $C$DW$83, DW_AT_high_pc(0x00)
    1116                      .dwattr $C$DW$83, DW_AT_TI_symbol_name("_PWM_setSocAPulseSrc")
    1117                      .dwattr $C$DW$83, DW_AT_external
    1118                      .dwattr $C$DW$83, DW_AT_TI_begin_file("../drivers/source/pwm.c")
    1119                      .dwattr $C$DW$83, DW_AT_TI_begin_line(0x544)
    1120                      .dwattr $C$DW$83, DW_AT_TI_begin_column(0x06)
    1121                      .dwattr $C$DW$83, DW_AT_TI_max_frame_size(-2)
    1122                      .dwpsn  file "../drivers/source/pwm.c",line 1349,column 1,is_stmt,address _PWM_setSocAPulseSrc,isa 0
    1123              
    1124                      .dwfde $C$DW$CIE, _PWM_setSocAPulseSrc
    1125              $C$DW$84        .dwtag  DW_TAG_formal_parameter
    1126                      .dwattr $C$DW$84, DW_AT_name("pwmHandle")
    1127                      .dwattr $C$DW$84, DW_AT_TI_symbol_name("_pwmHandle")
    1128                      .dwattr $C$DW$84, DW_AT_type(*$C$DW$T$33)
    1129                      .dwattr $C$DW$84, DW_AT_location[DW_OP_reg12]
    1130              
    1131              $C$DW$85        .dwtag  DW_TAG_formal_parameter
TMS320C2000 Assembler PC v15.12.3 Tue Sep 20 20:30:07 2016

Tools Copyright (c) 1996-2015 Texas Instruments Incorporated
C:\Users\MaCHaDo\AppData\Local\Temp\2170410                          PAGE   22

    1132                      .dwattr $C$DW$85, DW_AT_name("pulseSrc")
    1133                      .dwattr $C$DW$85, DW_AT_TI_symbol_name("_pulseSrc")
    1134                      .dwattr $C$DW$85, DW_AT_type(*$C$DW$T$113)
    1135                      .dwattr $C$DW$85, DW_AT_location[DW_OP_reg0]
    1136              
    1137              
    1138              ;***************************************************************
    1139              ;* FNAME: _PWM_setSocAPulseSrc          FR SIZE:   0           *
    1140              ;*                                                             *
    1141              ;* FUNCTION ENVIRONMENT                                        *
    1142              ;*                                                             *
    1143              ;* FUNCTION PROPERTIES                                         *
    1144              ;*                            0 Parameter,  0 Auto,  0 SOE     *
    1145              ;***************************************************************
    1146              
    1147              _PWM_setSocAPulseSrc:
    1148              ;* AR4   assigned to _pwmHandle
    1149              $C$DW$86        .dwtag  DW_TAG_variable
    1150                      .dwattr $C$DW$86, DW_AT_name("pwmHandle")
    1151                      .dwattr $C$DW$86, DW_AT_TI_symbol_name("_pwmHandle")
    1152                      .dwattr $C$DW$86, DW_AT_type(*$C$DW$T$127)
    1153                      .dwattr $C$DW$86, DW_AT_location[DW_OP_reg12]
    1154              
    1155              ;* AL    assigned to _pulseSrc
    1156              $C$DW$87        .dwtag  DW_TAG_variable
    1157                      .dwattr $C$DW$87, DW_AT_name("pulseSrc")
    1158                      .dwattr $C$DW$87, DW_AT_TI_symbol_name("_pulseSrc")
    1159                      .dwattr $C$DW$87, DW_AT_type(*$C$DW$T$113)
    1160                      .dwattr $C$DW$87, DW_AT_location[DW_OP_reg0]
    1161              
    1162                      .dwcfi  cfa_offset, -2
    1163                      .dwcfi  save_reg_to_mem, 26, 0
    1164                      .dwpsn  file "../drivers/source/pwm.c",line 1354,column 5,is_stmt,isa 0
    1165 0000008d 83A4          MOVL      XAR5,XAR4             ; [CPU_] |1354| 
    1166                      .dwpsn  file "../drivers/source/pwm.c",line 1357,column 5,is_stmt,isa 0
    1167 0000008e 5603          MOV       ACC,AL << #8          ; [CPU_] |1357| 
         0000008f 08A9 
    1168                      .dwpsn  file "../drivers/source/pwm.c",line 1354,column 5,is_stmt,isa 0
    1169 00000090 DD19          ADDB      XAR5,#25              ; [CPU_] |1354| 
    1170 00000091 18C5          AND       *+XAR5[0],#0xf8ff     ; [CPU_] |1354| 
         00000092 F8FF 
    1171                      .dwpsn  file "../drivers/source/pwm.c",line 1357,column 5,is_stmt,isa 0
    1172 00000093 DC19          ADDB      XAR4,#25              ; [CPU_] |1357| 
    1173 00000094 98C4          OR        *+XAR4[0],AL          ; [CPU_] |1357| 
    1174              $C$DW$88        .dwtag  DW_TAG_TI_branch
    1175                      .dwattr $C$DW$88, DW_AT_low_pc(0x00)
    1176                      .dwattr $C$DW$88, DW_AT_TI_return
    1177              
    1178 00000095 0006          LRETR     ; [CPU_] 
    1179                      ; return occurs ; [] 
    1180                      .dwattr $C$DW$83, DW_AT_TI_end_file("../drivers/source/pwm.c")
    1181                      .dwattr $C$DW$83, DW_AT_TI_end_line(0x550)
    1182                      .dwattr $C$DW$83, DW_AT_TI_end_column(0x01)
    1183                      .dwendentry
    1184                      .dwendtag $C$DW$83
TMS320C2000 Assembler PC v15.12.3 Tue Sep 20 20:30:07 2016

Tools Copyright (c) 1996-2015 Texas Instruments Incorporated
C:\Users\MaCHaDo\AppData\Local\Temp\2170410                          PAGE   23

    1185              
    1186 00000096               .sect   ".text"
    1187                      .clink
    1188                      .global _PWM_setSocAPeriod
    1189              
    1190              $C$DW$89        .dwtag  DW_TAG_subprogram
    1191                      .dwattr $C$DW$89, DW_AT_name("PWM_setSocAPeriod")
    1192                      .dwattr $C$DW$89, DW_AT_low_pc(_PWM_setSocAPeriod)
    1193                      .dwattr $C$DW$89, DW_AT_high_pc(0x00)
    1194                      .dwattr $C$DW$89, DW_AT_TI_symbol_name("_PWM_setSocAPeriod")
    1195                      .dwattr $C$DW$89, DW_AT_external
    1196                      .dwattr $C$DW$89, DW_AT_TI_begin_file("../drivers/source/pwm.c")
    1197                      .dwattr $C$DW$89, DW_AT_TI_begin_line(0x535)
    1198                      .dwattr $C$DW$89, DW_AT_TI_begin_column(0x06)
    1199                      .dwattr $C$DW$89, DW_AT_TI_max_frame_size(-2)
    1200                      .dwpsn  file "../drivers/source/pwm.c",line 1334,column 1,is_stmt,address _PWM_setSocAPeriod,isa 0
    1201              
    1202                      .dwfde $C$DW$CIE, _PWM_setSocAPeriod
    1203              $C$DW$90        .dwtag  DW_TAG_formal_parameter
    1204                      .dwattr $C$DW$90, DW_AT_name("pwmHandle")
    1205                      .dwattr $C$DW$90, DW_AT_TI_symbol_name("_pwmHandle")
    1206                      .dwattr $C$DW$90, DW_AT_type(*$C$DW$T$33)
    1207                      .dwattr $C$DW$90, DW_AT_location[DW_OP_reg12]
    1208              
    1209              $C$DW$91        .dwtag  DW_TAG_formal_parameter
    1210                      .dwattr $C$DW$91, DW_AT_name("intPeriod")
    1211                      .dwattr $C$DW$91, DW_AT_TI_symbol_name("_intPeriod")
    1212                      .dwattr $C$DW$91, DW_AT_type(*$C$DW$T$110)
    1213                      .dwattr $C$DW$91, DW_AT_location[DW_OP_reg0]
    1214              
    1215              
    1216              ;***************************************************************
    1217              ;* FNAME: _PWM_setSocAPeriod            FR SIZE:   0           *
    1218              ;*                                                             *
    1219              ;* FUNCTION ENVIRONMENT                                        *
    1220              ;*                                                             *
    1221              ;* FUNCTION PROPERTIES                                         *
    1222              ;*                            0 Parameter,  0 Auto,  0 SOE     *
    1223              ;***************************************************************
    1224              
    1225              _PWM_setSocAPeriod:
    1226              ;* AR4   assigned to _pwmHandle
    1227              $C$DW$92        .dwtag  DW_TAG_variable
    1228                      .dwattr $C$DW$92, DW_AT_name("pwmHandle")
    1229                      .dwattr $C$DW$92, DW_AT_TI_symbol_name("_pwmHandle")
    1230                      .dwattr $C$DW$92, DW_AT_type(*$C$DW$T$127)
    1231                      .dwattr $C$DW$92, DW_AT_location[DW_OP_reg12]
    1232              
    1233              ;* AL    assigned to _intPeriod
    1234              $C$DW$93        .dwtag  DW_TAG_variable
    1235                      .dwattr $C$DW$93, DW_AT_name("intPeriod")
    1236                      .dwattr $C$DW$93, DW_AT_TI_symbol_name("_intPeriod")
    1237                      .dwattr $C$DW$93, DW_AT_type(*$C$DW$T$110)
    1238                      .dwattr $C$DW$93, DW_AT_location[DW_OP_reg0]
    1239              
TMS320C2000 Assembler PC v15.12.3 Tue Sep 20 20:30:07 2016

Tools Copyright (c) 1996-2015 Texas Instruments Incorporated
C:\Users\MaCHaDo\AppData\Local\Temp\2170410                          PAGE   24

    1240                      .dwcfi  cfa_offset, -2
    1241                      .dwcfi  save_reg_to_mem, 26, 0
    1242                      .dwpsn  file "../drivers/source/pwm.c",line 1339,column 5,is_stmt,isa 0
    1243 00000096 83A4          MOVL      XAR5,XAR4             ; [CPU_] |1339| 
    1244                      .dwpsn  file "../drivers/source/pwm.c",line 1342,column 5,is_stmt,isa 0
    1245 00000097 5603          MOV       ACC,AL << #8          ; [CPU_] |1342| 
         00000098 08A9 
    1246                      .dwpsn  file "../drivers/source/pwm.c",line 1339,column 5,is_stmt,isa 0
    1247 00000099 DD1A          ADDB      XAR5,#26              ; [CPU_] |1339| 
    1248 0000009a 18C5          AND       *+XAR5[0],#0xfcff     ; [CPU_] |1339| 
         0000009b FCFF 
    1249                      .dwpsn  file "../drivers/source/pwm.c",line 1342,column 5,is_stmt,isa 0
    1250 0000009c DC1A          ADDB      XAR4,#26              ; [CPU_] |1342| 
    1251 0000009d 98C4          OR        *+XAR4[0],AL          ; [CPU_] |1342| 
    1252              $C$DW$94        .dwtag  DW_TAG_TI_branch
    1253                      .dwattr $C$DW$94, DW_AT_low_pc(0x00)
    1254                      .dwattr $C$DW$94, DW_AT_TI_return
    1255              
    1256 0000009e 0006          LRETR     ; [CPU_] 
    1257                      ; return occurs ; [] 
    1258                      .dwattr $C$DW$89, DW_AT_TI_end_file("../drivers/source/pwm.c")
    1259                      .dwattr $C$DW$89, DW_AT_TI_end_line(0x541)
    1260                      .dwattr $C$DW$89, DW_AT_TI_end_column(0x01)
    1261                      .dwendentry
    1262                      .dwendtag $C$DW$89
    1263              
    1264 0000009f               .sect   ".text"
    1265                      .clink
    1266                      .global _PWM_setShadowMode_CmpB
    1267              
    1268              $C$DW$95        .dwtag  DW_TAG_subprogram
    1269                      .dwattr $C$DW$95, DW_AT_name("PWM_setShadowMode_CmpB")
    1270                      .dwattr $C$DW$95, DW_AT_low_pc(_PWM_setShadowMode_CmpB)
    1271                      .dwattr $C$DW$95, DW_AT_high_pc(0x00)
    1272                      .dwattr $C$DW$95, DW_AT_TI_symbol_name("_PWM_setShadowMode_CmpB")
    1273                      .dwattr $C$DW$95, DW_AT_external
    1274                      .dwattr $C$DW$95, DW_AT_TI_begin_file("../drivers/source/pwm.c")
    1275                      .dwattr $C$DW$95, DW_AT_TI_begin_line(0x580)
    1276                      .dwattr $C$DW$95, DW_AT_TI_begin_column(0x06)
    1277                      .dwattr $C$DW$95, DW_AT_TI_max_frame_size(-2)
    1278                      .dwpsn  file "../drivers/source/pwm.c",line 1409,column 1,is_stmt,address _PWM_setShadowMode_CmpB,isa
    1279              
    1280                      .dwfde $C$DW$CIE, _PWM_setShadowMode_CmpB
    1281              $C$DW$96        .dwtag  DW_TAG_formal_parameter
    1282                      .dwattr $C$DW$96, DW_AT_name("pwmHandle")
    1283                      .dwattr $C$DW$96, DW_AT_TI_symbol_name("_pwmHandle")
    1284                      .dwattr $C$DW$96, DW_AT_type(*$C$DW$T$33)
    1285                      .dwattr $C$DW$96, DW_AT_location[DW_OP_reg12]
    1286              
    1287              $C$DW$97        .dwtag  DW_TAG_formal_parameter
    1288                      .dwattr $C$DW$97, DW_AT_name("shadowMode")
    1289                      .dwattr $C$DW$97, DW_AT_TI_symbol_name("_shadowMode")
    1290                      .dwattr $C$DW$97, DW_AT_type(*$C$DW$T$116)
    1291                      .dwattr $C$DW$97, DW_AT_location[DW_OP_reg0]
    1292              
TMS320C2000 Assembler PC v15.12.3 Tue Sep 20 20:30:07 2016

Tools Copyright (c) 1996-2015 Texas Instruments Incorporated
C:\Users\MaCHaDo\AppData\Local\Temp\2170410                          PAGE   25

    1293              
    1294              ;***************************************************************
    1295              ;* FNAME: _PWM_setShadowMode_CmpB       FR SIZE:   0           *
    1296              ;*                                                             *
    1297              ;* FUNCTION ENVIRONMENT                                        *
    1298              ;*                                                             *
    1299              ;* FUNCTION PROPERTIES                                         *
    1300              ;*                            0 Parameter,  0 Auto,  0 SOE     *
    1301              ;***************************************************************
    1302              
    1303              _PWM_setShadowMode_CmpB:
    1304              ;* AR4   assigned to _pwmHandle
    1305              $C$DW$98        .dwtag  DW_TAG_variable
    1306                      .dwattr $C$DW$98, DW_AT_name("pwmHandle")
    1307                      .dwattr $C$DW$98, DW_AT_TI_symbol_name("_pwmHandle")
    1308                      .dwattr $C$DW$98, DW_AT_type(*$C$DW$T$127)
    1309                      .dwattr $C$DW$98, DW_AT_location[DW_OP_reg12]
    1310              
    1311              ;* AL    assigned to _shadowMode
    1312              $C$DW$99        .dwtag  DW_TAG_variable
    1313                      .dwattr $C$DW$99, DW_AT_name("shadowMode")
    1314                      .dwattr $C$DW$99, DW_AT_TI_symbol_name("_shadowMode")
    1315                      .dwattr $C$DW$99, DW_AT_type(*$C$DW$T$116)
    1316                      .dwattr $C$DW$99, DW_AT_location[DW_OP_reg0]
    1317              
    1318                      .dwcfi  cfa_offset, -2
    1319                      .dwcfi  save_reg_to_mem, 26, 0
    1320                      .dwpsn  file "../drivers/source/pwm.c",line 1414,column 5,is_stmt,isa 0
    1321 0000009f 18FC          AND       *+XAR4[7],#0xffbf     ; [CPU_] |1414| 
         000000a0 FFBF 
    1322                      .dwpsn  file "../drivers/source/pwm.c",line 1417,column 5,is_stmt,isa 0
    1323 000000a1 5603          MOV       ACC,AL << #6          ; [CPU_] |1417| 
         000000a2 06A9 
    1324 000000a3 98FC          OR        *+XAR4[7],AL          ; [CPU_] |1417| 
    1325              $C$DW$100       .dwtag  DW_TAG_TI_branch
    1326                      .dwattr $C$DW$100, DW_AT_low_pc(0x00)
    1327                      .dwattr $C$DW$100, DW_AT_TI_return
    1328              
    1329 000000a4 0006          LRETR     ; [CPU_] 
    1330                      ; return occurs ; [] 
    1331                      .dwattr $C$DW$95, DW_AT_TI_end_file("../drivers/source/pwm.c")
    1332                      .dwattr $C$DW$95, DW_AT_TI_end_line(0x58c)
    1333                      .dwattr $C$DW$95, DW_AT_TI_end_column(0x01)
    1334                      .dwendentry
    1335                      .dwendtag $C$DW$95
    1336              
    1337 000000a5               .sect   ".text"
    1338                      .clink
    1339                      .global _PWM_setShadowMode_CmpA
    1340              
    1341              $C$DW$101       .dwtag  DW_TAG_subprogram
    1342                      .dwattr $C$DW$101, DW_AT_name("PWM_setShadowMode_CmpA")
    1343                      .dwattr $C$DW$101, DW_AT_low_pc(_PWM_setShadowMode_CmpA)
    1344                      .dwattr $C$DW$101, DW_AT_high_pc(0x00)
    1345                      .dwattr $C$DW$101, DW_AT_TI_symbol_name("_PWM_setShadowMode_CmpA")
TMS320C2000 Assembler PC v15.12.3 Tue Sep 20 20:30:07 2016

Tools Copyright (c) 1996-2015 Texas Instruments Incorporated
C:\Users\MaCHaDo\AppData\Local\Temp\2170410                          PAGE   26

    1346                      .dwattr $C$DW$101, DW_AT_external
    1347                      .dwattr $C$DW$101, DW_AT_TI_begin_file("../drivers/source/pwm.c")
    1348                      .dwattr $C$DW$101, DW_AT_TI_begin_line(0x571)
    1349                      .dwattr $C$DW$101, DW_AT_TI_begin_column(0x06)
    1350                      .dwattr $C$DW$101, DW_AT_TI_max_frame_size(-2)
    1351                      .dwpsn  file "../drivers/source/pwm.c",line 1394,column 1,is_stmt,address _PWM_setShadowMode_CmpA,isa
    1352              
    1353                      .dwfde $C$DW$CIE, _PWM_setShadowMode_CmpA
    1354              $C$DW$102       .dwtag  DW_TAG_formal_parameter
    1355                      .dwattr $C$DW$102, DW_AT_name("pwmHandle")
    1356                      .dwattr $C$DW$102, DW_AT_TI_symbol_name("_pwmHandle")
    1357                      .dwattr $C$DW$102, DW_AT_type(*$C$DW$T$33)
    1358                      .dwattr $C$DW$102, DW_AT_location[DW_OP_reg12]
    1359              
    1360              $C$DW$103       .dwtag  DW_TAG_formal_parameter
    1361                      .dwattr $C$DW$103, DW_AT_name("shadowMode")
    1362                      .dwattr $C$DW$103, DW_AT_TI_symbol_name("_shadowMode")
    1363                      .dwattr $C$DW$103, DW_AT_type(*$C$DW$T$116)
    1364                      .dwattr $C$DW$103, DW_AT_location[DW_OP_reg0]
    1365              
    1366              
    1367              ;***************************************************************
    1368              ;* FNAME: _PWM_setShadowMode_CmpA       FR SIZE:   0           *
    1369              ;*                                                             *
    1370              ;* FUNCTION ENVIRONMENT                                        *
    1371              ;*                                                             *
    1372              ;* FUNCTION PROPERTIES                                         *
    1373              ;*                            0 Parameter,  0 Auto,  0 SOE     *
    1374              ;***************************************************************
    1375              
    1376              _PWM_setShadowMode_CmpA:
    1377              ;* AR4   assigned to _pwmHandle
    1378              $C$DW$104       .dwtag  DW_TAG_variable
    1379                      .dwattr $C$DW$104, DW_AT_name("pwmHandle")
    1380                      .dwattr $C$DW$104, DW_AT_TI_symbol_name("_pwmHandle")
    1381                      .dwattr $C$DW$104, DW_AT_type(*$C$DW$T$127)
    1382                      .dwattr $C$DW$104, DW_AT_location[DW_OP_reg12]
    1383              
    1384              ;* AL    assigned to _shadowMode
    1385              $C$DW$105       .dwtag  DW_TAG_variable
    1386                      .dwattr $C$DW$105, DW_AT_name("shadowMode")
    1387                      .dwattr $C$DW$105, DW_AT_TI_symbol_name("_shadowMode")
    1388                      .dwattr $C$DW$105, DW_AT_type(*$C$DW$T$116)
    1389                      .dwattr $C$DW$105, DW_AT_location[DW_OP_reg0]
    1390              
    1391                      .dwcfi  cfa_offset, -2
    1392                      .dwcfi  save_reg_to_mem, 26, 0
    1393                      .dwpsn  file "../drivers/source/pwm.c",line 1399,column 5,is_stmt,isa 0
    1394 000000a5 18FC          AND       *+XAR4[7],#0xffef     ; [CPU_] |1399| 
         000000a6 FFEF 
    1395                      .dwpsn  file "../drivers/source/pwm.c",line 1402,column 5,is_stmt,isa 0
    1396 000000a7 5603          MOV       ACC,AL << #4          ; [CPU_] |1402| 
         000000a8 04A9 
    1397 000000a9 98FC          OR        *+XAR4[7],AL          ; [CPU_] |1402| 
    1398              $C$DW$106       .dwtag  DW_TAG_TI_branch
TMS320C2000 Assembler PC v15.12.3 Tue Sep 20 20:30:07 2016

Tools Copyright (c) 1996-2015 Texas Instruments Incorporated
C:\Users\MaCHaDo\AppData\Local\Temp\2170410                          PAGE   27

    1399                      .dwattr $C$DW$106, DW_AT_low_pc(0x00)
    1400                      .dwattr $C$DW$106, DW_AT_TI_return
    1401              
    1402 000000aa 0006          LRETR     ; [CPU_] 
    1403                      ; return occurs ; [] 
    1404                      .dwattr $C$DW$101, DW_AT_TI_end_file("../drivers/source/pwm.c")
    1405                      .dwattr $C$DW$101, DW_AT_TI_end_line(0x57d)
    1406                      .dwattr $C$DW$101, DW_AT_TI_end_column(0x01)
    1407                      .dwendentry
    1408                      .dwendtag $C$DW$101
    1409              
    1410 000000ab               .sect   ".text"
    1411                      .clink
    1412                      .global _PWM_setRunMode
    1413              
    1414              $C$DW$107       .dwtag  DW_TAG_subprogram
    1415                      .dwattr $C$DW$107, DW_AT_name("PWM_setRunMode")
    1416                      .dwattr $C$DW$107, DW_AT_low_pc(_PWM_setRunMode)
    1417                      .dwattr $C$DW$107, DW_AT_high_pc(0x00)
    1418                      .dwattr $C$DW$107, DW_AT_TI_symbol_name("_PWM_setRunMode")
    1419                      .dwattr $C$DW$107, DW_AT_external
    1420                      .dwattr $C$DW$107, DW_AT_TI_begin_file("../drivers/source/pwm.c")
    1421                      .dwattr $C$DW$107, DW_AT_TI_begin_line(0x526)
    1422                      .dwattr $C$DW$107, DW_AT_TI_begin_column(0x06)
    1423                      .dwattr $C$DW$107, DW_AT_TI_max_frame_size(-2)
    1424                      .dwpsn  file "../drivers/source/pwm.c",line 1319,column 1,is_stmt,address _PWM_setRunMode,isa 0
    1425              
    1426                      .dwfde $C$DW$CIE, _PWM_setRunMode
    1427              $C$DW$108       .dwtag  DW_TAG_formal_parameter
    1428                      .dwattr $C$DW$108, DW_AT_name("pwmHandle")
    1429                      .dwattr $C$DW$108, DW_AT_TI_symbol_name("_pwmHandle")
    1430                      .dwattr $C$DW$108, DW_AT_type(*$C$DW$T$33)
    1431                      .dwattr $C$DW$108, DW_AT_location[DW_OP_reg12]
    1432              
    1433              $C$DW$109       .dwtag  DW_TAG_formal_parameter
    1434                      .dwattr $C$DW$109, DW_AT_name("runMode")
    1435                      .dwattr $C$DW$109, DW_AT_TI_symbol_name("_runMode")
    1436                      .dwattr $C$DW$109, DW_AT_type(*$C$DW$T$107)
    1437                      .dwattr $C$DW$109, DW_AT_location[DW_OP_reg0]
    1438              
    1439              
    1440              ;***************************************************************
    1441              ;* FNAME: _PWM_setRunMode               FR SIZE:   0           *
    1442              ;*                                                             *
    1443              ;* FUNCTION ENVIRONMENT                                        *
    1444              ;*                                                             *
    1445              ;* FUNCTION PROPERTIES                                         *
    1446              ;*                            0 Parameter,  0 Auto,  0 SOE     *
    1447              ;***************************************************************
    1448              
    1449              _PWM_setRunMode:
    1450              ;* AR4   assigned to _pwmHandle
    1451              $C$DW$110       .dwtag  DW_TAG_variable
    1452                      .dwattr $C$DW$110, DW_AT_name("pwmHandle")
    1453                      .dwattr $C$DW$110, DW_AT_TI_symbol_name("_pwmHandle")
TMS320C2000 Assembler PC v15.12.3 Tue Sep 20 20:30:07 2016

Tools Copyright (c) 1996-2015 Texas Instruments Incorporated
C:\Users\MaCHaDo\AppData\Local\Temp\2170410                          PAGE   28

    1454                      .dwattr $C$DW$110, DW_AT_type(*$C$DW$T$127)
    1455                      .dwattr $C$DW$110, DW_AT_location[DW_OP_reg12]
    1456              
    1457              ;* AL    assigned to _runMode
    1458              $C$DW$111       .dwtag  DW_TAG_variable
    1459                      .dwattr $C$DW$111, DW_AT_name("runMode")
    1460                      .dwattr $C$DW$111, DW_AT_TI_symbol_name("_runMode")
    1461                      .dwattr $C$DW$111, DW_AT_type(*$C$DW$T$107)
    1462                      .dwattr $C$DW$111, DW_AT_location[DW_OP_reg0]
    1463              
    1464                      .dwcfi  cfa_offset, -2
    1465                      .dwcfi  save_reg_to_mem, 26, 0
    1466                      .dwpsn  file "../drivers/source/pwm.c",line 1324,column 5,is_stmt,isa 0
    1467 000000ab 18C4          AND       *+XAR4[0],#0x3fff     ; [CPU_] |1324| 
         000000ac 3FFF 
    1468                      .dwpsn  file "../drivers/source/pwm.c",line 1327,column 5,is_stmt,isa 0
    1469 000000ad 98C4          OR        *+XAR4[0],AL          ; [CPU_] |1327| 
    1470              $C$DW$112       .dwtag  DW_TAG_TI_branch
    1471                      .dwattr $C$DW$112, DW_AT_low_pc(0x00)
    1472                      .dwattr $C$DW$112, DW_AT_TI_return
    1473              
    1474 000000ae 0006          LRETR     ; [CPU_] 
    1475                      ; return occurs ; [] 
    1476                      .dwattr $C$DW$107, DW_AT_TI_end_file("../drivers/source/pwm.c")
    1477                      .dwattr $C$DW$107, DW_AT_TI_end_line(0x532)
    1478                      .dwattr $C$DW$107, DW_AT_TI_end_column(0x01)
    1479                      .dwendentry
    1480                      .dwendtag $C$DW$107
    1481              
    1482 000000af               .sect   ".text"
    1483                      .clink
    1484                      .global _PWM_setPhaseDir
    1485              
    1486              $C$DW$113       .dwtag  DW_TAG_subprogram
    1487                      .dwattr $C$DW$113, DW_AT_name("PWM_setPhaseDir")
    1488                      .dwattr $C$DW$113, DW_AT_low_pc(_PWM_setPhaseDir)
    1489                      .dwattr $C$DW$113, DW_AT_high_pc(0x00)
    1490                      .dwattr $C$DW$113, DW_AT_TI_symbol_name("_PWM_setPhaseDir")
    1491                      .dwattr $C$DW$113, DW_AT_external
    1492                      .dwattr $C$DW$113, DW_AT_TI_begin_file("../drivers/source/pwm.c")
    1493                      .dwattr $C$DW$113, DW_AT_TI_begin_line(0x508)
    1494                      .dwattr $C$DW$113, DW_AT_TI_begin_column(0x06)
    1495                      .dwattr $C$DW$113, DW_AT_TI_max_frame_size(-2)
    1496                      .dwpsn  file "../drivers/source/pwm.c",line 1289,column 1,is_stmt,address _PWM_setPhaseDir,isa 0
    1497              
    1498                      .dwfde $C$DW$CIE, _PWM_setPhaseDir
    1499              $C$DW$114       .dwtag  DW_TAG_formal_parameter
    1500                      .dwattr $C$DW$114, DW_AT_name("pwmHandle")
    1501                      .dwattr $C$DW$114, DW_AT_TI_symbol_name("_pwmHandle")
    1502                      .dwattr $C$DW$114, DW_AT_type(*$C$DW$T$33)
    1503                      .dwattr $C$DW$114, DW_AT_location[DW_OP_reg12]
    1504              
    1505              $C$DW$115       .dwtag  DW_TAG_formal_parameter
    1506                      .dwattr $C$DW$115, DW_AT_name("phaseDir")
    1507                      .dwattr $C$DW$115, DW_AT_TI_symbol_name("_phaseDir")
TMS320C2000 Assembler PC v15.12.3 Tue Sep 20 20:30:07 2016

Tools Copyright (c) 1996-2015 Texas Instruments Incorporated
C:\Users\MaCHaDo\AppData\Local\Temp\2170410                          PAGE   29

    1508                      .dwattr $C$DW$115, DW_AT_type(*$C$DW$T$101)
    1509                      .dwattr $C$DW$115, DW_AT_location[DW_OP_reg0]
    1510              
    1511              
    1512              ;***************************************************************
    1513              ;* FNAME: _PWM_setPhaseDir              FR SIZE:   0           *
    1514              ;*                                                             *
    1515              ;* FUNCTION ENVIRONMENT                                        *
    1516              ;*                                                             *
    1517              ;* FUNCTION PROPERTIES                                         *
    1518              ;*                            0 Parameter,  0 Auto,  0 SOE     *
    1519              ;***************************************************************
    1520              
    1521              _PWM_setPhaseDir:
    1522              ;* AR4   assigned to _pwmHandle
    1523              $C$DW$116       .dwtag  DW_TAG_variable
    1524                      .dwattr $C$DW$116, DW_AT_name("pwmHandle")
    1525                      .dwattr $C$DW$116, DW_AT_TI_symbol_name("_pwmHandle")
    1526                      .dwattr $C$DW$116, DW_AT_type(*$C$DW$T$127)
    1527                      .dwattr $C$DW$116, DW_AT_location[DW_OP_reg12]
    1528              
    1529              ;* AL    assigned to _phaseDir
    1530              $C$DW$117       .dwtag  DW_TAG_variable
    1531                      .dwattr $C$DW$117, DW_AT_name("phaseDir")
    1532                      .dwattr $C$DW$117, DW_AT_TI_symbol_name("_phaseDir")
    1533                      .dwattr $C$DW$117, DW_AT_type(*$C$DW$T$101)
    1534                      .dwattr $C$DW$117, DW_AT_location[DW_OP_reg0]
    1535              
    1536                      .dwcfi  cfa_offset, -2
    1537                      .dwcfi  save_reg_to_mem, 26, 0
    1538                      .dwpsn  file "../drivers/source/pwm.c",line 1294,column 5,is_stmt,isa 0
    1539 000000af 18C4          AND       *+XAR4[0],#0xdfff     ; [CPU_] |1294| 
         000000b0 DFFF 
    1540                      .dwpsn  file "../drivers/source/pwm.c",line 1297,column 5,is_stmt,isa 0
    1541 000000b1 98C4          OR        *+XAR4[0],AL          ; [CPU_] |1297| 
    1542              $C$DW$118       .dwtag  DW_TAG_TI_branch
    1543                      .dwattr $C$DW$118, DW_AT_low_pc(0x00)
    1544                      .dwattr $C$DW$118, DW_AT_TI_return
    1545              
    1546 000000b2 0006          LRETR     ; [CPU_] 
    1547                      ; return occurs ; [] 
    1548                      .dwattr $C$DW$113, DW_AT_TI_end_file("../drivers/source/pwm.c")
    1549                      .dwattr $C$DW$113, DW_AT_TI_end_line(0x514)
    1550                      .dwattr $C$DW$113, DW_AT_TI_end_column(0x01)
    1551                      .dwendentry
    1552                      .dwendtag $C$DW$113
    1553              
    1554 000000b3               .sect   ".text"
    1555                      .clink
    1556                      .global _PWM_setPhase
    1557              
    1558              $C$DW$119       .dwtag  DW_TAG_subprogram
    1559                      .dwattr $C$DW$119, DW_AT_name("PWM_setPhase")
    1560                      .dwattr $C$DW$119, DW_AT_low_pc(_PWM_setPhase)
    1561                      .dwattr $C$DW$119, DW_AT_high_pc(0x00)
TMS320C2000 Assembler PC v15.12.3 Tue Sep 20 20:30:07 2016

Tools Copyright (c) 1996-2015 Texas Instruments Incorporated
C:\Users\MaCHaDo\AppData\Local\Temp\2170410                          PAGE   30

    1562                      .dwattr $C$DW$119, DW_AT_TI_symbol_name("_PWM_setPhase")
    1563                      .dwattr $C$DW$119, DW_AT_external
    1564                      .dwattr $C$DW$119, DW_AT_TI_begin_file("../drivers/source/pwm.c")
    1565                      .dwattr $C$DW$119, DW_AT_TI_begin_line(0x4fd)
    1566                      .dwattr $C$DW$119, DW_AT_TI_begin_column(0x06)
    1567                      .dwattr $C$DW$119, DW_AT_TI_max_frame_size(-2)
    1568                      .dwpsn  file "../drivers/source/pwm.c",line 1278,column 1,is_stmt,address _PWM_setPhase,isa 0
    1569              
    1570                      .dwfde $C$DW$CIE, _PWM_setPhase
    1571              $C$DW$120       .dwtag  DW_TAG_formal_parameter
    1572                      .dwattr $C$DW$120, DW_AT_name("pwmHandle")
    1573                      .dwattr $C$DW$120, DW_AT_TI_symbol_name("_pwmHandle")
    1574                      .dwattr $C$DW$120, DW_AT_type(*$C$DW$T$33)
    1575                      .dwattr $C$DW$120, DW_AT_location[DW_OP_reg12]
    1576              
    1577              $C$DW$121       .dwtag  DW_TAG_formal_parameter
    1578                      .dwattr $C$DW$121, DW_AT_name("phase")
    1579                      .dwattr $C$DW$121, DW_AT_TI_symbol_name("_phase")
    1580                      .dwattr $C$DW$121, DW_AT_type(*$C$DW$T$146)
    1581                      .dwattr $C$DW$121, DW_AT_location[DW_OP_reg0]
    1582              
    1583              
    1584              ;***************************************************************
    1585              ;* FNAME: _PWM_setPhase                 FR SIZE:   0           *
    1586              ;*                                                             *
    1587              ;* FUNCTION ENVIRONMENT                                        *
    1588              ;*                                                             *
    1589              ;* FUNCTION PROPERTIES                                         *
    1590              ;*                            0 Parameter,  0 Auto,  0 SOE     *
    1591              ;***************************************************************
    1592              
    1593              _PWM_setPhase:
    1594              ;* AR4   assigned to _pwmHandle
    1595              $C$DW$122       .dwtag  DW_TAG_variable
    1596                      .dwattr $C$DW$122, DW_AT_name("pwmHandle")
    1597                      .dwattr $C$DW$122, DW_AT_TI_symbol_name("_pwmHandle")
    1598                      .dwattr $C$DW$122, DW_AT_type(*$C$DW$T$127)
    1599                      .dwattr $C$DW$122, DW_AT_location[DW_OP_reg12]
    1600              
    1601              ;* AL    assigned to _phase
    1602              $C$DW$123       .dwtag  DW_TAG_variable
    1603                      .dwattr $C$DW$123, DW_AT_name("phase")
    1604                      .dwattr $C$DW$123, DW_AT_TI_symbol_name("_phase")
    1605                      .dwattr $C$DW$123, DW_AT_type(*$C$DW$T$146)
    1606                      .dwattr $C$DW$123, DW_AT_location[DW_OP_reg0]
    1607              
    1608                      .dwcfi  cfa_offset, -2
    1609                      .dwcfi  save_reg_to_mem, 26, 0
    1610                      .dwpsn  file "../drivers/source/pwm.c",line 1282,column 5,is_stmt,isa 0
    1611 000000b3 96DC          MOV       *+XAR4[3],AL          ; [CPU_] |1282| 
    1612              $C$DW$124       .dwtag  DW_TAG_TI_branch
    1613                      .dwattr $C$DW$124, DW_AT_low_pc(0x00)
    1614                      .dwattr $C$DW$124, DW_AT_TI_return
    1615              
    1616 000000b4 0006          LRETR     ; [CPU_] 
TMS320C2000 Assembler PC v15.12.3 Tue Sep 20 20:30:07 2016

Tools Copyright (c) 1996-2015 Texas Instruments Incorporated
C:\Users\MaCHaDo\AppData\Local\Temp\2170410                          PAGE   31

    1617                      ; return occurs ; [] 
    1618                      .dwattr $C$DW$119, DW_AT_TI_end_file("../drivers/source/pwm.c")
    1619                      .dwattr $C$DW$119, DW_AT_TI_end_line(0x505)
    1620                      .dwattr $C$DW$119, DW_AT_TI_end_column(0x01)
    1621                      .dwendentry
    1622                      .dwendtag $C$DW$119
    1623              
    1624 000000b5               .sect   ".text"
    1625                      .clink
    1626                      .global _PWM_setPeriodLoad
    1627              
    1628              $C$DW$125       .dwtag  DW_TAG_subprogram
    1629                      .dwattr $C$DW$125, DW_AT_name("PWM_setPeriodLoad")
    1630                      .dwattr $C$DW$125, DW_AT_low_pc(_PWM_setPeriodLoad)
    1631                      .dwattr $C$DW$125, DW_AT_high_pc(0x00)
    1632                      .dwattr $C$DW$125, DW_AT_TI_symbol_name("_PWM_setPeriodLoad")
    1633                      .dwattr $C$DW$125, DW_AT_external
    1634                      .dwattr $C$DW$125, DW_AT_TI_begin_file("../drivers/source/pwm.c")
    1635                      .dwattr $C$DW$125, DW_AT_TI_begin_line(0x517)
    1636                      .dwattr $C$DW$125, DW_AT_TI_begin_column(0x06)
    1637                      .dwattr $C$DW$125, DW_AT_TI_max_frame_size(-2)
    1638                      .dwpsn  file "../drivers/source/pwm.c",line 1304,column 1,is_stmt,address _PWM_setPeriodLoad,isa 0
    1639              
    1640                      .dwfde $C$DW$CIE, _PWM_setPeriodLoad
    1641              $C$DW$126       .dwtag  DW_TAG_formal_parameter
    1642                      .dwattr $C$DW$126, DW_AT_name("pwmHandle")
    1643                      .dwattr $C$DW$126, DW_AT_TI_symbol_name("_pwmHandle")
    1644                      .dwattr $C$DW$126, DW_AT_type(*$C$DW$T$33)
    1645                      .dwattr $C$DW$126, DW_AT_location[DW_OP_reg12]
    1646              
    1647              $C$DW$127       .dwtag  DW_TAG_formal_parameter
    1648                      .dwattr $C$DW$127, DW_AT_name("periodLoad")
    1649                      .dwattr $C$DW$127, DW_AT_TI_symbol_name("_periodLoad")
    1650                      .dwattr $C$DW$127, DW_AT_type(*$C$DW$T$104)
    1651                      .dwattr $C$DW$127, DW_AT_location[DW_OP_reg0]
    1652              
    1653              
    1654              ;***************************************************************
    1655              ;* FNAME: _PWM_setPeriodLoad            FR SIZE:   0           *
    1656              ;*                                                             *
    1657              ;* FUNCTION ENVIRONMENT                                        *
    1658              ;*                                                             *
    1659              ;* FUNCTION PROPERTIES                                         *
    1660              ;*                            0 Parameter,  0 Auto,  0 SOE     *
    1661              ;***************************************************************
    1662              
    1663              _PWM_setPeriodLoad:
    1664              ;* AR4   assigned to _pwmHandle
    1665              $C$DW$128       .dwtag  DW_TAG_variable
    1666                      .dwattr $C$DW$128, DW_AT_name("pwmHandle")
    1667                      .dwattr $C$DW$128, DW_AT_TI_symbol_name("_pwmHandle")
    1668                      .dwattr $C$DW$128, DW_AT_type(*$C$DW$T$127)
    1669                      .dwattr $C$DW$128, DW_AT_location[DW_OP_reg12]
    1670              
    1671              ;* AL    assigned to _periodLoad
TMS320C2000 Assembler PC v15.12.3 Tue Sep 20 20:30:07 2016

Tools Copyright (c) 1996-2015 Texas Instruments Incorporated
C:\Users\MaCHaDo\AppData\Local\Temp\2170410                          PAGE   32

    1672              $C$DW$129       .dwtag  DW_TAG_variable
    1673                      .dwattr $C$DW$129, DW_AT_name("periodLoad")
    1674                      .dwattr $C$DW$129, DW_AT_TI_symbol_name("_periodLoad")
    1675                      .dwattr $C$DW$129, DW_AT_type(*$C$DW$T$104)
    1676                      .dwattr $C$DW$129, DW_AT_location[DW_OP_reg0]
    1677              
    1678                      .dwcfi  cfa_offset, -2
    1679                      .dwcfi  save_reg_to_mem, 26, 0
    1680                      .dwpsn  file "../drivers/source/pwm.c",line 1309,column 5,is_stmt,isa 0
    1681 000000b5 18C4          AND       *+XAR4[0],#0xfff7     ; [CPU_] |1309| 
         000000b6 FFF7 
    1682                      .dwpsn  file "../drivers/source/pwm.c",line 1312,column 5,is_stmt,isa 0
    1683 000000b7 98C4          OR        *+XAR4[0],AL          ; [CPU_] |1312| 
    1684              $C$DW$130       .dwtag  DW_TAG_TI_branch
    1685                      .dwattr $C$DW$130, DW_AT_low_pc(0x00)
    1686                      .dwattr $C$DW$130, DW_AT_TI_return
    1687              
    1688 000000b8 0006          LRETR     ; [CPU_] 
    1689                      ; return occurs ; [] 
    1690                      .dwattr $C$DW$125, DW_AT_TI_end_file("../drivers/source/pwm.c")
    1691                      .dwattr $C$DW$125, DW_AT_TI_end_line(0x523)
    1692                      .dwattr $C$DW$125, DW_AT_TI_end_column(0x01)
    1693                      .dwendentry
    1694                      .dwendtag $C$DW$125
    1695              
    1696 000000b9               .sect   ".text"
    1697                      .clink
    1698                      .global _PWM_setPeriodHr
    1699              
    1700              $C$DW$131       .dwtag  DW_TAG_subprogram
    1701                      .dwattr $C$DW$131, DW_AT_name("PWM_setPeriodHr")
    1702                      .dwattr $C$DW$131, DW_AT_low_pc(_PWM_setPeriodHr)
    1703                      .dwattr $C$DW$131, DW_AT_high_pc(0x00)
    1704                      .dwattr $C$DW$131, DW_AT_TI_symbol_name("_PWM_setPeriodHr")
    1705                      .dwattr $C$DW$131, DW_AT_external
    1706                      .dwattr $C$DW$131, DW_AT_TI_begin_file("../drivers/source/pwm.c")
    1707                      .dwattr $C$DW$131, DW_AT_TI_begin_line(0x4ee)
    1708                      .dwattr $C$DW$131, DW_AT_TI_begin_column(0x06)
    1709                      .dwattr $C$DW$131, DW_AT_TI_max_frame_size(-2)
    1710                      .dwpsn  file "../drivers/source/pwm.c",line 1263,column 1,is_stmt,address _PWM_setPeriodHr,isa 0
    1711              
    1712                      .dwfde $C$DW$CIE, _PWM_setPeriodHr
    1713              $C$DW$132       .dwtag  DW_TAG_formal_parameter
    1714                      .dwattr $C$DW$132, DW_AT_name("pwmHandle")
    1715                      .dwattr $C$DW$132, DW_AT_TI_symbol_name("_pwmHandle")
    1716                      .dwattr $C$DW$132, DW_AT_type(*$C$DW$T$33)
    1717                      .dwattr $C$DW$132, DW_AT_location[DW_OP_reg12]
    1718              
    1719              $C$DW$133       .dwtag  DW_TAG_formal_parameter
    1720                      .dwattr $C$DW$133, DW_AT_name("period")
    1721                      .dwattr $C$DW$133, DW_AT_TI_symbol_name("_period")
    1722                      .dwattr $C$DW$133, DW_AT_type(*$C$DW$T$146)
    1723                      .dwattr $C$DW$133, DW_AT_location[DW_OP_reg0]
    1724              
    1725              
TMS320C2000 Assembler PC v15.12.3 Tue Sep 20 20:30:07 2016

Tools Copyright (c) 1996-2015 Texas Instruments Incorporated
C:\Users\MaCHaDo\AppData\Local\Temp\2170410                          PAGE   33

    1726              ;***************************************************************
    1727              ;* FNAME: _PWM_setPeriodHr              FR SIZE:   0           *
    1728              ;*                                                             *
    1729              ;* FUNCTION ENVIRONMENT                                        *
    1730              ;*                                                             *
    1731              ;* FUNCTION PROPERTIES                                         *
    1732              ;*                            0 Parameter,  0 Auto,  0 SOE     *
    1733              ;***************************************************************
    1734              
    1735              _PWM_setPeriodHr:
    1736              ;* AR4   assigned to _pwmHandle
    1737              $C$DW$134       .dwtag  DW_TAG_variable
    1738                      .dwattr $C$DW$134, DW_AT_name("pwmHandle")
    1739                      .dwattr $C$DW$134, DW_AT_TI_symbol_name("_pwmHandle")
    1740                      .dwattr $C$DW$134, DW_AT_type(*$C$DW$T$127)
    1741                      .dwattr $C$DW$134, DW_AT_location[DW_OP_reg12]
    1742              
    1743              ;* AL    assigned to _period
    1744              $C$DW$135       .dwtag  DW_TAG_variable
    1745                      .dwattr $C$DW$135, DW_AT_name("period")
    1746                      .dwattr $C$DW$135, DW_AT_TI_symbol_name("_period")
    1747                      .dwattr $C$DW$135, DW_AT_type(*$C$DW$T$146)
    1748                      .dwattr $C$DW$135, DW_AT_location[DW_OP_reg0]
    1749              
    1750                      .dwcfi  cfa_offset, -2
    1751                      .dwcfi  save_reg_to_mem, 26, 0
    1752 000000b9 7622   EALLOW
    1753                      .dwpsn  file "../drivers/source/pwm.c",line 1269,column 5,is_stmt,isa 0
    1754 000000ba 96F4          MOV       *+XAR4[6],AL          ; [CPU_] |1269| 
    1755 000000bb 761A   EDIS
    1756 000000bc FF69          SPM       #0                    ; [CPU_] 
    1757              $C$DW$136       .dwtag  DW_TAG_TI_branch
    1758                      .dwattr $C$DW$136, DW_AT_low_pc(0x00)
    1759                      .dwattr $C$DW$136, DW_AT_TI_return
    1760              
    1761 000000bd 0006          LRETR     ; [CPU_] 
    1762                      ; return occurs ; [] 
    1763                      .dwattr $C$DW$131, DW_AT_TI_end_file("../drivers/source/pwm.c")
    1764                      .dwattr $C$DW$131, DW_AT_TI_end_line(0x4fa)
    1765                      .dwattr $C$DW$131, DW_AT_TI_end_column(0x01)
    1766                      .dwendentry
    1767                      .dwendtag $C$DW$131
    1768              
    1769 000000be               .sect   ".text"
    1770                      .clink
    1771                      .global _PWM_setPeriod
    1772              
    1773              $C$DW$137       .dwtag  DW_TAG_subprogram
    1774                      .dwattr $C$DW$137, DW_AT_name("PWM_setPeriod")
    1775                      .dwattr $C$DW$137, DW_AT_low_pc(_PWM_setPeriod)
    1776                      .dwattr $C$DW$137, DW_AT_high_pc(0x00)
    1777                      .dwattr $C$DW$137, DW_AT_TI_symbol_name("_PWM_setPeriod")
    1778                      .dwattr $C$DW$137, DW_AT_external
    1779                      .dwattr $C$DW$137, DW_AT_TI_begin_file("../drivers/source/pwm.c")
    1780                      .dwattr $C$DW$137, DW_AT_TI_begin_line(0x4e2)
TMS320C2000 Assembler PC v15.12.3 Tue Sep 20 20:30:07 2016

Tools Copyright (c) 1996-2015 Texas Instruments Incorporated
C:\Users\MaCHaDo\AppData\Local\Temp\2170410                          PAGE   34

    1781                      .dwattr $C$DW$137, DW_AT_TI_begin_column(0x06)
    1782                      .dwattr $C$DW$137, DW_AT_TI_max_frame_size(-2)
    1783                      .dwpsn  file "../drivers/source/pwm.c",line 1251,column 1,is_stmt,address _PWM_setPeriod,isa 0
    1784              
    1785                      .dwfde $C$DW$CIE, _PWM_setPeriod
    1786              $C$DW$138       .dwtag  DW_TAG_formal_parameter
    1787                      .dwattr $C$DW$138, DW_AT_name("pwmHandle")
    1788                      .dwattr $C$DW$138, DW_AT_TI_symbol_name("_pwmHandle")
    1789                      .dwattr $C$DW$138, DW_AT_type(*$C$DW$T$33)
    1790                      .dwattr $C$DW$138, DW_AT_location[DW_OP_reg12]
    1791              
    1792              $C$DW$139       .dwtag  DW_TAG_formal_parameter
    1793                      .dwattr $C$DW$139, DW_AT_name("period")
    1794                      .dwattr $C$DW$139, DW_AT_TI_symbol_name("_period")
    1795                      .dwattr $C$DW$139, DW_AT_type(*$C$DW$T$146)
    1796                      .dwattr $C$DW$139, DW_AT_location[DW_OP_reg0]
    1797              
    1798              
    1799              ;***************************************************************
    1800              ;* FNAME: _PWM_setPeriod                FR SIZE:   0           *
    1801              ;*                                                             *
    1802              ;* FUNCTION ENVIRONMENT                                        *
    1803              ;*                                                             *
    1804              ;* FUNCTION PROPERTIES                                         *
    1805              ;*                            0 Parameter,  0 Auto,  0 SOE     *
    1806              ;***************************************************************
    1807              
    1808              _PWM_setPeriod:
    1809              ;* AR4   assigned to _pwmHandle
    1810              $C$DW$140       .dwtag  DW_TAG_variable
    1811                      .dwattr $C$DW$140, DW_AT_name("pwmHandle")
    1812                      .dwattr $C$DW$140, DW_AT_TI_symbol_name("_pwmHandle")
    1813                      .dwattr $C$DW$140, DW_AT_type(*$C$DW$T$127)
    1814                      .dwattr $C$DW$140, DW_AT_location[DW_OP_reg12]
    1815              
    1816              ;* AL    assigned to _period
    1817              $C$DW$141       .dwtag  DW_TAG_variable
    1818                      .dwattr $C$DW$141, DW_AT_name("period")
    1819                      .dwattr $C$DW$141, DW_AT_TI_symbol_name("_period")
    1820                      .dwattr $C$DW$141, DW_AT_type(*$C$DW$T$146)
    1821                      .dwattr $C$DW$141, DW_AT_location[DW_OP_reg0]
    1822              
    1823                      .dwcfi  cfa_offset, -2
    1824                      .dwcfi  save_reg_to_mem, 26, 0
    1825                      .dwpsn  file "../drivers/source/pwm.c",line 1256,column 5,is_stmt,isa 0
    1826 000000be 96EC          MOV       *+XAR4[5],AL          ; [CPU_] |1256| 
    1827              $C$DW$142       .dwtag  DW_TAG_TI_branch
    1828                      .dwattr $C$DW$142, DW_AT_low_pc(0x00)
    1829                      .dwattr $C$DW$142, DW_AT_TI_return
    1830              
    1831 000000bf 0006          LRETR     ; [CPU_] 
    1832                      ; return occurs ; [] 
    1833                      .dwattr $C$DW$137, DW_AT_TI_end_file("../drivers/source/pwm.c")
    1834                      .dwattr $C$DW$137, DW_AT_TI_end_line(0x4eb)
    1835                      .dwattr $C$DW$137, DW_AT_TI_end_column(0x01)
TMS320C2000 Assembler PC v15.12.3 Tue Sep 20 20:30:07 2016

Tools Copyright (c) 1996-2015 Texas Instruments Incorporated
C:\Users\MaCHaDo\AppData\Local\Temp\2170410                          PAGE   35

    1836                      .dwendentry
    1837                      .dwendtag $C$DW$137
    1838              
    1839 000000c0               .sect   ".text"
    1840                      .clink
    1841                      .global _PWM_setLoadMode_CmpB
    1842              
    1843              $C$DW$143       .dwtag  DW_TAG_subprogram
    1844                      .dwattr $C$DW$143, DW_AT_name("PWM_setLoadMode_CmpB")
    1845                      .dwattr $C$DW$143, DW_AT_low_pc(_PWM_setLoadMode_CmpB)
    1846                      .dwattr $C$DW$143, DW_AT_high_pc(0x00)
    1847                      .dwattr $C$DW$143, DW_AT_TI_symbol_name("_PWM_setLoadMode_CmpB")
    1848                      .dwattr $C$DW$143, DW_AT_external
    1849                      .dwattr $C$DW$143, DW_AT_TI_begin_file("../drivers/source/pwm.c")
    1850                      .dwattr $C$DW$143, DW_AT_TI_begin_line(0x4d3)
    1851                      .dwattr $C$DW$143, DW_AT_TI_begin_column(0x06)
    1852                      .dwattr $C$DW$143, DW_AT_TI_max_frame_size(-2)
    1853                      .dwpsn  file "../drivers/source/pwm.c",line 1236,column 1,is_stmt,address _PWM_setLoadMode_CmpB,isa 0
    1854              
    1855                      .dwfde $C$DW$CIE, _PWM_setLoadMode_CmpB
    1856              $C$DW$144       .dwtag  DW_TAG_formal_parameter
    1857                      .dwattr $C$DW$144, DW_AT_name("pwmHandle")
    1858                      .dwattr $C$DW$144, DW_AT_TI_symbol_name("_pwmHandle")
    1859                      .dwattr $C$DW$144, DW_AT_type(*$C$DW$T$33)
    1860                      .dwattr $C$DW$144, DW_AT_location[DW_OP_reg12]
    1861              
    1862              $C$DW$145       .dwtag  DW_TAG_formal_parameter
    1863                      .dwattr $C$DW$145, DW_AT_name("loadMode")
    1864                      .dwattr $C$DW$145, DW_AT_TI_symbol_name("_loadMode")
    1865                      .dwattr $C$DW$145, DW_AT_type(*$C$DW$T$98)
    1866                      .dwattr $C$DW$145, DW_AT_location[DW_OP_reg0]
    1867              
    1868              
    1869              ;***************************************************************
    1870              ;* FNAME: _PWM_setLoadMode_CmpB         FR SIZE:   0           *
    1871              ;*                                                             *
    1872              ;* FUNCTION ENVIRONMENT                                        *
    1873              ;*                                                             *
    1874              ;* FUNCTION PROPERTIES                                         *
    1875              ;*                            0 Parameter,  0 Auto,  0 SOE     *
    1876              ;***************************************************************
    1877              
    1878              _PWM_setLoadMode_CmpB:
    1879              ;* AR4   assigned to _pwmHandle
    1880              $C$DW$146       .dwtag  DW_TAG_variable
    1881                      .dwattr $C$DW$146, DW_AT_name("pwmHandle")
    1882                      .dwattr $C$DW$146, DW_AT_TI_symbol_name("_pwmHandle")
    1883                      .dwattr $C$DW$146, DW_AT_type(*$C$DW$T$127)
    1884                      .dwattr $C$DW$146, DW_AT_location[DW_OP_reg12]
    1885              
    1886              ;* AL    assigned to _loadMode
    1887              $C$DW$147       .dwtag  DW_TAG_variable
    1888                      .dwattr $C$DW$147, DW_AT_name("loadMode")
    1889                      .dwattr $C$DW$147, DW_AT_TI_symbol_name("_loadMode")
    1890                      .dwattr $C$DW$147, DW_AT_type(*$C$DW$T$98)
TMS320C2000 Assembler PC v15.12.3 Tue Sep 20 20:30:07 2016

Tools Copyright (c) 1996-2015 Texas Instruments Incorporated
C:\Users\MaCHaDo\AppData\Local\Temp\2170410                          PAGE   36

    1891                      .dwattr $C$DW$147, DW_AT_location[DW_OP_reg0]
    1892              
    1893                      .dwcfi  cfa_offset, -2
    1894                      .dwcfi  save_reg_to_mem, 26, 0
    1895                      .dwpsn  file "../drivers/source/pwm.c",line 1241,column 5,is_stmt,isa 0
    1896 000000c0 18FC          AND       *+XAR4[7],#0xfff3     ; [CPU_] |1241| 
         000000c1 FFF3 
    1897                      .dwpsn  file "../drivers/source/pwm.c",line 1244,column 5,is_stmt,isa 0
    1898 000000c2 5603          MOV       ACC,AL << #2          ; [CPU_] |1244| 
         000000c3 02A9 
    1899 000000c4 98FC          OR        *+XAR4[7],AL          ; [CPU_] |1244| 
    1900              $C$DW$148       .dwtag  DW_TAG_TI_branch
    1901                      .dwattr $C$DW$148, DW_AT_low_pc(0x00)
    1902                      .dwattr $C$DW$148, DW_AT_TI_return
    1903              
    1904 000000c5 0006          LRETR     ; [CPU_] 
    1905                      ; return occurs ; [] 
    1906                      .dwattr $C$DW$143, DW_AT_TI_end_file("../drivers/source/pwm.c")
    1907                      .dwattr $C$DW$143, DW_AT_TI_end_line(0x4df)
    1908                      .dwattr $C$DW$143, DW_AT_TI_end_column(0x01)
    1909                      .dwendentry
    1910                      .dwendtag $C$DW$143
    1911              
    1912 000000c6               .sect   ".text"
    1913                      .clink
    1914                      .global _PWM_setLoadMode_CmpA
    1915              
    1916              $C$DW$149       .dwtag  DW_TAG_subprogram
    1917                      .dwattr $C$DW$149, DW_AT_name("PWM_setLoadMode_CmpA")
    1918                      .dwattr $C$DW$149, DW_AT_low_pc(_PWM_setLoadMode_CmpA)
    1919                      .dwattr $C$DW$149, DW_AT_high_pc(0x00)
    1920                      .dwattr $C$DW$149, DW_AT_TI_symbol_name("_PWM_setLoadMode_CmpA")
    1921                      .dwattr $C$DW$149, DW_AT_external
    1922                      .dwattr $C$DW$149, DW_AT_TI_begin_file("../drivers/source/pwm.c")
    1923                      .dwattr $C$DW$149, DW_AT_TI_begin_line(0x4c4)
    1924                      .dwattr $C$DW$149, DW_AT_TI_begin_column(0x06)
    1925                      .dwattr $C$DW$149, DW_AT_TI_max_frame_size(-2)
    1926                      .dwpsn  file "../drivers/source/pwm.c",line 1221,column 1,is_stmt,address _PWM_setLoadMode_CmpA,isa 0
    1927              
    1928                      .dwfde $C$DW$CIE, _PWM_setLoadMode_CmpA
    1929              $C$DW$150       .dwtag  DW_TAG_formal_parameter
    1930                      .dwattr $C$DW$150, DW_AT_name("pwmHandle")
    1931                      .dwattr $C$DW$150, DW_AT_TI_symbol_name("_pwmHandle")
    1932                      .dwattr $C$DW$150, DW_AT_type(*$C$DW$T$33)
    1933                      .dwattr $C$DW$150, DW_AT_location[DW_OP_reg12]
    1934              
    1935              $C$DW$151       .dwtag  DW_TAG_formal_parameter
    1936                      .dwattr $C$DW$151, DW_AT_name("loadMode")
    1937                      .dwattr $C$DW$151, DW_AT_TI_symbol_name("_loadMode")
    1938                      .dwattr $C$DW$151, DW_AT_type(*$C$DW$T$98)
    1939                      .dwattr $C$DW$151, DW_AT_location[DW_OP_reg0]
    1940              
    1941              
    1942              ;***************************************************************
    1943              ;* FNAME: _PWM_setLoadMode_CmpA         FR SIZE:   0           *
TMS320C2000 Assembler PC v15.12.3 Tue Sep 20 20:30:07 2016

Tools Copyright (c) 1996-2015 Texas Instruments Incorporated
C:\Users\MaCHaDo\AppData\Local\Temp\2170410                          PAGE   37

    1944              ;*                                                             *
    1945              ;* FUNCTION ENVIRONMENT                                        *
    1946              ;*                                                             *
    1947              ;* FUNCTION PROPERTIES                                         *
    1948              ;*                            0 Parameter,  0 Auto,  0 SOE     *
    1949              ;***************************************************************
    1950              
    1951              _PWM_setLoadMode_CmpA:
    1952              ;* AR4   assigned to _pwmHandle
    1953              $C$DW$152       .dwtag  DW_TAG_variable
    1954                      .dwattr $C$DW$152, DW_AT_name("pwmHandle")
    1955                      .dwattr $C$DW$152, DW_AT_TI_symbol_name("_pwmHandle")
    1956                      .dwattr $C$DW$152, DW_AT_type(*$C$DW$T$127)
    1957                      .dwattr $C$DW$152, DW_AT_location[DW_OP_reg12]
    1958              
    1959              ;* AL    assigned to _loadMode
    1960              $C$DW$153       .dwtag  DW_TAG_variable
    1961                      .dwattr $C$DW$153, DW_AT_name("loadMode")
    1962                      .dwattr $C$DW$153, DW_AT_TI_symbol_name("_loadMode")
    1963                      .dwattr $C$DW$153, DW_AT_type(*$C$DW$T$98)
    1964                      .dwattr $C$DW$153, DW_AT_location[DW_OP_reg0]
    1965              
    1966                      .dwcfi  cfa_offset, -2
    1967                      .dwcfi  save_reg_to_mem, 26, 0
    1968                      .dwpsn  file "../drivers/source/pwm.c",line 1226,column 5,is_stmt,isa 0
    1969 000000c6 18FC          AND       *+XAR4[7],#0xfffc     ; [CPU_] |1226| 
         000000c7 FFFC 
    1970                      .dwpsn  file "../drivers/source/pwm.c",line 1229,column 5,is_stmt,isa 0
    1971 000000c8 98FC          OR        *+XAR4[7],AL          ; [CPU_] |1229| 
    1972              $C$DW$154       .dwtag  DW_TAG_TI_branch
    1973                      .dwattr $C$DW$154, DW_AT_low_pc(0x00)
    1974                      .dwattr $C$DW$154, DW_AT_TI_return
    1975              
    1976 000000c9 0006          LRETR     ; [CPU_] 
    1977                      ; return occurs ; [] 
    1978                      .dwattr $C$DW$149, DW_AT_TI_end_file("../drivers/source/pwm.c")
    1979                      .dwattr $C$DW$149, DW_AT_TI_end_line(0x4d0)
    1980                      .dwattr $C$DW$149, DW_AT_TI_end_column(0x01)
    1981                      .dwendentry
    1982                      .dwendtag $C$DW$149
    1983              
    1984 000000ca               .sect   ".text"
    1985                      .clink
    1986                      .global _PWM_setIntPeriod
    1987              
    1988              $C$DW$155       .dwtag  DW_TAG_subprogram
    1989                      .dwattr $C$DW$155, DW_AT_name("PWM_setIntPeriod")
    1990                      .dwattr $C$DW$155, DW_AT_low_pc(_PWM_setIntPeriod)
    1991                      .dwattr $C$DW$155, DW_AT_high_pc(0x00)
    1992                      .dwattr $C$DW$155, DW_AT_TI_symbol_name("_PWM_setIntPeriod")
    1993                      .dwattr $C$DW$155, DW_AT_external
    1994                      .dwattr $C$DW$155, DW_AT_TI_begin_file("../drivers/source/pwm.c")
    1995                      .dwattr $C$DW$155, DW_AT_TI_begin_line(0x4b5)
    1996                      .dwattr $C$DW$155, DW_AT_TI_begin_column(0x06)
    1997                      .dwattr $C$DW$155, DW_AT_TI_max_frame_size(-2)
TMS320C2000 Assembler PC v15.12.3 Tue Sep 20 20:30:07 2016

Tools Copyright (c) 1996-2015 Texas Instruments Incorporated
C:\Users\MaCHaDo\AppData\Local\Temp\2170410                          PAGE   38

    1998                      .dwpsn  file "../drivers/source/pwm.c",line 1206,column 1,is_stmt,address _PWM_setIntPeriod,isa 0
    1999              
    2000                      .dwfde $C$DW$CIE, _PWM_setIntPeriod
    2001              $C$DW$156       .dwtag  DW_TAG_formal_parameter
    2002                      .dwattr $C$DW$156, DW_AT_name("pwmHandle")
    2003                      .dwattr $C$DW$156, DW_AT_TI_symbol_name("_pwmHandle")
    2004                      .dwattr $C$DW$156, DW_AT_type(*$C$DW$T$33)
    2005                      .dwattr $C$DW$156, DW_AT_location[DW_OP_reg12]
    2006              
    2007              $C$DW$157       .dwtag  DW_TAG_formal_parameter
    2008                      .dwattr $C$DW$157, DW_AT_name("intPeriod")
    2009                      .dwattr $C$DW$157, DW_AT_TI_symbol_name("_intPeriod")
    2010                      .dwattr $C$DW$157, DW_AT_type(*$C$DW$T$95)
    2011                      .dwattr $C$DW$157, DW_AT_location[DW_OP_reg0]
    2012              
    2013              
    2014              ;***************************************************************
    2015              ;* FNAME: _PWM_setIntPeriod             FR SIZE:   0           *
    2016              ;*                                                             *
    2017              ;* FUNCTION ENVIRONMENT                                        *
    2018              ;*                                                             *
    2019              ;* FUNCTION PROPERTIES                                         *
    2020              ;*                            0 Parameter,  0 Auto,  0 SOE     *
    2021              ;***************************************************************
    2022              
    2023              _PWM_setIntPeriod:
    2024              ;* AR4   assigned to _pwmHandle
    2025              $C$DW$158       .dwtag  DW_TAG_variable
    2026                      .dwattr $C$DW$158, DW_AT_name("pwmHandle")
    2027                      .dwattr $C$DW$158, DW_AT_TI_symbol_name("_pwmHandle")
    2028                      .dwattr $C$DW$158, DW_AT_type(*$C$DW$T$127)
    2029                      .dwattr $C$DW$158, DW_AT_location[DW_OP_reg12]
    2030              
    2031              ;* AL    assigned to _intPeriod
    2032              $C$DW$159       .dwtag  DW_TAG_variable
    2033                      .dwattr $C$DW$159, DW_AT_name("intPeriod")
    2034                      .dwattr $C$DW$159, DW_AT_TI_symbol_name("_intPeriod")
    2035                      .dwattr $C$DW$159, DW_AT_type(*$C$DW$T$95)
    2036                      .dwattr $C$DW$159, DW_AT_location[DW_OP_reg0]
    2037              
    2038                      .dwcfi  cfa_offset, -2
    2039                      .dwcfi  save_reg_to_mem, 26, 0
    2040                      .dwpsn  file "../drivers/source/pwm.c",line 1211,column 5,is_stmt,isa 0
    2041 000000ca 83A4          MOVL      XAR5,XAR4             ; [CPU_] |1211| 
    2042 000000cb DD1A          ADDB      XAR5,#26              ; [CPU_] |1211| 
    2043 000000cc 18C5          AND       *+XAR5[0],#0xfffc     ; [CPU_] |1211| 
         000000cd FFFC 
    2044                      .dwpsn  file "../drivers/source/pwm.c",line 1214,column 5,is_stmt,isa 0
    2045 000000ce DC1A          ADDB      XAR4,#26              ; [CPU_] |1214| 
    2046 000000cf 98C4          OR        *+XAR4[0],AL          ; [CPU_] |1214| 
    2047              $C$DW$160       .dwtag  DW_TAG_TI_branch
    2048                      .dwattr $C$DW$160, DW_AT_low_pc(0x00)
    2049                      .dwattr $C$DW$160, DW_AT_TI_return
    2050              
    2051 000000d0 0006          LRETR     ; [CPU_] 
TMS320C2000 Assembler PC v15.12.3 Tue Sep 20 20:30:07 2016

Tools Copyright (c) 1996-2015 Texas Instruments Incorporated
C:\Users\MaCHaDo\AppData\Local\Temp\2170410                          PAGE   39

    2052                      ; return occurs ; [] 
    2053                      .dwattr $C$DW$155, DW_AT_TI_end_file("../drivers/source/pwm.c")
    2054                      .dwattr $C$DW$155, DW_AT_TI_end_line(0x4c1)
    2055                      .dwattr $C$DW$155, DW_AT_TI_end_column(0x01)
    2056                      .dwendentry
    2057                      .dwendtag $C$DW$155
    2058              
    2059 000000d1               .sect   ".text"
    2060                      .clink
    2061                      .global _PWM_setIntMode
    2062              
    2063              $C$DW$161       .dwtag  DW_TAG_subprogram
    2064                      .dwattr $C$DW$161, DW_AT_name("PWM_setIntMode")
    2065                      .dwattr $C$DW$161, DW_AT_low_pc(_PWM_setIntMode)
    2066                      .dwattr $C$DW$161, DW_AT_high_pc(0x00)
    2067                      .dwattr $C$DW$161, DW_AT_TI_symbol_name("_PWM_setIntMode")
    2068                      .dwattr $C$DW$161, DW_AT_external
    2069                      .dwattr $C$DW$161, DW_AT_TI_begin_file("../drivers/source/pwm.c")
    2070                      .dwattr $C$DW$161, DW_AT_TI_begin_line(0x4a6)
    2071                      .dwattr $C$DW$161, DW_AT_TI_begin_column(0x06)
    2072                      .dwattr $C$DW$161, DW_AT_TI_max_frame_size(-2)
    2073                      .dwpsn  file "../drivers/source/pwm.c",line 1191,column 1,is_stmt,address _PWM_setIntMode,isa 0
    2074              
    2075                      .dwfde $C$DW$CIE, _PWM_setIntMode
    2076              $C$DW$162       .dwtag  DW_TAG_formal_parameter
    2077                      .dwattr $C$DW$162, DW_AT_name("pwmHandle")
    2078                      .dwattr $C$DW$162, DW_AT_TI_symbol_name("_pwmHandle")
    2079                      .dwattr $C$DW$162, DW_AT_type(*$C$DW$T$33)
    2080                      .dwattr $C$DW$162, DW_AT_location[DW_OP_reg12]
    2081              
    2082              $C$DW$163       .dwtag  DW_TAG_formal_parameter
    2083                      .dwattr $C$DW$163, DW_AT_name("intMode")
    2084                      .dwattr $C$DW$163, DW_AT_TI_symbol_name("_intMode")
    2085                      .dwattr $C$DW$163, DW_AT_type(*$C$DW$T$92)
    2086                      .dwattr $C$DW$163, DW_AT_location[DW_OP_reg0]
    2087              
    2088              
    2089              ;***************************************************************
    2090              ;* FNAME: _PWM_setIntMode               FR SIZE:   0           *
    2091              ;*                                                             *
    2092              ;* FUNCTION ENVIRONMENT                                        *
    2093              ;*                                                             *
    2094              ;* FUNCTION PROPERTIES                                         *
    2095              ;*                            0 Parameter,  0 Auto,  0 SOE     *
    2096              ;***************************************************************
    2097              
    2098              _PWM_setIntMode:
    2099              ;* AR4   assigned to _pwmHandle
    2100              $C$DW$164       .dwtag  DW_TAG_variable
    2101                      .dwattr $C$DW$164, DW_AT_name("pwmHandle")
    2102                      .dwattr $C$DW$164, DW_AT_TI_symbol_name("_pwmHandle")
    2103                      .dwattr $C$DW$164, DW_AT_type(*$C$DW$T$127)
    2104                      .dwattr $C$DW$164, DW_AT_location[DW_OP_reg12]
    2105              
    2106              ;* AL    assigned to _intMode
TMS320C2000 Assembler PC v15.12.3 Tue Sep 20 20:30:07 2016

Tools Copyright (c) 1996-2015 Texas Instruments Incorporated
C:\Users\MaCHaDo\AppData\Local\Temp\2170410                          PAGE   40

    2107              $C$DW$165       .dwtag  DW_TAG_variable
    2108                      .dwattr $C$DW$165, DW_AT_name("intMode")
    2109                      .dwattr $C$DW$165, DW_AT_TI_symbol_name("_intMode")
    2110                      .dwattr $C$DW$165, DW_AT_type(*$C$DW$T$92)
    2111                      .dwattr $C$DW$165, DW_AT_location[DW_OP_reg0]
    2112              
    2113                      .dwcfi  cfa_offset, -2
    2114                      .dwcfi  save_reg_to_mem, 26, 0
    2115                      .dwpsn  file "../drivers/source/pwm.c",line 1196,column 5,is_stmt,isa 0
    2116 000000d1 83A4          MOVL      XAR5,XAR4             ; [CPU_] |1196| 
    2117 000000d2 DD19          ADDB      XAR5,#25              ; [CPU_] |1196| 
    2118 000000d3 18C5          AND       *+XAR5[0],#0xfff8     ; [CPU_] |1196| 
         000000d4 FFF8 
    2119                      .dwpsn  file "../drivers/source/pwm.c",line 1199,column 5,is_stmt,isa 0
    2120 000000d5 DC19          ADDB      XAR4,#25              ; [CPU_] |1199| 
    2121 000000d6 98C4          OR        *+XAR4[0],AL          ; [CPU_] |1199| 
    2122              $C$DW$166       .dwtag  DW_TAG_TI_branch
    2123                      .dwattr $C$DW$166, DW_AT_low_pc(0x00)
    2124                      .dwattr $C$DW$166, DW_AT_TI_return
    2125              
    2126 000000d7 0006          LRETR     ; [CPU_] 
    2127                      ; return occurs ; [] 
    2128                      .dwattr $C$DW$161, DW_AT_TI_end_file("../drivers/source/pwm.c")
    2129                      .dwattr $C$DW$161, DW_AT_TI_end_line(0x4b2)
    2130                      .dwattr $C$DW$161, DW_AT_TI_end_column(0x01)
    2131                      .dwendentry
    2132                      .dwendtag $C$DW$161
    2133              
    2134 000000d8               .sect   ".text"
    2135                      .clink
    2136                      .global _PWM_setHrShadowMode
    2137              
    2138              $C$DW$167       .dwtag  DW_TAG_subprogram
    2139                      .dwattr $C$DW$167, DW_AT_name("PWM_setHrShadowMode")
    2140                      .dwattr $C$DW$167, DW_AT_low_pc(_PWM_setHrShadowMode)
    2141                      .dwattr $C$DW$167, DW_AT_high_pc(0x00)
    2142                      .dwattr $C$DW$167, DW_AT_TI_symbol_name("_PWM_setHrShadowMode")
    2143                      .dwattr $C$DW$167, DW_AT_external
    2144                      .dwattr $C$DW$167, DW_AT_TI_begin_file("../drivers/source/pwm.c")
    2145                      .dwattr $C$DW$167, DW_AT_TI_begin_line(0x24e)
    2146                      .dwattr $C$DW$167, DW_AT_TI_begin_column(0x06)
    2147                      .dwattr $C$DW$167, DW_AT_TI_max_frame_size(-2)
    2148                      .dwpsn  file "../drivers/source/pwm.c",line 591,column 1,is_stmt,address _PWM_setHrShadowMode,isa 0
    2149              
    2150                      .dwfde $C$DW$CIE, _PWM_setHrShadowMode
    2151              $C$DW$168       .dwtag  DW_TAG_formal_parameter
    2152                      .dwattr $C$DW$168, DW_AT_name("pwmHandle")
    2153                      .dwattr $C$DW$168, DW_AT_TI_symbol_name("_pwmHandle")
    2154                      .dwattr $C$DW$168, DW_AT_type(*$C$DW$T$33)
    2155                      .dwattr $C$DW$168, DW_AT_location[DW_OP_reg12]
    2156              
    2157              $C$DW$169       .dwtag  DW_TAG_formal_parameter
    2158                      .dwattr $C$DW$169, DW_AT_name("shadowMode")
    2159                      .dwattr $C$DW$169, DW_AT_TI_symbol_name("_shadowMode")
    2160                      .dwattr $C$DW$169, DW_AT_type(*$C$DW$T$44)
TMS320C2000 Assembler PC v15.12.3 Tue Sep 20 20:30:07 2016

Tools Copyright (c) 1996-2015 Texas Instruments Incorporated
C:\Users\MaCHaDo\AppData\Local\Temp\2170410                          PAGE   41

    2161                      .dwattr $C$DW$169, DW_AT_location[DW_OP_reg0]
    2162              
    2163              
    2164              ;***************************************************************
    2165              ;* FNAME: _PWM_setHrShadowMode          FR SIZE:   0           *
    2166              ;*                                                             *
    2167              ;* FUNCTION ENVIRONMENT                                        *
    2168              ;*                                                             *
    2169              ;* FUNCTION PROPERTIES                                         *
    2170              ;*                            0 Parameter,  0 Auto,  0 SOE     *
    2171              ;***************************************************************
    2172              
    2173              _PWM_setHrShadowMode:
    2174              ;* AR4   assigned to _pwmHandle
    2175              $C$DW$170       .dwtag  DW_TAG_variable
    2176                      .dwattr $C$DW$170, DW_AT_name("pwmHandle")
    2177                      .dwattr $C$DW$170, DW_AT_TI_symbol_name("_pwmHandle")
    2178                      .dwattr $C$DW$170, DW_AT_type(*$C$DW$T$127)
    2179                      .dwattr $C$DW$170, DW_AT_location[DW_OP_reg12]
    2180              
    2181              ;* AL    assigned to _shadowMode
    2182              $C$DW$171       .dwtag  DW_TAG_variable
    2183                      .dwattr $C$DW$171, DW_AT_name("shadowMode")
    2184                      .dwattr $C$DW$171, DW_AT_TI_symbol_name("_shadowMode")
    2185                      .dwattr $C$DW$171, DW_AT_type(*$C$DW$T$44)
    2186                      .dwattr $C$DW$171, DW_AT_location[DW_OP_reg0]
    2187              
    2188                      .dwcfi  cfa_offset, -2
    2189                      .dwcfi  save_reg_to_mem, 26, 0
    2190 000000d8 7622   EALLOW
    2191                      .dwpsn  file "../drivers/source/pwm.c",line 596,column 5,is_stmt,isa 0
    2192 000000d9 83A4          MOVL      XAR5,XAR4             ; [CPU_] |596| 
    2193                      .dwpsn  file "../drivers/source/pwm.c",line 598,column 5,is_stmt,isa 0
    2194 000000da DC20          ADDB      XAR4,#32              ; [CPU_] |598| 
    2195                      .dwpsn  file "../drivers/source/pwm.c",line 596,column 5,is_stmt,isa 0
    2196 000000db DD20          ADDB      XAR5,#32              ; [CPU_] |596| 
    2197 000000dc 18C5          AND       *+XAR5[0],#0xffe7     ; [CPU_] |596| 
         000000dd FFE7 
    2198                      .dwpsn  file "../drivers/source/pwm.c",line 598,column 5,is_stmt,isa 0
    2199 000000de 98C4          OR        *+XAR4[0],AL          ; [CPU_] |598| 
    2200 000000df 761A   EDIS
    2201 000000e0 FF69          SPM       #0                    ; [CPU_] 
    2202              $C$DW$172       .dwtag  DW_TAG_TI_branch
    2203                      .dwattr $C$DW$172, DW_AT_low_pc(0x00)
    2204                      .dwattr $C$DW$172, DW_AT_TI_return
    2205              
    2206 000000e1 0006          LRETR     ; [CPU_] 
    2207                      ; return occurs ; [] 
    2208                      .dwattr $C$DW$167, DW_AT_TI_end_file("../drivers/source/pwm.c")
    2209                      .dwattr $C$DW$167, DW_AT_TI_end_line(0x25b)
    2210                      .dwattr $C$DW$167, DW_AT_TI_end_column(0x01)
    2211                      .dwendentry
    2212                      .dwendtag $C$DW$167
    2213              
    2214 000000e2               .sect   ".text"
TMS320C2000 Assembler PC v15.12.3 Tue Sep 20 20:30:07 2016

Tools Copyright (c) 1996-2015 Texas Instruments Incorporated
C:\Users\MaCHaDo\AppData\Local\Temp\2170410                          PAGE   42

    2215                      .clink
    2216                      .global _PWM_setHrEdgeMode
    2217              
    2218              $C$DW$173       .dwtag  DW_TAG_subprogram
    2219                      .dwattr $C$DW$173, DW_AT_name("PWM_setHrEdgeMode")
    2220                      .dwattr $C$DW$173, DW_AT_low_pc(_PWM_setHrEdgeMode)
    2221                      .dwattr $C$DW$173, DW_AT_high_pc(0x00)
    2222                      .dwattr $C$DW$173, DW_AT_TI_symbol_name("_PWM_setHrEdgeMode")
    2223                      .dwattr $C$DW$173, DW_AT_external
    2224                      .dwattr $C$DW$173, DW_AT_TI_begin_file("../drivers/source/pwm.c")
    2225                      .dwattr $C$DW$173, DW_AT_TI_begin_line(0x23e)
    2226                      .dwattr $C$DW$173, DW_AT_TI_begin_column(0x06)
    2227                      .dwattr $C$DW$173, DW_AT_TI_max_frame_size(-2)
    2228                      .dwpsn  file "../drivers/source/pwm.c",line 575,column 1,is_stmt,address _PWM_setHrEdgeMode,isa 0
    2229              
    2230                      .dwfde $C$DW$CIE, _PWM_setHrEdgeMode
    2231              $C$DW$174       .dwtag  DW_TAG_formal_parameter
    2232                      .dwattr $C$DW$174, DW_AT_name("pwmHandle")
    2233                      .dwattr $C$DW$174, DW_AT_TI_symbol_name("_pwmHandle")
    2234                      .dwattr $C$DW$174, DW_AT_type(*$C$DW$T$33)
    2235                      .dwattr $C$DW$174, DW_AT_location[DW_OP_reg12]
    2236              
    2237              $C$DW$175       .dwtag  DW_TAG_formal_parameter
    2238                      .dwattr $C$DW$175, DW_AT_name("edgeMode")
    2239                      .dwattr $C$DW$175, DW_AT_TI_symbol_name("_edgeMode")
    2240                      .dwattr $C$DW$175, DW_AT_type(*$C$DW$T$41)
    2241                      .dwattr $C$DW$175, DW_AT_location[DW_OP_reg0]
    2242              
    2243              
    2244              ;***************************************************************
    2245              ;* FNAME: _PWM_setHrEdgeMode            FR SIZE:   0           *
    2246              ;*                                                             *
    2247              ;* FUNCTION ENVIRONMENT                                        *
    2248              ;*                                                             *
    2249              ;* FUNCTION PROPERTIES                                         *
    2250              ;*                            0 Parameter,  0 Auto,  0 SOE     *
    2251              ;***************************************************************
    2252              
    2253              _PWM_setHrEdgeMode:
    2254              ;* AR4   assigned to _pwmHandle
    2255              $C$DW$176       .dwtag  DW_TAG_variable
    2256                      .dwattr $C$DW$176, DW_AT_name("pwmHandle")
    2257                      .dwattr $C$DW$176, DW_AT_TI_symbol_name("_pwmHandle")
    2258                      .dwattr $C$DW$176, DW_AT_type(*$C$DW$T$127)
    2259                      .dwattr $C$DW$176, DW_AT_location[DW_OP_reg12]
    2260              
    2261              ;* AL    assigned to _edgeMode
    2262              $C$DW$177       .dwtag  DW_TAG_variable
    2263                      .dwattr $C$DW$177, DW_AT_name("edgeMode")
    2264                      .dwattr $C$DW$177, DW_AT_TI_symbol_name("_edgeMode")
    2265                      .dwattr $C$DW$177, DW_AT_type(*$C$DW$T$41)
    2266                      .dwattr $C$DW$177, DW_AT_location[DW_OP_reg0]
    2267              
    2268                      .dwcfi  cfa_offset, -2
    2269                      .dwcfi  save_reg_to_mem, 26, 0
TMS320C2000 Assembler PC v15.12.3 Tue Sep 20 20:30:07 2016

Tools Copyright (c) 1996-2015 Texas Instruments Incorporated
C:\Users\MaCHaDo\AppData\Local\Temp\2170410                          PAGE   43

    2270 000000e2 7622   EALLOW
    2271                      .dwpsn  file "../drivers/source/pwm.c",line 580,column 5,is_stmt,isa 0
    2272 000000e3 83A4          MOVL      XAR5,XAR4             ; [CPU_] |580| 
    2273                      .dwpsn  file "../drivers/source/pwm.c",line 582,column 5,is_stmt,isa 0
    2274 000000e4 DC20          ADDB      XAR4,#32              ; [CPU_] |582| 
    2275                      .dwpsn  file "../drivers/source/pwm.c",line 580,column 5,is_stmt,isa 0
    2276 000000e5 DD20          ADDB      XAR5,#32              ; [CPU_] |580| 
    2277 000000e6 18C5          AND       *+XAR5[0],#0xfffc     ; [CPU_] |580| 
         000000e7 FFFC 
    2278                      .dwpsn  file "../drivers/source/pwm.c",line 582,column 5,is_stmt,isa 0
    2279 000000e8 98C4          OR        *+XAR4[0],AL          ; [CPU_] |582| 
    2280 000000e9 761A   EDIS
    2281 000000ea FF69          SPM       #0                    ; [CPU_] 
    2282              $C$DW$178       .dwtag  DW_TAG_TI_branch
    2283                      .dwattr $C$DW$178, DW_AT_low_pc(0x00)
    2284                      .dwattr $C$DW$178, DW_AT_TI_return
    2285              
    2286 000000eb 0006          LRETR     ; [CPU_] 
    2287                      ; return occurs ; [] 
    2288                      .dwattr $C$DW$173, DW_AT_TI_end_file("../drivers/source/pwm.c")
    2289                      .dwattr $C$DW$173, DW_AT_TI_end_line(0x24b)
    2290                      .dwattr $C$DW$173, DW_AT_TI_end_column(0x01)
    2291                      .dwendentry
    2292                      .dwendtag $C$DW$173
    2293              
    2294 000000ec               .sect   ".text"
    2295                      .clink
    2296                      .global _PWM_setHrControlMode
    2297              
    2298              $C$DW$179       .dwtag  DW_TAG_subprogram
    2299                      .dwattr $C$DW$179, DW_AT_name("PWM_setHrControlMode")
    2300                      .dwattr $C$DW$179, DW_AT_low_pc(_PWM_setHrControlMode)
    2301                      .dwattr $C$DW$179, DW_AT_high_pc(0x00)
    2302                      .dwattr $C$DW$179, DW_AT_TI_symbol_name("_PWM_setHrControlMode")
    2303                      .dwattr $C$DW$179, DW_AT_external
    2304                      .dwattr $C$DW$179, DW_AT_TI_begin_file("../drivers/source/pwm.c")
    2305                      .dwattr $C$DW$179, DW_AT_TI_begin_line(0x22e)
    2306                      .dwattr $C$DW$179, DW_AT_TI_begin_column(0x06)
    2307                      .dwattr $C$DW$179, DW_AT_TI_max_frame_size(-2)
    2308                      .dwpsn  file "../drivers/source/pwm.c",line 559,column 1,is_stmt,address _PWM_setHrControlMode,isa 0
    2309              
    2310                      .dwfde $C$DW$CIE, _PWM_setHrControlMode
    2311              $C$DW$180       .dwtag  DW_TAG_formal_parameter
    2312                      .dwattr $C$DW$180, DW_AT_name("pwmHandle")
    2313                      .dwattr $C$DW$180, DW_AT_TI_symbol_name("_pwmHandle")
    2314                      .dwattr $C$DW$180, DW_AT_type(*$C$DW$T$33)
    2315                      .dwattr $C$DW$180, DW_AT_location[DW_OP_reg12]
    2316              
    2317              $C$DW$181       .dwtag  DW_TAG_formal_parameter
    2318                      .dwattr $C$DW$181, DW_AT_name("controlMode")
    2319                      .dwattr $C$DW$181, DW_AT_TI_symbol_name("_controlMode")
    2320                      .dwattr $C$DW$181, DW_AT_type(*$C$DW$T$38)
    2321                      .dwattr $C$DW$181, DW_AT_location[DW_OP_reg0]
    2322              
    2323              
TMS320C2000 Assembler PC v15.12.3 Tue Sep 20 20:30:07 2016

Tools Copyright (c) 1996-2015 Texas Instruments Incorporated
C:\Users\MaCHaDo\AppData\Local\Temp\2170410                          PAGE   44

    2324              ;***************************************************************
    2325              ;* FNAME: _PWM_setHrControlMode         FR SIZE:   0           *
    2326              ;*                                                             *
    2327              ;* FUNCTION ENVIRONMENT                                        *
    2328              ;*                                                             *
    2329              ;* FUNCTION PROPERTIES                                         *
    2330              ;*                            0 Parameter,  0 Auto,  0 SOE     *
    2331              ;***************************************************************
    2332              
    2333              _PWM_setHrControlMode:
    2334              ;* AR4   assigned to _pwmHandle
    2335              $C$DW$182       .dwtag  DW_TAG_variable
    2336                      .dwattr $C$DW$182, DW_AT_name("pwmHandle")
    2337                      .dwattr $C$DW$182, DW_AT_TI_symbol_name("_pwmHandle")
    2338                      .dwattr $C$DW$182, DW_AT_type(*$C$DW$T$127)
    2339                      .dwattr $C$DW$182, DW_AT_location[DW_OP_reg12]
    2340              
    2341              ;* AL    assigned to _controlMode
    2342              $C$DW$183       .dwtag  DW_TAG_variable
    2343                      .dwattr $C$DW$183, DW_AT_name("controlMode")
    2344                      .dwattr $C$DW$183, DW_AT_TI_symbol_name("_controlMode")
    2345                      .dwattr $C$DW$183, DW_AT_type(*$C$DW$T$38)
    2346                      .dwattr $C$DW$183, DW_AT_location[DW_OP_reg0]
    2347              
    2348                      .dwcfi  cfa_offset, -2
    2349                      .dwcfi  save_reg_to_mem, 26, 0
    2350 000000ec 7622   EALLOW
    2351                      .dwpsn  file "../drivers/source/pwm.c",line 564,column 5,is_stmt,isa 0
    2352 000000ed 83A4          MOVL      XAR5,XAR4             ; [CPU_] |564| 
    2353                      .dwpsn  file "../drivers/source/pwm.c",line 566,column 5,is_stmt,isa 0
    2354 000000ee DC20          ADDB      XAR4,#32              ; [CPU_] |566| 
    2355                      .dwpsn  file "../drivers/source/pwm.c",line 564,column 5,is_stmt,isa 0
    2356 000000ef DD20          ADDB      XAR5,#32              ; [CPU_] |564| 
    2357 000000f0 18C5          AND       *+XAR5[0],#0xfffb     ; [CPU_] |564| 
         000000f1 FFFB 
    2358                      .dwpsn  file "../drivers/source/pwm.c",line 566,column 5,is_stmt,isa 0
    2359 000000f2 98C4          OR        *+XAR4[0],AL          ; [CPU_] |566| 
    2360 000000f3 761A   EDIS
    2361 000000f4 FF69          SPM       #0                    ; [CPU_] 
    2362              $C$DW$184       .dwtag  DW_TAG_TI_branch
    2363                      .dwattr $C$DW$184, DW_AT_low_pc(0x00)
    2364                      .dwattr $C$DW$184, DW_AT_TI_return
    2365              
    2366 000000f5 0006          LRETR     ; [CPU_] 
    2367                      ; return occurs ; [] 
    2368                      .dwattr $C$DW$179, DW_AT_TI_end_file("../drivers/source/pwm.c")
    2369                      .dwattr $C$DW$179, DW_AT_TI_end_line(0x23b)
    2370                      .dwattr $C$DW$179, DW_AT_TI_end_column(0x01)
    2371                      .dwendentry
    2372                      .dwendtag $C$DW$179
    2373              
    2374 000000f6               .sect   ".text"
    2375                      .clink
    2376                      .global _PWM_setHighSpeedClkDiv
    2377              
TMS320C2000 Assembler PC v15.12.3 Tue Sep 20 20:30:07 2016

Tools Copyright (c) 1996-2015 Texas Instruments Incorporated
C:\Users\MaCHaDo\AppData\Local\Temp\2170410                          PAGE   45

    2378              $C$DW$185       .dwtag  DW_TAG_subprogram
    2379                      .dwattr $C$DW$185, DW_AT_name("PWM_setHighSpeedClkDiv")
    2380                      .dwattr $C$DW$185, DW_AT_low_pc(_PWM_setHighSpeedClkDiv)
    2381                      .dwattr $C$DW$185, DW_AT_high_pc(0x00)
    2382                      .dwattr $C$DW$185, DW_AT_TI_symbol_name("_PWM_setHighSpeedClkDiv")
    2383                      .dwattr $C$DW$185, DW_AT_external
    2384                      .dwattr $C$DW$185, DW_AT_TI_begin_file("../drivers/source/pwm.c")
    2385                      .dwattr $C$DW$185, DW_AT_TI_begin_line(0x497)
    2386                      .dwattr $C$DW$185, DW_AT_TI_begin_column(0x06)
    2387                      .dwattr $C$DW$185, DW_AT_TI_max_frame_size(-2)
    2388                      .dwpsn  file "../drivers/source/pwm.c",line 1176,column 1,is_stmt,address _PWM_setHighSpeedClkDiv,isa
    2389              
    2390                      .dwfde $C$DW$CIE, _PWM_setHighSpeedClkDiv
    2391              $C$DW$186       .dwtag  DW_TAG_formal_parameter
    2392                      .dwattr $C$DW$186, DW_AT_name("pwmHandle")
    2393                      .dwattr $C$DW$186, DW_AT_TI_symbol_name("_pwmHandle")
    2394                      .dwattr $C$DW$186, DW_AT_type(*$C$DW$T$33)
    2395                      .dwattr $C$DW$186, DW_AT_location[DW_OP_reg12]
    2396              
    2397              $C$DW$187       .dwtag  DW_TAG_formal_parameter
    2398                      .dwattr $C$DW$187, DW_AT_name("clkDiv")
    2399                      .dwattr $C$DW$187, DW_AT_TI_symbol_name("_clkDiv")
    2400                      .dwattr $C$DW$187, DW_AT_type(*$C$DW$T$89)
    2401                      .dwattr $C$DW$187, DW_AT_location[DW_OP_reg0]
    2402              
    2403              
    2404              ;***************************************************************
    2405              ;* FNAME: _PWM_setHighSpeedClkDiv       FR SIZE:   0           *
    2406              ;*                                                             *
    2407              ;* FUNCTION ENVIRONMENT                                        *
    2408              ;*                                                             *
    2409              ;* FUNCTION PROPERTIES                                         *
    2410              ;*                            0 Parameter,  0 Auto,  0 SOE     *
    2411              ;***************************************************************
    2412              
    2413              _PWM_setHighSpeedClkDiv:
    2414              ;* AR4   assigned to _pwmHandle
    2415              $C$DW$188       .dwtag  DW_TAG_variable
    2416                      .dwattr $C$DW$188, DW_AT_name("pwmHandle")
    2417                      .dwattr $C$DW$188, DW_AT_TI_symbol_name("_pwmHandle")
    2418                      .dwattr $C$DW$188, DW_AT_type(*$C$DW$T$127)
    2419                      .dwattr $C$DW$188, DW_AT_location[DW_OP_reg12]
    2420              
    2421              ;* AL    assigned to _clkDiv
    2422              $C$DW$189       .dwtag  DW_TAG_variable
    2423                      .dwattr $C$DW$189, DW_AT_name("clkDiv")
    2424                      .dwattr $C$DW$189, DW_AT_TI_symbol_name("_clkDiv")
    2425                      .dwattr $C$DW$189, DW_AT_type(*$C$DW$T$89)
    2426                      .dwattr $C$DW$189, DW_AT_location[DW_OP_reg0]
    2427              
    2428                      .dwcfi  cfa_offset, -2
    2429                      .dwcfi  save_reg_to_mem, 26, 0
    2430                      .dwpsn  file "../drivers/source/pwm.c",line 1181,column 5,is_stmt,isa 0
    2431 000000f6 18C4          AND       *+XAR4[0],#0xfc7f     ; [CPU_] |1181| 
         000000f7 FC7F 
TMS320C2000 Assembler PC v15.12.3 Tue Sep 20 20:30:07 2016

Tools Copyright (c) 1996-2015 Texas Instruments Incorporated
C:\Users\MaCHaDo\AppData\Local\Temp\2170410                          PAGE   46

    2432                      .dwpsn  file "../drivers/source/pwm.c",line 1184,column 5,is_stmt,isa 0
    2433 000000f8 98C4          OR        *+XAR4[0],AL          ; [CPU_] |1184| 
    2434              $C$DW$190       .dwtag  DW_TAG_TI_branch
    2435                      .dwattr $C$DW$190, DW_AT_low_pc(0x00)
    2436                      .dwattr $C$DW$190, DW_AT_TI_return
    2437              
    2438 000000f9 0006          LRETR     ; [CPU_] 
    2439                      ; return occurs ; [] 
    2440                      .dwattr $C$DW$185, DW_AT_TI_end_file("../drivers/source/pwm.c")
    2441                      .dwattr $C$DW$185, DW_AT_TI_end_line(0x4a3)
    2442                      .dwattr $C$DW$185, DW_AT_TI_end_column(0x01)
    2443                      .dwendentry
    2444                      .dwendtag $C$DW$185
    2445              
    2446 000000fa               .sect   ".text"
    2447                      .clink
    2448                      .global _PWM_setDigitalCompareInput
    2449              
    2450              $C$DW$191       .dwtag  DW_TAG_subprogram
    2451                      .dwattr $C$DW$191, DW_AT_name("PWM_setDigitalCompareInput")
    2452                      .dwattr $C$DW$191, DW_AT_low_pc(_PWM_setDigitalCompareInput)
    2453                      .dwattr $C$DW$191, DW_AT_high_pc(0x00)
    2454                      .dwattr $C$DW$191, DW_AT_TI_symbol_name("_PWM_setDigitalCompareInput")
    2455                      .dwattr $C$DW$191, DW_AT_external
    2456                      .dwattr $C$DW$191, DW_AT_TI_begin_file("../drivers/source/pwm.c")
    2457                      .dwattr $C$DW$191, DW_AT_TI_begin_line(0x42f)
    2458                      .dwattr $C$DW$191, DW_AT_TI_begin_column(0x06)
    2459                      .dwattr $C$DW$191, DW_AT_TI_max_frame_size(-2)
    2460                      .dwpsn  file "../drivers/source/pwm.c",line 1074,column 1,is_stmt,address _PWM_setDigitalCompareInput
    2461              
    2462                      .dwfde $C$DW$CIE, _PWM_setDigitalCompareInput
    2463              $C$DW$192       .dwtag  DW_TAG_formal_parameter
    2464                      .dwattr $C$DW$192, DW_AT_name("pwmHandle")
    2465                      .dwattr $C$DW$192, DW_AT_TI_symbol_name("_pwmHandle")
    2466                      .dwattr $C$DW$192, DW_AT_type(*$C$DW$T$33)
    2467                      .dwattr $C$DW$192, DW_AT_location[DW_OP_reg12]
    2468              
    2469              $C$DW$193       .dwtag  DW_TAG_formal_parameter
    2470                      .dwattr $C$DW$193, DW_AT_name("input")
    2471                      .dwattr $C$DW$193, DW_AT_TI_symbol_name("_input")
    2472                      .dwattr $C$DW$193, DW_AT_type(*$C$DW$T$83)
    2473                      .dwattr $C$DW$193, DW_AT_location[DW_OP_reg0]
    2474              
    2475              $C$DW$194       .dwtag  DW_TAG_formal_parameter
    2476                      .dwattr $C$DW$194, DW_AT_name("inputSel")
    2477                      .dwattr $C$DW$194, DW_AT_TI_symbol_name("_inputSel")
    2478                      .dwattr $C$DW$194, DW_AT_type(*$C$DW$T$86)
    2479                      .dwattr $C$DW$194, DW_AT_location[DW_OP_reg1]
    2480              
    2481              
    2482              ;***************************************************************
    2483              ;* FNAME: _PWM_setDigitalCompareInput   FR SIZE:   0           *
    2484              ;*                                                             *
    2485              ;* FUNCTION ENVIRONMENT                                        *
    2486              ;*                                                             *
TMS320C2000 Assembler PC v15.12.3 Tue Sep 20 20:30:07 2016

Tools Copyright (c) 1996-2015 Texas Instruments Incorporated
C:\Users\MaCHaDo\AppData\Local\Temp\2170410                          PAGE   47

    2487              ;* FUNCTION PROPERTIES                                         *
    2488              ;*                            0 Parameter,  0 Auto,  0 SOE     *
    2489              ;***************************************************************
    2490              
    2491              _PWM_setDigitalCompareInput:
    2492              ;* AR4   assigned to _pwmHandle
    2493              $C$DW$195       .dwtag  DW_TAG_variable
    2494                      .dwattr $C$DW$195, DW_AT_name("pwmHandle")
    2495                      .dwattr $C$DW$195, DW_AT_TI_symbol_name("_pwmHandle")
    2496                      .dwattr $C$DW$195, DW_AT_type(*$C$DW$T$127)
    2497                      .dwattr $C$DW$195, DW_AT_location[DW_OP_reg12]
    2498              
    2499              ;* T     assigned to _input
    2500              $C$DW$196       .dwtag  DW_TAG_variable
    2501                      .dwattr $C$DW$196, DW_AT_name("input")
    2502                      .dwattr $C$DW$196, DW_AT_TI_symbol_name("_input")
    2503                      .dwattr $C$DW$196, DW_AT_type(*$C$DW$T$83)
    2504                      .dwattr $C$DW$196, DW_AT_location[DW_OP_reg22]
    2505              
    2506              ;* AH    assigned to _inputSel
    2507              $C$DW$197       .dwtag  DW_TAG_variable
    2508                      .dwattr $C$DW$197, DW_AT_name("inputSel")
    2509                      .dwattr $C$DW$197, DW_AT_TI_symbol_name("_inputSel")
    2510                      .dwattr $C$DW$197, DW_AT_type(*$C$DW$T$86)
    2511                      .dwattr $C$DW$197, DW_AT_location[DW_OP_reg1]
    2512              
    2513                      .dwcfi  cfa_offset, -2
    2514                      .dwcfi  save_reg_to_mem, 26, 0
    2515 000000fa 2DA9          MOV       T,AL                  ; [CPU_] |1074| 
    2516 000000fb 7622   EALLOW
    2517                      .dwpsn  file "../drivers/source/pwm.c",line 1080,column 5,is_stmt,isa 0
    2518 000000fc 83A4          MOVL      XAR5,XAR4             ; [CPU_] |1080| 
    2519 000000fd 9A0F          MOVB      AL,#15                ; [CPU_] |1080| 
    2520 000000fe FF66          LSL       AL,T                  ; [CPU_] |1080| 
    2521                      .dwpsn  file "../drivers/source/pwm.c",line 1083,column 5,is_stmt,isa 0
    2522 000000ff DC30          ADDB      XAR4,#48              ; [CPU_] |1083| 
    2523                      .dwpsn  file "../drivers/source/pwm.c",line 1080,column 5,is_stmt,isa 0
    2524 00000100 FF5E          NOT       AL                    ; [CPU_] |1080| 
    2525 00000101 DD30          ADDB      XAR5,#48              ; [CPU_] |1080| 
    2526 00000102 C0C5          AND       *+XAR5[0],AL          ; [CPU_] |1080| 
    2527                      .dwpsn  file "../drivers/source/pwm.c",line 1083,column 5,is_stmt,isa 0
    2528 00000103 92A8          MOV       AL,AH                 ; [CPU_] |1083| 
    2529 00000104 FF66          LSL       AL,T                  ; [CPU_] |1083| 
    2530 00000105 98C4          OR        *+XAR4[0],AL          ; [CPU_] |1083| 
    2531 00000106 761A   EDIS
    2532 00000107 FF69          SPM       #0                    ; [CPU_] 
    2533              $C$DW$198       .dwtag  DW_TAG_TI_branch
    2534                      .dwattr $C$DW$198, DW_AT_low_pc(0x00)
    2535                      .dwattr $C$DW$198, DW_AT_TI_return
    2536              
    2537 00000108 0006          LRETR     ; [CPU_] 
    2538                      ; return occurs ; [] 
    2539                      .dwattr $C$DW$191, DW_AT_TI_end_file("../drivers/source/pwm.c")
    2540                      .dwattr $C$DW$191, DW_AT_TI_end_line(0x440)
    2541                      .dwattr $C$DW$191, DW_AT_TI_end_column(0x01)
TMS320C2000 Assembler PC v15.12.3 Tue Sep 20 20:30:07 2016

Tools Copyright (c) 1996-2015 Texas Instruments Incorporated
C:\Users\MaCHaDo\AppData\Local\Temp\2170410                          PAGE   48

    2542                      .dwendentry
    2543                      .dwendtag $C$DW$191
    2544              
    2545 00000109               .sect   ".text"
    2546                      .clink
    2547                      .global _PWM_setDigitalCompareFilterWindow
    2548              
    2549              $C$DW$199       .dwtag  DW_TAG_subprogram
    2550                      .dwattr $C$DW$199, DW_AT_name("PWM_setDigitalCompareFilterWindow")
    2551                      .dwattr $C$DW$199, DW_AT_low_pc(_PWM_setDigitalCompareFilterWindow)
    2552                      .dwattr $C$DW$199, DW_AT_high_pc(0x00)
    2553                      .dwattr $C$DW$199, DW_AT_TI_symbol_name("_PWM_setDigitalCompareFilterWindow")
    2554                      .dwattr $C$DW$199, DW_AT_external
    2555                      .dwattr $C$DW$199, DW_AT_TI_begin_file("../drivers/source/pwm.c")
    2556                      .dwattr $C$DW$199, DW_AT_TI_begin_line(0x423)
    2557                      .dwattr $C$DW$199, DW_AT_TI_begin_column(0x06)
    2558                      .dwattr $C$DW$199, DW_AT_TI_max_frame_size(-2)
    2559                      .dwpsn  file "../drivers/source/pwm.c",line 1061,column 1,is_stmt,address _PWM_setDigitalCompareFilte
    2560              
    2561                      .dwfde $C$DW$CIE, _PWM_setDigitalCompareFilterWindow
    2562              $C$DW$200       .dwtag  DW_TAG_formal_parameter
    2563                      .dwattr $C$DW$200, DW_AT_name("pwmHandle")
    2564                      .dwattr $C$DW$200, DW_AT_TI_symbol_name("_pwmHandle")
    2565                      .dwattr $C$DW$200, DW_AT_type(*$C$DW$T$33)
    2566                      .dwattr $C$DW$200, DW_AT_location[DW_OP_reg12]
    2567              
    2568              $C$DW$201       .dwtag  DW_TAG_formal_parameter
    2569                      .dwattr $C$DW$201, DW_AT_name("window")
    2570                      .dwattr $C$DW$201, DW_AT_TI_symbol_name("_window")
    2571                      .dwattr $C$DW$201, DW_AT_type(*$C$DW$T$146)
    2572                      .dwattr $C$DW$201, DW_AT_location[DW_OP_reg0]
    2573              
    2574              
    2575              ;***************************************************************
    2576              ;* FNAME: _PWM_setDigitalCompareFilterWindow FR SIZE:   0           *
    2577              ;*                                                             *
    2578              ;* FUNCTION ENVIRONMENT                                        *
    2579              ;*                                                             *
    2580              ;* FUNCTION PROPERTIES                                         *
    2581              ;*                            0 Parameter,  0 Auto,  0 SOE     *
    2582              ;***************************************************************
    2583              
    2584              _PWM_setDigitalCompareFilterWindow:
    2585              ;* AR4   assigned to _pwmHandle
    2586              $C$DW$202       .dwtag  DW_TAG_variable
    2587                      .dwattr $C$DW$202, DW_AT_name("pwmHandle")
    2588                      .dwattr $C$DW$202, DW_AT_TI_symbol_name("_pwmHandle")
    2589                      .dwattr $C$DW$202, DW_AT_type(*$C$DW$T$127)
    2590                      .dwattr $C$DW$202, DW_AT_location[DW_OP_reg12]
    2591              
    2592              ;* AL    assigned to _window
    2593              $C$DW$203       .dwtag  DW_TAG_variable
    2594                      .dwattr $C$DW$203, DW_AT_name("window")
    2595                      .dwattr $C$DW$203, DW_AT_TI_symbol_name("_window")
    2596                      .dwattr $C$DW$203, DW_AT_type(*$C$DW$T$146)
TMS320C2000 Assembler PC v15.12.3 Tue Sep 20 20:30:07 2016

Tools Copyright (c) 1996-2015 Texas Instruments Incorporated
C:\Users\MaCHaDo\AppData\Local\Temp\2170410                          PAGE   49

    2597                      .dwattr $C$DW$203, DW_AT_location[DW_OP_reg0]
    2598              
    2599                      .dwcfi  cfa_offset, -2
    2600                      .dwcfi  save_reg_to_mem, 26, 0
    2601                      .dwpsn  file "../drivers/source/pwm.c",line 1065,column 5,is_stmt,isa 0
    2602 00000109 D037          MOVB      XAR0,#55              ; [CPU_] |1065| 
    2603 0000010a 9694          MOV       *+XAR4[AR0],AL        ; [CPU_] |1065| 
    2604              $C$DW$204       .dwtag  DW_TAG_TI_branch
    2605                      .dwattr $C$DW$204, DW_AT_low_pc(0x00)
    2606                      .dwattr $C$DW$204, DW_AT_TI_return
    2607              
    2608 0000010b 0006          LRETR     ; [CPU_] 
    2609                      ; return occurs ; [] 
    2610                      .dwattr $C$DW$199, DW_AT_TI_end_file("../drivers/source/pwm.c")
    2611                      .dwattr $C$DW$199, DW_AT_TI_end_line(0x42c)
    2612                      .dwattr $C$DW$199, DW_AT_TI_end_column(0x01)
    2613                      .dwendentry
    2614                      .dwendtag $C$DW$199
    2615              
    2616 0000010c               .sect   ".text"
    2617                      .clink
    2618                      .global _PWM_setDigitalCompareFilterSource
    2619              
    2620              $C$DW$205       .dwtag  DW_TAG_subprogram
    2621                      .dwattr $C$DW$205, DW_AT_name("PWM_setDigitalCompareFilterSource")
    2622                      .dwattr $C$DW$205, DW_AT_low_pc(_PWM_setDigitalCompareFilterSource)
    2623                      .dwattr $C$DW$205, DW_AT_high_pc(0x00)
    2624                      .dwattr $C$DW$205, DW_AT_TI_symbol_name("_PWM_setDigitalCompareFilterSource")
    2625                      .dwattr $C$DW$205, DW_AT_external
    2626                      .dwattr $C$DW$205, DW_AT_TI_begin_file("../drivers/source/pwm.c")
    2627                      .dwattr $C$DW$205, DW_AT_TI_begin_line(0x3f1)
    2628                      .dwattr $C$DW$205, DW_AT_TI_begin_column(0x06)
    2629                      .dwattr $C$DW$205, DW_AT_TI_max_frame_size(-2)
    2630                      .dwpsn  file "../drivers/source/pwm.c",line 1011,column 1,is_stmt,address _PWM_setDigitalCompareFilte
    2631              
    2632                      .dwfde $C$DW$CIE, _PWM_setDigitalCompareFilterSource
    2633              $C$DW$206       .dwtag  DW_TAG_formal_parameter
    2634                      .dwattr $C$DW$206, DW_AT_name("pwmHandle")
    2635                      .dwattr $C$DW$206, DW_AT_TI_symbol_name("_pwmHandle")
    2636                      .dwattr $C$DW$206, DW_AT_type(*$C$DW$T$33)
    2637                      .dwattr $C$DW$206, DW_AT_location[DW_OP_reg12]
    2638              
    2639              $C$DW$207       .dwtag  DW_TAG_formal_parameter
    2640                      .dwattr $C$DW$207, DW_AT_name("input")
    2641                      .dwattr $C$DW$207, DW_AT_TI_symbol_name("_input")
    2642                      .dwattr $C$DW$207, DW_AT_type(*$C$DW$T$77)
    2643                      .dwattr $C$DW$207, DW_AT_location[DW_OP_reg0]
    2644              
    2645              
    2646              ;***************************************************************
    2647              ;* FNAME: _PWM_setDigitalCompareFilterSource FR SIZE:   0           *
    2648              ;*                                                             *
    2649              ;* FUNCTION ENVIRONMENT                                        *
    2650              ;*                                                             *
    2651              ;* FUNCTION PROPERTIES                                         *
TMS320C2000 Assembler PC v15.12.3 Tue Sep 20 20:30:07 2016

Tools Copyright (c) 1996-2015 Texas Instruments Incorporated
C:\Users\MaCHaDo\AppData\Local\Temp\2170410                          PAGE   50

    2652              ;*                            0 Parameter,  0 Auto,  0 SOE     *
    2653              ;***************************************************************
    2654              
    2655              _PWM_setDigitalCompareFilterSource:
    2656              ;* AR4   assigned to _pwmHandle
    2657              $C$DW$208       .dwtag  DW_TAG_variable
    2658                      .dwattr $C$DW$208, DW_AT_name("pwmHandle")
    2659                      .dwattr $C$DW$208, DW_AT_TI_symbol_name("_pwmHandle")
    2660                      .dwattr $C$DW$208, DW_AT_type(*$C$DW$T$127)
    2661                      .dwattr $C$DW$208, DW_AT_location[DW_OP_reg12]
    2662              
    2663              ;* AL    assigned to _input
    2664              $C$DW$209       .dwtag  DW_TAG_variable
    2665                      .dwattr $C$DW$209, DW_AT_name("input")
    2666                      .dwattr $C$DW$209, DW_AT_TI_symbol_name("_input")
    2667                      .dwattr $C$DW$209, DW_AT_type(*$C$DW$T$77)
    2668                      .dwattr $C$DW$209, DW_AT_location[DW_OP_reg0]
    2669              
    2670                      .dwcfi  cfa_offset, -2
    2671                      .dwcfi  save_reg_to_mem, 26, 0
    2672 0000010c 7622   EALLOW
    2673                      .dwpsn  file "../drivers/source/pwm.c",line 1017,column 5,is_stmt,isa 0
    2674 0000010d 83A4          MOVL      XAR5,XAR4             ; [CPU_] |1017| 
    2675                      .dwpsn  file "../drivers/source/pwm.c",line 1020,column 5,is_stmt,isa 0
    2676 0000010e DC33          ADDB      XAR4,#51              ; [CPU_] |1020| 
    2677                      .dwpsn  file "../drivers/source/pwm.c",line 1017,column 5,is_stmt,isa 0
    2678 0000010f DD33          ADDB      XAR5,#51              ; [CPU_] |1017| 
    2679 00000110 18C5          AND       *+XAR5[0],#0xfffc     ; [CPU_] |1017| 
         00000111 FFFC 
    2680                      .dwpsn  file "../drivers/source/pwm.c",line 1020,column 5,is_stmt,isa 0
    2681 00000112 98C4          OR        *+XAR4[0],AL          ; [CPU_] |1020| 
    2682 00000113 761A   EDIS
    2683 00000114 FF69          SPM       #0                    ; [CPU_] 
    2684              $C$DW$210       .dwtag  DW_TAG_TI_branch
    2685                      .dwattr $C$DW$210, DW_AT_low_pc(0x00)
    2686                      .dwattr $C$DW$210, DW_AT_TI_return
    2687              
    2688 00000115 0006          LRETR     ; [CPU_] 
    2689                      ; return occurs ; [] 
    2690                      .dwattr $C$DW$205, DW_AT_TI_end_file("../drivers/source/pwm.c")
    2691                      .dwattr $C$DW$205, DW_AT_TI_end_line(0x401)
    2692                      .dwattr $C$DW$205, DW_AT_TI_end_column(0x01)
    2693                      .dwendentry
    2694                      .dwendtag $C$DW$205
    2695              
    2696 00000116               .sect   ".text"
    2697                      .clink
    2698                      .global _PWM_setDigitalCompareFilterOffset
    2699              
    2700              $C$DW$211       .dwtag  DW_TAG_subprogram
    2701                      .dwattr $C$DW$211, DW_AT_name("PWM_setDigitalCompareFilterOffset")
    2702                      .dwattr $C$DW$211, DW_AT_low_pc(_PWM_setDigitalCompareFilterOffset)
    2703                      .dwattr $C$DW$211, DW_AT_high_pc(0x00)
    2704                      .dwattr $C$DW$211, DW_AT_TI_symbol_name("_PWM_setDigitalCompareFilterOffset")
    2705                      .dwattr $C$DW$211, DW_AT_external
TMS320C2000 Assembler PC v15.12.3 Tue Sep 20 20:30:07 2016

Tools Copyright (c) 1996-2015 Texas Instruments Incorporated
C:\Users\MaCHaDo\AppData\Local\Temp\2170410                          PAGE   51

    2706                      .dwattr $C$DW$211, DW_AT_TI_begin_file("../drivers/source/pwm.c")
    2707                      .dwattr $C$DW$211, DW_AT_TI_begin_line(0x417)
    2708                      .dwattr $C$DW$211, DW_AT_TI_begin_column(0x06)
    2709                      .dwattr $C$DW$211, DW_AT_TI_max_frame_size(-2)
    2710                      .dwpsn  file "../drivers/source/pwm.c",line 1049,column 1,is_stmt,address _PWM_setDigitalCompareFilte
    2711              
    2712                      .dwfde $C$DW$CIE, _PWM_setDigitalCompareFilterOffset
    2713              $C$DW$212       .dwtag  DW_TAG_formal_parameter
    2714                      .dwattr $C$DW$212, DW_AT_name("pwmHandle")
    2715                      .dwattr $C$DW$212, DW_AT_TI_symbol_name("_pwmHandle")
    2716                      .dwattr $C$DW$212, DW_AT_type(*$C$DW$T$33)
    2717                      .dwattr $C$DW$212, DW_AT_location[DW_OP_reg12]
    2718              
    2719              $C$DW$213       .dwtag  DW_TAG_formal_parameter
    2720                      .dwattr $C$DW$213, DW_AT_name("offset")
    2721                      .dwattr $C$DW$213, DW_AT_TI_symbol_name("_offset")
    2722                      .dwattr $C$DW$213, DW_AT_type(*$C$DW$T$146)
    2723                      .dwattr $C$DW$213, DW_AT_location[DW_OP_reg0]
    2724              
    2725              
    2726              ;***************************************************************
    2727              ;* FNAME: _PWM_setDigitalCompareFilterOffset FR SIZE:   0           *
    2728              ;*                                                             *
    2729              ;* FUNCTION ENVIRONMENT                                        *
    2730              ;*                                                             *
    2731              ;* FUNCTION PROPERTIES                                         *
    2732              ;*                            0 Parameter,  0 Auto,  0 SOE     *
    2733              ;***************************************************************
    2734              
    2735              _PWM_setDigitalCompareFilterOffset:
    2736              ;* AR4   assigned to _pwmHandle
    2737              $C$DW$214       .dwtag  DW_TAG_variable
    2738                      .dwattr $C$DW$214, DW_AT_name("pwmHandle")
    2739                      .dwattr $C$DW$214, DW_AT_TI_symbol_name("_pwmHandle")
    2740                      .dwattr $C$DW$214, DW_AT_type(*$C$DW$T$127)
    2741                      .dwattr $C$DW$214, DW_AT_location[DW_OP_reg12]
    2742              
    2743              ;* AL    assigned to _offset
    2744              $C$DW$215       .dwtag  DW_TAG_variable
    2745                      .dwattr $C$DW$215, DW_AT_name("offset")
    2746                      .dwattr $C$DW$215, DW_AT_TI_symbol_name("_offset")
    2747                      .dwattr $C$DW$215, DW_AT_type(*$C$DW$T$146)
    2748                      .dwattr $C$DW$215, DW_AT_location[DW_OP_reg0]
    2749              
    2750                      .dwcfi  cfa_offset, -2
    2751                      .dwcfi  save_reg_to_mem, 26, 0
    2752                      .dwpsn  file "../drivers/source/pwm.c",line 1053,column 5,is_stmt,isa 0
    2753 00000116 D035          MOVB      XAR0,#53              ; [CPU_] |1053| 
    2754 00000117 9694          MOV       *+XAR4[AR0],AL        ; [CPU_] |1053| 
    2755              $C$DW$216       .dwtag  DW_TAG_TI_branch
    2756                      .dwattr $C$DW$216, DW_AT_low_pc(0x00)
    2757                      .dwattr $C$DW$216, DW_AT_TI_return
    2758              
    2759 00000118 0006          LRETR     ; [CPU_] 
    2760                      ; return occurs ; [] 
TMS320C2000 Assembler PC v15.12.3 Tue Sep 20 20:30:07 2016

Tools Copyright (c) 1996-2015 Texas Instruments Incorporated
C:\Users\MaCHaDo\AppData\Local\Temp\2170410                          PAGE   52

    2761                      .dwattr $C$DW$211, DW_AT_TI_end_file("../drivers/source/pwm.c")
    2762                      .dwattr $C$DW$211, DW_AT_TI_end_line(0x420)
    2763                      .dwattr $C$DW$211, DW_AT_TI_end_column(0x01)
    2764                      .dwendentry
    2765                      .dwendtag $C$DW$211
    2766              
    2767 00000119               .sect   ".text"
    2768                      .clink
    2769                      .global _PWM_setDigitalCompareBlankingPulse
    2770              
    2771              $C$DW$217       .dwtag  DW_TAG_subprogram
    2772                      .dwattr $C$DW$217, DW_AT_name("PWM_setDigitalCompareBlankingPulse")
    2773                      .dwattr $C$DW$217, DW_AT_low_pc(_PWM_setDigitalCompareBlankingPulse)
    2774                      .dwattr $C$DW$217, DW_AT_high_pc(0x00)
    2775                      .dwattr $C$DW$217, DW_AT_TI_symbol_name("_PWM_setDigitalCompareBlankingPulse")
    2776                      .dwattr $C$DW$217, DW_AT_external
    2777                      .dwattr $C$DW$217, DW_AT_TI_begin_file("../drivers/source/pwm.c")
    2778                      .dwattr $C$DW$217, DW_AT_TI_begin_line(0x404)
    2779                      .dwattr $C$DW$217, DW_AT_TI_begin_column(0x06)
    2780                      .dwattr $C$DW$217, DW_AT_TI_max_frame_size(-2)
    2781                      .dwpsn  file "../drivers/source/pwm.c",line 1030,column 1,is_stmt,address _PWM_setDigitalCompareBlank
    2782              
    2783                      .dwfde $C$DW$CIE, _PWM_setDigitalCompareBlankingPulse
    2784              $C$DW$218       .dwtag  DW_TAG_formal_parameter
    2785                      .dwattr $C$DW$218, DW_AT_name("pwmHandle")
    2786                      .dwattr $C$DW$218, DW_AT_TI_symbol_name("_pwmHandle")
    2787                      .dwattr $C$DW$218, DW_AT_type(*$C$DW$T$33)
    2788                      .dwattr $C$DW$218, DW_AT_location[DW_OP_reg12]
    2789              
    2790              $C$DW$219       .dwtag  DW_TAG_formal_parameter
    2791                      .dwattr $C$DW$219, DW_AT_name("pulseSelect")
    2792                      .dwattr $C$DW$219, DW_AT_TI_symbol_name("_pulseSelect")
    2793                      .dwattr $C$DW$219, DW_AT_type(*$C$DW$T$80)
    2794                      .dwattr $C$DW$219, DW_AT_location[DW_OP_reg0]
    2795              
    2796              
    2797              ;***************************************************************
    2798              ;* FNAME: _PWM_setDigitalCompareBlankingPulse FR SIZE:   0           *
    2799              ;*                                                             *
    2800              ;* FUNCTION ENVIRONMENT                                        *
    2801              ;*                                                             *
    2802              ;* FUNCTION PROPERTIES                                         *
    2803              ;*                            0 Parameter,  0 Auto,  0 SOE     *
    2804              ;***************************************************************
    2805              
    2806              _PWM_setDigitalCompareBlankingPulse:
    2807              ;* AR4   assigned to _pwmHandle
    2808              $C$DW$220       .dwtag  DW_TAG_variable
    2809                      .dwattr $C$DW$220, DW_AT_name("pwmHandle")
    2810                      .dwattr $C$DW$220, DW_AT_TI_symbol_name("_pwmHandle")
    2811                      .dwattr $C$DW$220, DW_AT_type(*$C$DW$T$127)
    2812                      .dwattr $C$DW$220, DW_AT_location[DW_OP_reg12]
    2813              
    2814              ;* AL    assigned to _pulseSelect
    2815              $C$DW$221       .dwtag  DW_TAG_variable
TMS320C2000 Assembler PC v15.12.3 Tue Sep 20 20:30:07 2016

Tools Copyright (c) 1996-2015 Texas Instruments Incorporated
C:\Users\MaCHaDo\AppData\Local\Temp\2170410                          PAGE   53

    2816                      .dwattr $C$DW$221, DW_AT_name("pulseSelect")
    2817                      .dwattr $C$DW$221, DW_AT_TI_symbol_name("_pulseSelect")
    2818                      .dwattr $C$DW$221, DW_AT_type(*$C$DW$T$80)
    2819                      .dwattr $C$DW$221, DW_AT_location[DW_OP_reg0]
    2820              
    2821                      .dwcfi  cfa_offset, -2
    2822                      .dwcfi  save_reg_to_mem, 26, 0
    2823 00000119 7622   EALLOW
    2824                      .dwpsn  file "../drivers/source/pwm.c",line 1036,column 5,is_stmt,isa 0
    2825 0000011a 83A4          MOVL      XAR5,XAR4             ; [CPU_] |1036| 
    2826                      .dwpsn  file "../drivers/source/pwm.c",line 1039,column 5,is_stmt,isa 0
    2827 0000011b 5603          MOV       ACC,AL << #4          ; [CPU_] |1039| 
         0000011c 04A9 
    2828 0000011d DC33          ADDB      XAR4,#51              ; [CPU_] |1039| 
    2829                      .dwpsn  file "../drivers/source/pwm.c",line 1036,column 5,is_stmt,isa 0
    2830 0000011e DD33          ADDB      XAR5,#51              ; [CPU_] |1036| 
    2831 0000011f 18C5          AND       *+XAR5[0],#0xffcf     ; [CPU_] |1036| 
         00000120 FFCF 
    2832                      .dwpsn  file "../drivers/source/pwm.c",line 1039,column 5,is_stmt,isa 0
    2833 00000121 98C4          OR        *+XAR4[0],AL          ; [CPU_] |1039| 
    2834 00000122 761A   EDIS
    2835 00000123 FF69          SPM       #0                    ; [CPU_] 
    2836              $C$DW$222       .dwtag  DW_TAG_TI_branch
    2837                      .dwattr $C$DW$222, DW_AT_low_pc(0x00)
    2838                      .dwattr $C$DW$222, DW_AT_TI_return
    2839              
    2840 00000124 0006          LRETR     ; [CPU_] 
    2841                      ; return occurs ; [] 
    2842                      .dwattr $C$DW$217, DW_AT_TI_end_file("../drivers/source/pwm.c")
    2843                      .dwattr $C$DW$217, DW_AT_TI_end_line(0x414)
    2844                      .dwattr $C$DW$217, DW_AT_TI_end_column(0x01)
    2845                      .dwendentry
    2846                      .dwendtag $C$DW$217
    2847              
    2848 00000125               .sect   ".text"
    2849                      .clink
    2850                      .global _PWM_setDigitalCompareBEvent2
    2851              
    2852              $C$DW$223       .dwtag  DW_TAG_subprogram
    2853                      .dwattr $C$DW$223, DW_AT_name("PWM_setDigitalCompareBEvent2")
    2854                      .dwattr $C$DW$223, DW_AT_low_pc(_PWM_setDigitalCompareBEvent2)
    2855                      .dwattr $C$DW$223, DW_AT_high_pc(0x00)
    2856                      .dwattr $C$DW$223, DW_AT_TI_symbol_name("_PWM_setDigitalCompareBEvent2")
    2857                      .dwattr $C$DW$223, DW_AT_external
    2858                      .dwattr $C$DW$223, DW_AT_TI_begin_file("../drivers/source/pwm.c")
    2859                      .dwattr $C$DW$223, DW_AT_TI_begin_line(0x483)
    2860                      .dwattr $C$DW$223, DW_AT_TI_begin_column(0x06)
    2861                      .dwattr $C$DW$223, DW_AT_TI_max_frame_size(-2)
    2862                      .dwpsn  file "../drivers/source/pwm.c",line 1158,column 1,is_stmt,address _PWM_setDigitalCompareBEven
    2863              
    2864                      .dwfde $C$DW$CIE, _PWM_setDigitalCompareBEvent2
    2865              $C$DW$224       .dwtag  DW_TAG_formal_parameter
    2866                      .dwattr $C$DW$224, DW_AT_name("pwmHandle")
    2867                      .dwattr $C$DW$224, DW_AT_TI_symbol_name("_pwmHandle")
    2868                      .dwattr $C$DW$224, DW_AT_type(*$C$DW$T$33)
TMS320C2000 Assembler PC v15.12.3 Tue Sep 20 20:30:07 2016

Tools Copyright (c) 1996-2015 Texas Instruments Incorporated
C:\Users\MaCHaDo\AppData\Local\Temp\2170410                          PAGE   54

    2869                      .dwattr $C$DW$224, DW_AT_location[DW_OP_reg12]
    2870              
    2871              $C$DW$225       .dwtag  DW_TAG_formal_parameter
    2872                      .dwattr $C$DW$225, DW_AT_name("selectFilter")
    2873                      .dwattr $C$DW$225, DW_AT_TI_symbol_name("_selectFilter")
    2874                      .dwattr $C$DW$225, DW_AT_type(*$C$DW$T$156)
    2875                      .dwattr $C$DW$225, DW_AT_location[DW_OP_reg0]
    2876              
    2877              $C$DW$226       .dwtag  DW_TAG_formal_parameter
    2878                      .dwattr $C$DW$226, DW_AT_name("disableSync")
    2879                      .dwattr $C$DW$226, DW_AT_TI_symbol_name("_disableSync")
    2880                      .dwattr $C$DW$226, DW_AT_type(*$C$DW$T$156)
    2881                      .dwattr $C$DW$226, DW_AT_location[DW_OP_reg1]
    2882              
    2883              
    2884              ;***************************************************************
    2885              ;* FNAME: _PWM_setDigitalCompareBEvent2 FR SIZE:   0           *
    2886              ;*                                                             *
    2887              ;* FUNCTION ENVIRONMENT                                        *
    2888              ;*                                                             *
    2889              ;* FUNCTION PROPERTIES                                         *
    2890              ;*                            0 Parameter,  0 Auto,  0 SOE     *
    2891              ;***************************************************************
    2892              
    2893              _PWM_setDigitalCompareBEvent2:
    2894              ;* AR4   assigned to _pwmHandle
    2895              $C$DW$227       .dwtag  DW_TAG_variable
    2896                      .dwattr $C$DW$227, DW_AT_name("pwmHandle")
    2897                      .dwattr $C$DW$227, DW_AT_TI_symbol_name("_pwmHandle")
    2898                      .dwattr $C$DW$227, DW_AT_type(*$C$DW$T$127)
    2899                      .dwattr $C$DW$227, DW_AT_location[DW_OP_reg12]
    2900              
    2901              ;* AR6   assigned to _selectFilter
    2902              $C$DW$228       .dwtag  DW_TAG_variable
    2903                      .dwattr $C$DW$228, DW_AT_name("selectFilter")
    2904                      .dwattr $C$DW$228, DW_AT_TI_symbol_name("_selectFilter")
    2905                      .dwattr $C$DW$228, DW_AT_type(*$C$DW$T$156)
    2906                      .dwattr $C$DW$228, DW_AT_location[DW_OP_reg16]
    2907              
    2908              ;* AH    assigned to _disableSync
    2909              $C$DW$229       .dwtag  DW_TAG_variable
    2910                      .dwattr $C$DW$229, DW_AT_name("disableSync")
    2911                      .dwattr $C$DW$229, DW_AT_TI_symbol_name("_disableSync")
    2912                      .dwattr $C$DW$229, DW_AT_type(*$C$DW$T$156)
    2913                      .dwattr $C$DW$229, DW_AT_location[DW_OP_reg1]
    2914              
    2915                      .dwcfi  cfa_offset, -2
    2916                      .dwcfi  save_reg_to_mem, 26, 0
    2917 00000125 88A9          MOVZ      AR6,AL                ; [CPU_] |1158| 
    2918 00000126 7622   EALLOW
    2919                      .dwpsn  file "../drivers/source/pwm.c",line 1164,column 5,is_stmt,isa 0
    2920 00000127 83A4          MOVL      XAR5,XAR4             ; [CPU_] |1164| 
    2921                      .dwpsn  file "../drivers/source/pwm.c",line 1167,column 5,is_stmt,isa 0
    2922 00000128 5603          MOV       ACC,AH << #1          ; [CPU_] |1167| 
         00000129 01A8 
TMS320C2000 Assembler PC v15.12.3 Tue Sep 20 20:30:07 2016

Tools Copyright (c) 1996-2015 Texas Instruments Incorporated
C:\Users\MaCHaDo\AppData\Local\Temp\2170410                          PAGE   55

    2923 0000012a DC32          ADDB      XAR4,#50              ; [CPU_] |1167| 
    2924 0000012b CAA6          OR        AL,AR6                ; [CPU_] |1167| 
    2925 0000012c 5603          MOV       ACC,AL << #8          ; [CPU_] |1167| 
         0000012d 08A9 
    2926                      .dwpsn  file "../drivers/source/pwm.c",line 1164,column 5,is_stmt,isa 0
    2927 0000012e DD32          ADDB      XAR5,#50              ; [CPU_] |1164| 
    2928 0000012f 18C5          AND       *+XAR5[0],#0xfcff     ; [CPU_] |1164| 
         00000130 FCFF 
    2929                      .dwpsn  file "../drivers/source/pwm.c",line 1167,column 5,is_stmt,isa 0
    2930 00000131 98C4          OR        *+XAR4[0],AL          ; [CPU_] |1167| 
    2931 00000132 761A   EDIS
    2932 00000133 FF69          SPM       #0                    ; [CPU_] 
    2933              $C$DW$230       .dwtag  DW_TAG_TI_branch
    2934                      .dwattr $C$DW$230, DW_AT_low_pc(0x00)
    2935                      .dwattr $C$DW$230, DW_AT_TI_return
    2936              
    2937 00000134 0006          LRETR     ; [CPU_] 
    2938                      ; return occurs ; [] 
    2939                      .dwattr $C$DW$223, DW_AT_TI_end_file("../drivers/source/pwm.c")
    2940                      .dwattr $C$DW$223, DW_AT_TI_end_line(0x494)
    2941                      .dwattr $C$DW$223, DW_AT_TI_end_column(0x01)
    2942                      .dwendentry
    2943                      .dwendtag $C$DW$223
    2944              
    2945 00000135               .sect   ".text"
    2946                      .clink
    2947                      .global _PWM_setDigitalCompareBEvent1
    2948              
    2949              $C$DW$231       .dwtag  DW_TAG_subprogram
    2950                      .dwattr $C$DW$231, DW_AT_name("PWM_setDigitalCompareBEvent1")
    2951                      .dwattr $C$DW$231, DW_AT_low_pc(_PWM_setDigitalCompareBEvent1)
    2952                      .dwattr $C$DW$231, DW_AT_high_pc(0x00)
    2953                      .dwattr $C$DW$231, DW_AT_TI_symbol_name("_PWM_setDigitalCompareBEvent1")
    2954                      .dwattr $C$DW$231, DW_AT_external
    2955                      .dwattr $C$DW$231, DW_AT_TI_begin_file("../drivers/source/pwm.c")
    2956                      .dwattr $C$DW$231, DW_AT_TI_begin_line(0x46d)
    2957                      .dwattr $C$DW$231, DW_AT_TI_begin_column(0x06)
    2958                      .dwattr $C$DW$231, DW_AT_TI_max_frame_size(-2)
    2959                      .dwpsn  file "../drivers/source/pwm.c",line 1138,column 1,is_stmt,address _PWM_setDigitalCompareBEven
    2960              
    2961                      .dwfde $C$DW$CIE, _PWM_setDigitalCompareBEvent1
    2962              $C$DW$232       .dwtag  DW_TAG_formal_parameter
    2963                      .dwattr $C$DW$232, DW_AT_name("pwmHandle")
    2964                      .dwattr $C$DW$232, DW_AT_TI_symbol_name("_pwmHandle")
    2965                      .dwattr $C$DW$232, DW_AT_type(*$C$DW$T$33)
    2966                      .dwattr $C$DW$232, DW_AT_location[DW_OP_reg12]
    2967              
    2968              $C$DW$233       .dwtag  DW_TAG_formal_parameter
    2969                      .dwattr $C$DW$233, DW_AT_name("selectFilter")
    2970                      .dwattr $C$DW$233, DW_AT_TI_symbol_name("_selectFilter")
    2971                      .dwattr $C$DW$233, DW_AT_type(*$C$DW$T$156)
    2972                      .dwattr $C$DW$233, DW_AT_location[DW_OP_reg0]
    2973              
    2974              $C$DW$234       .dwtag  DW_TAG_formal_parameter
    2975                      .dwattr $C$DW$234, DW_AT_name("disableSync")
TMS320C2000 Assembler PC v15.12.3 Tue Sep 20 20:30:07 2016

Tools Copyright (c) 1996-2015 Texas Instruments Incorporated
C:\Users\MaCHaDo\AppData\Local\Temp\2170410                          PAGE   56

    2976                      .dwattr $C$DW$234, DW_AT_TI_symbol_name("_disableSync")
    2977                      .dwattr $C$DW$234, DW_AT_type(*$C$DW$T$156)
    2978                      .dwattr $C$DW$234, DW_AT_location[DW_OP_reg1]
    2979              
    2980              $C$DW$235       .dwtag  DW_TAG_formal_parameter
    2981                      .dwattr $C$DW$235, DW_AT_name("enableSoc")
    2982                      .dwattr $C$DW$235, DW_AT_TI_symbol_name("_enableSoc")
    2983                      .dwattr $C$DW$235, DW_AT_type(*$C$DW$T$156)
    2984                      .dwattr $C$DW$235, DW_AT_location[DW_OP_reg14]
    2985              
    2986              $C$DW$236       .dwtag  DW_TAG_formal_parameter
    2987                      .dwattr $C$DW$236, DW_AT_name("generateSync")
    2988                      .dwattr $C$DW$236, DW_AT_TI_symbol_name("_generateSync")
    2989                      .dwattr $C$DW$236, DW_AT_type(*$C$DW$T$156)
    2990                      .dwattr $C$DW$236, DW_AT_location[DW_OP_breg20 -3]
    2991              
    2992              
    2993              ;***************************************************************
    2994              ;* FNAME: _PWM_setDigitalCompareBEvent1 FR SIZE:   0           *
    2995              ;*                                                             *
    2996              ;* FUNCTION ENVIRONMENT                                        *
    2997              ;*                                                             *
    2998              ;* FUNCTION PROPERTIES                                         *
    2999              ;*                            0 Parameter,  0 Auto,  0 SOE     *
    3000              ;***************************************************************
    3001              
    3002              _PWM_setDigitalCompareBEvent1:
    3003              ;* AR4   assigned to _pwmHandle
    3004              $C$DW$237       .dwtag  DW_TAG_variable
    3005                      .dwattr $C$DW$237, DW_AT_name("pwmHandle")
    3006                      .dwattr $C$DW$237, DW_AT_TI_symbol_name("_pwmHandle")
    3007                      .dwattr $C$DW$237, DW_AT_type(*$C$DW$T$127)
    3008                      .dwattr $C$DW$237, DW_AT_location[DW_OP_reg12]
    3009              
    3010              ;* AR7   assigned to _selectFilter
    3011              $C$DW$238       .dwtag  DW_TAG_variable
    3012                      .dwattr $C$DW$238, DW_AT_name("selectFilter")
    3013                      .dwattr $C$DW$238, DW_AT_TI_symbol_name("_selectFilter")
    3014                      .dwattr $C$DW$238, DW_AT_type(*$C$DW$T$156)
    3015                      .dwattr $C$DW$238, DW_AT_location[DW_OP_reg18]
    3016              
    3017              ;* AH    assigned to _disableSync
    3018              $C$DW$239       .dwtag  DW_TAG_variable
    3019                      .dwattr $C$DW$239, DW_AT_name("disableSync")
    3020                      .dwattr $C$DW$239, DW_AT_TI_symbol_name("_disableSync")
    3021                      .dwattr $C$DW$239, DW_AT_type(*$C$DW$T$156)
    3022                      .dwattr $C$DW$239, DW_AT_location[DW_OP_reg1]
    3023              
    3024              ;* AR5   assigned to _enableSoc
    3025              $C$DW$240       .dwtag  DW_TAG_variable
    3026                      .dwattr $C$DW$240, DW_AT_name("enableSoc")
    3027                      .dwattr $C$DW$240, DW_AT_TI_symbol_name("_enableSoc")
    3028                      .dwattr $C$DW$240, DW_AT_type(*$C$DW$T$156)
    3029                      .dwattr $C$DW$240, DW_AT_location[DW_OP_reg14]
    3030              
TMS320C2000 Assembler PC v15.12.3 Tue Sep 20 20:30:07 2016

Tools Copyright (c) 1996-2015 Texas Instruments Incorporated
C:\Users\MaCHaDo\AppData\Local\Temp\2170410                          PAGE   57

    3031              ;* PL    assigned to _generateSync
    3032              $C$DW$241       .dwtag  DW_TAG_variable
    3033                      .dwattr $C$DW$241, DW_AT_name("generateSync")
    3034                      .dwattr $C$DW$241, DW_AT_TI_symbol_name("_generateSync")
    3035                      .dwattr $C$DW$241, DW_AT_type(*$C$DW$T$156)
    3036                      .dwattr $C$DW$241, DW_AT_location[DW_OP_reg2]
    3037              
    3038                      .dwcfi  cfa_offset, -2
    3039                      .dwcfi  save_reg_to_mem, 26, 0
    3040 00000135 80A9          MOVZ      AR7,AL                ; [CPU_] |1138| 
    3041 00000136 2743          MOV       PL,*-SP[3]            ; [CPU_] |1138| 
    3042 00000137 7622   EALLOW
    3043                      .dwpsn  file "../drivers/source/pwm.c",line 1144,column 5,is_stmt,isa 0
    3044 00000138 C4A4          MOVL      XAR6,XAR4             ; [CPU_] |1144| 
    3045                      .dwpsn  file "../drivers/source/pwm.c",line 1147,column 5,is_stmt,isa 0
    3046 00000139 5603          MOV       ACC,AH << #1          ; [CPU_] |1147| 
         0000013a 01A8 
    3047 0000013b DC32          ADDB      XAR4,#50              ; [CPU_] |1147| 
    3048 0000013c 93A9          MOV       AH,AL                 ; [CPU_] |1147| 
    3049                      .dwpsn  file "../drivers/source/pwm.c",line 1144,column 5,is_stmt,isa 0
    3050 0000013d DE32          ADDB      XAR6,#50              ; [CPU_] |1144| 
    3051 0000013e 18C6          AND       *+XAR6[0],#0xfff0     ; [CPU_] |1144| 
         0000013f FFF0 
    3052                      .dwpsn  file "../drivers/source/pwm.c",line 1147,column 5,is_stmt,isa 0
    3053 00000140 CBC4          OR        AH,*+XAR4[0]          ; [CPU_] |1147| 
    3054 00000141 88A8          MOVZ      AR6,AH                ; [CPU_] |1147| 
    3055 00000142 5603          MOV       ACC,AR5 << #2         ; [CPU_] |1147| 
         00000143 02A5 
    3056 00000144 93A9          MOV       AH,AL                 ; [CPU_] |1147| 
    3057 00000145 CBA6          OR        AH,AR6                ; [CPU_] |1147| 
    3058 00000146 2FA8          MOV       PH,AH                 ; [CPU_] |1147| 
    3059 00000147 5603          MOV       ACC,PL << #3          ; [CPU_] |1147| 
         00000148 03AB 
    3060 00000149 CAAA          OR        AL,PH                 ; [CPU_] |1147| 
    3061 0000014a CAA7          OR        AL,AR7                ; [CPU_] |1147| 
    3062 0000014b 96C4          MOV       *+XAR4[0],AL          ; [CPU_] |1147| 
    3063 0000014c 761A   EDIS
    3064 0000014d FF69          SPM       #0                    ; [CPU_] 
    3065              $C$DW$242       .dwtag  DW_TAG_TI_branch
    3066                      .dwattr $C$DW$242, DW_AT_low_pc(0x00)
    3067                      .dwattr $C$DW$242, DW_AT_TI_return
    3068              
    3069 0000014e 0006          LRETR     ; [CPU_] 
    3070                      ; return occurs ; [] 
    3071                      .dwattr $C$DW$231, DW_AT_TI_end_file("../drivers/source/pwm.c")
    3072                      .dwattr $C$DW$231, DW_AT_TI_end_line(0x480)
    3073                      .dwattr $C$DW$231, DW_AT_TI_end_column(0x01)
    3074                      .dwendentry
    3075                      .dwendtag $C$DW$231
    3076              
    3077 0000014f               .sect   ".text"
    3078                      .clink
    3079                      .global _PWM_setDigitalCompareAEvent2
    3080              
    3081              $C$DW$243       .dwtag  DW_TAG_subprogram
TMS320C2000 Assembler PC v15.12.3 Tue Sep 20 20:30:07 2016

Tools Copyright (c) 1996-2015 Texas Instruments Incorporated
C:\Users\MaCHaDo\AppData\Local\Temp\2170410                          PAGE   58

    3082                      .dwattr $C$DW$243, DW_AT_name("PWM_setDigitalCompareAEvent2")
    3083                      .dwattr $C$DW$243, DW_AT_low_pc(_PWM_setDigitalCompareAEvent2)
    3084                      .dwattr $C$DW$243, DW_AT_high_pc(0x00)
    3085                      .dwattr $C$DW$243, DW_AT_TI_symbol_name("_PWM_setDigitalCompareAEvent2")
    3086                      .dwattr $C$DW$243, DW_AT_external
    3087                      .dwattr $C$DW$243, DW_AT_TI_begin_file("../drivers/source/pwm.c")
    3088                      .dwattr $C$DW$243, DW_AT_TI_begin_line(0x459)
    3089                      .dwattr $C$DW$243, DW_AT_TI_begin_column(0x06)
    3090                      .dwattr $C$DW$243, DW_AT_TI_max_frame_size(-2)
    3091                      .dwpsn  file "../drivers/source/pwm.c",line 1116,column 1,is_stmt,address _PWM_setDigitalCompareAEven
    3092              
    3093                      .dwfde $C$DW$CIE, _PWM_setDigitalCompareAEvent2
    3094              $C$DW$244       .dwtag  DW_TAG_formal_parameter
    3095                      .dwattr $C$DW$244, DW_AT_name("pwmHandle")
    3096                      .dwattr $C$DW$244, DW_AT_TI_symbol_name("_pwmHandle")
    3097                      .dwattr $C$DW$244, DW_AT_type(*$C$DW$T$33)
    3098                      .dwattr $C$DW$244, DW_AT_location[DW_OP_reg12]
    3099              
    3100              $C$DW$245       .dwtag  DW_TAG_formal_parameter
    3101                      .dwattr $C$DW$245, DW_AT_name("selectFilter")
    3102                      .dwattr $C$DW$245, DW_AT_TI_symbol_name("_selectFilter")
    3103                      .dwattr $C$DW$245, DW_AT_type(*$C$DW$T$156)
    3104                      .dwattr $C$DW$245, DW_AT_location[DW_OP_reg0]
    3105              
    3106              $C$DW$246       .dwtag  DW_TAG_formal_parameter
    3107                      .dwattr $C$DW$246, DW_AT_name("disableSync")
    3108                      .dwattr $C$DW$246, DW_AT_TI_symbol_name("_disableSync")
    3109                      .dwattr $C$DW$246, DW_AT_type(*$C$DW$T$156)
    3110                      .dwattr $C$DW$246, DW_AT_location[DW_OP_reg1]
    3111              
    3112              
    3113              ;***************************************************************
    3114              ;* FNAME: _PWM_setDigitalCompareAEvent2 FR SIZE:   0           *
    3115              ;*                                                             *
    3116              ;* FUNCTION ENVIRONMENT                                        *
    3117              ;*                                                             *
    3118              ;* FUNCTION PROPERTIES                                         *
    3119              ;*                            0 Parameter,  0 Auto,  0 SOE     *
    3120              ;***************************************************************
    3121              
    3122              _PWM_setDigitalCompareAEvent2:
    3123              ;* AR4   assigned to _pwmHandle
    3124              $C$DW$247       .dwtag  DW_TAG_variable
    3125                      .dwattr $C$DW$247, DW_AT_name("pwmHandle")
    3126                      .dwattr $C$DW$247, DW_AT_TI_symbol_name("_pwmHandle")
    3127                      .dwattr $C$DW$247, DW_AT_type(*$C$DW$T$127)
    3128                      .dwattr $C$DW$247, DW_AT_location[DW_OP_reg12]
    3129              
    3130              ;* AR6   assigned to _selectFilter
    3131              $C$DW$248       .dwtag  DW_TAG_variable
    3132                      .dwattr $C$DW$248, DW_AT_name("selectFilter")
    3133                      .dwattr $C$DW$248, DW_AT_TI_symbol_name("_selectFilter")
    3134                      .dwattr $C$DW$248, DW_AT_type(*$C$DW$T$156)
    3135                      .dwattr $C$DW$248, DW_AT_location[DW_OP_reg16]
    3136              
TMS320C2000 Assembler PC v15.12.3 Tue Sep 20 20:30:07 2016

Tools Copyright (c) 1996-2015 Texas Instruments Incorporated
C:\Users\MaCHaDo\AppData\Local\Temp\2170410                          PAGE   59

    3137              ;* AH    assigned to _disableSync
    3138              $C$DW$249       .dwtag  DW_TAG_variable
    3139                      .dwattr $C$DW$249, DW_AT_name("disableSync")
    3140                      .dwattr $C$DW$249, DW_AT_TI_symbol_name("_disableSync")
    3141                      .dwattr $C$DW$249, DW_AT_type(*$C$DW$T$156)
    3142                      .dwattr $C$DW$249, DW_AT_location[DW_OP_reg1]
    3143              
    3144                      .dwcfi  cfa_offset, -2
    3145                      .dwcfi  save_reg_to_mem, 26, 0
    3146 0000014f 88A9          MOVZ      AR6,AL                ; [CPU_] |1116| 
    3147 00000150 7622   EALLOW
    3148                      .dwpsn  file "../drivers/source/pwm.c",line 1122,column 5,is_stmt,isa 0
    3149 00000151 83A4          MOVL      XAR5,XAR4             ; [CPU_] |1122| 
    3150                      .dwpsn  file "../drivers/source/pwm.c",line 1125,column 5,is_stmt,isa 0
    3151 00000152 5603          MOV       ACC,AH << #1          ; [CPU_] |1125| 
         00000153 01A8 
    3152 00000154 DC31          ADDB      XAR4,#49              ; [CPU_] |1125| 
    3153 00000155 CAA6          OR        AL,AR6                ; [CPU_] |1125| 
    3154 00000156 5603          MOV       ACC,AL << #8          ; [CPU_] |1125| 
         00000157 08A9 
    3155                      .dwpsn  file "../drivers/source/pwm.c",line 1122,column 5,is_stmt,isa 0
    3156 00000158 DD31          ADDB      XAR5,#49              ; [CPU_] |1122| 
    3157 00000159 18C5          AND       *+XAR5[0],#0xfcff     ; [CPU_] |1122| 
         0000015a FCFF 
    3158                      .dwpsn  file "../drivers/source/pwm.c",line 1125,column 5,is_stmt,isa 0
    3159 0000015b 98C4          OR        *+XAR4[0],AL          ; [CPU_] |1125| 
    3160 0000015c 761A   EDIS
    3161 0000015d FF69          SPM       #0                    ; [CPU_] 
    3162              $C$DW$250       .dwtag  DW_TAG_TI_branch
    3163                      .dwattr $C$DW$250, DW_AT_low_pc(0x00)
    3164                      .dwattr $C$DW$250, DW_AT_TI_return
    3165              
    3166 0000015e 0006          LRETR     ; [CPU_] 
    3167                      ; return occurs ; [] 
    3168                      .dwattr $C$DW$243, DW_AT_TI_end_file("../drivers/source/pwm.c")
    3169                      .dwattr $C$DW$243, DW_AT_TI_end_line(0x46a)
    3170                      .dwattr $C$DW$243, DW_AT_TI_end_column(0x01)
    3171                      .dwendentry
    3172                      .dwendtag $C$DW$243
    3173              
    3174 0000015f               .sect   ".text"
    3175                      .clink
    3176                      .global _PWM_setDigitalCompareAEvent1
    3177              
    3178              $C$DW$251       .dwtag  DW_TAG_subprogram
    3179                      .dwattr $C$DW$251, DW_AT_name("PWM_setDigitalCompareAEvent1")
    3180                      .dwattr $C$DW$251, DW_AT_low_pc(_PWM_setDigitalCompareAEvent1)
    3181                      .dwattr $C$DW$251, DW_AT_high_pc(0x00)
    3182                      .dwattr $C$DW$251, DW_AT_TI_symbol_name("_PWM_setDigitalCompareAEvent1")
    3183                      .dwattr $C$DW$251, DW_AT_external
    3184                      .dwattr $C$DW$251, DW_AT_TI_begin_file("../drivers/source/pwm.c")
    3185                      .dwattr $C$DW$251, DW_AT_TI_begin_line(0x443)
    3186                      .dwattr $C$DW$251, DW_AT_TI_begin_column(0x06)
    3187                      .dwattr $C$DW$251, DW_AT_TI_max_frame_size(-2)
    3188                      .dwpsn  file "../drivers/source/pwm.c",line 1096,column 1,is_stmt,address _PWM_setDigitalCompareAEven
TMS320C2000 Assembler PC v15.12.3 Tue Sep 20 20:30:07 2016

Tools Copyright (c) 1996-2015 Texas Instruments Incorporated
C:\Users\MaCHaDo\AppData\Local\Temp\2170410                          PAGE   60

    3189              
    3190                      .dwfde $C$DW$CIE, _PWM_setDigitalCompareAEvent1
    3191              $C$DW$252       .dwtag  DW_TAG_formal_parameter
    3192                      .dwattr $C$DW$252, DW_AT_name("pwmHandle")
    3193                      .dwattr $C$DW$252, DW_AT_TI_symbol_name("_pwmHandle")
    3194                      .dwattr $C$DW$252, DW_AT_type(*$C$DW$T$33)
    3195                      .dwattr $C$DW$252, DW_AT_location[DW_OP_reg12]
    3196              
    3197              $C$DW$253       .dwtag  DW_TAG_formal_parameter
    3198                      .dwattr $C$DW$253, DW_AT_name("selectFilter")
    3199                      .dwattr $C$DW$253, DW_AT_TI_symbol_name("_selectFilter")
    3200                      .dwattr $C$DW$253, DW_AT_type(*$C$DW$T$156)
    3201                      .dwattr $C$DW$253, DW_AT_location[DW_OP_reg0]
    3202              
    3203              $C$DW$254       .dwtag  DW_TAG_formal_parameter
    3204                      .dwattr $C$DW$254, DW_AT_name("disableSync")
    3205                      .dwattr $C$DW$254, DW_AT_TI_symbol_name("_disableSync")
    3206                      .dwattr $C$DW$254, DW_AT_type(*$C$DW$T$156)
    3207                      .dwattr $C$DW$254, DW_AT_location[DW_OP_reg1]
    3208              
    3209              $C$DW$255       .dwtag  DW_TAG_formal_parameter
    3210                      .dwattr $C$DW$255, DW_AT_name("enableSoc")
    3211                      .dwattr $C$DW$255, DW_AT_TI_symbol_name("_enableSoc")
    3212                      .dwattr $C$DW$255, DW_AT_type(*$C$DW$T$156)
    3213                      .dwattr $C$DW$255, DW_AT_location[DW_OP_reg14]
    3214              
    3215              $C$DW$256       .dwtag  DW_TAG_formal_parameter
    3216                      .dwattr $C$DW$256, DW_AT_name("generateSync")
    3217                      .dwattr $C$DW$256, DW_AT_TI_symbol_name("_generateSync")
    3218                      .dwattr $C$DW$256, DW_AT_type(*$C$DW$T$156)
    3219                      .dwattr $C$DW$256, DW_AT_location[DW_OP_breg20 -3]
    3220              
    3221              
    3222              ;***************************************************************
    3223              ;* FNAME: _PWM_setDigitalCompareAEvent1 FR SIZE:   0           *
    3224              ;*                                                             *
    3225              ;* FUNCTION ENVIRONMENT                                        *
    3226              ;*                                                             *
    3227              ;* FUNCTION PROPERTIES                                         *
    3228              ;*                            0 Parameter,  0 Auto,  0 SOE     *
    3229              ;***************************************************************
    3230              
    3231              _PWM_setDigitalCompareAEvent1:
    3232              ;* AR4   assigned to _pwmHandle
    3233              $C$DW$257       .dwtag  DW_TAG_variable
    3234                      .dwattr $C$DW$257, DW_AT_name("pwmHandle")
    3235                      .dwattr $C$DW$257, DW_AT_TI_symbol_name("_pwmHandle")
    3236                      .dwattr $C$DW$257, DW_AT_type(*$C$DW$T$127)
    3237                      .dwattr $C$DW$257, DW_AT_location[DW_OP_reg12]
    3238              
    3239              ;* AR7   assigned to _selectFilter
    3240              $C$DW$258       .dwtag  DW_TAG_variable
    3241                      .dwattr $C$DW$258, DW_AT_name("selectFilter")
    3242                      .dwattr $C$DW$258, DW_AT_TI_symbol_name("_selectFilter")
    3243                      .dwattr $C$DW$258, DW_AT_type(*$C$DW$T$156)
TMS320C2000 Assembler PC v15.12.3 Tue Sep 20 20:30:07 2016

Tools Copyright (c) 1996-2015 Texas Instruments Incorporated
C:\Users\MaCHaDo\AppData\Local\Temp\2170410                          PAGE   61

    3244                      .dwattr $C$DW$258, DW_AT_location[DW_OP_reg18]
    3245              
    3246              ;* AH    assigned to _disableSync
    3247              $C$DW$259       .dwtag  DW_TAG_variable
    3248                      .dwattr $C$DW$259, DW_AT_name("disableSync")
    3249                      .dwattr $C$DW$259, DW_AT_TI_symbol_name("_disableSync")
    3250                      .dwattr $C$DW$259, DW_AT_type(*$C$DW$T$156)
    3251                      .dwattr $C$DW$259, DW_AT_location[DW_OP_reg1]
    3252              
    3253              ;* AR5   assigned to _enableSoc
    3254              $C$DW$260       .dwtag  DW_TAG_variable
    3255                      .dwattr $C$DW$260, DW_AT_name("enableSoc")
    3256                      .dwattr $C$DW$260, DW_AT_TI_symbol_name("_enableSoc")
    3257                      .dwattr $C$DW$260, DW_AT_type(*$C$DW$T$156)
    3258                      .dwattr $C$DW$260, DW_AT_location[DW_OP_reg14]
    3259              
    3260              ;* PL    assigned to _generateSync
    3261              $C$DW$261       .dwtag  DW_TAG_variable
    3262                      .dwattr $C$DW$261, DW_AT_name("generateSync")
    3263                      .dwattr $C$DW$261, DW_AT_TI_symbol_name("_generateSync")
    3264                      .dwattr $C$DW$261, DW_AT_type(*$C$DW$T$156)
    3265                      .dwattr $C$DW$261, DW_AT_location[DW_OP_reg2]
    3266              
    3267                      .dwcfi  cfa_offset, -2
    3268                      .dwcfi  save_reg_to_mem, 26, 0
    3269 0000015f 80A9          MOVZ      AR7,AL                ; [CPU_] |1096| 
    3270 00000160 2743          MOV       PL,*-SP[3]            ; [CPU_] |1096| 
    3271 00000161 7622   EALLOW
    3272                      .dwpsn  file "../drivers/source/pwm.c",line 1102,column 5,is_stmt,isa 0
    3273 00000162 C4A4          MOVL      XAR6,XAR4             ; [CPU_] |1102| 
    3274                      .dwpsn  file "../drivers/source/pwm.c",line 1105,column 5,is_stmt,isa 0
    3275 00000163 5603          MOV       ACC,AH << #1          ; [CPU_] |1105| 
         00000164 01A8 
    3276 00000165 DC31          ADDB      XAR4,#49              ; [CPU_] |1105| 
    3277 00000166 93A9          MOV       AH,AL                 ; [CPU_] |1105| 
    3278                      .dwpsn  file "../drivers/source/pwm.c",line 1102,column 5,is_stmt,isa 0
    3279 00000167 DE31          ADDB      XAR6,#49              ; [CPU_] |1102| 
    3280 00000168 18C6          AND       *+XAR6[0],#0xfff0     ; [CPU_] |1102| 
         00000169 FFF0 
    3281                      .dwpsn  file "../drivers/source/pwm.c",line 1105,column 5,is_stmt,isa 0
    3282 0000016a CBC4          OR        AH,*+XAR4[0]          ; [CPU_] |1105| 
    3283 0000016b 88A8          MOVZ      AR6,AH                ; [CPU_] |1105| 
    3284 0000016c 5603          MOV       ACC,AR5 << #2         ; [CPU_] |1105| 
         0000016d 02A5 
    3285 0000016e 93A9          MOV       AH,AL                 ; [CPU_] |1105| 
    3286 0000016f CBA6          OR        AH,AR6                ; [CPU_] |1105| 
    3287 00000170 2FA8          MOV       PH,AH                 ; [CPU_] |1105| 
    3288 00000171 5603          MOV       ACC,PL << #3          ; [CPU_] |1105| 
         00000172 03AB 
    3289 00000173 CAAA          OR        AL,PH                 ; [CPU_] |1105| 
    3290 00000174 CAA7          OR        AL,AR7                ; [CPU_] |1105| 
    3291 00000175 96C4          MOV       *+XAR4[0],AL          ; [CPU_] |1105| 
    3292 00000176 761A   EDIS
    3293 00000177 FF69          SPM       #0                    ; [CPU_] 
    3294              $C$DW$262       .dwtag  DW_TAG_TI_branch
TMS320C2000 Assembler PC v15.12.3 Tue Sep 20 20:30:07 2016

Tools Copyright (c) 1996-2015 Texas Instruments Incorporated
C:\Users\MaCHaDo\AppData\Local\Temp\2170410                          PAGE   62

    3295                      .dwattr $C$DW$262, DW_AT_low_pc(0x00)
    3296                      .dwattr $C$DW$262, DW_AT_TI_return
    3297              
    3298 00000178 0006          LRETR     ; [CPU_] 
    3299                      ; return occurs ; [] 
    3300                      .dwattr $C$DW$251, DW_AT_TI_end_file("../drivers/source/pwm.c")
    3301                      .dwattr $C$DW$251, DW_AT_TI_end_line(0x456)
    3302                      .dwattr $C$DW$251, DW_AT_TI_end_column(0x01)
    3303                      .dwendentry
    3304                      .dwendtag $C$DW$251
    3305              
    3306 00000179               .sect   ".text"
    3307                      .clink
    3308                      .global _PWM_setDeadBandRisingEdgeDelay
    3309              
    3310              $C$DW$263       .dwtag  DW_TAG_subprogram
    3311                      .dwattr $C$DW$263, DW_AT_name("PWM_setDeadBandRisingEdgeDelay")
    3312                      .dwattr $C$DW$263, DW_AT_low_pc(_PWM_setDeadBandRisingEdgeDelay)
    3313                      .dwattr $C$DW$263, DW_AT_high_pc(0x00)
    3314                      .dwattr $C$DW$263, DW_AT_TI_symbol_name("_PWM_setDeadBandRisingEdgeDelay")
    3315                      .dwattr $C$DW$263, DW_AT_external
    3316                      .dwattr $C$DW$263, DW_AT_TI_begin_file("../drivers/source/pwm.c")
    3317                      .dwattr $C$DW$263, DW_AT_TI_begin_line(0x3e5)
    3318                      .dwattr $C$DW$263, DW_AT_TI_begin_column(0x06)
    3319                      .dwattr $C$DW$263, DW_AT_TI_max_frame_size(-2)
    3320                      .dwpsn  file "../drivers/source/pwm.c",line 998,column 1,is_stmt,address _PWM_setDeadBandRisingEdgeDe
    3321              
    3322                      .dwfde $C$DW$CIE, _PWM_setDeadBandRisingEdgeDelay
    3323              $C$DW$264       .dwtag  DW_TAG_formal_parameter
    3324                      .dwattr $C$DW$264, DW_AT_name("pwmHandle")
    3325                      .dwattr $C$DW$264, DW_AT_TI_symbol_name("_pwmHandle")
    3326                      .dwattr $C$DW$264, DW_AT_type(*$C$DW$T$33)
    3327                      .dwattr $C$DW$264, DW_AT_location[DW_OP_reg12]
    3328              
    3329              $C$DW$265       .dwtag  DW_TAG_formal_parameter
    3330                      .dwattr $C$DW$265, DW_AT_name("delay")
    3331                      .dwattr $C$DW$265, DW_AT_TI_symbol_name("_delay")
    3332                      .dwattr $C$DW$265, DW_AT_type(*$C$DW$T$146)
    3333                      .dwattr $C$DW$265, DW_AT_location[DW_OP_reg0]
    3334              
    3335              
    3336              ;***************************************************************
    3337              ;* FNAME: _PWM_setDeadBandRisingEdgeDelay FR SIZE:   0           *
    3338              ;*                                                             *
    3339              ;* FUNCTION ENVIRONMENT                                        *
    3340              ;*                                                             *
    3341              ;* FUNCTION PROPERTIES                                         *
    3342              ;*                            0 Parameter,  0 Auto,  0 SOE     *
    3343              ;***************************************************************
    3344              
    3345              _PWM_setDeadBandRisingEdgeDelay:
    3346              ;* AR4   assigned to _pwmHandle
    3347              $C$DW$266       .dwtag  DW_TAG_variable
    3348                      .dwattr $C$DW$266, DW_AT_name("pwmHandle")
    3349                      .dwattr $C$DW$266, DW_AT_TI_symbol_name("_pwmHandle")
TMS320C2000 Assembler PC v15.12.3 Tue Sep 20 20:30:07 2016

Tools Copyright (c) 1996-2015 Texas Instruments Incorporated
C:\Users\MaCHaDo\AppData\Local\Temp\2170410                          PAGE   63

    3350                      .dwattr $C$DW$266, DW_AT_type(*$C$DW$T$127)
    3351                      .dwattr $C$DW$266, DW_AT_location[DW_OP_reg12]
    3352              
    3353              ;* AL    assigned to _delay
    3354              $C$DW$267       .dwtag  DW_TAG_variable
    3355                      .dwattr $C$DW$267, DW_AT_name("delay")
    3356                      .dwattr $C$DW$267, DW_AT_TI_symbol_name("_delay")
    3357                      .dwattr $C$DW$267, DW_AT_type(*$C$DW$T$146)
    3358                      .dwattr $C$DW$267, DW_AT_location[DW_OP_reg0]
    3359              
    3360                      .dwcfi  cfa_offset, -2
    3361                      .dwcfi  save_reg_to_mem, 26, 0
    3362                      .dwpsn  file "../drivers/source/pwm.c",line 1002,column 5,is_stmt,isa 0
    3363 00000179 D010          MOVB      XAR0,#16              ; [CPU_] |1002| 
    3364 0000017a 9694          MOV       *+XAR4[AR0],AL        ; [CPU_] |1002| 
    3365              $C$DW$268       .dwtag  DW_TAG_TI_branch
    3366                      .dwattr $C$DW$268, DW_AT_low_pc(0x00)
    3367                      .dwattr $C$DW$268, DW_AT_TI_return
    3368              
    3369 0000017b 0006          LRETR     ; [CPU_] 
    3370                      ; return occurs ; [] 
    3371                      .dwattr $C$DW$263, DW_AT_TI_end_file("../drivers/source/pwm.c")
    3372                      .dwattr $C$DW$263, DW_AT_TI_end_line(0x3ed)
    3373                      .dwattr $C$DW$263, DW_AT_TI_end_column(0x01)
    3374                      .dwendentry
    3375                      .dwendtag $C$DW$263
    3376              
    3377 0000017c               .sect   ".text"
    3378                      .clink
    3379                      .global _PWM_setDeadBandPolarity
    3380              
    3381              $C$DW$269       .dwtag  DW_TAG_subprogram
    3382                      .dwattr $C$DW$269, DW_AT_name("PWM_setDeadBandPolarity")
    3383                      .dwattr $C$DW$269, DW_AT_low_pc(_PWM_setDeadBandPolarity)
    3384                      .dwattr $C$DW$269, DW_AT_high_pc(0x00)
    3385                      .dwattr $C$DW$269, DW_AT_TI_symbol_name("_PWM_setDeadBandPolarity")
    3386                      .dwattr $C$DW$269, DW_AT_external
    3387                      .dwattr $C$DW$269, DW_AT_TI_begin_file("../drivers/source/pwm.c")
    3388                      .dwattr $C$DW$269, DW_AT_TI_begin_line(0x3d6)
    3389                      .dwattr $C$DW$269, DW_AT_TI_begin_column(0x06)
    3390                      .dwattr $C$DW$269, DW_AT_TI_max_frame_size(-2)
    3391                      .dwpsn  file "../drivers/source/pwm.c",line 983,column 1,is_stmt,address _PWM_setDeadBandPolarity,isa
    3392              
    3393                      .dwfde $C$DW$CIE, _PWM_setDeadBandPolarity
    3394              $C$DW$270       .dwtag  DW_TAG_formal_parameter
    3395                      .dwattr $C$DW$270, DW_AT_name("pwmHandle")
    3396                      .dwattr $C$DW$270, DW_AT_TI_symbol_name("_pwmHandle")
    3397                      .dwattr $C$DW$270, DW_AT_type(*$C$DW$T$33)
    3398                      .dwattr $C$DW$270, DW_AT_location[DW_OP_reg12]
    3399              
    3400              $C$DW$271       .dwtag  DW_TAG_formal_parameter
    3401                      .dwattr $C$DW$271, DW_AT_name("polarity")
    3402                      .dwattr $C$DW$271, DW_AT_TI_symbol_name("_polarity")
    3403                      .dwattr $C$DW$271, DW_AT_type(*$C$DW$T$74)
    3404                      .dwattr $C$DW$271, DW_AT_location[DW_OP_reg0]
TMS320C2000 Assembler PC v15.12.3 Tue Sep 20 20:30:07 2016

Tools Copyright (c) 1996-2015 Texas Instruments Incorporated
C:\Users\MaCHaDo\AppData\Local\Temp\2170410                          PAGE   64

    3405              
    3406              
    3407              ;***************************************************************
    3408              ;* FNAME: _PWM_setDeadBandPolarity      FR SIZE:   0           *
    3409              ;*                                                             *
    3410              ;* FUNCTION ENVIRONMENT                                        *
    3411              ;*                                                             *
    3412              ;* FUNCTION PROPERTIES                                         *
    3413              ;*                            0 Parameter,  0 Auto,  0 SOE     *
    3414              ;***************************************************************
    3415              
    3416              _PWM_setDeadBandPolarity:
    3417              ;* AR4   assigned to _pwmHandle
    3418              $C$DW$272       .dwtag  DW_TAG_variable
    3419                      .dwattr $C$DW$272, DW_AT_name("pwmHandle")
    3420                      .dwattr $C$DW$272, DW_AT_TI_symbol_name("_pwmHandle")
    3421                      .dwattr $C$DW$272, DW_AT_type(*$C$DW$T$127)
    3422                      .dwattr $C$DW$272, DW_AT_location[DW_OP_reg12]
    3423              
    3424              ;* AL    assigned to _polarity
    3425              $C$DW$273       .dwtag  DW_TAG_variable
    3426                      .dwattr $C$DW$273, DW_AT_name("polarity")
    3427                      .dwattr $C$DW$273, DW_AT_TI_symbol_name("_polarity")
    3428                      .dwattr $C$DW$273, DW_AT_type(*$C$DW$T$74)
    3429                      .dwattr $C$DW$273, DW_AT_location[DW_OP_reg0]
    3430              
    3431                      .dwcfi  cfa_offset, -2
    3432                      .dwcfi  save_reg_to_mem, 26, 0
    3433                      .dwpsn  file "../drivers/source/pwm.c",line 988,column 5,is_stmt,isa 0
    3434 0000017c 83A4          MOVL      XAR5,XAR4             ; [CPU_] |988| 
    3435 0000017d DD0F          ADDB      XAR5,#15              ; [CPU_] |988| 
    3436 0000017e 18C5          AND       *+XAR5[0],#0xfff3     ; [CPU_] |988| 
         0000017f FFF3 
    3437                      .dwpsn  file "../drivers/source/pwm.c",line 991,column 5,is_stmt,isa 0
    3438 00000180 DC0F          ADDB      XAR4,#15              ; [CPU_] |991| 
    3439 00000181 98C4          OR        *+XAR4[0],AL          ; [CPU_] |991| 
    3440              $C$DW$274       .dwtag  DW_TAG_TI_branch
    3441                      .dwattr $C$DW$274, DW_AT_low_pc(0x00)
    3442                      .dwattr $C$DW$274, DW_AT_TI_return
    3443              
    3444 00000182 0006          LRETR     ; [CPU_] 
    3445                      ; return occurs ; [] 
    3446                      .dwattr $C$DW$269, DW_AT_TI_end_file("../drivers/source/pwm.c")
    3447                      .dwattr $C$DW$269, DW_AT_TI_end_line(0x3e2)
    3448                      .dwattr $C$DW$269, DW_AT_TI_end_column(0x01)
    3449                      .dwendentry
    3450                      .dwendtag $C$DW$269
    3451              
    3452 00000183               .sect   ".text"
    3453                      .clink
    3454                      .global _PWM_setDeadBandOutputMode
    3455              
    3456              $C$DW$275       .dwtag  DW_TAG_subprogram
    3457                      .dwattr $C$DW$275, DW_AT_name("PWM_setDeadBandOutputMode")
    3458                      .dwattr $C$DW$275, DW_AT_low_pc(_PWM_setDeadBandOutputMode)
TMS320C2000 Assembler PC v15.12.3 Tue Sep 20 20:30:07 2016

Tools Copyright (c) 1996-2015 Texas Instruments Incorporated
C:\Users\MaCHaDo\AppData\Local\Temp\2170410                          PAGE   65

    3459                      .dwattr $C$DW$275, DW_AT_high_pc(0x00)
    3460                      .dwattr $C$DW$275, DW_AT_TI_symbol_name("_PWM_setDeadBandOutputMode")
    3461                      .dwattr $C$DW$275, DW_AT_external
    3462                      .dwattr $C$DW$275, DW_AT_TI_begin_file("../drivers/source/pwm.c")
    3463                      .dwattr $C$DW$275, DW_AT_TI_begin_line(0x3c7)
    3464                      .dwattr $C$DW$275, DW_AT_TI_begin_column(0x06)
    3465                      .dwattr $C$DW$275, DW_AT_TI_max_frame_size(-2)
    3466                      .dwpsn  file "../drivers/source/pwm.c",line 968,column 1,is_stmt,address _PWM_setDeadBandOutputMode,i
    3467              
    3468                      .dwfde $C$DW$CIE, _PWM_setDeadBandOutputMode
    3469              $C$DW$276       .dwtag  DW_TAG_formal_parameter
    3470                      .dwattr $C$DW$276, DW_AT_name("pwmHandle")
    3471                      .dwattr $C$DW$276, DW_AT_TI_symbol_name("_pwmHandle")
    3472                      .dwattr $C$DW$276, DW_AT_type(*$C$DW$T$33)
    3473                      .dwattr $C$DW$276, DW_AT_location[DW_OP_reg12]
    3474              
    3475              $C$DW$277       .dwtag  DW_TAG_formal_parameter
    3476                      .dwattr $C$DW$277, DW_AT_name("outputMode")
    3477                      .dwattr $C$DW$277, DW_AT_TI_symbol_name("_outputMode")
