TMS320C2000 Assembler PC v15.12.3 Tue Sep 20 20:30:11 2016

Tools Copyright (c) 1996-2015 Texas Instruments Incorporated
C:\Users\MaCHaDo\AppData\Local\Temp\2006010                          PAGE    1

       1              ;***************************************************************
       2              ;* TMS320C2000 C/C++ Codegen                   PC v15.12.3.LTS *
       3              ;* Date/Time created: Tue Sep 20 20:30:11 2016                 *
       4              ;***************************************************************
       5                      .compiler_opts --abi=coffabi --float_support=softlib --hll_source=on --mem_model:code=flat --mem_mode
       6        0002  FP      .set    XAR2
       7              
       8              $C$DW$CU        .dwtag  DW_TAG_compile_unit
       9                      .dwattr $C$DW$CU, DW_AT_name("../drivers/source/spi.c")
      10                      .dwattr $C$DW$CU, DW_AT_producer("TI TMS320C2000 C/C++ Codegen PC v15.12.3.LTS Copyright (c) 1996-201
      11                      .dwattr $C$DW$CU, DW_AT_TI_version(0x01)
      12                      .dwattr $C$DW$CU, DW_AT_comp_dir("D:\Users\MaCHaDo\Dropbox\Legstrong\drv8301\legstrong\LegStrong\Debu
      13              ;       C:\ti\ccsv6\tools\compiler\c2000_15.12.3.LTS\bin\opt2000.exe C:\\Users\\MaCHaDo\\AppData\\Local\\Temp
      14              ;       C:\ti\ccsv6\tools\compiler\c2000_15.12.3.LTS\bin\ac2000.exe -@C:\\Users\\MaCHaDo\\AppData\\Local\\Tem
      15 00000000               .sect   ".text"
      16                      .clink
      17                      .global _SPI_setTxFifoIntLevel
      18              
      19              $C$DW$1 .dwtag  DW_TAG_subprogram
      20                      .dwattr $C$DW$1, DW_AT_name("SPI_setTxFifoIntLevel")
      21                      .dwattr $C$DW$1, DW_AT_low_pc(_SPI_setTxFifoIntLevel)
      22                      .dwattr $C$DW$1, DW_AT_high_pc(0x00)
      23                      .dwattr $C$DW$1, DW_AT_TI_symbol_name("_SPI_setTxFifoIntLevel")
      24                      .dwattr $C$DW$1, DW_AT_external
      25                      .dwattr $C$DW$1, DW_AT_TI_begin_file("../drivers/source/spi.c")
      26                      .dwattr $C$DW$1, DW_AT_TI_begin_line(0x233)
      27                      .dwattr $C$DW$1, DW_AT_TI_begin_column(0x06)
      28                      .dwattr $C$DW$1, DW_AT_TI_max_frame_size(-2)
      29                      .dwpsn  file "../drivers/source/spi.c",line 564,column 1,is_stmt,address _SPI_setTxFifoIntLevel,isa 0
      30              
      31                      .dwfde $C$DW$CIE, _SPI_setTxFifoIntLevel
      32              $C$DW$2 .dwtag  DW_TAG_formal_parameter
      33                      .dwattr $C$DW$2, DW_AT_name("spiHandle")
      34                      .dwattr $C$DW$2, DW_AT_TI_symbol_name("_spiHandle")
      35                      .dwattr $C$DW$2, DW_AT_type(*$C$DW$T$26)
      36                      .dwattr $C$DW$2, DW_AT_location[DW_OP_reg12]
      37              
      38              $C$DW$3 .dwtag  DW_TAG_formal_parameter
      39                      .dwattr $C$DW$3, DW_AT_name("fifoLevel")
      40                      .dwattr $C$DW$3, DW_AT_TI_symbol_name("_fifoLevel")
      41                      .dwattr $C$DW$3, DW_AT_type(*$C$DW$T$57)
      42                      .dwattr $C$DW$3, DW_AT_location[DW_OP_reg0]
      43              
      44              
      45              ;***************************************************************
      46              ;* FNAME: _SPI_setTxFifoIntLevel        FR SIZE:   0           *
      47              ;*                                                             *
      48              ;* FUNCTION ENVIRONMENT                                        *
      49              ;*                                                             *
      50              ;* FUNCTION PROPERTIES                                         *
      51              ;*                            0 Parameter,  0 Auto,  0 SOE     *
      52              ;***************************************************************
      53              
      54              _SPI_setTxFifoIntLevel:
      55              ;* AR4   assigned to _spiHandle
TMS320C2000 Assembler PC v15.12.3 Tue Sep 20 20:30:11 2016

Tools Copyright (c) 1996-2015 Texas Instruments Incorporated
C:\Users\MaCHaDo\AppData\Local\Temp\2006010                          PAGE    2

      56              $C$DW$4 .dwtag  DW_TAG_variable
      57                      .dwattr $C$DW$4, DW_AT_name("spiHandle")
      58                      .dwattr $C$DW$4, DW_AT_TI_symbol_name("_spiHandle")
      59                      .dwattr $C$DW$4, DW_AT_type(*$C$DW$T$68)
      60                      .dwattr $C$DW$4, DW_AT_location[DW_OP_reg12]
      61              
      62              ;* AL    assigned to _fifoLevel
      63              $C$DW$5 .dwtag  DW_TAG_variable
      64                      .dwattr $C$DW$5, DW_AT_name("fifoLevel")
      65                      .dwattr $C$DW$5, DW_AT_TI_symbol_name("_fifoLevel")
      66                      .dwattr $C$DW$5, DW_AT_type(*$C$DW$T$57)
      67                      .dwattr $C$DW$5, DW_AT_location[DW_OP_reg0]
      68              
      69                      .dwcfi  cfa_offset, -2
      70                      .dwcfi  save_reg_to_mem, 26, 0
      71                      .dwpsn  file "../drivers/source/spi.c",line 569,column 3,is_stmt,isa 0
      72 00000000 83A4          MOVL      XAR5,XAR4             ; [CPU_] |569| 
      73 00000001 DD0A          ADDB      XAR5,#10              ; [CPU_] |569| 
      74 00000002 18C5          AND       *+XAR5[0],#0xffe0     ; [CPU_] |569| 
         00000003 FFE0 
      75                      .dwpsn  file "../drivers/source/spi.c",line 572,column 3,is_stmt,isa 0
      76 00000004 DC0A          ADDB      XAR4,#10              ; [CPU_] |572| 
      77 00000005 98C4          OR        *+XAR4[0],AL          ; [CPU_] |572| 
      78              $C$DW$6 .dwtag  DW_TAG_TI_branch
      79                      .dwattr $C$DW$6, DW_AT_low_pc(0x00)
      80                      .dwattr $C$DW$6, DW_AT_TI_return
      81              
      82 00000006 0006          LRETR     ; [CPU_] 
      83                      ; return occurs ; [] 
      84                      .dwattr $C$DW$1, DW_AT_TI_end_file("../drivers/source/spi.c")
      85                      .dwattr $C$DW$1, DW_AT_TI_end_line(0x23f)
      86                      .dwattr $C$DW$1, DW_AT_TI_end_column(0x01)
      87                      .dwendentry
      88                      .dwendtag $C$DW$1
      89              
      90 00000007               .sect   ".text"
      91                      .clink
      92                      .global _SPI_setTxDelay
      93              
      94              $C$DW$7 .dwtag  DW_TAG_subprogram
      95                      .dwattr $C$DW$7, DW_AT_name("SPI_setTxDelay")
      96                      .dwattr $C$DW$7, DW_AT_low_pc(_SPI_setTxDelay)
      97                      .dwattr $C$DW$7, DW_AT_high_pc(0x00)
      98                      .dwattr $C$DW$7, DW_AT_TI_symbol_name("_SPI_setTxDelay")
      99                      .dwattr $C$DW$7, DW_AT_external
     100                      .dwattr $C$DW$7, DW_AT_TI_begin_file("../drivers/source/spi.c")
     101                      .dwattr $C$DW$7, DW_AT_TI_begin_line(0x227)
     102                      .dwattr $C$DW$7, DW_AT_TI_begin_column(0x06)
     103                      .dwattr $C$DW$7, DW_AT_TI_max_frame_size(-2)
     104                      .dwpsn  file "../drivers/source/spi.c",line 552,column 1,is_stmt,address _SPI_setTxDelay,isa 0
     105              
     106                      .dwfde $C$DW$CIE, _SPI_setTxDelay
     107              $C$DW$8 .dwtag  DW_TAG_formal_parameter
     108                      .dwattr $C$DW$8, DW_AT_name("spiHandle")
     109                      .dwattr $C$DW$8, DW_AT_TI_symbol_name("_spiHandle")
TMS320C2000 Assembler PC v15.12.3 Tue Sep 20 20:30:11 2016

Tools Copyright (c) 1996-2015 Texas Instruments Incorporated
C:\Users\MaCHaDo\AppData\Local\Temp\2006010                          PAGE    3

     110                      .dwattr $C$DW$8, DW_AT_type(*$C$DW$T$26)
     111                      .dwattr $C$DW$8, DW_AT_location[DW_OP_reg12]
     112              
     113              $C$DW$9 .dwtag  DW_TAG_formal_parameter
     114                      .dwattr $C$DW$9, DW_AT_name("delay")
     115                      .dwattr $C$DW$9, DW_AT_TI_symbol_name("_delay")
     116                      .dwattr $C$DW$9, DW_AT_type(*$C$DW$T$87)
     117                      .dwattr $C$DW$9, DW_AT_location[DW_OP_reg0]
     118              
     119              
     120              ;***************************************************************
     121              ;* FNAME: _SPI_setTxDelay               FR SIZE:   0           *
     122              ;*                                                             *
     123              ;* FUNCTION ENVIRONMENT                                        *
     124              ;*                                                             *
     125              ;* FUNCTION PROPERTIES                                         *
     126              ;*                            0 Parameter,  0 Auto,  0 SOE     *
     127              ;***************************************************************
     128              
     129              _SPI_setTxDelay:
     130              ;* AR4   assigned to _spiHandle
     131              $C$DW$10        .dwtag  DW_TAG_variable
     132                      .dwattr $C$DW$10, DW_AT_name("spiHandle")
     133                      .dwattr $C$DW$10, DW_AT_TI_symbol_name("_spiHandle")
     134                      .dwattr $C$DW$10, DW_AT_type(*$C$DW$T$68)
     135                      .dwattr $C$DW$10, DW_AT_location[DW_OP_reg12]
     136              
     137              ;* AL    assigned to _delay
     138              $C$DW$11        .dwtag  DW_TAG_variable
     139                      .dwattr $C$DW$11, DW_AT_name("delay")
     140                      .dwattr $C$DW$11, DW_AT_TI_symbol_name("_delay")
     141                      .dwattr $C$DW$11, DW_AT_type(*$C$DW$T$87)
     142                      .dwattr $C$DW$11, DW_AT_location[DW_OP_reg0]
     143              
     144                      .dwcfi  cfa_offset, -2
     145                      .dwcfi  save_reg_to_mem, 26, 0
     146                      .dwpsn  file "../drivers/source/spi.c",line 557,column 3,is_stmt,isa 0
     147 00000007 D00C          MOVB      XAR0,#12              ; [CPU_] |557| 
     148 00000008 9694          MOV       *+XAR4[AR0],AL        ; [CPU_] |557| 
     149              $C$DW$12        .dwtag  DW_TAG_TI_branch
     150                      .dwattr $C$DW$12, DW_AT_low_pc(0x00)
     151                      .dwattr $C$DW$12, DW_AT_TI_return
     152              
     153 00000009 0006          LRETR     ; [CPU_] 
     154                      ; return occurs ; [] 
     155                      .dwattr $C$DW$7, DW_AT_TI_end_file("../drivers/source/spi.c")
     156                      .dwattr $C$DW$7, DW_AT_TI_end_line(0x230)
     157                      .dwattr $C$DW$7, DW_AT_TI_end_column(0x01)
     158                      .dwendentry
     159                      .dwendtag $C$DW$7
     160              
     161 0000000a               .sect   ".text"
     162                      .clink
     163                      .global _SPI_setTriWire
     164              
TMS320C2000 Assembler PC v15.12.3 Tue Sep 20 20:30:11 2016

Tools Copyright (c) 1996-2015 Texas Instruments Incorporated
C:\Users\MaCHaDo\AppData\Local\Temp\2006010                          PAGE    4

     165              $C$DW$13        .dwtag  DW_TAG_subprogram
     166                      .dwattr $C$DW$13, DW_AT_name("SPI_setTriWire")
     167                      .dwattr $C$DW$13, DW_AT_low_pc(_SPI_setTriWire)
     168                      .dwattr $C$DW$13, DW_AT_high_pc(0x00)
     169                      .dwattr $C$DW$13, DW_AT_TI_symbol_name("_SPI_setTriWire")
     170                      .dwattr $C$DW$13, DW_AT_external
     171                      .dwattr $C$DW$13, DW_AT_TI_begin_file("../drivers/source/spi.c")
     172                      .dwattr $C$DW$13, DW_AT_TI_begin_line(0x21a)
     173                      .dwattr $C$DW$13, DW_AT_TI_begin_column(0x06)
     174                      .dwattr $C$DW$13, DW_AT_TI_max_frame_size(-2)
     175                      .dwpsn  file "../drivers/source/spi.c",line 539,column 1,is_stmt,address _SPI_setTriWire,isa 0
     176              
     177                      .dwfde $C$DW$CIE, _SPI_setTriWire
     178              $C$DW$14        .dwtag  DW_TAG_formal_parameter
     179                      .dwattr $C$DW$14, DW_AT_name("spiHandle")
     180                      .dwattr $C$DW$14, DW_AT_TI_symbol_name("_spiHandle")
     181                      .dwattr $C$DW$14, DW_AT_type(*$C$DW$T$26)
     182                      .dwattr $C$DW$14, DW_AT_location[DW_OP_reg12]
     183              
     184              $C$DW$15        .dwtag  DW_TAG_formal_parameter
     185                      .dwattr $C$DW$15, DW_AT_name("triwire")
     186                      .dwattr $C$DW$15, DW_AT_TI_symbol_name("_triwire")
     187                      .dwattr $C$DW$15, DW_AT_type(*$C$DW$T$66)
     188                      .dwattr $C$DW$15, DW_AT_location[DW_OP_reg0]
     189              
     190              
     191              ;***************************************************************
     192              ;* FNAME: _SPI_setTriWire               FR SIZE:   0           *
     193              ;*                                                             *
     194              ;* FUNCTION ENVIRONMENT                                        *
     195              ;*                                                             *
     196              ;* FUNCTION PROPERTIES                                         *
     197              ;*                            0 Parameter,  0 Auto,  0 SOE     *
     198              ;***************************************************************
     199              
     200              _SPI_setTriWire:
     201              ;* AR4   assigned to _spiHandle
     202              $C$DW$16        .dwtag  DW_TAG_variable
     203                      .dwattr $C$DW$16, DW_AT_name("spiHandle")
     204                      .dwattr $C$DW$16, DW_AT_TI_symbol_name("_spiHandle")
     205                      .dwattr $C$DW$16, DW_AT_type(*$C$DW$T$68)
     206                      .dwattr $C$DW$16, DW_AT_location[DW_OP_reg12]
     207              
     208              ;* AL    assigned to _triwire
     209              $C$DW$17        .dwtag  DW_TAG_variable
     210                      .dwattr $C$DW$17, DW_AT_name("triwire")
     211                      .dwattr $C$DW$17, DW_AT_TI_symbol_name("_triwire")
     212                      .dwattr $C$DW$17, DW_AT_type(*$C$DW$T$66)
     213                      .dwattr $C$DW$17, DW_AT_location[DW_OP_reg0]
     214              
     215                      .dwcfi  cfa_offset, -2
     216                      .dwcfi  save_reg_to_mem, 26, 0
     217                      .dwpsn  file "../drivers/source/spi.c",line 543,column 3,is_stmt,isa 0
     218 0000000a 83A4          MOVL      XAR5,XAR4             ; [CPU_] |543| 
     219 0000000b DD0F          ADDB      XAR5,#15              ; [CPU_] |543| 
TMS320C2000 Assembler PC v15.12.3 Tue Sep 20 20:30:11 2016

Tools Copyright (c) 1996-2015 Texas Instruments Incorporated
C:\Users\MaCHaDo\AppData\Local\Temp\2006010                          PAGE    5

     220 0000000c 18C5          AND       *+XAR5[0],#0xfffe     ; [CPU_] |543| 
         0000000d FFFE 
     221                      .dwpsn  file "../drivers/source/spi.c",line 545,column 3,is_stmt,isa 0
     222 0000000e DC0F          ADDB      XAR4,#15              ; [CPU_] |545| 
     223 0000000f 98C4          OR        *+XAR4[0],AL          ; [CPU_] |545| 
     224              $C$DW$18        .dwtag  DW_TAG_TI_branch
     225                      .dwattr $C$DW$18, DW_AT_low_pc(0x00)
     226                      .dwattr $C$DW$18, DW_AT_TI_return
     227              
     228 00000010 0006          LRETR     ; [CPU_] 
     229                      ; return occurs ; [] 
     230                      .dwattr $C$DW$13, DW_AT_TI_end_file("../drivers/source/spi.c")
     231                      .dwattr $C$DW$13, DW_AT_TI_end_line(0x224)
     232                      .dwattr $C$DW$13, DW_AT_TI_end_column(0x01)
     233                      .dwendentry
     234                      .dwendtag $C$DW$13
     235              
     236 00000011               .sect   ".text"
     237                      .clink
     238                      .global _SPI_setSuspend
     239              
     240              $C$DW$19        .dwtag  DW_TAG_subprogram
     241                      .dwattr $C$DW$19, DW_AT_name("SPI_setSuspend")
     242                      .dwattr $C$DW$19, DW_AT_low_pc(_SPI_setSuspend)
     243                      .dwattr $C$DW$19, DW_AT_high_pc(0x00)
     244                      .dwattr $C$DW$19, DW_AT_TI_symbol_name("_SPI_setSuspend")
     245                      .dwattr $C$DW$19, DW_AT_external
     246                      .dwattr $C$DW$19, DW_AT_TI_begin_file("../drivers/source/spi.c")
     247                      .dwattr $C$DW$19, DW_AT_TI_begin_line(0x20c)
     248                      .dwattr $C$DW$19, DW_AT_TI_begin_column(0x06)
     249                      .dwattr $C$DW$19, DW_AT_TI_max_frame_size(-2)
     250                      .dwpsn  file "../drivers/source/spi.c",line 525,column 1,is_stmt,address _SPI_setSuspend,isa 0
     251              
     252                      .dwfde $C$DW$CIE, _SPI_setSuspend
     253              $C$DW$20        .dwtag  DW_TAG_formal_parameter
     254                      .dwattr $C$DW$20, DW_AT_name("spiHandle")
     255                      .dwattr $C$DW$20, DW_AT_TI_symbol_name("_spiHandle")
     256                      .dwattr $C$DW$20, DW_AT_type(*$C$DW$T$26)
     257                      .dwattr $C$DW$20, DW_AT_location[DW_OP_reg12]
     258              
     259              $C$DW$21        .dwtag  DW_TAG_formal_parameter
     260                      .dwattr $C$DW$21, DW_AT_name("emuSuspend")
     261                      .dwattr $C$DW$21, DW_AT_TI_symbol_name("_emuSuspend")
     262                      .dwattr $C$DW$21, DW_AT_type(*$C$DW$T$63)
     263                      .dwattr $C$DW$21, DW_AT_location[DW_OP_reg0]
     264              
     265              
     266              ;***************************************************************
     267              ;* FNAME: _SPI_setSuspend               FR SIZE:   0           *
     268              ;*                                                             *
     269              ;* FUNCTION ENVIRONMENT                                        *
     270              ;*                                                             *
     271              ;* FUNCTION PROPERTIES                                         *
     272              ;*                            0 Parameter,  0 Auto,  0 SOE     *
     273              ;***************************************************************
TMS320C2000 Assembler PC v15.12.3 Tue Sep 20 20:30:11 2016

Tools Copyright (c) 1996-2015 Texas Instruments Incorporated
C:\Users\MaCHaDo\AppData\Local\Temp\2006010                          PAGE    6

     274              
     275              _SPI_setSuspend:
     276              ;* AR4   assigned to _spiHandle
     277              $C$DW$22        .dwtag  DW_TAG_variable
     278                      .dwattr $C$DW$22, DW_AT_name("spiHandle")
     279                      .dwattr $C$DW$22, DW_AT_TI_symbol_name("_spiHandle")
     280                      .dwattr $C$DW$22, DW_AT_type(*$C$DW$T$68)
     281                      .dwattr $C$DW$22, DW_AT_location[DW_OP_reg12]
     282              
     283              ;* AL    assigned to _emuSuspend
     284              $C$DW$23        .dwtag  DW_TAG_variable
     285                      .dwattr $C$DW$23, DW_AT_name("emuSuspend")
     286                      .dwattr $C$DW$23, DW_AT_TI_symbol_name("_emuSuspend")
     287                      .dwattr $C$DW$23, DW_AT_type(*$C$DW$T$63)
     288                      .dwattr $C$DW$23, DW_AT_location[DW_OP_reg0]
     289              
     290                      .dwcfi  cfa_offset, -2
     291                      .dwcfi  save_reg_to_mem, 26, 0
     292                      .dwpsn  file "../drivers/source/spi.c",line 529,column 3,is_stmt,isa 0
     293 00000011 83A4          MOVL      XAR5,XAR4             ; [CPU_] |529| 
     294 00000012 DD0F          ADDB      XAR5,#15              ; [CPU_] |529| 
     295 00000013 18C5          AND       *+XAR5[0],#0xffcf     ; [CPU_] |529| 
         00000014 FFCF 
     296                      .dwpsn  file "../drivers/source/spi.c",line 532,column 3,is_stmt,isa 0
     297 00000015 DC0F          ADDB      XAR4,#15              ; [CPU_] |532| 
     298 00000016 98C4          OR        *+XAR4[0],AL          ; [CPU_] |532| 
     299              $C$DW$24        .dwtag  DW_TAG_TI_branch
     300                      .dwattr $C$DW$24, DW_AT_low_pc(0x00)
     301                      .dwattr $C$DW$24, DW_AT_TI_return
     302              
     303 00000017 0006          LRETR     ; [CPU_] 
     304                      ; return occurs ; [] 
     305                      .dwattr $C$DW$19, DW_AT_TI_end_file("../drivers/source/spi.c")
     306                      .dwattr $C$DW$19, DW_AT_TI_end_line(0x217)
     307                      .dwattr $C$DW$19, DW_AT_TI_end_column(0x01)
     308                      .dwendentry
     309                      .dwendtag $C$DW$19
     310              
     311 00000018               .sect   ".text"
     312                      .clink
     313                      .global _SPI_setSteInv
     314              
     315              $C$DW$25        .dwtag  DW_TAG_subprogram
     316                      .dwattr $C$DW$25, DW_AT_name("SPI_setSteInv")
     317                      .dwattr $C$DW$25, DW_AT_low_pc(_SPI_setSteInv)
     318                      .dwattr $C$DW$25, DW_AT_high_pc(0x00)
     319                      .dwattr $C$DW$25, DW_AT_TI_symbol_name("_SPI_setSteInv")
     320                      .dwattr $C$DW$25, DW_AT_external
     321                      .dwattr $C$DW$25, DW_AT_TI_begin_file("../drivers/source/spi.c")
     322                      .dwattr $C$DW$25, DW_AT_TI_begin_line(0x1ff)
     323                      .dwattr $C$DW$25, DW_AT_TI_begin_column(0x06)
     324                      .dwattr $C$DW$25, DW_AT_TI_max_frame_size(-2)
     325                      .dwpsn  file "../drivers/source/spi.c",line 512,column 1,is_stmt,address _SPI_setSteInv,isa 0
     326              
     327                      .dwfde $C$DW$CIE, _SPI_setSteInv
TMS320C2000 Assembler PC v15.12.3 Tue Sep 20 20:30:11 2016

Tools Copyright (c) 1996-2015 Texas Instruments Incorporated
C:\Users\MaCHaDo\AppData\Local\Temp\2006010                          PAGE    7

     328              $C$DW$26        .dwtag  DW_TAG_formal_parameter
     329                      .dwattr $C$DW$26, DW_AT_name("spiHandle")
     330                      .dwattr $C$DW$26, DW_AT_TI_symbol_name("_spiHandle")
     331                      .dwattr $C$DW$26, DW_AT_type(*$C$DW$T$26)
     332                      .dwattr $C$DW$26, DW_AT_location[DW_OP_reg12]
     333              
     334              $C$DW$27        .dwtag  DW_TAG_formal_parameter
     335                      .dwattr $C$DW$27, DW_AT_name("steinv")
     336                      .dwattr $C$DW$27, DW_AT_TI_symbol_name("_steinv")
     337                      .dwattr $C$DW$27, DW_AT_type(*$C$DW$T$60)
     338                      .dwattr $C$DW$27, DW_AT_location[DW_OP_reg0]
     339              
     340              
     341              ;***************************************************************
     342              ;* FNAME: _SPI_setSteInv                FR SIZE:   0           *
     343              ;*                                                             *
     344              ;* FUNCTION ENVIRONMENT                                        *
     345              ;*                                                             *
     346              ;* FUNCTION PROPERTIES                                         *
     347              ;*                            0 Parameter,  0 Auto,  0 SOE     *
     348              ;***************************************************************
     349              
     350              _SPI_setSteInv:
     351              ;* AR4   assigned to _spiHandle
     352              $C$DW$28        .dwtag  DW_TAG_variable
     353                      .dwattr $C$DW$28, DW_AT_name("spiHandle")
     354                      .dwattr $C$DW$28, DW_AT_TI_symbol_name("_spiHandle")
     355                      .dwattr $C$DW$28, DW_AT_type(*$C$DW$T$68)
     356                      .dwattr $C$DW$28, DW_AT_location[DW_OP_reg12]
     357              
     358              ;* AL    assigned to _steinv
     359              $C$DW$29        .dwtag  DW_TAG_variable
     360                      .dwattr $C$DW$29, DW_AT_name("steinv")
     361                      .dwattr $C$DW$29, DW_AT_TI_symbol_name("_steinv")
     362                      .dwattr $C$DW$29, DW_AT_type(*$C$DW$T$60)
     363                      .dwattr $C$DW$29, DW_AT_location[DW_OP_reg0]
     364              
     365                      .dwcfi  cfa_offset, -2
     366                      .dwcfi  save_reg_to_mem, 26, 0
     367                      .dwpsn  file "../drivers/source/spi.c",line 516,column 3,is_stmt,isa 0
     368 00000018 83A4          MOVL      XAR5,XAR4             ; [CPU_] |516| 
     369 00000019 DD0F          ADDB      XAR5,#15              ; [CPU_] |516| 
     370 0000001a 18C5          AND       *+XAR5[0],#0xfffd     ; [CPU_] |516| 
         0000001b FFFD 
     371                      .dwpsn  file "../drivers/source/spi.c",line 518,column 3,is_stmt,isa 0
     372 0000001c DC0F          ADDB      XAR4,#15              ; [CPU_] |518| 
     373 0000001d 98C4          OR        *+XAR4[0],AL          ; [CPU_] |518| 
     374              $C$DW$30        .dwtag  DW_TAG_TI_branch
     375                      .dwattr $C$DW$30, DW_AT_low_pc(0x00)
     376                      .dwattr $C$DW$30, DW_AT_TI_return
     377              
     378 0000001e 0006          LRETR     ; [CPU_] 
     379                      ; return occurs ; [] 
     380                      .dwattr $C$DW$25, DW_AT_TI_end_file("../drivers/source/spi.c")
     381                      .dwattr $C$DW$25, DW_AT_TI_end_line(0x209)
TMS320C2000 Assembler PC v15.12.3 Tue Sep 20 20:30:11 2016

Tools Copyright (c) 1996-2015 Texas Instruments Incorporated
C:\Users\MaCHaDo\AppData\Local\Temp\2006010                          PAGE    8

     382                      .dwattr $C$DW$25, DW_AT_TI_end_column(0x01)
     383                      .dwendentry
     384                      .dwendtag $C$DW$25
     385              
     386 0000001f               .sect   ".text"
     387                      .clink
     388                      .global _SPI_setRxFifoIntLevel
     389              
     390              $C$DW$31        .dwtag  DW_TAG_subprogram
     391                      .dwattr $C$DW$31, DW_AT_name("SPI_setRxFifoIntLevel")
     392                      .dwattr $C$DW$31, DW_AT_low_pc(_SPI_setRxFifoIntLevel)
     393                      .dwattr $C$DW$31, DW_AT_high_pc(0x00)
     394                      .dwattr $C$DW$31, DW_AT_TI_symbol_name("_SPI_setRxFifoIntLevel")
     395                      .dwattr $C$DW$31, DW_AT_external
     396                      .dwattr $C$DW$31, DW_AT_TI_begin_file("../drivers/source/spi.c")
     397                      .dwattr $C$DW$31, DW_AT_TI_begin_line(0x1f0)
     398                      .dwattr $C$DW$31, DW_AT_TI_begin_column(0x06)
     399                      .dwattr $C$DW$31, DW_AT_TI_max_frame_size(-2)
     400                      .dwpsn  file "../drivers/source/spi.c",line 497,column 1,is_stmt,address _SPI_setRxFifoIntLevel,isa 0
     401              
     402                      .dwfde $C$DW$CIE, _SPI_setRxFifoIntLevel
     403              $C$DW$32        .dwtag  DW_TAG_formal_parameter
     404                      .dwattr $C$DW$32, DW_AT_name("spiHandle")
     405                      .dwattr $C$DW$32, DW_AT_TI_symbol_name("_spiHandle")
     406                      .dwattr $C$DW$32, DW_AT_type(*$C$DW$T$26)
     407                      .dwattr $C$DW$32, DW_AT_location[DW_OP_reg12]
     408              
     409              $C$DW$33        .dwtag  DW_TAG_formal_parameter
     410                      .dwattr $C$DW$33, DW_AT_name("fifoLevel")
     411                      .dwattr $C$DW$33, DW_AT_TI_symbol_name("_fifoLevel")
     412                      .dwattr $C$DW$33, DW_AT_type(*$C$DW$T$57)
     413                      .dwattr $C$DW$33, DW_AT_location[DW_OP_reg0]
     414              
     415              
     416              ;***************************************************************
     417              ;* FNAME: _SPI_setRxFifoIntLevel        FR SIZE:   0           *
     418              ;*                                                             *
     419              ;* FUNCTION ENVIRONMENT                                        *
     420              ;*                                                             *
     421              ;* FUNCTION PROPERTIES                                         *
     422              ;*                            0 Parameter,  0 Auto,  0 SOE     *
     423              ;***************************************************************
     424              
     425              _SPI_setRxFifoIntLevel:
     426              ;* AR4   assigned to _spiHandle
     427              $C$DW$34        .dwtag  DW_TAG_variable
     428                      .dwattr $C$DW$34, DW_AT_name("spiHandle")
     429                      .dwattr $C$DW$34, DW_AT_TI_symbol_name("_spiHandle")
     430                      .dwattr $C$DW$34, DW_AT_type(*$C$DW$T$68)
     431                      .dwattr $C$DW$34, DW_AT_location[DW_OP_reg12]
     432              
     433              ;* AL    assigned to _fifoLevel
     434              $C$DW$35        .dwtag  DW_TAG_variable
     435                      .dwattr $C$DW$35, DW_AT_name("fifoLevel")
     436                      .dwattr $C$DW$35, DW_AT_TI_symbol_name("_fifoLevel")
TMS320C2000 Assembler PC v15.12.3 Tue Sep 20 20:30:11 2016

Tools Copyright (c) 1996-2015 Texas Instruments Incorporated
C:\Users\MaCHaDo\AppData\Local\Temp\2006010                          PAGE    9

     437                      .dwattr $C$DW$35, DW_AT_type(*$C$DW$T$57)
     438                      .dwattr $C$DW$35, DW_AT_location[DW_OP_reg0]
     439              
     440                      .dwcfi  cfa_offset, -2
     441                      .dwcfi  save_reg_to_mem, 26, 0
     442                      .dwpsn  file "../drivers/source/spi.c",line 502,column 3,is_stmt,isa 0
     443 0000001f 83A4          MOVL      XAR5,XAR4             ; [CPU_] |502| 
     444 00000020 DD0B          ADDB      XAR5,#11              ; [CPU_] |502| 
     445 00000021 18C5          AND       *+XAR5[0],#0xffe0     ; [CPU_] |502| 
         00000022 FFE0 
     446                      .dwpsn  file "../drivers/source/spi.c",line 505,column 3,is_stmt,isa 0
     447 00000023 DC0B          ADDB      XAR4,#11              ; [CPU_] |505| 
     448 00000024 98C4          OR        *+XAR4[0],AL          ; [CPU_] |505| 
     449              $C$DW$36        .dwtag  DW_TAG_TI_branch
     450                      .dwattr $C$DW$36, DW_AT_low_pc(0x00)
     451                      .dwattr $C$DW$36, DW_AT_TI_return
     452              
     453 00000025 0006          LRETR     ; [CPU_] 
     454                      ; return occurs ; [] 
     455                      .dwattr $C$DW$31, DW_AT_TI_end_file("../drivers/source/spi.c")
     456                      .dwattr $C$DW$31, DW_AT_TI_end_line(0x1fc)
     457                      .dwattr $C$DW$31, DW_AT_TI_end_column(0x01)
     458                      .dwendentry
     459                      .dwendtag $C$DW$31
     460              
     461 00000026               .sect   ".text"
     462                      .clink
     463                      .global _SPI_setPriority
     464              
     465              $C$DW$37        .dwtag  DW_TAG_subprogram
     466                      .dwattr $C$DW$37, DW_AT_name("SPI_setPriority")
     467                      .dwattr $C$DW$37, DW_AT_low_pc(_SPI_setPriority)
     468                      .dwattr $C$DW$37, DW_AT_high_pc(0x00)
     469                      .dwattr $C$DW$37, DW_AT_TI_symbol_name("_SPI_setPriority")
     470                      .dwattr $C$DW$37, DW_AT_external
     471                      .dwattr $C$DW$37, DW_AT_TI_begin_file("../drivers/source/spi.c")
     472                      .dwattr $C$DW$37, DW_AT_TI_begin_line(0x1e2)
     473                      .dwattr $C$DW$37, DW_AT_TI_begin_column(0x06)
     474                      .dwattr $C$DW$37, DW_AT_TI_max_frame_size(-2)
     475                      .dwpsn  file "../drivers/source/spi.c",line 483,column 1,is_stmt,address _SPI_setPriority,isa 0
     476              
     477                      .dwfde $C$DW$CIE, _SPI_setPriority
     478              $C$DW$38        .dwtag  DW_TAG_formal_parameter
     479                      .dwattr $C$DW$38, DW_AT_name("spiHandle")
     480                      .dwattr $C$DW$38, DW_AT_TI_symbol_name("_spiHandle")
     481                      .dwattr $C$DW$38, DW_AT_type(*$C$DW$T$26)
     482                      .dwattr $C$DW$38, DW_AT_location[DW_OP_reg12]
     483              
     484              $C$DW$39        .dwtag  DW_TAG_formal_parameter
     485                      .dwattr $C$DW$39, DW_AT_name("priority")
     486                      .dwattr $C$DW$39, DW_AT_TI_symbol_name("_priority")
     487                      .dwattr $C$DW$39, DW_AT_type(*$C$DW$T$54)
     488                      .dwattr $C$DW$39, DW_AT_location[DW_OP_reg0]
     489              
     490              
TMS320C2000 Assembler PC v15.12.3 Tue Sep 20 20:30:11 2016

Tools Copyright (c) 1996-2015 Texas Instruments Incorporated
C:\Users\MaCHaDo\AppData\Local\Temp\2006010                          PAGE   10

     491              ;***************************************************************
     492              ;* FNAME: _SPI_setPriority              FR SIZE:   0           *
     493              ;*                                                             *
     494              ;* FUNCTION ENVIRONMENT                                        *
     495              ;*                                                             *
     496              ;* FUNCTION PROPERTIES                                         *
     497              ;*                            0 Parameter,  0 Auto,  0 SOE     *
     498              ;***************************************************************
     499              
     500              _SPI_setPriority:
     501              ;* AR4   assigned to _spiHandle
     502              $C$DW$40        .dwtag  DW_TAG_variable
     503                      .dwattr $C$DW$40, DW_AT_name("spiHandle")
     504                      .dwattr $C$DW$40, DW_AT_TI_symbol_name("_spiHandle")
     505                      .dwattr $C$DW$40, DW_AT_type(*$C$DW$T$68)
     506                      .dwattr $C$DW$40, DW_AT_location[DW_OP_reg12]
     507              
     508              ;* AL    assigned to _priority
     509              $C$DW$41        .dwtag  DW_TAG_variable
     510                      .dwattr $C$DW$41, DW_AT_name("priority")
     511                      .dwattr $C$DW$41, DW_AT_TI_symbol_name("_priority")
     512                      .dwattr $C$DW$41, DW_AT_type(*$C$DW$T$54)
     513                      .dwattr $C$DW$41, DW_AT_location[DW_OP_reg0]
     514              
     515                      .dwcfi  cfa_offset, -2
     516                      .dwcfi  save_reg_to_mem, 26, 0
     517                      .dwpsn  file "../drivers/source/spi.c",line 488,column 3,is_stmt,isa 0
     518 00000026 83A4          MOVL      XAR5,XAR4             ; [CPU_] |488| 
     519 00000027 DD0F          ADDB      XAR5,#15              ; [CPU_] |488| 
     520 00000028 18C5          AND       *+XAR5[0],#0xffcf     ; [CPU_] |488| 
         00000029 FFCF 
     521                      .dwpsn  file "../drivers/source/spi.c",line 490,column 3,is_stmt,isa 0
     522 0000002a DC0F          ADDB      XAR4,#15              ; [CPU_] |490| 
     523 0000002b 98C4          OR        *+XAR4[0],AL          ; [CPU_] |490| 
     524              $C$DW$42        .dwtag  DW_TAG_TI_branch
     525                      .dwattr $C$DW$42, DW_AT_low_pc(0x00)
     526                      .dwattr $C$DW$42, DW_AT_TI_return
     527              
     528 0000002c 0006          LRETR     ; [CPU_] 
     529                      ; return occurs ; [] 
     530                      .dwattr $C$DW$37, DW_AT_TI_end_file("../drivers/source/spi.c")
     531                      .dwattr $C$DW$37, DW_AT_TI_end_line(0x1ed)
     532                      .dwattr $C$DW$37, DW_AT_TI_end_column(0x01)
     533                      .dwendentry
     534                      .dwendtag $C$DW$37
     535              
     536 0000002d               .sect   ".text"
     537                      .clink
     538                      .global _SPI_setMode
     539              
     540              $C$DW$43        .dwtag  DW_TAG_subprogram
     541                      .dwattr $C$DW$43, DW_AT_name("SPI_setMode")
     542                      .dwattr $C$DW$43, DW_AT_low_pc(_SPI_setMode)
     543                      .dwattr $C$DW$43, DW_AT_high_pc(0x00)
     544                      .dwattr $C$DW$43, DW_AT_TI_symbol_name("_SPI_setMode")
TMS320C2000 Assembler PC v15.12.3 Tue Sep 20 20:30:11 2016

Tools Copyright (c) 1996-2015 Texas Instruments Incorporated
C:\Users\MaCHaDo\AppData\Local\Temp\2006010                          PAGE   11

     545                      .dwattr $C$DW$43, DW_AT_external
     546                      .dwattr $C$DW$43, DW_AT_TI_begin_file("../drivers/source/spi.c")
     547                      .dwattr $C$DW$43, DW_AT_TI_begin_line(0x1d6)
     548                      .dwattr $C$DW$43, DW_AT_TI_begin_column(0x06)
     549                      .dwattr $C$DW$43, DW_AT_TI_max_frame_size(-2)
     550                      .dwpsn  file "../drivers/source/spi.c",line 471,column 1,is_stmt,address _SPI_setMode,isa 0
     551              
     552                      .dwfde $C$DW$CIE, _SPI_setMode
     553              $C$DW$44        .dwtag  DW_TAG_formal_parameter
     554                      .dwattr $C$DW$44, DW_AT_name("spiHandle")
     555                      .dwattr $C$DW$44, DW_AT_TI_symbol_name("_spiHandle")
     556                      .dwattr $C$DW$44, DW_AT_type(*$C$DW$T$26)
     557                      .dwattr $C$DW$44, DW_AT_location[DW_OP_reg12]
     558              
     559              $C$DW$45        .dwtag  DW_TAG_formal_parameter
     560                      .dwattr $C$DW$45, DW_AT_name("mode")
     561                      .dwattr $C$DW$45, DW_AT_TI_symbol_name("_mode")
     562                      .dwattr $C$DW$45, DW_AT_type(*$C$DW$T$51)
     563                      .dwattr $C$DW$45, DW_AT_location[DW_OP_reg0]
     564              
     565              
     566              ;***************************************************************
     567              ;* FNAME: _SPI_setMode                  FR SIZE:   0           *
     568              ;*                                                             *
     569              ;* FUNCTION ENVIRONMENT                                        *
     570              ;*                                                             *
     571              ;* FUNCTION PROPERTIES                                         *
     572              ;*                            0 Parameter,  0 Auto,  0 SOE     *
     573              ;***************************************************************
     574              
     575              _SPI_setMode:
     576              ;* AR4   assigned to _spiHandle
     577              $C$DW$46        .dwtag  DW_TAG_variable
     578                      .dwattr $C$DW$46, DW_AT_name("spiHandle")
     579                      .dwattr $C$DW$46, DW_AT_TI_symbol_name("_spiHandle")
     580                      .dwattr $C$DW$46, DW_AT_type(*$C$DW$T$68)
     581                      .dwattr $C$DW$46, DW_AT_location[DW_OP_reg12]
     582              
     583              ;* AL    assigned to _mode
     584              $C$DW$47        .dwtag  DW_TAG_variable
     585                      .dwattr $C$DW$47, DW_AT_name("mode")
     586                      .dwattr $C$DW$47, DW_AT_TI_symbol_name("_mode")
     587                      .dwattr $C$DW$47, DW_AT_type(*$C$DW$T$51)
     588                      .dwattr $C$DW$47, DW_AT_location[DW_OP_reg0]
     589              
     590                      .dwcfi  cfa_offset, -2
     591                      .dwcfi  save_reg_to_mem, 26, 0
     592                      .dwpsn  file "../drivers/source/spi.c",line 476,column 3,is_stmt,isa 0
     593 0000002d 98CC          OR        *+XAR4[1],AL          ; [CPU_] |476| 
     594              $C$DW$48        .dwtag  DW_TAG_TI_branch
     595                      .dwattr $C$DW$48, DW_AT_low_pc(0x00)
     596                      .dwattr $C$DW$48, DW_AT_TI_return
     597              
     598 0000002e 0006          LRETR     ; [CPU_] 
     599                      ; return occurs ; [] 
TMS320C2000 Assembler PC v15.12.3 Tue Sep 20 20:30:11 2016

Tools Copyright (c) 1996-2015 Texas Instruments Incorporated
C:\Users\MaCHaDo\AppData\Local\Temp\2006010                          PAGE   12

     600                      .dwattr $C$DW$43, DW_AT_TI_end_file("../drivers/source/spi.c")
     601                      .dwattr $C$DW$43, DW_AT_TI_end_line(0x1df)
     602                      .dwattr $C$DW$43, DW_AT_TI_end_column(0x01)
     603                      .dwendentry
     604                      .dwendtag $C$DW$43
     605              
     606 0000002f               .sect   ".text"
     607                      .clink
     608                      .global _SPI_setClkPolarity
     609              
     610              $C$DW$49        .dwtag  DW_TAG_subprogram
     611                      .dwattr $C$DW$49, DW_AT_name("SPI_setClkPolarity")
     612                      .dwattr $C$DW$49, DW_AT_low_pc(_SPI_setClkPolarity)
     613                      .dwattr $C$DW$49, DW_AT_high_pc(0x00)
     614                      .dwattr $C$DW$49, DW_AT_TI_symbol_name("_SPI_setClkPolarity")
     615                      .dwattr $C$DW$49, DW_AT_external
     616                      .dwattr $C$DW$49, DW_AT_TI_begin_file("../drivers/source/spi.c")
     617                      .dwattr $C$DW$49, DW_AT_TI_begin_line(0x1c7)
     618                      .dwattr $C$DW$49, DW_AT_TI_begin_column(0x06)
     619                      .dwattr $C$DW$49, DW_AT_TI_max_frame_size(-2)
     620                      .dwpsn  file "../drivers/source/spi.c",line 456,column 1,is_stmt,address _SPI_setClkPolarity,isa 0
     621              
     622                      .dwfde $C$DW$CIE, _SPI_setClkPolarity
     623              $C$DW$50        .dwtag  DW_TAG_formal_parameter
     624                      .dwattr $C$DW$50, DW_AT_name("spiHandle")
     625                      .dwattr $C$DW$50, DW_AT_TI_symbol_name("_spiHandle")
     626                      .dwattr $C$DW$50, DW_AT_type(*$C$DW$T$26)
     627                      .dwattr $C$DW$50, DW_AT_location[DW_OP_reg12]
     628              
     629              $C$DW$51        .dwtag  DW_TAG_formal_parameter
     630                      .dwattr $C$DW$51, DW_AT_name("polarity")
     631                      .dwattr $C$DW$51, DW_AT_TI_symbol_name("_polarity")
     632                      .dwattr $C$DW$51, DW_AT_type(*$C$DW$T$48)
     633                      .dwattr $C$DW$51, DW_AT_location[DW_OP_reg0]
     634              
     635              
     636              ;***************************************************************
     637              ;* FNAME: _SPI_setClkPolarity           FR SIZE:   0           *
     638              ;*                                                             *
     639              ;* FUNCTION ENVIRONMENT                                        *
     640              ;*                                                             *
     641              ;* FUNCTION PROPERTIES                                         *
     642              ;*                            0 Parameter,  0 Auto,  0 SOE     *
     643              ;***************************************************************
     644              
     645              _SPI_setClkPolarity:
     646              ;* AR4   assigned to _spiHandle
     647              $C$DW$52        .dwtag  DW_TAG_variable
     648                      .dwattr $C$DW$52, DW_AT_name("spiHandle")
     649                      .dwattr $C$DW$52, DW_AT_TI_symbol_name("_spiHandle")
     650                      .dwattr $C$DW$52, DW_AT_type(*$C$DW$T$68)
     651                      .dwattr $C$DW$52, DW_AT_location[DW_OP_reg12]
     652              
     653              ;* AL    assigned to _polarity
     654              $C$DW$53        .dwtag  DW_TAG_variable
TMS320C2000 Assembler PC v15.12.3 Tue Sep 20 20:30:11 2016

Tools Copyright (c) 1996-2015 Texas Instruments Incorporated
C:\Users\MaCHaDo\AppData\Local\Temp\2006010                          PAGE   13

     655                      .dwattr $C$DW$53, DW_AT_name("polarity")
     656                      .dwattr $C$DW$53, DW_AT_TI_symbol_name("_polarity")
     657                      .dwattr $C$DW$53, DW_AT_type(*$C$DW$T$48)
     658                      .dwattr $C$DW$53, DW_AT_location[DW_OP_reg0]
     659              
     660                      .dwcfi  cfa_offset, -2
     661                      .dwcfi  save_reg_to_mem, 26, 0
     662                      .dwpsn  file "../drivers/source/spi.c",line 461,column 3,is_stmt,isa 0
     663 0000002f 18C4          AND       *+XAR4[0],#0xffbf     ; [CPU_] |461| 
         00000030 FFBF 
     664                      .dwpsn  file "../drivers/source/spi.c",line 464,column 3,is_stmt,isa 0
     665 00000031 98C4          OR        *+XAR4[0],AL          ; [CPU_] |464| 
     666              $C$DW$54        .dwtag  DW_TAG_TI_branch
     667                      .dwattr $C$DW$54, DW_AT_low_pc(0x00)
     668                      .dwattr $C$DW$54, DW_AT_TI_return
     669              
     670 00000032 0006          LRETR     ; [CPU_] 
     671                      ; return occurs ; [] 
     672                      .dwattr $C$DW$49, DW_AT_TI_end_file("../drivers/source/spi.c")
     673                      .dwattr $C$DW$49, DW_AT_TI_end_line(0x1d3)
     674                      .dwattr $C$DW$49, DW_AT_TI_end_column(0x01)
     675                      .dwendentry
     676                      .dwendtag $C$DW$49
     677              
     678 00000033               .sect   ".text"
     679                      .clink
     680                      .global _SPI_setClkPhase
     681              
     682              $C$DW$55        .dwtag  DW_TAG_subprogram
     683                      .dwattr $C$DW$55, DW_AT_name("SPI_setClkPhase")
     684                      .dwattr $C$DW$55, DW_AT_low_pc(_SPI_setClkPhase)
     685                      .dwattr $C$DW$55, DW_AT_high_pc(0x00)
     686                      .dwattr $C$DW$55, DW_AT_TI_symbol_name("_SPI_setClkPhase")
     687                      .dwattr $C$DW$55, DW_AT_external
     688                      .dwattr $C$DW$55, DW_AT_TI_begin_file("../drivers/source/spi.c")
     689                      .dwattr $C$DW$55, DW_AT_TI_begin_line(0x1bb)
     690                      .dwattr $C$DW$55, DW_AT_TI_begin_column(0x06)
     691                      .dwattr $C$DW$55, DW_AT_TI_max_frame_size(-2)
     692                      .dwpsn  file "../drivers/source/spi.c",line 444,column 1,is_stmt,address _SPI_setClkPhase,isa 0
     693              
     694                      .dwfde $C$DW$CIE, _SPI_setClkPhase
     695              $C$DW$56        .dwtag  DW_TAG_formal_parameter
     696                      .dwattr $C$DW$56, DW_AT_name("spiHandle")
     697                      .dwattr $C$DW$56, DW_AT_TI_symbol_name("_spiHandle")
     698                      .dwattr $C$DW$56, DW_AT_type(*$C$DW$T$26)
     699                      .dwattr $C$DW$56, DW_AT_location[DW_OP_reg12]
     700              
     701              $C$DW$57        .dwtag  DW_TAG_formal_parameter
     702                      .dwattr $C$DW$57, DW_AT_name("clkPhase")
     703                      .dwattr $C$DW$57, DW_AT_TI_symbol_name("_clkPhase")
     704                      .dwattr $C$DW$57, DW_AT_type(*$C$DW$T$45)
     705                      .dwattr $C$DW$57, DW_AT_location[DW_OP_reg0]
     706              
     707              
     708              ;***************************************************************
TMS320C2000 Assembler PC v15.12.3 Tue Sep 20 20:30:11 2016

Tools Copyright (c) 1996-2015 Texas Instruments Incorporated
C:\Users\MaCHaDo\AppData\Local\Temp\2006010                          PAGE   14

     709              ;* FNAME: _SPI_setClkPhase              FR SIZE:   0           *
     710              ;*                                                             *
     711              ;* FUNCTION ENVIRONMENT                                        *
     712              ;*                                                             *
     713              ;* FUNCTION PROPERTIES                                         *
     714              ;*                            0 Parameter,  0 Auto,  0 SOE     *
     715              ;***************************************************************
     716              
     717              _SPI_setClkPhase:
     718              ;* AR4   assigned to _spiHandle
     719              $C$DW$58        .dwtag  DW_TAG_variable
     720                      .dwattr $C$DW$58, DW_AT_name("spiHandle")
     721                      .dwattr $C$DW$58, DW_AT_TI_symbol_name("_spiHandle")
     722                      .dwattr $C$DW$58, DW_AT_type(*$C$DW$T$68)
     723                      .dwattr $C$DW$58, DW_AT_location[DW_OP_reg12]
     724              
     725              ;* AL    assigned to _clkPhase
     726              $C$DW$59        .dwtag  DW_TAG_variable
     727                      .dwattr $C$DW$59, DW_AT_name("clkPhase")
     728                      .dwattr $C$DW$59, DW_AT_TI_symbol_name("_clkPhase")
     729                      .dwattr $C$DW$59, DW_AT_type(*$C$DW$T$45)
     730                      .dwattr $C$DW$59, DW_AT_location[DW_OP_reg0]
     731              
     732                      .dwcfi  cfa_offset, -2
     733                      .dwcfi  save_reg_to_mem, 26, 0
     734                      .dwpsn  file "../drivers/source/spi.c",line 449,column 3,is_stmt,isa 0
     735 00000033 98CC          OR        *+XAR4[1],AL          ; [CPU_] |449| 
     736              $C$DW$60        .dwtag  DW_TAG_TI_branch
     737                      .dwattr $C$DW$60, DW_AT_low_pc(0x00)
     738                      .dwattr $C$DW$60, DW_AT_TI_return
     739              
     740 00000034 0006          LRETR     ; [CPU_] 
     741                      ; return occurs ; [] 
     742                      .dwattr $C$DW$55, DW_AT_TI_end_file("../drivers/source/spi.c")
     743                      .dwattr $C$DW$55, DW_AT_TI_end_line(0x1c4)
     744                      .dwattr $C$DW$55, DW_AT_TI_end_column(0x01)
     745                      .dwendentry
     746                      .dwendtag $C$DW$55
     747              
     748 00000035               .sect   ".text"
     749                      .clink
     750                      .global _SPI_setCharLength
     751              
     752              $C$DW$61        .dwtag  DW_TAG_subprogram
     753                      .dwattr $C$DW$61, DW_AT_name("SPI_setCharLength")
     754                      .dwattr $C$DW$61, DW_AT_low_pc(_SPI_setCharLength)
     755                      .dwattr $C$DW$61, DW_AT_high_pc(0x00)
     756                      .dwattr $C$DW$61, DW_AT_TI_symbol_name("_SPI_setCharLength")
     757                      .dwattr $C$DW$61, DW_AT_external
     758                      .dwattr $C$DW$61, DW_AT_TI_begin_file("../drivers/source/spi.c")
     759                      .dwattr $C$DW$61, DW_AT_TI_begin_line(0x1ac)
     760                      .dwattr $C$DW$61, DW_AT_TI_begin_column(0x06)
     761                      .dwattr $C$DW$61, DW_AT_TI_max_frame_size(-2)
     762                      .dwpsn  file "../drivers/source/spi.c",line 429,column 1,is_stmt,address _SPI_setCharLength,isa 0
     763              
TMS320C2000 Assembler PC v15.12.3 Tue Sep 20 20:30:11 2016

Tools Copyright (c) 1996-2015 Texas Instruments Incorporated
C:\Users\MaCHaDo\AppData\Local\Temp\2006010                          PAGE   15

     764                      .dwfde $C$DW$CIE, _SPI_setCharLength
     765              $C$DW$62        .dwtag  DW_TAG_formal_parameter
     766                      .dwattr $C$DW$62, DW_AT_name("spiHandle")
     767                      .dwattr $C$DW$62, DW_AT_TI_symbol_name("_spiHandle")
     768                      .dwattr $C$DW$62, DW_AT_type(*$C$DW$T$26)
     769                      .dwattr $C$DW$62, DW_AT_location[DW_OP_reg12]
     770              
     771              $C$DW$63        .dwtag  DW_TAG_formal_parameter
     772                      .dwattr $C$DW$63, DW_AT_name("length")
     773                      .dwattr $C$DW$63, DW_AT_TI_symbol_name("_length")
     774                      .dwattr $C$DW$63, DW_AT_type(*$C$DW$T$42)
     775                      .dwattr $C$DW$63, DW_AT_location[DW_OP_reg0]
     776              
     777              
     778              ;***************************************************************
     779              ;* FNAME: _SPI_setCharLength            FR SIZE:   0           *
     780              ;*                                                             *
     781              ;* FUNCTION ENVIRONMENT                                        *
     782              ;*                                                             *
     783              ;* FUNCTION PROPERTIES                                         *
     784              ;*                            0 Parameter,  0 Auto,  0 SOE     *
     785              ;***************************************************************
     786              
     787              _SPI_setCharLength:
     788              ;* AR4   assigned to _spiHandle
     789              $C$DW$64        .dwtag  DW_TAG_variable
     790                      .dwattr $C$DW$64, DW_AT_name("spiHandle")
     791                      .dwattr $C$DW$64, DW_AT_TI_symbol_name("_spiHandle")
     792                      .dwattr $C$DW$64, DW_AT_type(*$C$DW$T$68)
     793                      .dwattr $C$DW$64, DW_AT_location[DW_OP_reg12]
     794              
     795              ;* AL    assigned to _length
     796              $C$DW$65        .dwtag  DW_TAG_variable
     797                      .dwattr $C$DW$65, DW_AT_name("length")
     798                      .dwattr $C$DW$65, DW_AT_TI_symbol_name("_length")
     799                      .dwattr $C$DW$65, DW_AT_type(*$C$DW$T$42)
     800                      .dwattr $C$DW$65, DW_AT_location[DW_OP_reg0]
     801              
     802                      .dwcfi  cfa_offset, -2
     803                      .dwcfi  save_reg_to_mem, 26, 0
     804                      .dwpsn  file "../drivers/source/spi.c",line 434,column 3,is_stmt,isa 0
     805 00000035 18C4          AND       *+XAR4[0],#0xfff0     ; [CPU_] |434| 
         00000036 FFF0 
     806                      .dwpsn  file "../drivers/source/spi.c",line 437,column 3,is_stmt,isa 0
     807 00000037 98C4          OR        *+XAR4[0],AL          ; [CPU_] |437| 
     808              $C$DW$66        .dwtag  DW_TAG_TI_branch
     809                      .dwattr $C$DW$66, DW_AT_low_pc(0x00)
     810                      .dwattr $C$DW$66, DW_AT_TI_return
     811              
     812 00000038 0006          LRETR     ; [CPU_] 
     813                      ; return occurs ; [] 
     814                      .dwattr $C$DW$61, DW_AT_TI_end_file("../drivers/source/spi.c")
     815                      .dwattr $C$DW$61, DW_AT_TI_end_line(0x1b8)
     816                      .dwattr $C$DW$61, DW_AT_TI_end_column(0x01)
     817                      .dwendentry
TMS320C2000 Assembler PC v15.12.3 Tue Sep 20 20:30:11 2016

Tools Copyright (c) 1996-2015 Texas Instruments Incorporated
C:\Users\MaCHaDo\AppData\Local\Temp\2006010                          PAGE   16

     818                      .dwendtag $C$DW$61
     819              
     820 00000039               .sect   ".text"
     821                      .clink
     822                      .global _SPI_setBaudRate
     823              
     824              $C$DW$67        .dwtag  DW_TAG_subprogram
     825                      .dwattr $C$DW$67, DW_AT_name("SPI_setBaudRate")
     826                      .dwattr $C$DW$67, DW_AT_low_pc(_SPI_setBaudRate)
     827                      .dwattr $C$DW$67, DW_AT_high_pc(0x00)
     828                      .dwattr $C$DW$67, DW_AT_TI_symbol_name("_SPI_setBaudRate")
     829                      .dwattr $C$DW$67, DW_AT_external
     830                      .dwattr $C$DW$67, DW_AT_TI_begin_file("../drivers/source/spi.c")
     831                      .dwattr $C$DW$67, DW_AT_TI_begin_line(0x1a2)
     832                      .dwattr $C$DW$67, DW_AT_TI_begin_column(0x06)
     833                      .dwattr $C$DW$67, DW_AT_TI_max_frame_size(-2)
     834                      .dwpsn  file "../drivers/source/spi.c",line 419,column 1,is_stmt,address _SPI_setBaudRate,isa 0
     835              
     836                      .dwfde $C$DW$CIE, _SPI_setBaudRate
     837              $C$DW$68        .dwtag  DW_TAG_formal_parameter
     838                      .dwattr $C$DW$68, DW_AT_name("spiHandle")
     839                      .dwattr $C$DW$68, DW_AT_TI_symbol_name("_spiHandle")
     840                      .dwattr $C$DW$68, DW_AT_type(*$C$DW$T$26)
     841                      .dwattr $C$DW$68, DW_AT_location[DW_OP_reg12]
     842              
     843              $C$DW$69        .dwtag  DW_TAG_formal_parameter
     844                      .dwattr $C$DW$69, DW_AT_name("baudRate")
     845                      .dwattr $C$DW$69, DW_AT_TI_symbol_name("_baudRate")
     846                      .dwattr $C$DW$69, DW_AT_type(*$C$DW$T$39)
     847                      .dwattr $C$DW$69, DW_AT_location[DW_OP_reg0]
     848              
     849              
     850              ;***************************************************************
     851              ;* FNAME: _SPI_setBaudRate              FR SIZE:   0           *
     852              ;*                                                             *
     853              ;* FUNCTION ENVIRONMENT                                        *
     854              ;*                                                             *
     855              ;* FUNCTION PROPERTIES                                         *
     856              ;*                            0 Parameter,  0 Auto,  0 SOE     *
     857              ;***************************************************************
     858              
     859              _SPI_setBaudRate:
     860              ;* AR4   assigned to _spiHandle
     861              $C$DW$70        .dwtag  DW_TAG_variable
     862                      .dwattr $C$DW$70, DW_AT_name("spiHandle")
     863                      .dwattr $C$DW$70, DW_AT_TI_symbol_name("_spiHandle")
     864                      .dwattr $C$DW$70, DW_AT_type(*$C$DW$T$68)
     865                      .dwattr $C$DW$70, DW_AT_location[DW_OP_reg12]
     866              
     867              ;* AL    assigned to _baudRate
     868              $C$DW$71        .dwtag  DW_TAG_variable
     869                      .dwattr $C$DW$71, DW_AT_name("baudRate")
     870                      .dwattr $C$DW$71, DW_AT_TI_symbol_name("_baudRate")
     871                      .dwattr $C$DW$71, DW_AT_type(*$C$DW$T$39)
     872                      .dwattr $C$DW$71, DW_AT_location[DW_OP_reg0]
TMS320C2000 Assembler PC v15.12.3 Tue Sep 20 20:30:11 2016

Tools Copyright (c) 1996-2015 Texas Instruments Incorporated
C:\Users\MaCHaDo\AppData\Local\Temp\2006010                          PAGE   17

     873              
     874                      .dwcfi  cfa_offset, -2
     875                      .dwcfi  save_reg_to_mem, 26, 0
     876                      .dwpsn  file "../drivers/source/spi.c",line 423,column 3,is_stmt,isa 0
     877 00000039 96E4          MOV       *+XAR4[4],AL          ; [CPU_] |423| 
     878              $C$DW$72        .dwtag  DW_TAG_TI_branch
     879                      .dwattr $C$DW$72, DW_AT_low_pc(0x00)
     880                      .dwattr $C$DW$72, DW_AT_TI_return
     881              
     882 0000003a 0006          LRETR     ; [CPU_] 
     883                      ; return occurs ; [] 
     884                      .dwattr $C$DW$67, DW_AT_TI_end_file("../drivers/source/spi.c")
     885                      .dwattr $C$DW$67, DW_AT_TI_end_line(0x1a9)
     886                      .dwattr $C$DW$67, DW_AT_TI_end_column(0x01)
     887                      .dwendentry
     888                      .dwendtag $C$DW$67
     889              
     890 0000003b               .sect   ".text"
     891                      .clink
     892                      .global _SPI_resetTxFifo
     893              
     894              $C$DW$73        .dwtag  DW_TAG_subprogram
     895                      .dwattr $C$DW$73, DW_AT_name("SPI_resetTxFifo")
     896                      .dwattr $C$DW$73, DW_AT_low_pc(_SPI_resetTxFifo)
     897                      .dwattr $C$DW$73, DW_AT_high_pc(0x00)
     898                      .dwattr $C$DW$73, DW_AT_TI_symbol_name("_SPI_resetTxFifo")
     899                      .dwattr $C$DW$73, DW_AT_external
     900                      .dwattr $C$DW$73, DW_AT_TI_begin_file("../drivers/source/spi.c")
     901                      .dwattr $C$DW$73, DW_AT_TI_begin_line(0x196)
     902                      .dwattr $C$DW$73, DW_AT_TI_begin_column(0x06)
     903                      .dwattr $C$DW$73, DW_AT_TI_max_frame_size(-2)
     904                      .dwpsn  file "../drivers/source/spi.c",line 407,column 1,is_stmt,address _SPI_resetTxFifo,isa 0
     905              
     906                      .dwfde $C$DW$CIE, _SPI_resetTxFifo
     907              $C$DW$74        .dwtag  DW_TAG_formal_parameter
     908                      .dwattr $C$DW$74, DW_AT_name("spiHandle")
     909                      .dwattr $C$DW$74, DW_AT_TI_symbol_name("_spiHandle")
     910                      .dwattr $C$DW$74, DW_AT_type(*$C$DW$T$26)
     911                      .dwattr $C$DW$74, DW_AT_location[DW_OP_reg12]
     912              
     913              
     914              ;***************************************************************
     915              ;* FNAME: _SPI_resetTxFifo              FR SIZE:   0           *
     916              ;*                                                             *
     917              ;* FUNCTION ENVIRONMENT                                        *
     918              ;*                                                             *
     919              ;* FUNCTION PROPERTIES                                         *
     920              ;*                            0 Parameter,  0 Auto,  0 SOE     *
     921              ;***************************************************************
     922              
     923 0000003b       _SPI_resetTxFifo:
     924                      .dwcfi  cfa_offset, -2
     925                      .dwcfi  save_reg_to_mem, 26, 0
     926                      .dwpsn  file "../drivers/source/spi.c",line 412,column 3,is_stmt,isa 0
     927 0000003b DC0A          ADDB      XAR4,#10              ; [CPU_] |412| 
TMS320C2000 Assembler PC v15.12.3 Tue Sep 20 20:30:11 2016

Tools Copyright (c) 1996-2015 Texas Instruments Incorporated
C:\Users\MaCHaDo\AppData\Local\Temp\2006010                          PAGE   18

     928 0000003c 18C4          AND       *+XAR4[0],#0xdfff     ; [CPU_] |412| 
         0000003d DFFF 
     929              $C$DW$75        .dwtag  DW_TAG_TI_branch
     930                      .dwattr $C$DW$75, DW_AT_low_pc(0x00)
     931                      .dwattr $C$DW$75, DW_AT_TI_return
     932              
     933 0000003e 0006          LRETR     ; [CPU_] 
     934                      ; return occurs ; [] 
     935                      .dwattr $C$DW$73, DW_AT_TI_end_file("../drivers/source/spi.c")
     936                      .dwattr $C$DW$73, DW_AT_TI_end_line(0x19f)
     937                      .dwattr $C$DW$73, DW_AT_TI_end_column(0x01)
     938                      .dwendentry
     939                      .dwendtag $C$DW$73
     940              
     941 0000003f               .sect   ".text"
     942                      .clink
     943                      .global _SPI_resetRxFifo
     944              
     945              $C$DW$76        .dwtag  DW_TAG_subprogram
     946                      .dwattr $C$DW$76, DW_AT_name("SPI_resetRxFifo")
     947                      .dwattr $C$DW$76, DW_AT_low_pc(_SPI_resetRxFifo)
     948                      .dwattr $C$DW$76, DW_AT_high_pc(0x00)
     949                      .dwattr $C$DW$76, DW_AT_TI_symbol_name("_SPI_resetRxFifo")
     950                      .dwattr $C$DW$76, DW_AT_external
     951                      .dwattr $C$DW$76, DW_AT_TI_begin_file("../drivers/source/spi.c")
     952                      .dwattr $C$DW$76, DW_AT_TI_begin_line(0x18a)
     953                      .dwattr $C$DW$76, DW_AT_TI_begin_column(0x06)
     954                      .dwattr $C$DW$76, DW_AT_TI_max_frame_size(-2)
     955                      .dwpsn  file "../drivers/source/spi.c",line 395,column 1,is_stmt,address _SPI_resetRxFifo,isa 0
     956              
     957                      .dwfde $C$DW$CIE, _SPI_resetRxFifo
     958              $C$DW$77        .dwtag  DW_TAG_formal_parameter
     959                      .dwattr $C$DW$77, DW_AT_name("spiHandle")
     960                      .dwattr $C$DW$77, DW_AT_TI_symbol_name("_spiHandle")
     961                      .dwattr $C$DW$77, DW_AT_type(*$C$DW$T$26)
     962                      .dwattr $C$DW$77, DW_AT_location[DW_OP_reg12]
     963              
     964              
     965              ;***************************************************************
     966              ;* FNAME: _SPI_resetRxFifo              FR SIZE:   0           *
     967              ;*                                                             *
     968              ;* FUNCTION ENVIRONMENT                                        *
     969              ;*                                                             *
     970              ;* FUNCTION PROPERTIES                                         *
     971              ;*                            0 Parameter,  0 Auto,  0 SOE     *
     972              ;***************************************************************
     973              
     974 0000003f       _SPI_resetRxFifo:
     975                      .dwcfi  cfa_offset, -2
     976                      .dwcfi  save_reg_to_mem, 26, 0
     977                      .dwpsn  file "../drivers/source/spi.c",line 400,column 3,is_stmt,isa 0
     978 0000003f DC0B          ADDB      XAR4,#11              ; [CPU_] |400| 
     979 00000040 18C4          AND       *+XAR4[0],#0xdfff     ; [CPU_] |400| 
         00000041 DFFF 
     980              $C$DW$78        .dwtag  DW_TAG_TI_branch
TMS320C2000 Assembler PC v15.12.3 Tue Sep 20 20:30:11 2016

Tools Copyright (c) 1996-2015 Texas Instruments Incorporated
C:\Users\MaCHaDo\AppData\Local\Temp\2006010                          PAGE   19

     981                      .dwattr $C$DW$78, DW_AT_low_pc(0x00)
     982                      .dwattr $C$DW$78, DW_AT_TI_return
     983              
     984 00000042 0006          LRETR     ; [CPU_] 
     985                      ; return occurs ; [] 
     986                      .dwattr $C$DW$76, DW_AT_TI_end_file("../drivers/source/spi.c")
     987                      .dwattr $C$DW$76, DW_AT_TI_end_line(0x193)
     988                      .dwattr $C$DW$76, DW_AT_TI_end_column(0x01)
     989                      .dwendentry
     990                      .dwendtag $C$DW$76
     991              
     992 00000043               .sect   ".text"
     993                      .clink
     994                      .global _SPI_resetChannels
     995              
     996              $C$DW$79        .dwtag  DW_TAG_subprogram
     997                      .dwattr $C$DW$79, DW_AT_name("SPI_resetChannels")
     998                      .dwattr $C$DW$79, DW_AT_low_pc(_SPI_resetChannels)
     999                      .dwattr $C$DW$79, DW_AT_high_pc(0x00)
    1000                      .dwattr $C$DW$79, DW_AT_TI_symbol_name("_SPI_resetChannels")
    1001                      .dwattr $C$DW$79, DW_AT_external
    1002                      .dwattr $C$DW$79, DW_AT_TI_begin_file("../drivers/source/spi.c")
    1003                      .dwattr $C$DW$79, DW_AT_TI_begin_line(0x17e)
    1004                      .dwattr $C$DW$79, DW_AT_TI_begin_column(0x06)
    1005                      .dwattr $C$DW$79, DW_AT_TI_max_frame_size(-2)
    1006                      .dwpsn  file "../drivers/source/spi.c",line 383,column 1,is_stmt,address _SPI_resetChannels,isa 0
    1007              
    1008                      .dwfde $C$DW$CIE, _SPI_resetChannels
    1009              $C$DW$80        .dwtag  DW_TAG_formal_parameter
    1010                      .dwattr $C$DW$80, DW_AT_name("spiHandle")
    1011                      .dwattr $C$DW$80, DW_AT_TI_symbol_name("_spiHandle")
    1012                      .dwattr $C$DW$80, DW_AT_type(*$C$DW$T$26)
    1013                      .dwattr $C$DW$80, DW_AT_location[DW_OP_reg12]
    1014              
    1015              
    1016              ;***************************************************************
    1017              ;* FNAME: _SPI_resetChannels            FR SIZE:   0           *
    1018              ;*                                                             *
    1019              ;* FUNCTION ENVIRONMENT                                        *
    1020              ;*                                                             *
    1021              ;* FUNCTION PROPERTIES                                         *
    1022              ;*                            0 Parameter,  0 Auto,  0 SOE     *
    1023              ;***************************************************************
    1024              
    1025 00000043       _SPI_resetChannels:
    1026                      .dwcfi  cfa_offset, -2
    1027                      .dwcfi  save_reg_to_mem, 26, 0
    1028                      .dwpsn  file "../drivers/source/spi.c",line 388,column 3,is_stmt,isa 0
    1029 00000043 DC0A          ADDB      XAR4,#10              ; [CPU_] |388| 
    1030 00000044 18C4          AND       *+XAR4[0],#0x7fff     ; [CPU_] |388| 
         00000045 7FFF 
    1031              $C$DW$81        .dwtag  DW_TAG_TI_branch
    1032                      .dwattr $C$DW$81, DW_AT_low_pc(0x00)
    1033                      .dwattr $C$DW$81, DW_AT_TI_return
    1034              
TMS320C2000 Assembler PC v15.12.3 Tue Sep 20 20:30:11 2016

Tools Copyright (c) 1996-2015 Texas Instruments Incorporated
C:\Users\MaCHaDo\AppData\Local\Temp\2006010                          PAGE   20

    1035 00000046 0006          LRETR     ; [CPU_] 
    1036                      ; return occurs ; [] 
    1037                      .dwattr $C$DW$79, DW_AT_TI_end_file("../drivers/source/spi.c")
    1038                      .dwattr $C$DW$79, DW_AT_TI_end_line(0x187)
    1039                      .dwattr $C$DW$79, DW_AT_TI_end_column(0x01)
    1040                      .dwendentry
    1041                      .dwendtag $C$DW$79
    1042              
    1043 00000047               .sect   ".text"
    1044                      .clink
    1045                      .global _SPI_reset
    1046              
    1047              $C$DW$82        .dwtag  DW_TAG_subprogram
    1048                      .dwattr $C$DW$82, DW_AT_name("SPI_reset")
    1049                      .dwattr $C$DW$82, DW_AT_low_pc(_SPI_reset)
    1050                      .dwattr $C$DW$82, DW_AT_high_pc(0x00)
    1051                      .dwattr $C$DW$82, DW_AT_TI_symbol_name("_SPI_reset")
    1052                      .dwattr $C$DW$82, DW_AT_external
    1053                      .dwattr $C$DW$82, DW_AT_TI_begin_file("../drivers/source/spi.c")
    1054                      .dwattr $C$DW$82, DW_AT_TI_begin_line(0x172)
    1055                      .dwattr $C$DW$82, DW_AT_TI_begin_column(0x06)
    1056                      .dwattr $C$DW$82, DW_AT_TI_max_frame_size(-2)
    1057                      .dwpsn  file "../drivers/source/spi.c",line 371,column 1,is_stmt,address _SPI_reset,isa 0
    1058              
    1059                      .dwfde $C$DW$CIE, _SPI_reset
    1060              $C$DW$83        .dwtag  DW_TAG_formal_parameter
    1061                      .dwattr $C$DW$83, DW_AT_name("spiHandle")
    1062                      .dwattr $C$DW$83, DW_AT_TI_symbol_name("_spiHandle")
    1063                      .dwattr $C$DW$83, DW_AT_type(*$C$DW$T$26)
    1064                      .dwattr $C$DW$83, DW_AT_location[DW_OP_reg12]
    1065              
    1066              
    1067              ;***************************************************************
    1068              ;* FNAME: _SPI_reset                    FR SIZE:   0           *
    1069              ;*                                                             *
    1070              ;* FUNCTION ENVIRONMENT                                        *
    1071              ;*                                                             *
    1072              ;* FUNCTION PROPERTIES                                         *
    1073              ;*                            0 Parameter,  0 Auto,  0 SOE     *
    1074              ;***************************************************************
    1075              
    1076              _SPI_reset:
    1077              ;* AR4   assigned to _spiHandle
    1078              $C$DW$84        .dwtag  DW_TAG_variable
    1079                      .dwattr $C$DW$84, DW_AT_name("spiHandle")
    1080                      .dwattr $C$DW$84, DW_AT_TI_symbol_name("_spiHandle")
    1081                      .dwattr $C$DW$84, DW_AT_type(*$C$DW$T$68)
    1082                      .dwattr $C$DW$84, DW_AT_location[DW_OP_reg12]
    1083              
    1084                      .dwcfi  cfa_offset, -2
    1085                      .dwcfi  save_reg_to_mem, 26, 0
    1086                      .dwpsn  file "../drivers/source/spi.c",line 376,column 3,is_stmt,isa 0
    1087 00000047 18C4          AND       *+XAR4[0],#0xff7f     ; [CPU_] |376| 
         00000048 FF7F 
    1088              $C$DW$85        .dwtag  DW_TAG_TI_branch
TMS320C2000 Assembler PC v15.12.3 Tue Sep 20 20:30:11 2016

Tools Copyright (c) 1996-2015 Texas Instruments Incorporated
C:\Users\MaCHaDo\AppData\Local\Temp\2006010                          PAGE   21

    1089                      .dwattr $C$DW$85, DW_AT_low_pc(0x00)
    1090                      .dwattr $C$DW$85, DW_AT_TI_return
    1091              
    1092 00000049 0006          LRETR     ; [CPU_] 
    1093                      ; return occurs ; [] 
    1094                      .dwattr $C$DW$82, DW_AT_TI_end_file("../drivers/source/spi.c")
    1095                      .dwattr $C$DW$82, DW_AT_TI_end_line(0x17b)
    1096                      .dwattr $C$DW$82, DW_AT_TI_end_column(0x01)
    1097                      .dwendentry
    1098                      .dwendtag $C$DW$82
    1099              
    1100 0000004a               .sect   ".text"
    1101                      .clink
    1102                      .global _SPI_init
    1103              
    1104              $C$DW$86        .dwtag  DW_TAG_subprogram
    1105                      .dwattr $C$DW$86, DW_AT_name("SPI_init")
    1106                      .dwattr $C$DW$86, DW_AT_low_pc(_SPI_init)
    1107                      .dwattr $C$DW$86, DW_AT_high_pc(0x00)
    1108                      .dwattr $C$DW$86, DW_AT_TI_symbol_name("_SPI_init")
    1109                      .dwattr $C$DW$86, DW_AT_external
    1110                      .dwattr $C$DW$86, DW_AT_type(*$C$DW$T$26)
    1111                      .dwattr $C$DW$86, DW_AT_TI_begin_file("../drivers/source/spi.c")
    1112                      .dwattr $C$DW$86, DW_AT_TI_begin_line(0x163)
    1113                      .dwattr $C$DW$86, DW_AT_TI_begin_column(0x0c)
    1114                      .dwattr $C$DW$86, DW_AT_TI_max_frame_size(-2)
    1115                      .dwpsn  file "../drivers/source/spi.c",line 356,column 1,is_stmt,address _SPI_init,isa 0
    1116              
    1117                      .dwfde $C$DW$CIE, _SPI_init
    1118              $C$DW$87        .dwtag  DW_TAG_formal_parameter
    1119                      .dwattr $C$DW$87, DW_AT_name("pMemory")
    1120                      .dwattr $C$DW$87, DW_AT_TI_symbol_name("_pMemory")
    1121                      .dwattr $C$DW$87, DW_AT_type(*$C$DW$T$3)
    1122                      .dwattr $C$DW$87, DW_AT_location[DW_OP_reg12]
    1123              
    1124              $C$DW$88        .dwtag  DW_TAG_formal_parameter
    1125                      .dwattr $C$DW$88, DW_AT_name("numBytes")
    1126                      .dwattr $C$DW$88, DW_AT_TI_symbol_name("_numBytes")
    1127                      .dwattr $C$DW$88, DW_AT_type(*$C$DW$T$70)
    1128                      .dwattr $C$DW$88, DW_AT_location[DW_OP_reg0]
    1129              
    1130              
    1131              ;***************************************************************
    1132              ;* FNAME: _SPI_init                     FR SIZE:   0           *
    1133              ;*                                                             *
    1134              ;* FUNCTION ENVIRONMENT                                        *
    1135              ;*                                                             *
    1136              ;* FUNCTION PROPERTIES                                         *
    1137              ;*                            0 Parameter,  0 Auto,  0 SOE     *
    1138              ;***************************************************************
    1139              
    1140              _SPI_init:
    1141              ;* AR6   assigned to _numBytes
    1142              $C$DW$89        .dwtag  DW_TAG_variable
    1143                      .dwattr $C$DW$89, DW_AT_name("numBytes")
TMS320C2000 Assembler PC v15.12.3 Tue Sep 20 20:30:11 2016

Tools Copyright (c) 1996-2015 Texas Instruments Incorporated
C:\Users\MaCHaDo\AppData\Local\Temp\2006010                          PAGE   22

    1144                      .dwattr $C$DW$89, DW_AT_TI_symbol_name("_numBytes")
    1145                      .dwattr $C$DW$89, DW_AT_type(*$C$DW$T$70)
    1146                      .dwattr $C$DW$89, DW_AT_location[DW_OP_reg16]
    1147              
    1148                      .dwcfi  cfa_offset, -2
    1149                      .dwcfi  save_reg_to_mem, 26, 0
    1150 0000004a 1EA6          MOVL      XAR6,ACC              ; [CPU_] |356| 
    1151                      .dwpsn  file "../drivers/source/spi.c",line 361,column 5,is_stmt,isa 0
    1152 0000004b 0210          MOVB      ACC,#16               ; [CPU_] |361| 
    1153 0000004c 0FA6          CMPL      ACC,XAR6              ; [CPU_] |361| 
    1154 0000004d 6902          B         $C$L1,LOS             ; [CPU_] |361| 
    1155                      ; branchcc occurs ; [] |361| 
    1156 0000004e D400          MOVB      XAR4,#0               ; [CPU_] |361| 
    1157              $C$L1:    
    1158              $C$DW$90        .dwtag  DW_TAG_TI_branch
    1159                      .dwattr $C$DW$90, DW_AT_low_pc(0x00)
    1160                      .dwattr $C$DW$90, DW_AT_TI_return
    1161              
    1162 0000004f 0006          LRETR     ; [CPU_] 
    1163                      ; return occurs ; [] 
    1164                      .dwattr $C$DW$86, DW_AT_TI_end_file("../drivers/source/spi.c")
    1165                      .dwattr $C$DW$86, DW_AT_TI_end_line(0x16f)
    1166                      .dwattr $C$DW$86, DW_AT_TI_end_column(0x01)
    1167                      .dwendentry
    1168                      .dwendtag $C$DW$86
    1169              
    1170 00000050               .sect   ".text"
    1171                      .clink
    1172                      .global _SPI_getTxFifoStatus
    1173              
    1174              $C$DW$91        .dwtag  DW_TAG_subprogram
    1175                      .dwattr $C$DW$91, DW_AT_name("SPI_getTxFifoStatus")
    1176                      .dwattr $C$DW$91, DW_AT_low_pc(_SPI_getTxFifoStatus)
    1177                      .dwattr $C$DW$91, DW_AT_high_pc(0x00)
    1178                      .dwattr $C$DW$91, DW_AT_TI_symbol_name("_SPI_getTxFifoStatus")
    1179                      .dwattr $C$DW$91, DW_AT_external
    1180                      .dwattr $C$DW$91, DW_AT_type(*$C$DW$T$24)
    1181                      .dwattr $C$DW$91, DW_AT_TI_begin_file("../drivers/source/spi.c")
    1182                      .dwattr $C$DW$91, DW_AT_TI_begin_line(0x13f)
    1183                      .dwattr $C$DW$91, DW_AT_TI_begin_column(0x12)
    1184                      .dwattr $C$DW$91, DW_AT_TI_max_frame_size(-2)
    1185                      .dwpsn  file "../drivers/source/spi.c",line 320,column 1,is_stmt,address _SPI_getTxFifoStatus,isa 0
    1186              
    1187                      .dwfde $C$DW$CIE, _SPI_getTxFifoStatus
    1188              $C$DW$92        .dwtag  DW_TAG_formal_parameter
    1189                      .dwattr $C$DW$92, DW_AT_name("spiHandle")
    1190                      .dwattr $C$DW$92, DW_AT_TI_symbol_name("_spiHandle")
    1191                      .dwattr $C$DW$92, DW_AT_type(*$C$DW$T$26)
    1192                      .dwattr $C$DW$92, DW_AT_location[DW_OP_reg12]
    1193              
    1194              
    1195              ;***************************************************************
    1196              ;* FNAME: _SPI_getTxFifoStatus          FR SIZE:   0           *
    1197              ;*                                                             *
    1198              ;* FUNCTION ENVIRONMENT                                        *
TMS320C2000 Assembler PC v15.12.3 Tue Sep 20 20:30:11 2016

Tools Copyright (c) 1996-2015 Texas Instruments Incorporated
C:\Users\MaCHaDo\AppData\Local\Temp\2006010                          PAGE   23

    1199              ;*                                                             *
    1200              ;* FUNCTION PROPERTIES                                         *
    1201              ;*                            0 Parameter,  0 Auto,  0 SOE     *
    1202              ;***************************************************************
    1203              
    1204              _SPI_getTxFifoStatus:
    1205              ;* AR4   assigned to _spiHandle
    1206              $C$DW$93        .dwtag  DW_TAG_variable
    1207                      .dwattr $C$DW$93, DW_AT_name("spiHandle")
    1208                      .dwattr $C$DW$93, DW_AT_TI_symbol_name("_spiHandle")
    1209                      .dwattr $C$DW$93, DW_AT_type(*$C$DW$T$68)
    1210                      .dwattr $C$DW$93, DW_AT_location[DW_OP_reg12]
    1211              
    1212              ;* AL    assigned to _status
    1213              $C$DW$94        .dwtag  DW_TAG_variable
    1214                      .dwattr $C$DW$94, DW_AT_name("status")
    1215                      .dwattr $C$DW$94, DW_AT_TI_symbol_name("_status")
    1216                      .dwattr $C$DW$94, DW_AT_type(*$C$DW$T$24)
    1217                      .dwattr $C$DW$94, DW_AT_location[DW_OP_reg0]
    1218              
    1219                      .dwcfi  cfa_offset, -2
    1220                      .dwcfi  save_reg_to_mem, 26, 0
    1221                      .dwpsn  file "../drivers/source/spi.c",line 325,column 27,is_stmt,isa 0
    1222 00000050 D00A          MOVB      XAR0,#10              ; [CPU_] |325| 
    1223 00000051 CC94          AND       AL,*+XAR4[AR0],#0x1f00 ; [CPU_] |325| 
         00000052 1F00 
    1224              $C$DW$95        .dwtag  DW_TAG_TI_branch
    1225                      .dwattr $C$DW$95, DW_AT_low_pc(0x00)
    1226                      .dwattr $C$DW$95, DW_AT_TI_return
    1227              
    1228 00000053 0006          LRETR     ; [CPU_] 
    1229                      ; return occurs ; [] 
    1230                      .dwattr $C$DW$91, DW_AT_TI_end_file("../drivers/source/spi.c")
    1231                      .dwattr $C$DW$91, DW_AT_TI_end_line(0x148)
    1232                      .dwattr $C$DW$91, DW_AT_TI_end_column(0x01)
    1233                      .dwendentry
    1234                      .dwendtag $C$DW$91
    1235              
    1236 00000054               .sect   ".text"
    1237                      .clink
    1238                      .global _SPI_getTxBufferStatus
    1239              
    1240              $C$DW$96        .dwtag  DW_TAG_subprogram
    1241                      .dwattr $C$DW$96, DW_AT_name("SPI_getTxBufferStatus")
    1242                      .dwattr $C$DW$96, DW_AT_low_pc(_SPI_getTxBufferStatus)
    1243                      .dwattr $C$DW$96, DW_AT_high_pc(0x00)
    1244                      .dwattr $C$DW$96, DW_AT_TI_symbol_name("_SPI_getTxBufferStatus")
    1245                      .dwattr $C$DW$96, DW_AT_external
    1246                      .dwattr $C$DW$96, DW_AT_type(*$C$DW$T$34)
    1247                      .dwattr $C$DW$96, DW_AT_TI_begin_file("../drivers/source/spi.c")
    1248                      .dwattr $C$DW$96, DW_AT_TI_begin_line(0x157)
    1249                      .dwattr $C$DW$96, DW_AT_TI_begin_column(0x16)
    1250                      .dwattr $C$DW$96, DW_AT_TI_max_frame_size(-2)
    1251                      .dwpsn  file "../drivers/source/spi.c",line 344,column 1,is_stmt,address _SPI_getTxBufferStatus,isa 0
    1252              
TMS320C2000 Assembler PC v15.12.3 Tue Sep 20 20:30:11 2016

Tools Copyright (c) 1996-2015 Texas Instruments Incorporated
C:\Users\MaCHaDo\AppData\Local\Temp\2006010                          PAGE   24

    1253                      .dwfde $C$DW$CIE, _SPI_getTxBufferStatus
    1254              $C$DW$97        .dwtag  DW_TAG_formal_parameter
    1255                      .dwattr $C$DW$97, DW_AT_name("spiHandle")
    1256                      .dwattr $C$DW$97, DW_AT_TI_symbol_name("_spiHandle")
    1257                      .dwattr $C$DW$97, DW_AT_type(*$C$DW$T$26)
    1258                      .dwattr $C$DW$97, DW_AT_location[DW_OP_reg12]
    1259              
    1260              
    1261              ;***************************************************************
    1262              ;* FNAME: _SPI_getTxBufferStatus        FR SIZE:   0           *
    1263              ;*                                                             *
    1264              ;* FUNCTION ENVIRONMENT                                        *
    1265              ;*                                                             *
    1266              ;* FUNCTION PROPERTIES                                         *
    1267              ;*                            0 Parameter,  0 Auto,  0 SOE     *
    1268              ;***************************************************************
    1269              
    1270              _SPI_getTxBufferStatus:
    1271              ;* AR4   assigned to _spiHandle
    1272              $C$DW$98        .dwtag  DW_TAG_variable
    1273                      .dwattr $C$DW$98, DW_AT_name("spiHandle")
    1274                      .dwattr $C$DW$98, DW_AT_TI_symbol_name("_spiHandle")
    1275                      .dwattr $C$DW$98, DW_AT_type(*$C$DW$T$68)
    1276                      .dwattr $C$DW$98, DW_AT_location[DW_OP_reg12]
    1277              
    1278              ;* AL    assigned to _status
    1279              $C$DW$99        .dwtag  DW_TAG_variable
    1280                      .dwattr $C$DW$99, DW_AT_name("status")
    1281                      .dwattr $C$DW$99, DW_AT_TI_symbol_name("_status")
    1282                      .dwattr $C$DW$99, DW_AT_type(*$C$DW$T$34)
    1283                      .dwattr $C$DW$99, DW_AT_location[DW_OP_reg0]
    1284              
    1285                      .dwcfi  cfa_offset, -2
    1286                      .dwcfi  save_reg_to_mem, 26, 0
    1287                      .dwpsn  file "../drivers/source/spi.c",line 349,column 31,is_stmt,isa 0
    1288 00000054 CCD4          AND       AL,*+XAR4[2],#0x0020  ; [CPU_] |349| 
         00000055 0020 
    1289              $C$DW$100       .dwtag  DW_TAG_TI_branch
    1290                      .dwattr $C$DW$100, DW_AT_low_pc(0x00)
    1291                      .dwattr $C$DW$100, DW_AT_TI_return
    1292              
    1293 00000056 0006          LRETR     ; [CPU_] 
    1294                      ; return occurs ; [] 
    1295                      .dwattr $C$DW$96, DW_AT_TI_end_file("../drivers/source/spi.c")
    1296                      .dwattr $C$DW$96, DW_AT_TI_end_line(0x160)
    1297                      .dwattr $C$DW$96, DW_AT_TI_end_column(0x01)
    1298                      .dwendentry
    1299                      .dwendtag $C$DW$96
    1300              
    1301 00000057               .sect   ".text"
    1302                      .clink
    1303                      .global _SPI_getRxFifoStatus
    1304              
    1305              $C$DW$101       .dwtag  DW_TAG_subprogram
    1306                      .dwattr $C$DW$101, DW_AT_name("SPI_getRxFifoStatus")
TMS320C2000 Assembler PC v15.12.3 Tue Sep 20 20:30:11 2016

Tools Copyright (c) 1996-2015 Texas Instruments Incorporated
C:\Users\MaCHaDo\AppData\Local\Temp\2006010                          PAGE   25

    1307                      .dwattr $C$DW$101, DW_AT_low_pc(_SPI_getRxFifoStatus)
    1308                      .dwattr $C$DW$101, DW_AT_high_pc(0x00)
    1309                      .dwattr $C$DW$101, DW_AT_TI_symbol_name("_SPI_getRxFifoStatus")
    1310                      .dwattr $C$DW$101, DW_AT_external
    1311                      .dwattr $C$DW$101, DW_AT_type(*$C$DW$T$24)
    1312                      .dwattr $C$DW$101, DW_AT_TI_begin_file("../drivers/source/spi.c")
    1313                      .dwattr $C$DW$101, DW_AT_TI_begin_line(0x133)
    1314                      .dwattr $C$DW$101, DW_AT_TI_begin_column(0x12)
    1315                      .dwattr $C$DW$101, DW_AT_TI_max_frame_size(-2)
    1316                      .dwpsn  file "../drivers/source/spi.c",line 308,column 1,is_stmt,address _SPI_getRxFifoStatus,isa 0
    1317              
    1318                      .dwfde $C$DW$CIE, _SPI_getRxFifoStatus
    1319              $C$DW$102       .dwtag  DW_TAG_formal_parameter
    1320                      .dwattr $C$DW$102, DW_AT_name("spiHandle")
    1321                      .dwattr $C$DW$102, DW_AT_TI_symbol_name("_spiHandle")
    1322                      .dwattr $C$DW$102, DW_AT_type(*$C$DW$T$26)
    1323                      .dwattr $C$DW$102, DW_AT_location[DW_OP_reg12]
    1324              
    1325              
    1326              ;***************************************************************
    1327              ;* FNAME: _SPI_getRxFifoStatus          FR SIZE:   0           *
    1328              ;*                                                             *
    1329              ;* FUNCTION ENVIRONMENT                                        *
    1330              ;*                                                             *
    1331              ;* FUNCTION PROPERTIES                                         *
    1332              ;*                            0 Parameter,  0 Auto,  0 SOE     *
    1333              ;***************************************************************
    1334              
    1335              _SPI_getRxFifoStatus:
    1336              ;* AR4   assigned to _spiHandle
    1337              $C$DW$103       .dwtag  DW_TAG_variable
    1338                      .dwattr $C$DW$103, DW_AT_name("spiHandle")
    1339                      .dwattr $C$DW$103, DW_AT_TI_symbol_name("_spiHandle")
    1340                      .dwattr $C$DW$103, DW_AT_type(*$C$DW$T$68)
    1341                      .dwattr $C$DW$103, DW_AT_location[DW_OP_reg12]
    1342              
    1343              ;* AL    assigned to _status
    1344              $C$DW$104       .dwtag  DW_TAG_variable
    1345                      .dwattr $C$DW$104, DW_AT_name("status")
    1346                      .dwattr $C$DW$104, DW_AT_TI_symbol_name("_status")
    1347                      .dwattr $C$DW$104, DW_AT_type(*$C$DW$T$24)
    1348                      .dwattr $C$DW$104, DW_AT_location[DW_OP_reg0]
    1349              
    1350                      .dwcfi  cfa_offset, -2
    1351                      .dwcfi  save_reg_to_mem, 26, 0
    1352                      .dwpsn  file "../drivers/source/spi.c",line 313,column 27,is_stmt,isa 0
    1353 00000057 D00B          MOVB      XAR0,#11              ; [CPU_] |313| 
    1354 00000058 CC94          AND       AL,*+XAR4[AR0],#0x1f00 ; [CPU_] |313| 
         00000059 1F00 
    1355              $C$DW$105       .dwtag  DW_TAG_TI_branch
    1356                      .dwattr $C$DW$105, DW_AT_low_pc(0x00)
    1357                      .dwattr $C$DW$105, DW_AT_TI_return
    1358              
    1359 0000005a 0006          LRETR     ; [CPU_] 
    1360                      ; return occurs ; [] 
TMS320C2000 Assembler PC v15.12.3 Tue Sep 20 20:30:11 2016

Tools Copyright (c) 1996-2015 Texas Instruments Incorporated
C:\Users\MaCHaDo\AppData\Local\Temp\2006010                          PAGE   26

    1361                      .dwattr $C$DW$101, DW_AT_TI_end_file("../drivers/source/spi.c")
    1362                      .dwattr $C$DW$101, DW_AT_TI_end_line(0x13c)
    1363                      .dwattr $C$DW$101, DW_AT_TI_end_column(0x01)
    1364                      .dwendentry
    1365                      .dwendtag $C$DW$101
    1366              
    1367 0000005b               .sect   ".text"
    1368                      .clink
    1369                      .global _SPI_getIntFlagStatus
    1370              
    1371              $C$DW$106       .dwtag  DW_TAG_subprogram
    1372                      .dwattr $C$DW$106, DW_AT_name("SPI_getIntFlagStatus")
    1373                      .dwattr $C$DW$106, DW_AT_low_pc(_SPI_getIntFlagStatus)
    1374                      .dwattr $C$DW$106, DW_AT_high_pc(0x00)
    1375                      .dwattr $C$DW$106, DW_AT_TI_symbol_name("_SPI_getIntFlagStatus")
    1376                      .dwattr $C$DW$106, DW_AT_external
    1377                      .dwattr $C$DW$106, DW_AT_type(*$C$DW$T$30)
    1378                      .dwattr $C$DW$106, DW_AT_TI_begin_file("../drivers/source/spi.c")
    1379                      .dwattr $C$DW$106, DW_AT_TI_begin_line(0x14b)
    1380                      .dwattr $C$DW$106, DW_AT_TI_begin_column(0x15)
    1381                      .dwattr $C$DW$106, DW_AT_TI_max_frame_size(-2)
    1382                      .dwpsn  file "../drivers/source/spi.c",line 332,column 1,is_stmt,address _SPI_getIntFlagStatus,isa 0
    1383              
    1384                      .dwfde $C$DW$CIE, _SPI_getIntFlagStatus
    1385              $C$DW$107       .dwtag  DW_TAG_formal_parameter
    1386                      .dwattr $C$DW$107, DW_AT_name("spiHandle")
    1387                      .dwattr $C$DW$107, DW_AT_TI_symbol_name("_spiHandle")
    1388                      .dwattr $C$DW$107, DW_AT_type(*$C$DW$T$26)
    1389                      .dwattr $C$DW$107, DW_AT_location[DW_OP_reg12]
    1390              
    1391              
    1392              ;***************************************************************
    1393              ;* FNAME: _SPI_getIntFlagStatus         FR SIZE:   0           *
    1394              ;*                                                             *
    1395              ;* FUNCTION ENVIRONMENT                                        *
    1396              ;*                                                             *
    1397              ;* FUNCTION PROPERTIES                                         *
    1398              ;*                            0 Parameter,  0 Auto,  0 SOE     *
    1399              ;***************************************************************
    1400              
    1401              _SPI_getIntFlagStatus:
    1402              ;* AR4   assigned to _spiHandle
    1403              $C$DW$108       .dwtag  DW_TAG_variable
    1404                      .dwattr $C$DW$108, DW_AT_name("spiHandle")
    1405                      .dwattr $C$DW$108, DW_AT_TI_symbol_name("_spiHandle")
    1406                      .dwattr $C$DW$108, DW_AT_type(*$C$DW$T$68)
    1407                      .dwattr $C$DW$108, DW_AT_location[DW_OP_reg12]
    1408              
    1409              ;* AL    assigned to _status
    1410              $C$DW$109       .dwtag  DW_TAG_variable
    1411                      .dwattr $C$DW$109, DW_AT_name("status")
    1412                      .dwattr $C$DW$109, DW_AT_TI_symbol_name("_status")
    1413                      .dwattr $C$DW$109, DW_AT_type(*$C$DW$T$30)
    1414                      .dwattr $C$DW$109, DW_AT_location[DW_OP_reg0]
    1415              
TMS320C2000 Assembler PC v15.12.3 Tue Sep 20 20:30:11 2016

Tools Copyright (c) 1996-2015 Texas Instruments Incorporated
C:\Users\MaCHaDo\AppData\Local\Temp\2006010                          PAGE   27

    1416                      .dwcfi  cfa_offset, -2
    1417                      .dwcfi  save_reg_to_mem, 26, 0
    1418                      .dwpsn  file "../drivers/source/spi.c",line 337,column 30,is_stmt,isa 0
    1419 0000005b CCD4          AND       AL,*+XAR4[2],#0x0040  ; [CPU_] |337| 
         0000005c 0040 
    1420              $C$DW$110       .dwtag  DW_TAG_TI_branch
    1421                      .dwattr $C$DW$110, DW_AT_low_pc(0x00)
    1422                      .dwattr $C$DW$110, DW_AT_TI_return
    1423              
    1424 0000005d 0006          LRETR     ; [CPU_] 
    1425                      ; return occurs ; [] 
    1426                      .dwattr $C$DW$106, DW_AT_TI_end_file("../drivers/source/spi.c")
    1427                      .dwattr $C$DW$106, DW_AT_TI_end_line(0x154)
    1428                      .dwattr $C$DW$106, DW_AT_TI_end_column(0x01)
    1429                      .dwendentry
    1430                      .dwendtag $C$DW$106
    1431              
    1432 0000005e               .sect   ".text"
    1433                      .clink
    1434                      .global _SPI_enableTxFifoInt
    1435              
    1436              $C$DW$111       .dwtag  DW_TAG_subprogram
    1437                      .dwattr $C$DW$111, DW_AT_name("SPI_enableTxFifoInt")
    1438                      .dwattr $C$DW$111, DW_AT_low_pc(_SPI_enableTxFifoInt)
    1439                      .dwattr $C$DW$111, DW_AT_high_pc(0x00)
    1440                      .dwattr $C$DW$111, DW_AT_TI_symbol_name("_SPI_enableTxFifoInt")
    1441                      .dwattr $C$DW$111, DW_AT_external
    1442                      .dwattr $C$DW$111, DW_AT_TI_begin_file("../drivers/source/spi.c")
    1443                      .dwattr $C$DW$111, DW_AT_TI_begin_line(0x127)
    1444                      .dwattr $C$DW$111, DW_AT_TI_begin_column(0x06)
    1445                      .dwattr $C$DW$111, DW_AT_TI_max_frame_size(-2)
    1446                      .dwpsn  file "../drivers/source/spi.c",line 296,column 1,is_stmt,address _SPI_enableTxFifoInt,isa 0
    1447              
    1448                      .dwfde $C$DW$CIE, _SPI_enableTxFifoInt
    1449              $C$DW$112       .dwtag  DW_TAG_formal_parameter
    1450                      .dwattr $C$DW$112, DW_AT_name("spiHandle")
    1451                      .dwattr $C$DW$112, DW_AT_TI_symbol_name("_spiHandle")
    1452                      .dwattr $C$DW$112, DW_AT_type(*$C$DW$T$26)
    1453                      .dwattr $C$DW$112, DW_AT_location[DW_OP_reg12]
    1454              
    1455              
    1456              ;***************************************************************
    1457              ;* FNAME: _SPI_enableTxFifoInt          FR SIZE:   0           *
    1458              ;*                                                             *
    1459              ;* FUNCTION ENVIRONMENT                                        *
    1460              ;*                                                             *
    1461              ;* FUNCTION PROPERTIES                                         *
    1462              ;*                            0 Parameter,  0 Auto,  0 SOE     *
    1463              ;***************************************************************
    1464              
    1465 0000005e       _SPI_enableTxFifoInt:
    1466                      .dwcfi  cfa_offset, -2
    1467                      .dwcfi  save_reg_to_mem, 26, 0
    1468                      .dwpsn  file "../drivers/source/spi.c",line 301,column 3,is_stmt,isa 0
    1469 0000005e DC0A          ADDB      XAR4,#10              ; [CPU_] |301| 
TMS320C2000 Assembler PC v15.12.3 Tue Sep 20 20:30:11 2016

Tools Copyright (c) 1996-2015 Texas Instruments Incorporated
C:\Users\MaCHaDo\AppData\Local\Temp\2006010                          PAGE   28

    1470 0000005f 1AC4          OR        *+XAR4[0],#0x0020     ; [CPU_] |301| 
         00000060 0020 
    1471              $C$DW$113       .dwtag  DW_TAG_TI_branch
    1472                      .dwattr $C$DW$113, DW_AT_low_pc(0x00)
    1473                      .dwattr $C$DW$113, DW_AT_TI_return
    1474              
    1475 00000061 0006          LRETR     ; [CPU_] 
    1476                      ; return occurs ; [] 
    1477                      .dwattr $C$DW$111, DW_AT_TI_end_file("../drivers/source/spi.c")
    1478                      .dwattr $C$DW$111, DW_AT_TI_end_line(0x130)
    1479                      .dwattr $C$DW$111, DW_AT_TI_end_column(0x01)
    1480                      .dwendentry
    1481                      .dwendtag $C$DW$111
    1482              
    1483 00000062               .sect   ".text"
    1484                      .clink
    1485                      .global _SPI_enableTxFifoEnh
    1486              
    1487              $C$DW$114       .dwtag  DW_TAG_subprogram
    1488                      .dwattr $C$DW$114, DW_AT_name("SPI_enableTxFifoEnh")
    1489                      .dwattr $C$DW$114, DW_AT_low_pc(_SPI_enableTxFifoEnh)
    1490                      .dwattr $C$DW$114, DW_AT_high_pc(0x00)
    1491                      .dwattr $C$DW$114, DW_AT_TI_symbol_name("_SPI_enableTxFifoEnh")
    1492                      .dwattr $C$DW$114, DW_AT_external
    1493                      .dwattr $C$DW$114, DW_AT_TI_begin_file("../drivers/source/spi.c")
    1494                      .dwattr $C$DW$114, DW_AT_TI_begin_line(0x11b)
    1495                      .dwattr $C$DW$114, DW_AT_TI_begin_column(0x06)
    1496                      .dwattr $C$DW$114, DW_AT_TI_max_frame_size(-2)
    1497                      .dwpsn  file "../drivers/source/spi.c",line 284,column 1,is_stmt,address _SPI_enableTxFifoEnh,isa 0
    1498              
    1499                      .dwfde $C$DW$CIE, _SPI_enableTxFifoEnh
    1500              $C$DW$115       .dwtag  DW_TAG_formal_parameter
    1501                      .dwattr $C$DW$115, DW_AT_name("spiHandle")
    1502                      .dwattr $C$DW$115, DW_AT_TI_symbol_name("_spiHandle")
    1503                      .dwattr $C$DW$115, DW_AT_type(*$C$DW$T$26)
    1504                      .dwattr $C$DW$115, DW_AT_location[DW_OP_reg12]
    1505              
    1506              
    1507              ;***************************************************************
    1508              ;* FNAME: _SPI_enableTxFifoEnh          FR SIZE:   0           *
    1509              ;*                                                             *
    1510              ;* FUNCTION ENVIRONMENT                                        *
    1511              ;*                                                             *
    1512              ;* FUNCTION PROPERTIES                                         *
    1513              ;*                            0 Parameter,  0 Auto,  0 SOE     *
    1514              ;***************************************************************
    1515              
    1516 00000062       _SPI_enableTxFifoEnh:
    1517                      .dwcfi  cfa_offset, -2
    1518                      .dwcfi  save_reg_to_mem, 26, 0
    1519                      .dwpsn  file "../drivers/source/spi.c",line 289,column 3,is_stmt,isa 0
    1520 00000062 DC0A          ADDB      XAR4,#10              ; [CPU_] |289| 
    1521 00000063 1AC4          OR        *+XAR4[0],#0x4000     ; [CPU_] |289| 
         00000064 4000 
    1522              $C$DW$116       .dwtag  DW_TAG_TI_branch
TMS320C2000 Assembler PC v15.12.3 Tue Sep 20 20:30:11 2016

Tools Copyright (c) 1996-2015 Texas Instruments Incorporated
C:\Users\MaCHaDo\AppData\Local\Temp\2006010                          PAGE   29

    1523                      .dwattr $C$DW$116, DW_AT_low_pc(0x00)
    1524                      .dwattr $C$DW$116, DW_AT_TI_return
    1525              
    1526 00000065 0006          LRETR     ; [CPU_] 
    1527                      ; return occurs ; [] 
    1528                      .dwattr $C$DW$114, DW_AT_TI_end_file("../drivers/source/spi.c")
    1529                      .dwattr $C$DW$114, DW_AT_TI_end_line(0x124)
    1530                      .dwattr $C$DW$114, DW_AT_TI_end_column(0x01)
    1531                      .dwendentry
    1532                      .dwendtag $C$DW$114
    1533              
    1534 00000066               .sect   ".text"
    1535                      .clink
    1536                      .global _SPI_enableTxFifo
    1537              
    1538              $C$DW$117       .dwtag  DW_TAG_subprogram
    1539                      .dwattr $C$DW$117, DW_AT_name("SPI_enableTxFifo")
    1540                      .dwattr $C$DW$117, DW_AT_low_pc(_SPI_enableTxFifo)
    1541                      .dwattr $C$DW$117, DW_AT_high_pc(0x00)
    1542                      .dwattr $C$DW$117, DW_AT_TI_symbol_name("_SPI_enableTxFifo")
    1543                      .dwattr $C$DW$117, DW_AT_external
    1544                      .dwattr $C$DW$117, DW_AT_TI_begin_file("../drivers/source/spi.c")
    1545                      .dwattr $C$DW$117, DW_AT_TI_begin_line(0x10f)
    1546                      .dwattr $C$DW$117, DW_AT_TI_begin_column(0x06)
    1547                      .dwattr $C$DW$117, DW_AT_TI_max_frame_size(-2)
    1548                      .dwpsn  file "../drivers/source/spi.c",line 272,column 1,is_stmt,address _SPI_enableTxFifo,isa 0
    1549              
    1550                      .dwfde $C$DW$CIE, _SPI_enableTxFifo
    1551              $C$DW$118       .dwtag  DW_TAG_formal_parameter
    1552                      .dwattr $C$DW$118, DW_AT_name("spiHandle")
    1553                      .dwattr $C$DW$118, DW_AT_TI_symbol_name("_spiHandle")
    1554                      .dwattr $C$DW$118, DW_AT_type(*$C$DW$T$26)
    1555                      .dwattr $C$DW$118, DW_AT_location[DW_OP_reg12]
    1556              
    1557              
    1558              ;***************************************************************
    1559              ;* FNAME: _SPI_enableTxFifo             FR SIZE:   0           *
    1560              ;*                                                             *
    1561              ;* FUNCTION ENVIRONMENT                                        *
    1562              ;*                                                             *
    1563              ;* FUNCTION PROPERTIES                                         *
    1564              ;*                            0 Parameter,  0 Auto,  0 SOE     *
    1565              ;***************************************************************
    1566              
    1567 00000066       _SPI_enableTxFifo:
    1568                      .dwcfi  cfa_offset, -2
    1569                      .dwcfi  save_reg_to_mem, 26, 0
    1570                      .dwpsn  file "../drivers/source/spi.c",line 277,column 3,is_stmt,isa 0
    1571 00000066 DC0A          ADDB      XAR4,#10              ; [CPU_] |277| 
    1572 00000067 1AC4          OR        *+XAR4[0],#0x2000     ; [CPU_] |277| 
         00000068 2000 
    1573              $C$DW$119       .dwtag  DW_TAG_TI_branch
    1574                      .dwattr $C$DW$119, DW_AT_low_pc(0x00)
    1575                      .dwattr $C$DW$119, DW_AT_TI_return
    1576              
TMS320C2000 Assembler PC v15.12.3 Tue Sep 20 20:30:11 2016

Tools Copyright (c) 1996-2015 Texas Instruments Incorporated
C:\Users\MaCHaDo\AppData\Local\Temp\2006010                          PAGE   30

    1577 00000069 0006          LRETR     ; [CPU_] 
    1578                      ; return occurs ; [] 
    1579                      .dwattr $C$DW$117, DW_AT_TI_end_file("../drivers/source/spi.c")
    1580                      .dwattr $C$DW$117, DW_AT_TI_end_line(0x118)
    1581                      .dwattr $C$DW$117, DW_AT_TI_end_column(0x01)
    1582                      .dwendentry
    1583                      .dwendtag $C$DW$117
    1584              
    1585 0000006a               .sect   ".text"
    1586                      .clink
    1587                      .global _SPI_enableTx
    1588              
    1589              $C$DW$120       .dwtag  DW_TAG_subprogram
    1590                      .dwattr $C$DW$120, DW_AT_name("SPI_enableTx")
    1591                      .dwattr $C$DW$120, DW_AT_low_pc(_SPI_enableTx)
    1592                      .dwattr $C$DW$120, DW_AT_high_pc(0x00)
    1593                      .dwattr $C$DW$120, DW_AT_TI_symbol_name("_SPI_enableTx")
    1594                      .dwattr $C$DW$120, DW_AT_external
    1595                      .dwattr $C$DW$120, DW_AT_TI_begin_file("../drivers/source/spi.c")
    1596                      .dwattr $C$DW$120, DW_AT_TI_begin_line(0x103)
    1597                      .dwattr $C$DW$120, DW_AT_TI_begin_column(0x06)
    1598                      .dwattr $C$DW$120, DW_AT_TI_max_frame_size(-2)
    1599                      .dwpsn  file "../drivers/source/spi.c",line 260,column 1,is_stmt,address _SPI_enableTx,isa 0
    1600              
    1601                      .dwfde $C$DW$CIE, _SPI_enableTx
    1602              $C$DW$121       .dwtag  DW_TAG_formal_parameter
    1603                      .dwattr $C$DW$121, DW_AT_name("spiHandle")
    1604                      .dwattr $C$DW$121, DW_AT_TI_symbol_name("_spiHandle")
    1605                      .dwattr $C$DW$121, DW_AT_type(*$C$DW$T$26)
    1606                      .dwattr $C$DW$121, DW_AT_location[DW_OP_reg12]
    1607              
    1608              
    1609              ;***************************************************************
    1610              ;* FNAME: _SPI_enableTx                 FR SIZE:   0           *
    1611              ;*                                                             *
    1612              ;* FUNCTION ENVIRONMENT                                        *
    1613              ;*                                                             *
    1614              ;* FUNCTION PROPERTIES                                         *
    1615              ;*                            0 Parameter,  0 Auto,  0 SOE     *
    1616              ;***************************************************************
    1617              
    1618              _SPI_enableTx:
    1619              ;* AR4   assigned to _spiHandle
    1620              $C$DW$122       .dwtag  DW_TAG_variable
    1621                      .dwattr $C$DW$122, DW_AT_name("spiHandle")
    1622                      .dwattr $C$DW$122, DW_AT_TI_symbol_name("_spiHandle")
    1623                      .dwattr $C$DW$122, DW_AT_type(*$C$DW$T$68)
    1624                      .dwattr $C$DW$122, DW_AT_location[DW_OP_reg12]
    1625              
    1626                      .dwcfi  cfa_offset, -2
    1627                      .dwcfi  save_reg_to_mem, 26, 0
    1628                      .dwpsn  file "../drivers/source/spi.c",line 265,column 3,is_stmt,isa 0
    1629 0000006a 1ACC          OR        *+XAR4[1],#0x0002     ; [CPU_] |265| 
         0000006b 0002 
    1630              $C$DW$123       .dwtag  DW_TAG_TI_branch
TMS320C2000 Assembler PC v15.12.3 Tue Sep 20 20:30:11 2016

Tools Copyright (c) 1996-2015 Texas Instruments Incorporated
C:\Users\MaCHaDo\AppData\Local\Temp\2006010                          PAGE   31

    1631                      .dwattr $C$DW$123, DW_AT_low_pc(0x00)
    1632                      .dwattr $C$DW$123, DW_AT_TI_return
    1633              
    1634 0000006c 0006          LRETR     ; [CPU_] 
    1635                      ; return occurs ; [] 
    1636                      .dwattr $C$DW$120, DW_AT_TI_end_file("../drivers/source/spi.c")
    1637                      .dwattr $C$DW$120, DW_AT_TI_end_line(0x10c)
    1638                      .dwattr $C$DW$120, DW_AT_TI_end_column(0x01)
    1639                      .dwendentry
    1640                      .dwendtag $C$DW$120
    1641              
    1642 0000006d               .sect   ".text"
    1643                      .clink
    1644                      .global _SPI_enableRxFifoInt
    1645              
    1646              $C$DW$124       .dwtag  DW_TAG_subprogram
    1647                      .dwattr $C$DW$124, DW_AT_name("SPI_enableRxFifoInt")
    1648                      .dwattr $C$DW$124, DW_AT_low_pc(_SPI_enableRxFifoInt)
    1649                      .dwattr $C$DW$124, DW_AT_high_pc(0x00)
    1650                      .dwattr $C$DW$124, DW_AT_TI_symbol_name("_SPI_enableRxFifoInt")
    1651                      .dwattr $C$DW$124, DW_AT_external
    1652                      .dwattr $C$DW$124, DW_AT_TI_begin_file("../drivers/source/spi.c")
    1653                      .dwattr $C$DW$124, DW_AT_TI_begin_line(0xf7)
    1654                      .dwattr $C$DW$124, DW_AT_TI_begin_column(0x06)
    1655                      .dwattr $C$DW$124, DW_AT_TI_max_frame_size(-2)
    1656                      .dwpsn  file "../drivers/source/spi.c",line 248,column 1,is_stmt,address _SPI_enableRxFifoInt,isa 0
    1657              
    1658                      .dwfde $C$DW$CIE, _SPI_enableRxFifoInt
    1659              $C$DW$125       .dwtag  DW_TAG_formal_parameter
    1660                      .dwattr $C$DW$125, DW_AT_name("spiHandle")
    1661                      .dwattr $C$DW$125, DW_AT_TI_symbol_name("_spiHandle")
    1662                      .dwattr $C$DW$125, DW_AT_type(*$C$DW$T$26)
    1663                      .dwattr $C$DW$125, DW_AT_location[DW_OP_reg12]
    1664              
    1665              
    1666              ;***************************************************************
    1667              ;* FNAME: _SPI_enableRxFifoInt          FR SIZE:   0           *
    1668              ;*                                                             *
    1669              ;* FUNCTION ENVIRONMENT                                        *
    1670              ;*                                                             *
    1671              ;* FUNCTION PROPERTIES                                         *
    1672              ;*                            0 Parameter,  0 Auto,  0 SOE     *
    1673              ;***************************************************************
    1674              
    1675 0000006d       _SPI_enableRxFifoInt:
    1676                      .dwcfi  cfa_offset, -2
    1677                      .dwcfi  save_reg_to_mem, 26, 0
    1678                      .dwpsn  file "../drivers/source/spi.c",line 253,column 3,is_stmt,isa 0
    1679 0000006d DC0B          ADDB      XAR4,#11              ; [CPU_] |253| 
    1680 0000006e 1AC4          OR        *+XAR4[0],#0x0020     ; [CPU_] |253| 
         0000006f 0020 
    1681              $C$DW$126       .dwtag  DW_TAG_TI_branch
    1682                      .dwattr $C$DW$126, DW_AT_low_pc(0x00)
    1683                      .dwattr $C$DW$126, DW_AT_TI_return
    1684              
TMS320C2000 Assembler PC v15.12.3 Tue Sep 20 20:30:11 2016

Tools Copyright (c) 1996-2015 Texas Instruments Incorporated
C:\Users\MaCHaDo\AppData\Local\Temp\2006010                          PAGE   32

    1685 00000070 0006          LRETR     ; [CPU_] 
    1686                      ; return occurs ; [] 
    1687                      .dwattr $C$DW$124, DW_AT_TI_end_file("../drivers/source/spi.c")
    1688                      .dwattr $C$DW$124, DW_AT_TI_end_line(0x100)
    1689                      .dwattr $C$DW$124, DW_AT_TI_end_column(0x01)
    1690                      .dwendentry
    1691                      .dwendtag $C$DW$124
    1692              
    1693 00000071               .sect   ".text"
    1694                      .clink
    1695                      .global _SPI_enableRxFifo
    1696              
    1697              $C$DW$127       .dwtag  DW_TAG_subprogram
    1698                      .dwattr $C$DW$127, DW_AT_name("SPI_enableRxFifo")
    1699                      .dwattr $C$DW$127, DW_AT_low_pc(_SPI_enableRxFifo)
    1700                      .dwattr $C$DW$127, DW_AT_high_pc(0x00)
    1701                      .dwattr $C$DW$127, DW_AT_TI_symbol_name("_SPI_enableRxFifo")
    1702                      .dwattr $C$DW$127, DW_AT_external
    1703                      .dwattr $C$DW$127, DW_AT_TI_begin_file("../drivers/source/spi.c")
    1704                      .dwattr $C$DW$127, DW_AT_TI_begin_line(0xeb)
    1705                      .dwattr $C$DW$127, DW_AT_TI_begin_column(0x06)
    1706                      .dwattr $C$DW$127, DW_AT_TI_max_frame_size(-2)
    1707                      .dwpsn  file "../drivers/source/spi.c",line 236,column 1,is_stmt,address _SPI_enableRxFifo,isa 0
    1708              
    1709                      .dwfde $C$DW$CIE, _SPI_enableRxFifo
    1710              $C$DW$128       .dwtag  DW_TAG_formal_parameter
    1711                      .dwattr $C$DW$128, DW_AT_name("spiHandle")
    1712                      .dwattr $C$DW$128, DW_AT_TI_symbol_name("_spiHandle")
    1713                      .dwattr $C$DW$128, DW_AT_type(*$C$DW$T$26)
    1714                      .dwattr $C$DW$128, DW_AT_location[DW_OP_reg12]
    1715              
    1716              
    1717              ;***************************************************************
    1718              ;* FNAME: _SPI_enableRxFifo             FR SIZE:   0           *
    1719              ;*                                                             *
    1720              ;* FUNCTION ENVIRONMENT                                        *
    1721              ;*                                                             *
    1722              ;* FUNCTION PROPERTIES                                         *
    1723              ;*                            0 Parameter,  0 Auto,  0 SOE     *
    1724              ;***************************************************************
    1725              
    1726 00000071       _SPI_enableRxFifo:
    1727                      .dwcfi  cfa_offset, -2
    1728                      .dwcfi  save_reg_to_mem, 26, 0
    1729                      .dwpsn  file "../drivers/source/spi.c",line 241,column 3,is_stmt,isa 0
    1730 00000071 DC0B          ADDB      XAR4,#11              ; [CPU_] |241| 
    1731 00000072 1AC4          OR        *+XAR4[0],#0x2000     ; [CPU_] |241| 
         00000073 2000 
    1732              $C$DW$129       .dwtag  DW_TAG_TI_branch
    1733                      .dwattr $C$DW$129, DW_AT_low_pc(0x00)
    1734                      .dwattr $C$DW$129, DW_AT_TI_return
    1735              
    1736 00000074 0006          LRETR     ; [CPU_] 
    1737                      ; return occurs ; [] 
    1738                      .dwattr $C$DW$127, DW_AT_TI_end_file("../drivers/source/spi.c")
TMS320C2000 Assembler PC v15.12.3 Tue Sep 20 20:30:11 2016

Tools Copyright (c) 1996-2015 Texas Instruments Incorporated
C:\Users\MaCHaDo\AppData\Local\Temp\2006010                          PAGE   33

    1739                      .dwattr $C$DW$127, DW_AT_TI_end_line(0xf4)
    1740                      .dwattr $C$DW$127, DW_AT_TI_end_column(0x01)
    1741                      .dwendentry
    1742                      .dwendtag $C$DW$127
    1743              
    1744 00000075               .sect   ".text"
    1745                      .clink
    1746                      .global _SPI_enableOverRunInt
    1747              
    1748              $C$DW$130       .dwtag  DW_TAG_subprogram
    1749                      .dwattr $C$DW$130, DW_AT_name("SPI_enableOverRunInt")
    1750                      .dwattr $C$DW$130, DW_AT_low_pc(_SPI_enableOverRunInt)
    1751                      .dwattr $C$DW$130, DW_AT_high_pc(0x00)
    1752                      .dwattr $C$DW$130, DW_AT_TI_symbol_name("_SPI_enableOverRunInt")
    1753                      .dwattr $C$DW$130, DW_AT_external
    1754                      .dwattr $C$DW$130, DW_AT_TI_begin_file("../drivers/source/spi.c")
    1755                      .dwattr $C$DW$130, DW_AT_TI_begin_line(0xdf)
    1756                      .dwattr $C$DW$130, DW_AT_TI_begin_column(0x06)
    1757                      .dwattr $C$DW$130, DW_AT_TI_max_frame_size(-2)
    1758                      .dwpsn  file "../drivers/source/spi.c",line 224,column 1,is_stmt,address _SPI_enableOverRunInt,isa 0
    1759              
    1760                      .dwfde $C$DW$CIE, _SPI_enableOverRunInt
    1761              $C$DW$131       .dwtag  DW_TAG_formal_parameter
    1762                      .dwattr $C$DW$131, DW_AT_name("spiHandle")
    1763                      .dwattr $C$DW$131, DW_AT_TI_symbol_name("_spiHandle")
    1764                      .dwattr $C$DW$131, DW_AT_type(*$C$DW$T$26)
    1765                      .dwattr $C$DW$131, DW_AT_location[DW_OP_reg12]
    1766              
    1767              
    1768              ;***************************************************************
    1769              ;* FNAME: _SPI_enableOverRunInt         FR SIZE:   0           *
    1770              ;*                                                             *
    1771              ;* FUNCTION ENVIRONMENT                                        *
    1772              ;*                                                             *
    1773              ;* FUNCTION PROPERTIES                                         *
    1774              ;*                            0 Parameter,  0 Auto,  0 SOE     *
    1775              ;***************************************************************
    1776              
    1777              _SPI_enableOverRunInt:
    1778              ;* AR4   assigned to _spiHandle
    1779              $C$DW$132       .dwtag  DW_TAG_variable
    1780                      .dwattr $C$DW$132, DW_AT_name("spiHandle")
    1781                      .dwattr $C$DW$132, DW_AT_TI_symbol_name("_spiHandle")
    1782                      .dwattr $C$DW$132, DW_AT_type(*$C$DW$T$68)
    1783                      .dwattr $C$DW$132, DW_AT_location[DW_OP_reg12]
    1784              
    1785                      .dwcfi  cfa_offset, -2
    1786                      .dwcfi  save_reg_to_mem, 26, 0
    1787                      .dwpsn  file "../drivers/source/spi.c",line 229,column 3,is_stmt,isa 0
    1788 00000075 1ACC          OR        *+XAR4[1],#0x0010     ; [CPU_] |229| 
         00000076 0010 
    1789              $C$DW$133       .dwtag  DW_TAG_TI_branch
    1790                      .dwattr $C$DW$133, DW_AT_low_pc(0x00)
    1791                      .dwattr $C$DW$133, DW_AT_TI_return
    1792              
TMS320C2000 Assembler PC v15.12.3 Tue Sep 20 20:30:11 2016

Tools Copyright (c) 1996-2015 Texas Instruments Incorporated
C:\Users\MaCHaDo\AppData\Local\Temp\2006010                          PAGE   34

    1793 00000077 0006          LRETR     ; [CPU_] 
    1794                      ; return occurs ; [] 
    1795                      .dwattr $C$DW$130, DW_AT_TI_end_file("../drivers/source/spi.c")
    1796                      .dwattr $C$DW$130, DW_AT_TI_end_line(0xe8)
    1797                      .dwattr $C$DW$130, DW_AT_TI_end_column(0x01)
    1798                      .dwendentry
    1799                      .dwendtag $C$DW$130
    1800              
    1801 00000078               .sect   ".text"
    1802                      .clink
    1803                      .global _SPI_enableLoopBack
    1804              
    1805              $C$DW$134       .dwtag  DW_TAG_subprogram
    1806                      .dwattr $C$DW$134, DW_AT_name("SPI_enableLoopBack")
    1807                      .dwattr $C$DW$134, DW_AT_low_pc(_SPI_enableLoopBack)
    1808                      .dwattr $C$DW$134, DW_AT_high_pc(0x00)
    1809                      .dwattr $C$DW$134, DW_AT_TI_symbol_name("_SPI_enableLoopBack")
    1810                      .dwattr $C$DW$134, DW_AT_external
    1811                      .dwattr $C$DW$134, DW_AT_TI_begin_file("../drivers/source/spi.c")
    1812                      .dwattr $C$DW$134, DW_AT_TI_begin_line(0xd3)
    1813                      .dwattr $C$DW$134, DW_AT_TI_begin_column(0x06)
    1814                      .dwattr $C$DW$134, DW_AT_TI_max_frame_size(-2)
    1815                      .dwpsn  file "../drivers/source/spi.c",line 212,column 1,is_stmt,address _SPI_enableLoopBack,isa 0
    1816              
    1817                      .dwfde $C$DW$CIE, _SPI_enableLoopBack
    1818              $C$DW$135       .dwtag  DW_TAG_formal_parameter
    1819                      .dwattr $C$DW$135, DW_AT_name("spiHandle")
    1820                      .dwattr $C$DW$135, DW_AT_TI_symbol_name("_spiHandle")
    1821                      .dwattr $C$DW$135, DW_AT_type(*$C$DW$T$26)
    1822                      .dwattr $C$DW$135, DW_AT_location[DW_OP_reg12]
    1823              
    1824              
    1825              ;***************************************************************
    1826              ;* FNAME: _SPI_enableLoopBack           FR SIZE:   0           *
    1827              ;*                                                             *
    1828              ;* FUNCTION ENVIRONMENT                                        *
    1829              ;*                                                             *
    1830              ;* FUNCTION PROPERTIES                                         *
    1831              ;*                            0 Parameter,  0 Auto,  0 SOE     *
    1832              ;***************************************************************
    1833              
    1834              _SPI_enableLoopBack:
    1835              ;* AR4   assigned to _spiHandle
    1836              $C$DW$136       .dwtag  DW_TAG_variable
    1837                      .dwattr $C$DW$136, DW_AT_name("spiHandle")
    1838                      .dwattr $C$DW$136, DW_AT_TI_symbol_name("_spiHandle")
    1839                      .dwattr $C$DW$136, DW_AT_type(*$C$DW$T$68)
    1840                      .dwattr $C$DW$136, DW_AT_location[DW_OP_reg12]
    1841              
    1842                      .dwcfi  cfa_offset, -2
    1843                      .dwcfi  save_reg_to_mem, 26, 0
    1844                      .dwpsn  file "../drivers/source/spi.c",line 217,column 3,is_stmt,isa 0
    1845 00000078 1AC4          OR        *+XAR4[0],#0x0010     ; [CPU_] |217| 
         00000079 0010 
    1846              $C$DW$137       .dwtag  DW_TAG_TI_branch
TMS320C2000 Assembler PC v15.12.3 Tue Sep 20 20:30:11 2016

Tools Copyright (c) 1996-2015 Texas Instruments Incorporated
C:\Users\MaCHaDo\AppData\Local\Temp\2006010                          PAGE   35

    1847                      .dwattr $C$DW$137, DW_AT_low_pc(0x00)
    1848                      .dwattr $C$DW$137, DW_AT_TI_return
    1849              
    1850 0000007a 0006          LRETR     ; [CPU_] 
    1851                      ; return occurs ; [] 
    1852                      .dwattr $C$DW$134, DW_AT_TI_end_file("../drivers/source/spi.c")
    1853                      .dwattr $C$DW$134, DW_AT_TI_end_line(0xdc)
    1854                      .dwattr $C$DW$134, DW_AT_TI_end_column(0x01)
    1855                      .dwendentry
    1856                      .dwendtag $C$DW$134
    1857              
    1858 0000007b               .sect   ".text"
    1859                      .clink
    1860                      .global _SPI_enableInt
    1861              
    1862              $C$DW$138       .dwtag  DW_TAG_subprogram
    1863                      .dwattr $C$DW$138, DW_AT_name("SPI_enableInt")
    1864                      .dwattr $C$DW$138, DW_AT_low_pc(_SPI_enableInt)
    1865                      .dwattr $C$DW$138, DW_AT_high_pc(0x00)
    1866                      .dwattr $C$DW$138, DW_AT_TI_symbol_name("_SPI_enableInt")
    1867                      .dwattr $C$DW$138, DW_AT_external
    1868                      .dwattr $C$DW$138, DW_AT_TI_begin_file("../drivers/source/spi.c")
    1869                      .dwattr $C$DW$138, DW_AT_TI_begin_line(0xc7)
    1870                      .dwattr $C$DW$138, DW_AT_TI_begin_column(0x06)
    1871                      .dwattr $C$DW$138, DW_AT_TI_max_frame_size(-2)
    1872                      .dwpsn  file "../drivers/source/spi.c",line 200,column 1,is_stmt,address _SPI_enableInt,isa 0
    1873              
    1874                      .dwfde $C$DW$CIE, _SPI_enableInt
    1875              $C$DW$139       .dwtag  DW_TAG_formal_parameter
    1876                      .dwattr $C$DW$139, DW_AT_name("spiHandle")
    1877                      .dwattr $C$DW$139, DW_AT_TI_symbol_name("_spiHandle")
    1878                      .dwattr $C$DW$139, DW_AT_type(*$C$DW$T$26)
    1879                      .dwattr $C$DW$139, DW_AT_location[DW_OP_reg12]
    1880              
    1881              
    1882              ;***************************************************************
    1883              ;* FNAME: _SPI_enableInt                FR SIZE:   0           *
    1884              ;*                                                             *
    1885              ;* FUNCTION ENVIRONMENT                                        *
    1886              ;*                                                             *
    1887              ;* FUNCTION PROPERTIES                                         *
    1888              ;*                            0 Parameter,  0 Auto,  0 SOE     *
    1889              ;***************************************************************
    1890              
    1891              _SPI_enableInt:
    1892              ;* AR4   assigned to _spiHandle
    1893              $C$DW$140       .dwtag  DW_TAG_variable
    1894                      .dwattr $C$DW$140, DW_AT_name("spiHandle")
    1895                      .dwattr $C$DW$140, DW_AT_TI_symbol_name("_spiHandle")
    1896                      .dwattr $C$DW$140, DW_AT_type(*$C$DW$T$68)
    1897                      .dwattr $C$DW$140, DW_AT_location[DW_OP_reg12]
    1898              
    1899                      .dwcfi  cfa_offset, -2
    1900                      .dwcfi  save_reg_to_mem, 26, 0
    1901                      .dwpsn  file "../drivers/source/spi.c",line 205,column 3,is_stmt,isa 0
TMS320C2000 Assembler PC v15.12.3 Tue Sep 20 20:30:11 2016

Tools Copyright (c) 1996-2015 Texas Instruments Incorporated
C:\Users\MaCHaDo\AppData\Local\Temp\2006010                          PAGE   36

    1902 0000007b 1ACC          OR        *+XAR4[1],#0x0001     ; [CPU_] |205| 
         0000007c 0001 
    1903              $C$DW$141       .dwtag  DW_TAG_TI_branch
    1904                      .dwattr $C$DW$141, DW_AT_low_pc(0x00)
    1905                      .dwattr $C$DW$141, DW_AT_TI_return
    1906              
    1907 0000007d 0006          LRETR     ; [CPU_] 
    1908                      ; return occurs ; [] 
    1909                      .dwattr $C$DW$138, DW_AT_TI_end_file("../drivers/source/spi.c")
    1910                      .dwattr $C$DW$138, DW_AT_TI_end_line(0xd0)
    1911                      .dwattr $C$DW$138, DW_AT_TI_end_column(0x01)
    1912                      .dwendentry
    1913                      .dwendtag $C$DW$138
    1914              
    1915 0000007e               .sect   ".text"
    1916                      .clink
    1917                      .global _SPI_enableChannels
    1918              
    1919              $C$DW$142       .dwtag  DW_TAG_subprogram
    1920                      .dwattr $C$DW$142, DW_AT_name("SPI_enableChannels")
    1921                      .dwattr $C$DW$142, DW_AT_low_pc(_SPI_enableChannels)
    1922                      .dwattr $C$DW$142, DW_AT_high_pc(0x00)
    1923                      .dwattr $C$DW$142, DW_AT_TI_symbol_name("_SPI_enableChannels")
    1924                      .dwattr $C$DW$142, DW_AT_external
    1925                      .dwattr $C$DW$142, DW_AT_TI_begin_file("../drivers/source/spi.c")
    1926                      .dwattr $C$DW$142, DW_AT_TI_begin_line(0xbb)
    1927                      .dwattr $C$DW$142, DW_AT_TI_begin_column(0x06)
    1928                      .dwattr $C$DW$142, DW_AT_TI_max_frame_size(-2)
    1929                      .dwpsn  file "../drivers/source/spi.c",line 188,column 1,is_stmt,address _SPI_enableChannels,isa 0
    1930              
    1931                      .dwfde $C$DW$CIE, _SPI_enableChannels
    1932              $C$DW$143       .dwtag  DW_TAG_formal_parameter
    1933                      .dwattr $C$DW$143, DW_AT_name("spiHandle")
    1934                      .dwattr $C$DW$143, DW_AT_TI_symbol_name("_spiHandle")
    1935                      .dwattr $C$DW$143, DW_AT_type(*$C$DW$T$26)
    1936                      .dwattr $C$DW$143, DW_AT_location[DW_OP_reg12]
    1937              
    1938              
    1939              ;***************************************************************
    1940              ;* FNAME: _SPI_enableChannels           FR SIZE:   0           *
    1941              ;*                                                             *
    1942              ;* FUNCTION ENVIRONMENT                                        *
    1943              ;*                                                             *
    1944              ;* FUNCTION PROPERTIES                                         *
    1945              ;*                            0 Parameter,  0 Auto,  0 SOE     *
    1946              ;***************************************************************
    1947              
    1948 0000007e       _SPI_enableChannels:
    1949                      .dwcfi  cfa_offset, -2
    1950                      .dwcfi  save_reg_to_mem, 26, 0
    1951                      .dwpsn  file "../drivers/source/spi.c",line 193,column 3,is_stmt,isa 0
    1952 0000007e DC0A          ADDB      XAR4,#10              ; [CPU_] |193| 
    1953 0000007f 1AC4          OR        *+XAR4[0],#0x8000     ; [CPU_] |193| 
         00000080 8000 
    1954              $C$DW$144       .dwtag  DW_TAG_TI_branch
TMS320C2000 Assembler PC v15.12.3 Tue Sep 20 20:30:11 2016

Tools Copyright (c) 1996-2015 Texas Instruments Incorporated
C:\Users\MaCHaDo\AppData\Local\Temp\2006010                          PAGE   37

    1955                      .dwattr $C$DW$144, DW_AT_low_pc(0x00)
    1956                      .dwattr $C$DW$144, DW_AT_TI_return
    1957              
    1958 00000081 0006          LRETR     ; [CPU_] 
    1959                      ; return occurs ; [] 
    1960                      .dwattr $C$DW$142, DW_AT_TI_end_file("../drivers/source/spi.c")
    1961                      .dwattr $C$DW$142, DW_AT_TI_end_line(0xc4)
    1962                      .dwattr $C$DW$142, DW_AT_TI_end_column(0x01)
    1963                      .dwendentry
    1964                      .dwendtag $C$DW$142
    1965              
    1966 00000082               .sect   ".text"
    1967                      .clink
    1968                      .global _SPI_enable
    1969              
    1970              $C$DW$145       .dwtag  DW_TAG_subprogram
    1971                      .dwattr $C$DW$145, DW_AT_name("SPI_enable")
    1972                      .dwattr $C$DW$145, DW_AT_low_pc(_SPI_enable)
    1973                      .dwattr $C$DW$145, DW_AT_high_pc(0x00)
    1974                      .dwattr $C$DW$145, DW_AT_TI_symbol_name("_SPI_enable")
    1975                      .dwattr $C$DW$145, DW_AT_external
    1976                      .dwattr $C$DW$145, DW_AT_TI_begin_file("../drivers/source/spi.c")
    1977                      .dwattr $C$DW$145, DW_AT_TI_begin_line(0xaf)
    1978                      .dwattr $C$DW$145, DW_AT_TI_begin_column(0x06)
    1979                      .dwattr $C$DW$145, DW_AT_TI_max_frame_size(-2)
    1980                      .dwpsn  file "../drivers/source/spi.c",line 176,column 1,is_stmt,address _SPI_enable,isa 0
    1981              
    1982                      .dwfde $C$DW$CIE, _SPI_enable
    1983              $C$DW$146       .dwtag  DW_TAG_formal_parameter
    1984                      .dwattr $C$DW$146, DW_AT_name("spiHandle")
    1985                      .dwattr $C$DW$146, DW_AT_TI_symbol_name("_spiHandle")
    1986                      .dwattr $C$DW$146, DW_AT_type(*$C$DW$T$26)
    1987                      .dwattr $C$DW$146, DW_AT_location[DW_OP_reg12]
    1988              
    1989              
    1990              ;***************************************************************
    1991              ;* FNAME: _SPI_enable                   FR SIZE:   0           *
    1992              ;*                                                             *
    1993              ;* FUNCTION ENVIRONMENT                                        *
    1994              ;*                                                             *
    1995              ;* FUNCTION PROPERTIES                                         *
    1996              ;*                            0 Parameter,  0 Auto,  0 SOE     *
    1997              ;***************************************************************
    1998              
    1999              _SPI_enable:
    2000              ;* AR4   assigned to _spiHandle
    2001              $C$DW$147       .dwtag  DW_TAG_variable
    2002                      .dwattr $C$DW$147, DW_AT_name("spiHandle")
    2003                      .dwattr $C$DW$147, DW_AT_TI_symbol_name("_spiHandle")
    2004                      .dwattr $C$DW$147, DW_AT_type(*$C$DW$T$68)
    2005                      .dwattr $C$DW$147, DW_AT_location[DW_OP_reg12]
    2006              
    2007                      .dwcfi  cfa_offset, -2
    2008                      .dwcfi  save_reg_to_mem, 26, 0
    2009                      .dwpsn  file "../drivers/source/spi.c",line 181,column 3,is_stmt,isa 0
TMS320C2000 Assembler PC v15.12.3 Tue Sep 20 20:30:11 2016

Tools Copyright (c) 1996-2015 Texas Instruments Incorporated
C:\Users\MaCHaDo\AppData\Local\Temp\2006010                          PAGE   38

    2010 00000082 1AC4          OR        *+XAR4[0],#0x0080     ; [CPU_] |181| 
         00000083 0080 
    2011              $C$DW$148       .dwtag  DW_TAG_TI_branch
    2012                      .dwattr $C$DW$148, DW_AT_low_pc(0x00)
    2013                      .dwattr $C$DW$148, DW_AT_TI_return
    2014              
    2015 00000084 0006          LRETR     ; [CPU_] 
    2016                      ; return occurs ; [] 
    2017                      .dwattr $C$DW$145, DW_AT_TI_end_file("../drivers/source/spi.c")
    2018                      .dwattr $C$DW$145, DW_AT_TI_end_line(0xb8)
    2019                      .dwattr $C$DW$145, DW_AT_TI_end_column(0x01)
    2020                      .dwendentry
    2021                      .dwendtag $C$DW$145
    2022              
    2023 00000085               .sect   ".text"
    2024                      .clink
    2025                      .global _SPI_disableTxFifoInt
    2026              
    2027              $C$DW$149       .dwtag  DW_TAG_subprogram
    2028                      .dwattr $C$DW$149, DW_AT_name("SPI_disableTxFifoInt")
    2029                      .dwattr $C$DW$149, DW_AT_low_pc(_SPI_disableTxFifoInt)
    2030                      .dwattr $C$DW$149, DW_AT_high_pc(0x00)
    2031                      .dwattr $C$DW$149, DW_AT_TI_symbol_name("_SPI_disableTxFifoInt")
    2032                      .dwattr $C$DW$149, DW_AT_external
    2033                      .dwattr $C$DW$149, DW_AT_TI_begin_file("../drivers/source/spi.c")
    2034                      .dwattr $C$DW$149, DW_AT_TI_begin_line(0xa3)
    2035                      .dwattr $C$DW$149, DW_AT_TI_begin_column(0x06)
    2036                      .dwattr $C$DW$149, DW_AT_TI_max_frame_size(-2)
    2037                      .dwpsn  file "../drivers/source/spi.c",line 164,column 1,is_stmt,address _SPI_disableTxFifoInt,isa 0
    2038              
    2039                      .dwfde $C$DW$CIE, _SPI_disableTxFifoInt
    2040              $C$DW$150       .dwtag  DW_TAG_formal_parameter
    2041                      .dwattr $C$DW$150, DW_AT_name("spiHandle")
    2042                      .dwattr $C$DW$150, DW_AT_TI_symbol_name("_spiHandle")
    2043                      .dwattr $C$DW$150, DW_AT_type(*$C$DW$T$26)
    2044                      .dwattr $C$DW$150, DW_AT_location[DW_OP_reg12]
    2045              
    2046              
    2047              ;***************************************************************
    2048              ;* FNAME: _SPI_disableTxFifoInt         FR SIZE:   0           *
    2049              ;*                                                             *
    2050              ;* FUNCTION ENVIRONMENT                                        *
    2051              ;*                                                             *
    2052              ;* FUNCTION PROPERTIES                                         *
    2053              ;*                            0 Parameter,  0 Auto,  0 SOE     *
    2054              ;***************************************************************
    2055              
    2056 00000085       _SPI_disableTxFifoInt:
    2057                      .dwcfi  cfa_offset, -2
    2058                      .dwcfi  save_reg_to_mem, 26, 0
    2059                      .dwpsn  file "../drivers/source/spi.c",line 169,column 3,is_stmt,isa 0
    2060 00000085 DC0A          ADDB      XAR4,#10              ; [CPU_] |169| 
    2061 00000086 18C4          AND       *+XAR4[0],#0xffdf     ; [CPU_] |169| 
         00000087 FFDF 
    2062              $C$DW$151       .dwtag  DW_TAG_TI_branch
TMS320C2000 Assembler PC v15.12.3 Tue Sep 20 20:30:11 2016

Tools Copyright (c) 1996-2015 Texas Instruments Incorporated
C:\Users\MaCHaDo\AppData\Local\Temp\2006010                          PAGE   39

    2063                      .dwattr $C$DW$151, DW_AT_low_pc(0x00)
    2064                      .dwattr $C$DW$151, DW_AT_TI_return
    2065              
    2066 00000088 0006          LRETR     ; [CPU_] 
    2067                      ; return occurs ; [] 
    2068                      .dwattr $C$DW$149, DW_AT_TI_end_file("../drivers/source/spi.c")
    2069                      .dwattr $C$DW$149, DW_AT_TI_end_line(0xac)
    2070                      .dwattr $C$DW$149, DW_AT_TI_end_column(0x01)
    2071                      .dwendentry
    2072                      .dwendtag $C$DW$149
    2073              
    2074 00000089               .sect   ".text"
    2075                      .clink
    2076                      .global _SPI_disableTxFifoEnh
    2077              
    2078              $C$DW$152       .dwtag  DW_TAG_subprogram
    2079                      .dwattr $C$DW$152, DW_AT_name("SPI_disableTxFifoEnh")
    2080                      .dwattr $C$DW$152, DW_AT_low_pc(_SPI_disableTxFifoEnh)
    2081                      .dwattr $C$DW$152, DW_AT_high_pc(0x00)
    2082                      .dwattr $C$DW$152, DW_AT_TI_symbol_name("_SPI_disableTxFifoEnh")
    2083                      .dwattr $C$DW$152, DW_AT_external
    2084                      .dwattr $C$DW$152, DW_AT_TI_begin_file("../drivers/source/spi.c")
    2085                      .dwattr $C$DW$152, DW_AT_TI_begin_line(0x97)
    2086                      .dwattr $C$DW$152, DW_AT_TI_begin_column(0x06)
    2087                      .dwattr $C$DW$152, DW_AT_TI_max_frame_size(-2)
    2088                      .dwpsn  file "../drivers/source/spi.c",line 152,column 1,is_stmt,address _SPI_disableTxFifoEnh,isa 0
    2089              
    2090                      .dwfde $C$DW$CIE, _SPI_disableTxFifoEnh
    2091              $C$DW$153       .dwtag  DW_TAG_formal_parameter
    2092                      .dwattr $C$DW$153, DW_AT_name("spiHandle")
    2093                      .dwattr $C$DW$153, DW_AT_TI_symbol_name("_spiHandle")
    2094                      .dwattr $C$DW$153, DW_AT_type(*$C$DW$T$26)
    2095                      .dwattr $C$DW$153, DW_AT_location[DW_OP_reg12]
    2096              
    2097              
    2098              ;***************************************************************
    2099              ;* FNAME: _SPI_disableTxFifoEnh         FR SIZE:   0           *
    2100              ;*                                                             *
    2101              ;* FUNCTION ENVIRONMENT                                        *
    2102              ;*                                                             *
    2103              ;* FUNCTION PROPERTIES                                         *
    2104              ;*                            0 Parameter,  0 Auto,  0 SOE     *
    2105              ;***************************************************************
    2106              
    2107 00000089       _SPI_disableTxFifoEnh:
    2108                      .dwcfi  cfa_offset, -2
    2109                      .dwcfi  save_reg_to_mem, 26, 0
    2110                      .dwpsn  file "../drivers/source/spi.c",line 157,column 3,is_stmt,isa 0
    2111 00000089 DC0A          ADDB      XAR4,#10              ; [CPU_] |157| 
    2112 0000008a 18C4          AND       *+XAR4[0],#0xbfff     ; [CPU_] |157| 
         0000008b BFFF 
    2113              $C$DW$154       .dwtag  DW_TAG_TI_branch
    2114                      .dwattr $C$DW$154, DW_AT_low_pc(0x00)
    2115                      .dwattr $C$DW$154, DW_AT_TI_return
    2116              
TMS320C2000 Assembler PC v15.12.3 Tue Sep 20 20:30:11 2016

Tools Copyright (c) 1996-2015 Texas Instruments Incorporated
C:\Users\MaCHaDo\AppData\Local\Temp\2006010                          PAGE   40

    2117 0000008c 0006          LRETR     ; [CPU_] 
    2118                      ; return occurs ; [] 
    2119                      .dwattr $C$DW$152, DW_AT_TI_end_file("../drivers/source/spi.c")
    2120                      .dwattr $C$DW$152, DW_AT_TI_end_line(0xa0)
    2121                      .dwattr $C$DW$152, DW_AT_TI_end_column(0x01)
    2122                      .dwendentry
    2123                      .dwendtag $C$DW$152
    2124              
    2125 0000008d               .sect   ".text"
    2126                      .clink
    2127                      .global _SPI_disableTx
    2128              
    2129              $C$DW$155       .dwtag  DW_TAG_subprogram
    2130                      .dwattr $C$DW$155, DW_AT_name("SPI_disableTx")
    2131                      .dwattr $C$DW$155, DW_AT_low_pc(_SPI_disableTx)
    2132                      .dwattr $C$DW$155, DW_AT_high_pc(0x00)
    2133                      .dwattr $C$DW$155, DW_AT_TI_symbol_name("_SPI_disableTx")
    2134                      .dwattr $C$DW$155, DW_AT_external
    2135                      .dwattr $C$DW$155, DW_AT_TI_begin_file("../drivers/source/spi.c")
    2136                      .dwattr $C$DW$155, DW_AT_TI_begin_line(0x8b)
    2137                      .dwattr $C$DW$155, DW_AT_TI_begin_column(0x06)
    2138                      .dwattr $C$DW$155, DW_AT_TI_max_frame_size(-2)
    2139                      .dwpsn  file "../drivers/source/spi.c",line 140,column 1,is_stmt,address _SPI_disableTx,isa 0
    2140              
    2141                      .dwfde $C$DW$CIE, _SPI_disableTx
    2142              $C$DW$156       .dwtag  DW_TAG_formal_parameter
    2143                      .dwattr $C$DW$156, DW_AT_name("spiHandle")
    2144                      .dwattr $C$DW$156, DW_AT_TI_symbol_name("_spiHandle")
    2145                      .dwattr $C$DW$156, DW_AT_type(*$C$DW$T$26)
    2146                      .dwattr $C$DW$156, DW_AT_location[DW_OP_reg12]
    2147              
    2148              
    2149              ;***************************************************************
    2150              ;* FNAME: _SPI_disableTx                FR SIZE:   0           *
    2151              ;*                                                             *
    2152              ;* FUNCTION ENVIRONMENT                                        *
    2153              ;*                                                             *
    2154              ;* FUNCTION PROPERTIES                                         *
    2155              ;*                            0 Parameter,  0 Auto,  0 SOE     *
    2156              ;***************************************************************
    2157              
    2158              _SPI_disableTx:
    2159              ;* AR4   assigned to _spiHandle
    2160              $C$DW$157       .dwtag  DW_TAG_variable
    2161                      .dwattr $C$DW$157, DW_AT_name("spiHandle")
    2162                      .dwattr $C$DW$157, DW_AT_TI_symbol_name("_spiHandle")
    2163                      .dwattr $C$DW$157, DW_AT_type(*$C$DW$T$68)
    2164                      .dwattr $C$DW$157, DW_AT_location[DW_OP_reg12]
    2165              
    2166                      .dwcfi  cfa_offset, -2
    2167                      .dwcfi  save_reg_to_mem, 26, 0
    2168                      .dwpsn  file "../drivers/source/spi.c",line 145,column 3,is_stmt,isa 0
    2169 0000008d 18CC          AND       *+XAR4[1],#0xfffd     ; [CPU_] |145| 
         0000008e FFFD 
    2170              $C$DW$158       .dwtag  DW_TAG_TI_branch
TMS320C2000 Assembler PC v15.12.3 Tue Sep 20 20:30:11 2016

Tools Copyright (c) 1996-2015 Texas Instruments Incorporated
C:\Users\MaCHaDo\AppData\Local\Temp\2006010                          PAGE   41

    2171                      .dwattr $C$DW$158, DW_AT_low_pc(0x00)
    2172                      .dwattr $C$DW$158, DW_AT_TI_return
    2173              
    2174 0000008f 0006          LRETR     ; [CPU_] 
    2175                      ; return occurs ; [] 
    2176                      .dwattr $C$DW$155, DW_AT_TI_end_file("../drivers/source/spi.c")
    2177                      .dwattr $C$DW$155, DW_AT_TI_end_line(0x94)
    2178                      .dwattr $C$DW$155, DW_AT_TI_end_column(0x01)
    2179                      .dwendentry
    2180                      .dwendtag $C$DW$155
    2181              
    2182 00000090               .sect   ".text"
    2183                      .clink
    2184                      .global _SPI_disableRxFifoInt
    2185              
    2186              $C$DW$159       .dwtag  DW_TAG_subprogram
    2187                      .dwattr $C$DW$159, DW_AT_name("SPI_disableRxFifoInt")
    2188                      .dwattr $C$DW$159, DW_AT_low_pc(_SPI_disableRxFifoInt)
    2189                      .dwattr $C$DW$159, DW_AT_high_pc(0x00)
    2190                      .dwattr $C$DW$159, DW_AT_TI_symbol_name("_SPI_disableRxFifoInt")
    2191                      .dwattr $C$DW$159, DW_AT_external
    2192                      .dwattr $C$DW$159, DW_AT_TI_begin_file("../drivers/source/spi.c")
    2193                      .dwattr $C$DW$159, DW_AT_TI_begin_line(0x7f)
    2194                      .dwattr $C$DW$159, DW_AT_TI_begin_column(0x06)
    2195                      .dwattr $C$DW$159, DW_AT_TI_max_frame_size(-2)
    2196                      .dwpsn  file "../drivers/source/spi.c",line 128,column 1,is_stmt,address _SPI_disableRxFifoInt,isa 0
    2197              
    2198                      .dwfde $C$DW$CIE, _SPI_disableRxFifoInt
    2199              $C$DW$160       .dwtag  DW_TAG_formal_parameter
    2200                      .dwattr $C$DW$160, DW_AT_name("spiHandle")
    2201                      .dwattr $C$DW$160, DW_AT_TI_symbol_name("_spiHandle")
    2202                      .dwattr $C$DW$160, DW_AT_type(*$C$DW$T$26)
    2203                      .dwattr $C$DW$160, DW_AT_location[DW_OP_reg12]
    2204              
    2205              
    2206              ;***************************************************************
    2207              ;* FNAME: _SPI_disableRxFifoInt         FR SIZE:   0           *
    2208              ;*                                                             *
    2209              ;* FUNCTION ENVIRONMENT                                        *
    2210              ;*                                                             *
    2211              ;* FUNCTION PROPERTIES                                         *
    2212              ;*                            0 Parameter,  0 Auto,  0 SOE     *
    2213              ;***************************************************************
    2214              
    2215 00000090       _SPI_disableRxFifoInt:
    2216                      .dwcfi  cfa_offset, -2
    2217                      .dwcfi  save_reg_to_mem, 26, 0
    2218                      .dwpsn  file "../drivers/source/spi.c",line 133,column 3,is_stmt,isa 0
    2219 00000090 DC0B          ADDB      XAR4,#11              ; [CPU_] |133| 
    2220 00000091 18C4          AND       *+XAR4[0],#0xffdf     ; [CPU_] |133| 
         00000092 FFDF 
    2221              $C$DW$161       .dwtag  DW_TAG_TI_branch
    2222                      .dwattr $C$DW$161, DW_AT_low_pc(0x00)
    2223                      .dwattr $C$DW$161, DW_AT_TI_return
    2224              
TMS320C2000 Assembler PC v15.12.3 Tue Sep 20 20:30:11 2016

Tools Copyright (c) 1996-2015 Texas Instruments Incorporated
C:\Users\MaCHaDo\AppData\Local\Temp\2006010                          PAGE   42

    2225 00000093 0006          LRETR     ; [CPU_] 
    2226                      ; return occurs ; [] 
    2227                      .dwattr $C$DW$159, DW_AT_TI_end_file("../drivers/source/spi.c")
    2228                      .dwattr $C$DW$159, DW_AT_TI_end_line(0x88)
    2229                      .dwattr $C$DW$159, DW_AT_TI_end_column(0x01)
    2230                      .dwendentry
    2231                      .dwendtag $C$DW$159
    2232              
    2233 00000094               .sect   ".text"
    2234                      .clink
    2235                      .global _SPI_disableOverRunInt
    2236              
    2237              $C$DW$162       .dwtag  DW_TAG_subprogram
    2238                      .dwattr $C$DW$162, DW_AT_name("SPI_disableOverRunInt")
    2239                      .dwattr $C$DW$162, DW_AT_low_pc(_SPI_disableOverRunInt)
    2240                      .dwattr $C$DW$162, DW_AT_high_pc(0x00)
    2241                      .dwattr $C$DW$162, DW_AT_TI_symbol_name("_SPI_disableOverRunInt")
    2242                      .dwattr $C$DW$162, DW_AT_external
    2243                      .dwattr $C$DW$162, DW_AT_TI_begin_file("../drivers/source/spi.c")
    2244                      .dwattr $C$DW$162, DW_AT_TI_begin_line(0x74)
    2245                      .dwattr $C$DW$162, DW_AT_TI_begin_column(0x06)
    2246                      .dwattr $C$DW$162, DW_AT_TI_max_frame_size(-2)
    2247                      .dwpsn  file "../drivers/source/spi.c",line 117,column 1,is_stmt,address _SPI_disableOverRunInt,isa 0
    2248              
    2249                      .dwfde $C$DW$CIE, _SPI_disableOverRunInt
    2250              $C$DW$163       .dwtag  DW_TAG_formal_parameter
    2251                      .dwattr $C$DW$163, DW_AT_name("spiHandle")
    2252                      .dwattr $C$DW$163, DW_AT_TI_symbol_name("_spiHandle")
    2253                      .dwattr $C$DW$163, DW_AT_type(*$C$DW$T$26)
    2254                      .dwattr $C$DW$163, DW_AT_location[DW_OP_reg12]
    2255              
    2256              
    2257              ;***************************************************************
    2258              ;* FNAME: _SPI_disableOverRunInt        FR SIZE:   0           *
    2259              ;*                                                             *
    2260              ;* FUNCTION ENVIRONMENT                                        *
    2261              ;*                                                             *
    2262              ;* FUNCTION PROPERTIES                                         *
    2263              ;*                            0 Parameter,  0 Auto,  0 SOE     *
    2264              ;***************************************************************
    2265              
    2266              _SPI_disableOverRunInt:
    2267              ;* AR4   assigned to _spiHandle
    2268              $C$DW$164       .dwtag  DW_TAG_variable
    2269                      .dwattr $C$DW$164, DW_AT_name("spiHandle")
    2270                      .dwattr $C$DW$164, DW_AT_TI_symbol_name("_spiHandle")
    2271                      .dwattr $C$DW$164, DW_AT_type(*$C$DW$T$68)
    2272                      .dwattr $C$DW$164, DW_AT_location[DW_OP_reg12]
    2273              
    2274                      .dwcfi  cfa_offset, -2
    2275                      .dwcfi  save_reg_to_mem, 26, 0
    2276                      .dwpsn  file "../drivers/source/spi.c",line 121,column 3,is_stmt,isa 0
    2277 00000094 18CC          AND       *+XAR4[1],#0xffef     ; [CPU_] |121| 
         00000095 FFEF 
    2278              $C$DW$165       .dwtag  DW_TAG_TI_branch
TMS320C2000 Assembler PC v15.12.3 Tue Sep 20 20:30:11 2016

Tools Copyright (c) 1996-2015 Texas Instruments Incorporated
C:\Users\MaCHaDo\AppData\Local\Temp\2006010                          PAGE   43

    2279                      .dwattr $C$DW$165, DW_AT_low_pc(0x00)
    2280                      .dwattr $C$DW$165, DW_AT_TI_return
    2281              
    2282 00000096 0006          LRETR     ; [CPU_] 
    2283                      ; return occurs ; [] 
    2284                      .dwattr $C$DW$162, DW_AT_TI_end_file("../drivers/source/spi.c")
    2285                      .dwattr $C$DW$162, DW_AT_TI_end_line(0x7c)
    2286                      .dwattr $C$DW$162, DW_AT_TI_end_column(0x01)
    2287                      .dwendentry
    2288                      .dwendtag $C$DW$162
    2289              
    2290 00000097               .sect   ".text"
    2291                      .clink
    2292                      .global _SPI_disableLoopBack
    2293              
    2294              $C$DW$166       .dwtag  DW_TAG_subprogram
    2295                      .dwattr $C$DW$166, DW_AT_name("SPI_disableLoopBack")
    2296                      .dwattr $C$DW$166, DW_AT_low_pc(_SPI_disableLoopBack)
    2297                      .dwattr $C$DW$166, DW_AT_high_pc(0x00)
    2298                      .dwattr $C$DW$166, DW_AT_TI_symbol_name("_SPI_disableLoopBack")
    2299                      .dwattr $C$DW$166, DW_AT_external
    2300                      .dwattr $C$DW$166, DW_AT_TI_begin_file("../drivers/source/spi.c")
    2301                      .dwattr $C$DW$166, DW_AT_TI_begin_line(0x68)
    2302                      .dwattr $C$DW$166, DW_AT_TI_begin_column(0x06)
    2303                      .dwattr $C$DW$166, DW_AT_TI_max_frame_size(-2)
    2304                      .dwpsn  file "../drivers/source/spi.c",line 105,column 1,is_stmt,address _SPI_disableLoopBack,isa 0
    2305              
    2306                      .dwfde $C$DW$CIE, _SPI_disableLoopBack
    2307              $C$DW$167       .dwtag  DW_TAG_formal_parameter
    2308                      .dwattr $C$DW$167, DW_AT_name("spiHandle")
    2309                      .dwattr $C$DW$167, DW_AT_TI_symbol_name("_spiHandle")
    2310                      .dwattr $C$DW$167, DW_AT_type(*$C$DW$T$26)
    2311                      .dwattr $C$DW$167, DW_AT_location[DW_OP_reg12]
    2312              
    2313              
    2314              ;***************************************************************
    2315              ;* FNAME: _SPI_disableLoopBack          FR SIZE:   0           *
    2316              ;*                                                             *
    2317              ;* FUNCTION ENVIRONMENT                                        *
    2318              ;*                                                             *
    2319              ;* FUNCTION PROPERTIES                                         *
    2320              ;*                            0 Parameter,  0 Auto,  0 SOE     *
    2321              ;***************************************************************
    2322              
    2323              _SPI_disableLoopBack:
    2324              ;* AR4   assigned to _spiHandle
    2325              $C$DW$168       .dwtag  DW_TAG_variable
    2326                      .dwattr $C$DW$168, DW_AT_name("spiHandle")
    2327                      .dwattr $C$DW$168, DW_AT_TI_symbol_name("_spiHandle")
    2328                      .dwattr $C$DW$168, DW_AT_type(*$C$DW$T$68)
    2329                      .dwattr $C$DW$168, DW_AT_location[DW_OP_reg12]
    2330              
    2331                      .dwcfi  cfa_offset, -2
    2332                      .dwcfi  save_reg_to_mem, 26, 0
    2333                      .dwpsn  file "../drivers/source/spi.c",line 110,column 3,is_stmt,isa 0
TMS320C2000 Assembler PC v15.12.3 Tue Sep 20 20:30:11 2016

Tools Copyright (c) 1996-2015 Texas Instruments Incorporated
C:\Users\MaCHaDo\AppData\Local\Temp\2006010                          PAGE   44

    2334 00000097 18C4          AND       *+XAR4[0],#0xffef     ; [CPU_] |110| 
         00000098 FFEF 
    2335              $C$DW$169       .dwtag  DW_TAG_TI_branch
    2336                      .dwattr $C$DW$169, DW_AT_low_pc(0x00)
    2337                      .dwattr $C$DW$169, DW_AT_TI_return
    2338              
    2339 00000099 0006          LRETR     ; [CPU_] 
    2340                      ; return occurs ; [] 
    2341                      .dwattr $C$DW$166, DW_AT_TI_end_file("../drivers/source/spi.c")
    2342                      .dwattr $C$DW$166, DW_AT_TI_end_line(0x71)
    2343                      .dwattr $C$DW$166, DW_AT_TI_end_column(0x01)
    2344                      .dwendentry
    2345                      .dwendtag $C$DW$166
    2346              
    2347 0000009a               .sect   ".text"
    2348                      .clink
    2349                      .global _SPI_disableInt
    2350              
    2351              $C$DW$170       .dwtag  DW_TAG_subprogram
    2352                      .dwattr $C$DW$170, DW_AT_name("SPI_disableInt")
    2353                      .dwattr $C$DW$170, DW_AT_low_pc(_SPI_disableInt)
    2354                      .dwattr $C$DW$170, DW_AT_high_pc(0x00)
    2355                      .dwattr $C$DW$170, DW_AT_TI_symbol_name("_SPI_disableInt")
    2356                      .dwattr $C$DW$170, DW_AT_external
    2357                      .dwattr $C$DW$170, DW_AT_TI_begin_file("../drivers/source/spi.c")
    2358                      .dwattr $C$DW$170, DW_AT_TI_begin_line(0x5c)
    2359                      .dwattr $C$DW$170, DW_AT_TI_begin_column(0x06)
    2360                      .dwattr $C$DW$170, DW_AT_TI_max_frame_size(-2)
    2361                      .dwpsn  file "../drivers/source/spi.c",line 93,column 1,is_stmt,address _SPI_disableInt,isa 0
    2362              
    2363                      .dwfde $C$DW$CIE, _SPI_disableInt
    2364              $C$DW$171       .dwtag  DW_TAG_formal_parameter
    2365                      .dwattr $C$DW$171, DW_AT_name("spiHandle")
    2366                      .dwattr $C$DW$171, DW_AT_TI_symbol_name("_spiHandle")
    2367                      .dwattr $C$DW$171, DW_AT_type(*$C$DW$T$26)
    2368                      .dwattr $C$DW$171, DW_AT_location[DW_OP_reg12]
    2369              
    2370              
    2371              ;***************************************************************
    2372              ;* FNAME: _SPI_disableInt               FR SIZE:   0           *
    2373              ;*                                                             *
    2374              ;* FUNCTION ENVIRONMENT                                        *
    2375              ;*                                                             *
    2376              ;* FUNCTION PROPERTIES                                         *
    2377              ;*                            0 Parameter,  0 Auto,  0 SOE     *
    2378              ;***************************************************************
    2379              
    2380              _SPI_disableInt:
    2381              ;* AR4   assigned to _spiHandle
    2382              $C$DW$172       .dwtag  DW_TAG_variable
    2383                      .dwattr $C$DW$172, DW_AT_name("spiHandle")
    2384                      .dwattr $C$DW$172, DW_AT_TI_symbol_name("_spiHandle")
    2385                      .dwattr $C$DW$172, DW_AT_type(*$C$DW$T$68)
    2386                      .dwattr $C$DW$172, DW_AT_location[DW_OP_reg12]
    2387              
TMS320C2000 Assembler PC v15.12.3 Tue Sep 20 20:30:11 2016

Tools Copyright (c) 1996-2015 Texas Instruments Incorporated
C:\Users\MaCHaDo\AppData\Local\Temp\2006010                          PAGE   45

    2388                      .dwcfi  cfa_offset, -2
    2389                      .dwcfi  save_reg_to_mem, 26, 0
    2390                      .dwpsn  file "../drivers/source/spi.c",line 98,column 3,is_stmt,isa 0
    2391 0000009a 18CC          AND       *+XAR4[1],#0xfffe     ; [CPU_] |98| 
         0000009b FFFE 
    2392              $C$DW$173       .dwtag  DW_TAG_TI_branch
    2393                      .dwattr $C$DW$173, DW_AT_low_pc(0x00)
    2394                      .dwattr $C$DW$173, DW_AT_TI_return
    2395              
    2396 0000009c 0006          LRETR     ; [CPU_] 
    2397                      ; return occurs ; [] 
    2398                      .dwattr $C$DW$170, DW_AT_TI_end_file("../drivers/source/spi.c")
    2399                      .dwattr $C$DW$170, DW_AT_TI_end_line(0x65)
    2400                      .dwattr $C$DW$170, DW_AT_TI_end_column(0x01)
    2401                      .dwendentry
    2402                      .dwendtag $C$DW$170
    2403              
    2404 0000009d               .sect   ".text"
    2405                      .clink
    2406                      .global _SPI_clearTxFifoInt
    2407              
    2408              $C$DW$174       .dwtag  DW_TAG_subprogram
    2409                      .dwattr $C$DW$174, DW_AT_name("SPI_clearTxFifoInt")
    2410                      .dwattr $C$DW$174, DW_AT_low_pc(_SPI_clearTxFifoInt)
    2411                      .dwattr $C$DW$174, DW_AT_high_pc(0x00)
    2412                      .dwattr $C$DW$174, DW_AT_TI_symbol_name("_SPI_clearTxFifoInt")
    2413                      .dwattr $C$DW$174, DW_AT_external
    2414                      .dwattr $C$DW$174, DW_AT_TI_begin_file("../drivers/source/spi.c")
    2415                      .dwattr $C$DW$174, DW_AT_TI_begin_line(0x50)
    2416                      .dwattr $C$DW$174, DW_AT_TI_begin_column(0x06)
    2417                      .dwattr $C$DW$174, DW_AT_TI_max_frame_size(-2)
    2418                      .dwpsn  file "../drivers/source/spi.c",line 81,column 1,is_stmt,address _SPI_clearTxFifoInt,isa 0
    2419              
    2420                      .dwfde $C$DW$CIE, _SPI_clearTxFifoInt
    2421              $C$DW$175       .dwtag  DW_TAG_formal_parameter
    2422                      .dwattr $C$DW$175, DW_AT_name("spiHandle")
    2423                      .dwattr $C$DW$175, DW_AT_TI_symbol_name("_spiHandle")
    2424                      .dwattr $C$DW$175, DW_AT_type(*$C$DW$T$26)
    2425                      .dwattr $C$DW$175, DW_AT_location[DW_OP_reg12]
    2426              
    2427              
    2428              ;***************************************************************
    2429              ;* FNAME: _SPI_clearTxFifoInt           FR SIZE:   0           *
    2430              ;*                                                             *
    2431              ;* FUNCTION ENVIRONMENT                                        *
    2432              ;*                                                             *
    2433              ;* FUNCTION PROPERTIES                                         *
    2434              ;*                            0 Parameter,  0 Auto,  0 SOE     *
    2435              ;***************************************************************
    2436              
    2437 0000009d       _SPI_clearTxFifoInt:
    2438                      .dwcfi  cfa_offset, -2
    2439                      .dwcfi  save_reg_to_mem, 26, 0
    2440                      .dwpsn  file "../drivers/source/spi.c",line 86,column 3,is_stmt,isa 0
    2441 0000009d DC0A          ADDB      XAR4,#10              ; [CPU_] |86| 
TMS320C2000 Assembler PC v15.12.3 Tue Sep 20 20:30:11 2016

Tools Copyright (c) 1996-2015 Texas Instruments Incorporated
C:\Users\MaCHaDo\AppData\Local\Temp\2006010                          PAGE   46

    2442 0000009e 1AC4          OR        *+XAR4[0],#0x0040     ; [CPU_] |86| 
         0000009f 0040 
    2443              $C$DW$176       .dwtag  DW_TAG_TI_branch
    2444                      .dwattr $C$DW$176, DW_AT_low_pc(0x00)
    2445                      .dwattr $C$DW$176, DW_AT_TI_return
    2446              
    2447 000000a0 0006          LRETR     ; [CPU_] 
    2448                      ; return occurs ; [] 
    2449                      .dwattr $C$DW$174, DW_AT_TI_end_file("../drivers/source/spi.c")
    2450                      .dwattr $C$DW$174, DW_AT_TI_end_line(0x59)
    2451                      .dwattr $C$DW$174, DW_AT_TI_end_column(0x01)
    2452                      .dwendentry
    2453                      .dwendtag $C$DW$174
    2454              
    2455 000000a1               .sect   ".text"
    2456                      .clink
    2457                      .global _SPI_clearRxFifoOvf
    2458              
    2459              $C$DW$177       .dwtag  DW_TAG_subprogram
    2460                      .dwattr $C$DW$177, DW_AT_name("SPI_clearRxFifoOvf")
    2461                      .dwattr $C$DW$177, DW_AT_low_pc(_SPI_clearRxFifoOvf)
    2462                      .dwattr $C$DW$177, DW_AT_high_pc(0x00)
    2463                      .dwattr $C$DW$177, DW_AT_TI_symbol_name("_SPI_clearRxFifoOvf")
    2464                      .dwattr $C$DW$177, DW_AT_external
    2465                      .dwattr $C$DW$177, DW_AT_TI_begin_file("../drivers/source/spi.c")
    2466                      .dwattr $C$DW$177, DW_AT_TI_begin_line(0x38)
    2467                      .dwattr $C$DW$177, DW_AT_TI_begin_column(0x06)
    2468                      .dwattr $C$DW$177, DW_AT_TI_max_frame_size(-2)
    2469                      .dwpsn  file "../drivers/source/spi.c",line 57,column 1,is_stmt,address _SPI_clearRxFifoOvf,isa 0
    2470              
    2471                      .dwfde $C$DW$CIE, _SPI_clearRxFifoOvf
    2472              $C$DW$178       .dwtag  DW_TAG_formal_parameter
    2473                      .dwattr $C$DW$178, DW_AT_name("spiHandle")
    2474                      .dwattr $C$DW$178, DW_AT_TI_symbol_name("_spiHandle")
    2475                      .dwattr $C$DW$178, DW_AT_type(*$C$DW$T$26)
    2476                      .dwattr $C$DW$178, DW_AT_location[DW_OP_reg12]
    2477              
    2478              
    2479              ;***************************************************************
    2480              ;* FNAME: _SPI_clearRxFifoOvf           FR SIZE:   0           *
    2481              ;*                                                             *
    2482              ;* FUNCTION ENVIRONMENT                                        *
    2483              ;*                                                             *
    2484              ;* FUNCTION PROPERTIES                                         *
    2485              ;*                            0 Parameter,  0 Auto,  0 SOE     *
    2486              ;***************************************************************
    2487              
    2488 000000a1       _SPI_clearRxFifoOvf:
    2489                      .dwcfi  cfa_offset, -2
    2490                      .dwcfi  save_reg_to_mem, 26, 0
    2491                      .dwpsn  file "../drivers/source/spi.c",line 62,column 3,is_stmt,isa 0
    2492 000000a1 DC0B          ADDB      XAR4,#11              ; [CPU_] |62| 
    2493 000000a2 1AC4          OR        *+XAR4[0],#0x4000     ; [CPU_] |62| 
         000000a3 4000 
    2494              $C$DW$179       .dwtag  DW_TAG_TI_branch
TMS320C2000 Assembler PC v15.12.3 Tue Sep 20 20:30:11 2016

Tools Copyright (c) 1996-2015 Texas Instruments Incorporated
C:\Users\MaCHaDo\AppData\Local\Temp\2006010                          PAGE   47

    2495                      .dwattr $C$DW$179, DW_AT_low_pc(0x00)
    2496                      .dwattr $C$DW$179, DW_AT_TI_return
    2497              
    2498 000000a4 0006          LRETR     ; [CPU_] 
    2499                      ; return occurs ; [] 
    2500                      .dwattr $C$DW$177, DW_AT_TI_end_file("../drivers/source/spi.c")
    2501                      .dwattr $C$DW$177, DW_AT_TI_end_line(0x41)
    2502                      .dwattr $C$DW$177, DW_AT_TI_end_column(0x01)
    2503                      .dwendentry
    2504                      .dwendtag $C$DW$177
    2505              
    2506 000000a5               .sect   ".text"
    2507                      .clink
    2508                      .global _SPI_clearRxFifoInt
    2509              
    2510              $C$DW$180       .dwtag  DW_TAG_subprogram
    2511                      .dwattr $C$DW$180, DW_AT_name("SPI_clearRxFifoInt")
    2512                      .dwattr $C$DW$180, DW_AT_low_pc(_SPI_clearRxFifoInt)
    2513                      .dwattr $C$DW$180, DW_AT_high_pc(0x00)
    2514                      .dwattr $C$DW$180, DW_AT_TI_symbol_name("_SPI_clearRxFifoInt")
    2515                      .dwattr $C$DW$180, DW_AT_external
    2516                      .dwattr $C$DW$180, DW_AT_TI_begin_file("../drivers/source/spi.c")
    2517                      .dwattr $C$DW$180, DW_AT_TI_begin_line(0x44)
    2518                      .dwattr $C$DW$180, DW_AT_TI_begin_column(0x06)
    2519                      .dwattr $C$DW$180, DW_AT_TI_max_frame_size(-2)
    2520                      .dwpsn  file "../drivers/source/spi.c",line 69,column 1,is_stmt,address _SPI_clearRxFifoInt,isa 0
    2521              
    2522                      .dwfde $C$DW$CIE, _SPI_clearRxFifoInt
    2523              $C$DW$181       .dwtag  DW_TAG_formal_parameter
    2524                      .dwattr $C$DW$181, DW_AT_name("spiHandle")
    2525                      .dwattr $C$DW$181, DW_AT_TI_symbol_name("_spiHandle")
    2526                      .dwattr $C$DW$181, DW_AT_type(*$C$DW$T$26)
    2527                      .dwattr $C$DW$181, DW_AT_location[DW_OP_reg12]
    2528              
    2529              
    2530              ;***************************************************************
    2531              ;* FNAME: _SPI_clearRxFifoInt           FR SIZE:   0           *
    2532              ;*                                                             *
    2533              ;* FUNCTION ENVIRONMENT                                        *
    2534              ;*                                                             *
    2535              ;* FUNCTION PROPERTIES                                         *
    2536              ;*                            0 Parameter,  0 Auto,  0 SOE     *
    2537              ;***************************************************************
    2538              
    2539 000000a5       _SPI_clearRxFifoInt:
    2540                      .dwcfi  cfa_offset, -2
    2541                      .dwcfi  save_reg_to_mem, 26, 0
    2542                      .dwpsn  file "../drivers/source/spi.c",line 74,column 3,is_stmt,isa 0
    2543 000000a5 DC0B          ADDB      XAR4,#11              ; [CPU_] |74| 
    2544 000000a6 1AC4          OR        *+XAR4[0],#0x0040     ; [CPU_] |74| 
         000000a7 0040 
    2545              $C$DW$182       .dwtag  DW_TAG_TI_branch
    2546                      .dwattr $C$DW$182, DW_AT_low_pc(0x00)
    2547                      .dwattr $C$DW$182, DW_AT_TI_return
    2548              
TMS320C2000 Assembler PC v15.12.3 Tue Sep 20 20:30:11 2016

Tools Copyright (c) 1996-2015 Texas Instruments Incorporated
C:\Users\MaCHaDo\AppData\Local\Temp\2006010                          PAGE   48

    2549 000000a8 0006          LRETR     ; [CPU_] 
    2550                      ; return occurs ; [] 
    2551                      .dwattr $C$DW$180, DW_AT_TI_end_file("../drivers/source/spi.c")
    2552                      .dwattr $C$DW$180, DW_AT_TI_end_line(0x4d)
    2553                      .dwattr $C$DW$180, DW_AT_TI_end_column(0x01)
    2554                      .dwendentry
    2555                      .dwendtag $C$DW$180
    2556              
    2557              
    2558              ;***************************************************************
    2559              ;* TYPE INFORMATION                                            *
    2560              ;***************************************************************
    2561              
    2562              $C$DW$T$23      .dwtag  DW_TAG_enumeration_type
    2563                      .dwattr $C$DW$T$23, DW_AT_byte_size(0x01)
    2564              $C$DW$183       .dwtag  DW_TAG_enumerator
    2565                      .dwattr $C$DW$183, DW_AT_name("SPI_FifoStatus_Empty")
    2566                      .dwattr $C$DW$183, DW_AT_const_value(0x00)
    2567              
    2568              $C$DW$184       .dwtag  DW_TAG_enumerator
    2569                      .dwattr $C$DW$184, DW_AT_name("SPI_FifoStatus_1_Word")
    2570                      .dwattr $C$DW$184, DW_AT_const_value(0x100)
    2571              
    2572              $C$DW$185       .dwtag  DW_TAG_enumerator
    2573                      .dwattr $C$DW$185, DW_AT_name("SPI_FifoStatus_2_Words")
    2574                      .dwattr $C$DW$185, DW_AT_const_value(0x200)
    2575              
    2576              $C$DW$186       .dwtag  DW_TAG_enumerator
    2577                      .dwattr $C$DW$186, DW_AT_name("SPI_FifoStatus_3_Words")
    2578                      .dwattr $C$DW$186, DW_AT_const_value(0x300)
    2579              
    2580              $C$DW$187       .dwtag  DW_TAG_enumerator
    2581                      .dwattr $C$DW$187, DW_AT_name("SPI_FifoStatus_4_Words")
    2582                      .dwattr $C$DW$187, DW_AT_const_value(0x400)
    2583              
    2584                      .dwendtag $C$DW$T$23
    2585              
    2586              $C$DW$T$24      .dwtag  DW_TAG_typedef
    2587                      .dwattr $C$DW$T$24, DW_AT_name("SPI_FifoStatus_e")
    2588                      .dwattr $C$DW$T$24, DW_AT_type(*$C$DW$T$23)
    2589                      .dwattr $C$DW$T$24, DW_AT_language(DW_LANG_C)
    2590              
    2591              
    2592              $C$DW$T$29      .dwtag  DW_TAG_enumeration_type
    2593                      .dwattr $C$DW$T$29, DW_AT_byte_size(0x01)
    2594              $C$DW$188       .dwtag  DW_TAG_enumerator
    2595                      .dwattr $C$DW$188, DW_AT_name("SPI_IntFlagStatus_InProgress")
    2596                      .dwattr $C$DW$188, DW_AT_const_value(0x00)
    2597              
    2598              $C$DW$189       .dwtag  DW_TAG_enumerator
    2599                      .dwattr $C$DW$189, DW_AT_name("SPI_IntFlagStatus_Completed")
    2600                      .dwattr $C$DW$189, DW_AT_const_value(0x40)
    2601              
    2602                      .dwendtag $C$DW$T$29
    2603              
TMS320C2000 Assembler PC v15.12.3 Tue Sep 20 20:30:11 2016

Tools Copyright (c) 1996-2015 Texas Instruments Incorporated
C:\Users\MaCHaDo\AppData\Local\Temp\2006010                          PAGE   49

    2604              $C$DW$T$30      .dwtag  DW_TAG_typedef
    2605                      .dwattr $C$DW$T$30, DW_AT_name("SPI_IntFlagStatus_e")
    2606                      .dwattr $C$DW$T$30, DW_AT_type(*$C$DW$T$29)
    2607                      .dwattr $C$DW$T$30, DW_AT_language(DW_LANG_C)
    2608              
    2609              
    2610              $C$DW$T$33      .dwtag  DW_TAG_enumeration_type
    2611                      .dwattr $C$DW$T$33, DW_AT_byte_size(0x01)
    2612              $C$DW$190       .dwtag  DW_TAG_enumerator
    2613                      .dwattr $C$DW$190, DW_AT_name("SPI_TxBufferStatus_Empty")
    2614                      .dwattr $C$DW$190, DW_AT_const_value(0x00)
    2615              
    2616              $C$DW$191       .dwtag  DW_TAG_enumerator
    2617                      .dwattr $C$DW$191, DW_AT_name("SPI_TxBufferStatus_Full")
    2618                      .dwattr $C$DW$191, DW_AT_const_value(0x20)
    2619              
    2620                      .dwendtag $C$DW$T$33
    2621              
    2622              $C$DW$T$34      .dwtag  DW_TAG_typedef
    2623                      .dwattr $C$DW$T$34, DW_AT_name("SPI_TxBufferStatus_e")
    2624                      .dwattr $C$DW$T$34, DW_AT_type(*$C$DW$T$33)
    2625                      .dwattr $C$DW$T$34, DW_AT_language(DW_LANG_C)
    2626              
    2627              
    2628              $C$DW$T$37      .dwtag  DW_TAG_enumeration_type
    2629                      .dwattr $C$DW$T$37, DW_AT_byte_size(0x01)
    2630              $C$DW$192       .dwtag  DW_TAG_enumerator
    2631                      .dwattr $C$DW$192, DW_AT_name("SPI_BaudRate_LSPCLK_Over_Four")
    2632                      .dwattr $C$DW$192, DW_AT_const_value(0x00)
    2633              
    2634              $C$DW$193       .dwtag  DW_TAG_enumerator
    2635                      .dwattr $C$DW$193, DW_AT_name("SPI_BaudRate_1_MBaud")
    2636                      .dwattr $C$DW$193, DW_AT_const_value(0x0e)
    2637              
    2638                      .dwendtag $C$DW$T$37
    2639              
    2640              $C$DW$T$38      .dwtag  DW_TAG_typedef
    2641                      .dwattr $C$DW$T$38, DW_AT_name("SPI_BaudRate_e")
    2642                      .dwattr $C$DW$T$38, DW_AT_type(*$C$DW$T$37)
    2643                      .dwattr $C$DW$T$38, DW_AT_language(DW_LANG_C)
    2644              
    2645              $C$DW$194       .dwtag  DW_TAG_TI_far_type
    2646                      .dwattr $C$DW$194, DW_AT_type(*$C$DW$T$38)
    2647              
    2648              $C$DW$T$39      .dwtag  DW_TAG_const_type
    2649                      .dwattr $C$DW$T$39, DW_AT_type(*$C$DW$194)
    2650              
    2651              
    2652              $C$DW$T$40      .dwtag  DW_TAG_enumeration_type
    2653                      .dwattr $C$DW$T$40, DW_AT_byte_size(0x01)
    2654              $C$DW$195       .dwtag  DW_TAG_enumerator
    2655                      .dwattr $C$DW$195, DW_AT_name("SPI_CharLength_1_Bit")
    2656                      .dwattr $C$DW$195, DW_AT_const_value(0x00)
    2657              
    2658              $C$DW$196       .dwtag  DW_TAG_enumerator
TMS320C2000 Assembler PC v15.12.3 Tue Sep 20 20:30:11 2016

Tools Copyright (c) 1996-2015 Texas Instruments Incorporated
C:\Users\MaCHaDo\AppData\Local\Temp\2006010                          PAGE   50

    2659                      .dwattr $C$DW$196, DW_AT_name("SPI_CharLength_2_Bits")
    2660                      .dwattr $C$DW$196, DW_AT_const_value(0x01)
    2661              
    2662              $C$DW$197       .dwtag  DW_TAG_enumerator
    2663                      .dwattr $C$DW$197, DW_AT_name("SPI_CharLength_3_Bits")
    2664                      .dwattr $C$DW$197, DW_AT_const_value(0x02)
    2665              
    2666              $C$DW$198       .dwtag  DW_TAG_enumerator
    2667                      .dwattr $C$DW$198, DW_AT_name("SPI_CharLength_4_Bits")
    2668                      .dwattr $C$DW$198, DW_AT_const_value(0x03)
    2669              
    2670              $C$DW$199       .dwtag  DW_TAG_enumerator
    2671                      .dwattr $C$DW$199, DW_AT_name("SPI_CharLength_5_Bits")
    2672                      .dwattr $C$DW$199, DW_AT_const_value(0x04)
    2673              
    2674              $C$DW$200       .dwtag  DW_TAG_enumerator
    2675                      .dwattr $C$DW$200, DW_AT_name("SPI_CharLength_6_Bits")
    2676                      .dwattr $C$DW$200, DW_AT_const_value(0x05)
    2677              
    2678              $C$DW$201       .dwtag  DW_TAG_enumerator
    2679                      .dwattr $C$DW$201, DW_AT_name("SPI_CharLength_7_Bits")
    2680                      .dwattr $C$DW$201, DW_AT_const_value(0x06)
    2681              
    2682              $C$DW$202       .dwtag  DW_TAG_enumerator
    2683                      .dwattr $C$DW$202, DW_AT_name("SPI_CharLength_8_Bits")
    2684                      .dwattr $C$DW$202, DW_AT_const_value(0x07)
    2685              
    2686              $C$DW$203       .dwtag  DW_TAG_enumerator
    2687                      .dwattr $C$DW$203, DW_AT_name("SPI_CharLength_9_Bits")
    2688                      .dwattr $C$DW$203, DW_AT_const_value(0x08)
    2689              
    2690              $C$DW$204       .dwtag  DW_TAG_enumerator
    2691                      .dwattr $C$DW$204, DW_AT_name("SPI_CharLength_10_Bits")
    2692                      .dwattr $C$DW$204, DW_AT_const_value(0x09)
    2693              
    2694              $C$DW$205       .dwtag  DW_TAG_enumerator
    2695                      .dwattr $C$DW$205, DW_AT_name("SPI_CharLength_11_Bits")
    2696                      .dwattr $C$DW$205, DW_AT_const_value(0x0a)
    2697              
    2698              $C$DW$206       .dwtag  DW_TAG_enumerator
    2699                      .dwattr $C$DW$206, DW_AT_name("SPI_CharLength_12_Bits")
    2700                      .dwattr $C$DW$206, DW_AT_const_value(0x0b)
    2701              
    2702              $C$DW$207       .dwtag  DW_TAG_enumerator
    2703                      .dwattr $C$DW$207, DW_AT_name("SPI_CharLength_13_Bits")
    2704                      .dwattr $C$DW$207, DW_AT_const_value(0x0c)
    2705              
    2706              $C$DW$208       .dwtag  DW_TAG_enumerator
    2707                      .dwattr $C$DW$208, DW_AT_name("SPI_CharLength_14_Bits")
    2708                      .dwattr $C$DW$208, DW_AT_const_value(0x0d)
    2709              
    2710              $C$DW$209       .dwtag  DW_TAG_enumerator
    2711                      .dwattr $C$DW$209, DW_AT_name("SPI_CharLength_15_Bits")
    2712                      .dwattr $C$DW$209, DW_AT_const_value(0x0e)
    2713              
TMS320C2000 Assembler PC v15.12.3 Tue Sep 20 20:30:11 2016

Tools Copyright (c) 1996-2015 Texas Instruments Incorporated
C:\Users\MaCHaDo\AppData\Local\Temp\2006010                          PAGE   51

    2714              $C$DW$210       .dwtag  DW_TAG_enumerator
    2715                      .dwattr $C$DW$210, DW_AT_name("SPI_CharLength_16_Bits")
    2716                      .dwattr $C$DW$210, DW_AT_const_value(0x0f)
    2717              
    2718                      .dwendtag $C$DW$T$40
    2719              
    2720              $C$DW$T$41      .dwtag  DW_TAG_typedef
    2721                      .dwattr $C$DW$T$41, DW_AT_name("SPI_CharLength_e")
    2722                      .dwattr $C$DW$T$41, DW_AT_type(*$C$DW$T$40)
    2723                      .dwattr $C$DW$T$41, DW_AT_language(DW_LANG_C)
    2724              
    2725              $C$DW$211       .dwtag  DW_TAG_TI_far_type
    2726                      .dwattr $C$DW$211, DW_AT_type(*$C$DW$T$41)
    2727              
    2728              $C$DW$T$42      .dwtag  DW_TAG_const_type
    2729                      .dwattr $C$DW$T$42, DW_AT_type(*$C$DW$211)
    2730              
    2731              
    2732              $C$DW$T$43      .dwtag  DW_TAG_enumeration_type
    2733                      .dwattr $C$DW$T$43, DW_AT_byte_size(0x01)
    2734              $C$DW$212       .dwtag  DW_TAG_enumerator
    2735                      .dwattr $C$DW$212, DW_AT_name("SPI_ClkPhase_Normal")
    2736                      .dwattr $C$DW$212, DW_AT_const_value(0x00)
    2737              
    2738              $C$DW$213       .dwtag  DW_TAG_enumerator
    2739                      .dwattr $C$DW$213, DW_AT_name("SPI_ClkPhase_Delayed")
    2740                      .dwattr $C$DW$213, DW_AT_const_value(0x08)
    2741              
    2742                      .dwendtag $C$DW$T$43
    2743              
    2744              $C$DW$T$44      .dwtag  DW_TAG_typedef
    2745                      .dwattr $C$DW$T$44, DW_AT_name("SPI_ClkPhase_e")
    2746                      .dwattr $C$DW$T$44, DW_AT_type(*$C$DW$T$43)
    2747                      .dwattr $C$DW$T$44, DW_AT_language(DW_LANG_C)
    2748              
    2749              $C$DW$214       .dwtag  DW_TAG_TI_far_type
    2750                      .dwattr $C$DW$214, DW_AT_type(*$C$DW$T$44)
    2751              
    2752              $C$DW$T$45      .dwtag  DW_TAG_const_type
    2753                      .dwattr $C$DW$T$45, DW_AT_type(*$C$DW$214)
    2754              
    2755              
    2756              $C$DW$T$46      .dwtag  DW_TAG_enumeration_type
    2757                      .dwattr $C$DW$T$46, DW_AT_byte_size(0x01)
    2758              $C$DW$215       .dwtag  DW_TAG_enumerator
    2759                      .dwattr $C$DW$215, DW_AT_name("SPI_ClkPolarity_OutputRisingEdge_InputFallingEdge")
    2760                      .dwattr $C$DW$215, DW_AT_const_value(0x00)
    2761              
    2762              $C$DW$216       .dwtag  DW_TAG_enumerator
    2763                      .dwattr $C$DW$216, DW_AT_name("SPI_ClkPolarity_OutputFallingEdge_InputRisingEdge")
    2764                      .dwattr $C$DW$216, DW_AT_const_value(0x40)
    2765              
    2766                      .dwendtag $C$DW$T$46
    2767              
    2768              $C$DW$T$47      .dwtag  DW_TAG_typedef
TMS320C2000 Assembler PC v15.12.3 Tue Sep 20 20:30:11 2016

Tools Copyright (c) 1996-2015 Texas Instruments Incorporated
C:\Users\MaCHaDo\AppData\Local\Temp\2006010                          PAGE   52

    2769                      .dwattr $C$DW$T$47, DW_AT_name("SPI_ClkPolarity_e")
    2770                      .dwattr $C$DW$T$47, DW_AT_type(*$C$DW$T$46)
    2771                      .dwattr $C$DW$T$47, DW_AT_language(DW_LANG_C)
    2772              
    2773              $C$DW$217       .dwtag  DW_TAG_TI_far_type
    2774                      .dwattr $C$DW$217, DW_AT_type(*$C$DW$T$47)
    2775              
    2776              $C$DW$T$48      .dwtag  DW_TAG_const_type
    2777                      .dwattr $C$DW$T$48, DW_AT_type(*$C$DW$217)
    2778              
    2779              
    2780              $C$DW$T$49      .dwtag  DW_TAG_enumeration_type
    2781                      .dwattr $C$DW$T$49, DW_AT_byte_size(0x01)
    2782              $C$DW$218       .dwtag  DW_TAG_enumerator
    2783                      .dwattr $C$DW$218, DW_AT_name("SPI_Mode_Slave")
    2784                      .dwattr $C$DW$218, DW_AT_const_value(0x00)
    2785              
    2786              $C$DW$219       .dwtag  DW_TAG_enumerator
    2787                      .dwattr $C$DW$219, DW_AT_name("SPI_Mode_Master")
    2788                      .dwattr $C$DW$219, DW_AT_const_value(0x04)
    2789              
    2790                      .dwendtag $C$DW$T$49
    2791              
    2792              $C$DW$T$50      .dwtag  DW_TAG_typedef
    2793                      .dwattr $C$DW$T$50, DW_AT_name("SPI_Mode_e")
    2794                      .dwattr $C$DW$T$50, DW_AT_type(*$C$DW$T$49)
    2795                      .dwattr $C$DW$T$50, DW_AT_language(DW_LANG_C)
    2796              
    2797              $C$DW$220       .dwtag  DW_TAG_TI_far_type
    2798                      .dwattr $C$DW$220, DW_AT_type(*$C$DW$T$50)
    2799              
    2800              $C$DW$T$51      .dwtag  DW_TAG_const_type
    2801                      .dwattr $C$DW$T$51, DW_AT_type(*$C$DW$220)
    2802              
    2803              
    2804              $C$DW$T$52      .dwtag  DW_TAG_enumeration_type
    2805                      .dwattr $C$DW$T$52, DW_AT_byte_size(0x01)
    2806              $C$DW$221       .dwtag  DW_TAG_enumerator
    2807                      .dwattr $C$DW$221, DW_AT_name("SPI_Priority_Immediate")
    2808                      .dwattr $C$DW$221, DW_AT_const_value(0x00)
    2809              
    2810              $C$DW$222       .dwtag  DW_TAG_enumerator
    2811                      .dwattr $C$DW$222, DW_AT_name("SPI_Priority_FreeRun")
    2812                      .dwattr $C$DW$222, DW_AT_const_value(0x10)
    2813              
    2814              $C$DW$223       .dwtag  DW_TAG_enumerator
    2815                      .dwattr $C$DW$223, DW_AT_name("SPI_Priority_AfterRxRxSeq")
    2816                      .dwattr $C$DW$223, DW_AT_const_value(0x20)
    2817              
    2818                      .dwendtag $C$DW$T$52
    2819              
    2820              $C$DW$T$53      .dwtag  DW_TAG_typedef
    2821                      .dwattr $C$DW$T$53, DW_AT_name("SPI_Priority_e")
    2822                      .dwattr $C$DW$T$53, DW_AT_type(*$C$DW$T$52)
    2823                      .dwattr $C$DW$T$53, DW_AT_language(DW_LANG_C)
TMS320C2000 Assembler PC v15.12.3 Tue Sep 20 20:30:11 2016

Tools Copyright (c) 1996-2015 Texas Instruments Incorporated
C:\Users\MaCHaDo\AppData\Local\Temp\2006010                          PAGE   53

    2824              
    2825              $C$DW$224       .dwtag  DW_TAG_TI_far_type
    2826                      .dwattr $C$DW$224, DW_AT_type(*$C$DW$T$53)
    2827              
    2828              $C$DW$T$54      .dwtag  DW_TAG_const_type
    2829                      .dwattr $C$DW$T$54, DW_AT_type(*$C$DW$224)
    2830              
    2831              
    2832              $C$DW$T$55      .dwtag  DW_TAG_enumeration_type
    2833                      .dwattr $C$DW$T$55, DW_AT_byte_size(0x01)
    2834              $C$DW$225       .dwtag  DW_TAG_enumerator
    2835                      .dwattr $C$DW$225, DW_AT_name("SPI_FifoLevel_Empty")
    2836                      .dwattr $C$DW$225, DW_AT_const_value(0x00)
    2837              
    2838              $C$DW$226       .dwtag  DW_TAG_enumerator
    2839                      .dwattr $C$DW$226, DW_AT_name("SPI_FifoLevel_1_Word")
    2840                      .dwattr $C$DW$226, DW_AT_const_value(0x01)
    2841              
    2842              $C$DW$227       .dwtag  DW_TAG_enumerator
    2843                      .dwattr $C$DW$227, DW_AT_name("SPI_FifoLevel_2_Words")
    2844                      .dwattr $C$DW$227, DW_AT_const_value(0x02)
    2845              
    2846              $C$DW$228       .dwtag  DW_TAG_enumerator
    2847                      .dwattr $C$DW$228, DW_AT_name("SPI_FifoLevel_3_Words")
    2848                      .dwattr $C$DW$228, DW_AT_const_value(0x03)
    2849              
    2850              $C$DW$229       .dwtag  DW_TAG_enumerator
    2851                      .dwattr $C$DW$229, DW_AT_name("SPI_FifoLevel_4_Words")
    2852                      .dwattr $C$DW$229, DW_AT_const_value(0x04)
    2853              
    2854                      .dwendtag $C$DW$T$55
    2855              
    2856              $C$DW$T$56      .dwtag  DW_TAG_typedef
    2857                      .dwattr $C$DW$T$56, DW_AT_name("SPI_FifoLevel_e")
    2858                      .dwattr $C$DW$T$56, DW_AT_type(*$C$DW$T$55)
    2859                      .dwattr $C$DW$T$56, DW_AT_language(DW_LANG_C)
    2860              
    2861              $C$DW$230       .dwtag  DW_TAG_TI_far_type
    2862                      .dwattr $C$DW$230, DW_AT_type(*$C$DW$T$56)
    2863              
    2864              $C$DW$T$57      .dwtag  DW_TAG_const_type
    2865                      .dwattr $C$DW$T$57, DW_AT_type(*$C$DW$230)
    2866              
    2867              
    2868              $C$DW$T$58      .dwtag  DW_TAG_enumeration_type
    2869                      .dwattr $C$DW$T$58, DW_AT_byte_size(0x01)
    2870              $C$DW$231       .dwtag  DW_TAG_enumerator
    2871                      .dwattr $C$DW$231, DW_AT_name("SPI_SteInv_ActiveLow")
    2872                      .dwattr $C$DW$231, DW_AT_const_value(0x00)
    2873              
    2874              $C$DW$232       .dwtag  DW_TAG_enumerator
    2875                      .dwattr $C$DW$232, DW_AT_name("SPI_SteInv_ActiveHigh")
    2876                      .dwattr $C$DW$232, DW_AT_const_value(0x02)
    2877              
    2878                      .dwendtag $C$DW$T$58
TMS320C2000 Assembler PC v15.12.3 Tue Sep 20 20:30:11 2016

Tools Copyright (c) 1996-2015 Texas Instruments Incorporated
C:\Users\MaCHaDo\AppData\Local\Temp\2006010                          PAGE   54

    2879              
    2880              $C$DW$T$59      .dwtag  DW_TAG_typedef
    2881                      .dwattr $C$DW$T$59, DW_AT_name("SPI_SteInv_e")
    2882                      .dwattr $C$DW$T$59, DW_AT_type(*$C$DW$T$58)
    2883                      .dwattr $C$DW$T$59, DW_AT_language(DW_LANG_C)
    2884              
    2885              $C$DW$233       .dwtag  DW_TAG_TI_far_type
    2886                      .dwattr $C$DW$233, DW_AT_type(*$C$DW$T$59)
    2887              
    2888              $C$DW$T$60      .dwtag  DW_TAG_const_type
    2889                      .dwattr $C$DW$T$60, DW_AT_type(*$C$DW$233)
    2890              
    2891              
    2892              $C$DW$T$61      .dwtag  DW_TAG_enumeration_type
    2893                      .dwattr $C$DW$T$61, DW_AT_byte_size(0x01)
    2894              $C$DW$234       .dwtag  DW_TAG_enumerator
    2895                      .dwattr $C$DW$234, DW_AT_name("SPI_TxSuspend_00")
    2896                      .dwattr $C$DW$234, DW_AT_const_value(0x00)
    2897              
    2898              $C$DW$235       .dwtag  DW_TAG_enumerator
    2899                      .dwattr $C$DW$235, DW_AT_name("SPI_TxSuspend_10")
    2900                      .dwattr $C$DW$235, DW_AT_const_value(0x20)
    2901              
    2902              $C$DW$236       .dwtag  DW_TAG_enumerator
    2903                      .dwattr $C$DW$236, DW_AT_name("SPI_TxSuspend_free")
    2904                      .dwattr $C$DW$236, DW_AT_const_value(0x10)
    2905              
    2906                      .dwendtag $C$DW$T$61
    2907              
    2908              $C$DW$T$62      .dwtag  DW_TAG_typedef
    2909                      .dwattr $C$DW$T$62, DW_AT_name("SPI_EmulationSuspend_e")
    2910                      .dwattr $C$DW$T$62, DW_AT_type(*$C$DW$T$61)
    2911                      .dwattr $C$DW$T$62, DW_AT_language(DW_LANG_C)
    2912              
    2913              $C$DW$237       .dwtag  DW_TAG_TI_far_type
    2914                      .dwattr $C$DW$237, DW_AT_type(*$C$DW$T$62)
    2915              
    2916              $C$DW$T$63      .dwtag  DW_TAG_const_type
    2917                      .dwattr $C$DW$T$63, DW_AT_type(*$C$DW$237)
    2918              
    2919              
    2920              $C$DW$T$64      .dwtag  DW_TAG_enumeration_type
    2921                      .dwattr $C$DW$T$64, DW_AT_byte_size(0x01)
    2922              $C$DW$238       .dwtag  DW_TAG_enumerator
    2923                      .dwattr $C$DW$238, DW_AT_name("SPI_TriWire_NormalFourWire")
    2924                      .dwattr $C$DW$238, DW_AT_const_value(0x00)
    2925              
    2926              $C$DW$239       .dwtag  DW_TAG_enumerator
    2927                      .dwattr $C$DW$239, DW_AT_name("SPI_TriWire_ThreeWire")
    2928                      .dwattr $C$DW$239, DW_AT_const_value(0x01)
    2929              
    2930                      .dwendtag $C$DW$T$64
    2931              
    2932              $C$DW$T$65      .dwtag  DW_TAG_typedef
    2933                      .dwattr $C$DW$T$65, DW_AT_name("SPI_TriWire_e")
TMS320C2000 Assembler PC v15.12.3 Tue Sep 20 20:30:11 2016

Tools Copyright (c) 1996-2015 Texas Instruments Incorporated
C:\Users\MaCHaDo\AppData\Local\Temp\2006010                          PAGE   55

    2934                      .dwattr $C$DW$T$65, DW_AT_type(*$C$DW$T$64)
    2935                      .dwattr $C$DW$T$65, DW_AT_language(DW_LANG_C)
    2936              
    2937              $C$DW$240       .dwtag  DW_TAG_TI_far_type
    2938                      .dwattr $C$DW$240, DW_AT_type(*$C$DW$T$65)
    2939              
    2940              $C$DW$T$66      .dwtag  DW_TAG_const_type
    2941                      .dwattr $C$DW$T$66, DW_AT_type(*$C$DW$240)
    2942              
    2943              
    2944              $C$DW$T$22      .dwtag  DW_TAG_structure_type
    2945                      .dwattr $C$DW$T$22, DW_AT_name("_SPI_Obj_")
    2946                      .dwattr $C$DW$T$22, DW_AT_byte_size(0x10)
    2947              $C$DW$241       .dwtag  DW_TAG_member
    2948                      .dwattr $C$DW$241, DW_AT_type(*$C$DW$T$20)
    2949                      .dwattr $C$DW$241, DW_AT_name("SPICCR")
    2950                      .dwattr $C$DW$241, DW_AT_TI_symbol_name("_SPICCR")
    2951                      .dwattr $C$DW$241, DW_AT_data_member_location[DW_OP_plus_uconst 0x0]
    2952                      .dwattr $C$DW$241, DW_AT_accessibility(DW_ACCESS_public)
    2953              
    2954              $C$DW$242       .dwtag  DW_TAG_member
    2955                      .dwattr $C$DW$242, DW_AT_type(*$C$DW$T$20)
    2956                      .dwattr $C$DW$242, DW_AT_name("SPICTL")
    2957                      .dwattr $C$DW$242, DW_AT_TI_symbol_name("_SPICTL")
    2958                      .dwattr $C$DW$242, DW_AT_data_member_location[DW_OP_plus_uconst 0x1]
    2959                      .dwattr $C$DW$242, DW_AT_accessibility(DW_ACCESS_public)
    2960              
    2961              $C$DW$243       .dwtag  DW_TAG_member
    2962                      .dwattr $C$DW$243, DW_AT_type(*$C$DW$T$20)
    2963                      .dwattr $C$DW$243, DW_AT_name("SPIST")
    2964                      .dwattr $C$DW$243, DW_AT_TI_symbol_name("_SPIST")
    2965                      .dwattr $C$DW$243, DW_AT_data_member_location[DW_OP_plus_uconst 0x2]
    2966                      .dwattr $C$DW$243, DW_AT_accessibility(DW_ACCESS_public)
    2967              
    2968              $C$DW$244       .dwtag  DW_TAG_member
    2969                      .dwattr $C$DW$244, DW_AT_type(*$C$DW$T$20)
    2970                      .dwattr $C$DW$244, DW_AT_name("rsvd_1")
    2971                      .dwattr $C$DW$244, DW_AT_TI_symbol_name("_rsvd_1")
    2972                      .dwattr $C$DW$244, DW_AT_data_member_location[DW_OP_plus_uconst 0x3]
    2973                      .dwattr $C$DW$244, DW_AT_accessibility(DW_ACCESS_public)
    2974              
    2975              $C$DW$245       .dwtag  DW_TAG_member
    2976                      .dwattr $C$DW$245, DW_AT_type(*$C$DW$T$20)
    2977                      .dwattr $C$DW$245, DW_AT_name("SPIBRR")
    2978                      .dwattr $C$DW$245, DW_AT_TI_symbol_name("_SPIBRR")
    2979                      .dwattr $C$DW$245, DW_AT_data_member_location[DW_OP_plus_uconst 0x4]
    2980                      .dwattr $C$DW$245, DW_AT_accessibility(DW_ACCESS_public)
    2981              
    2982              $C$DW$246       .dwtag  DW_TAG_member
    2983                      .dwattr $C$DW$246, DW_AT_type(*$C$DW$T$20)
    2984                      .dwattr $C$DW$246, DW_AT_name("rsvd_2")
    2985                      .dwattr $C$DW$246, DW_AT_TI_symbol_name("_rsvd_2")
    2986                      .dwattr $C$DW$246, DW_AT_data_member_location[DW_OP_plus_uconst 0x5]
    2987                      .dwattr $C$DW$246, DW_AT_accessibility(DW_ACCESS_public)
    2988              
TMS320C2000 Assembler PC v15.12.3 Tue Sep 20 20:30:11 2016

Tools Copyright (c) 1996-2015 Texas Instruments Incorporated
C:\Users\MaCHaDo\AppData\Local\Temp\2006010                          PAGE   56

    2989              $C$DW$247       .dwtag  DW_TAG_member
    2990                      .dwattr $C$DW$247, DW_AT_type(*$C$DW$T$20)
    2991                      .dwattr $C$DW$247, DW_AT_name("SPIEMU")
    2992                      .dwattr $C$DW$247, DW_AT_TI_symbol_name("_SPIEMU")
    2993                      .dwattr $C$DW$247, DW_AT_data_member_location[DW_OP_plus_uconst 0x6]
    2994                      .dwattr $C$DW$247, DW_AT_accessibility(DW_ACCESS_public)
    2995              
    2996              $C$DW$248       .dwtag  DW_TAG_member
    2997                      .dwattr $C$DW$248, DW_AT_type(*$C$DW$T$20)
    2998                      .dwattr $C$DW$248, DW_AT_name("SPIRXBUF")
    2999                      .dwattr $C$DW$248, DW_AT_TI_symbol_name("_SPIRXBUF")
    3000                      .dwattr $C$DW$248, DW_AT_data_member_location[DW_OP_plus_uconst 0x7]
    3001                      .dwattr $C$DW$248, DW_AT_accessibility(DW_ACCESS_public)
    3002              
    3003              $C$DW$249       .dwtag  DW_TAG_member
    3004                      .dwattr $C$DW$249, DW_AT_type(*$C$DW$T$20)
    3005                      .dwattr $C$DW$249, DW_AT_name("SPITXBUF")
    3006                      .dwattr $C$DW$249, DW_AT_TI_symbol_name("_SPITXBUF")
    3007                      .dwattr $C$DW$249, DW_AT_data_member_location[DW_OP_plus_uconst 0x8]
    3008                      .dwattr $C$DW$249, DW_AT_accessibility(DW_ACCESS_public)
    3009              
    3010              $C$DW$250       .dwtag  DW_TAG_member
    3011                      .dwattr $C$DW$250, DW_AT_type(*$C$DW$T$20)
    3012                      .dwattr $C$DW$250, DW_AT_name("SPIDAT")
    3013                      .dwattr $C$DW$250, DW_AT_TI_symbol_name("_SPIDAT")
    3014                      .dwattr $C$DW$250, DW_AT_data_member_location[DW_OP_plus_uconst 0x9]
    3015                      .dwattr $C$DW$250, DW_AT_accessibility(DW_ACCESS_public)
    3016              
    3017              $C$DW$251       .dwtag  DW_TAG_member
    3018                      .dwattr $C$DW$251, DW_AT_type(*$C$DW$T$20)
    3019                      .dwattr $C$DW$251, DW_AT_name("SPIFFTX")
    3020                      .dwattr $C$DW$251, DW_AT_TI_symbol_name("_SPIFFTX")
    3021                      .dwattr $C$DW$251, DW_AT_data_member_location[DW_OP_plus_uconst 0xa]
    3022                      .dwattr $C$DW$251, DW_AT_accessibility(DW_ACCESS_public)
    3023              
    3024              $C$DW$252       .dwtag  DW_TAG_member
    3025                      .dwattr $C$DW$252, DW_AT_type(*$C$DW$T$20)
    3026                      .dwattr $C$DW$252, DW_AT_name("SPIFFRX")
    3027                      .dwattr $C$DW$252, DW_AT_TI_symbol_name("_SPIFFRX")
    3028                      .dwattr $C$DW$252, DW_AT_data_member_location[DW_OP_plus_uconst 0xb]
    3029                      .dwattr $C$DW$252, DW_AT_accessibility(DW_ACCESS_public)
    3030              
    3031              $C$DW$253       .dwtag  DW_TAG_member
    3032                      .dwattr $C$DW$253, DW_AT_type(*$C$DW$T$20)
    3033                      .dwattr $C$DW$253, DW_AT_name("SPIFFCT")
    3034                      .dwattr $C$DW$253, DW_AT_TI_symbol_name("_SPIFFCT")
    3035                      .dwattr $C$DW$253, DW_AT_data_member_location[DW_OP_plus_uconst 0xc]
    3036                      .dwattr $C$DW$253, DW_AT_accessibility(DW_ACCESS_public)
    3037              
    3038              $C$DW$254       .dwtag  DW_TAG_member
    3039                      .dwattr $C$DW$254, DW_AT_type(*$C$DW$T$21)
    3040                      .dwattr $C$DW$254, DW_AT_name("rsvd_3")
    3041                      .dwattr $C$DW$254, DW_AT_TI_symbol_name("_rsvd_3")
    3042                      .dwattr $C$DW$254, DW_AT_data_member_location[DW_OP_plus_uconst 0xd]
    3043                      .dwattr $C$DW$254, DW_AT_accessibility(DW_ACCESS_public)
TMS320C2000 Assembler PC v15.12.3 Tue Sep 20 20:30:11 2016

Tools Copyright (c) 1996-2015 Texas Instruments Incorporated
C:\Users\MaCHaDo\AppData\Local\Temp\2006010                          PAGE   57

    3044              
    3045              $C$DW$255       .dwtag  DW_TAG_member
    3046                      .dwattr $C$DW$255, DW_AT_type(*$C$DW$T$20)
    3047                      .dwattr $C$DW$255, DW_AT_name("SPIPRI")
    3048                      .dwattr $C$DW$255, DW_AT_TI_symbol_name("_SPIPRI")
    3049                      .dwattr $C$DW$255, DW_AT_data_member_location[DW_OP_plus_uconst 0xf]
    3050                      .dwattr $C$DW$255, DW_AT_accessibility(DW_ACCESS_public)
    3051              
    3052                      .dwendtag $C$DW$T$22
    3053              
    3054              $C$DW$T$67      .dwtag  DW_TAG_typedef
    3055                      .dwattr $C$DW$T$67, DW_AT_name("SPI_Obj")
    3056                      .dwattr $C$DW$T$67, DW_AT_type(*$C$DW$T$22)
    3057                      .dwattr $C$DW$T$67, DW_AT_language(DW_LANG_C)
    3058              
    3059              $C$DW$T$25      .dwtag  DW_TAG_pointer_type
    3060                      .dwattr $C$DW$T$25, DW_AT_type(*$C$DW$T$22)
    3061                      .dwattr $C$DW$T$25, DW_AT_address_class(0x20)
    3062              
    3063              $C$DW$T$26      .dwtag  DW_TAG_typedef
    3064                      .dwattr $C$DW$T$26, DW_AT_name("SPI_Handle")
    3065                      .dwattr $C$DW$T$26, DW_AT_type(*$C$DW$T$25)
    3066                      .dwattr $C$DW$T$26, DW_AT_language(DW_LANG_C)
    3067              
    3068              $C$DW$256       .dwtag  DW_TAG_TI_far_type
    3069                      .dwattr $C$DW$256, DW_AT_type(*$C$DW$T$26)
    3070              
    3071              $C$DW$T$68      .dwtag  DW_TAG_const_type
    3072                      .dwattr $C$DW$T$68, DW_AT_type(*$C$DW$256)
    3073              
    3074              $C$DW$T$2       .dwtag  DW_TAG_unspecified_type
    3075                      .dwattr $C$DW$T$2, DW_AT_name("void")
    3076              
    3077              $C$DW$T$3       .dwtag  DW_TAG_pointer_type
    3078                      .dwattr $C$DW$T$3, DW_AT_type(*$C$DW$T$2)
    3079                      .dwattr $C$DW$T$3, DW_AT_address_class(0x20)
    3080              
    3081              $C$DW$T$4       .dwtag  DW_TAG_base_type
    3082                      .dwattr $C$DW$T$4, DW_AT_encoding(DW_ATE_boolean)
    3083                      .dwattr $C$DW$T$4, DW_AT_name("bool")
    3084                      .dwattr $C$DW$T$4, DW_AT_byte_size(0x01)
    3085              
    3086              $C$DW$T$5       .dwtag  DW_TAG_base_type
    3087                      .dwattr $C$DW$T$5, DW_AT_encoding(DW_ATE_signed_char)
    3088                      .dwattr $C$DW$T$5, DW_AT_name("signed char")
    3089                      .dwattr $C$DW$T$5, DW_AT_byte_size(0x01)
    3090              
    3091              $C$DW$T$6       .dwtag  DW_TAG_base_type
    3092                      .dwattr $C$DW$T$6, DW_AT_encoding(DW_ATE_unsigned_char)
    3093                      .dwattr $C$DW$T$6, DW_AT_name("unsigned char")
    3094                      .dwattr $C$DW$T$6, DW_AT_byte_size(0x01)
    3095              
    3096              $C$DW$T$7       .dwtag  DW_TAG_base_type
    3097                      .dwattr $C$DW$T$7, DW_AT_encoding(DW_ATE_signed_char)
    3098                      .dwattr $C$DW$T$7, DW_AT_name("wchar_t")
TMS320C2000 Assembler PC v15.12.3 Tue Sep 20 20:30:11 2016

Tools Copyright (c) 1996-2015 Texas Instruments Incorporated
C:\Users\MaCHaDo\AppData\Local\Temp\2006010                          PAGE   58

    3099                      .dwattr $C$DW$T$7, DW_AT_byte_size(0x01)
    3100              
    3101              $C$DW$T$8       .dwtag  DW_TAG_base_type
    3102                      .dwattr $C$DW$T$8, DW_AT_encoding(DW_ATE_signed)
    3103                      .dwattr $C$DW$T$8, DW_AT_name("short")
    3104                      .dwattr $C$DW$T$8, DW_AT_byte_size(0x01)
    3105              
    3106              $C$DW$T$9       .dwtag  DW_TAG_base_type
    3107                      .dwattr $C$DW$T$9, DW_AT_encoding(DW_ATE_unsigned)
    3108                      .dwattr $C$DW$T$9, DW_AT_name("unsigned short")
    3109                      .dwattr $C$DW$T$9, DW_AT_byte_size(0x01)
    3110              
    3111              $C$DW$T$10      .dwtag  DW_TAG_base_type
    3112                      .dwattr $C$DW$T$10, DW_AT_encoding(DW_ATE_signed)
    3113                      .dwattr $C$DW$T$10, DW_AT_name("int")
    3114                      .dwattr $C$DW$T$10, DW_AT_byte_size(0x01)
    3115              
    3116              $C$DW$T$11      .dwtag  DW_TAG_base_type
    3117                      .dwattr $C$DW$T$11, DW_AT_encoding(DW_ATE_unsigned)
    3118                      .dwattr $C$DW$T$11, DW_AT_name("unsigned int")
    3119                      .dwattr $C$DW$T$11, DW_AT_byte_size(0x01)
    3120              
    3121              $C$DW$T$19      .dwtag  DW_TAG_typedef
    3122                      .dwattr $C$DW$T$19, DW_AT_name("uint16_t")
    3123                      .dwattr $C$DW$T$19, DW_AT_type(*$C$DW$T$11)
    3124                      .dwattr $C$DW$T$19, DW_AT_language(DW_LANG_C)
    3125              
    3126              $C$DW$257       .dwtag  DW_TAG_TI_far_type
    3127                      .dwattr $C$DW$257, DW_AT_type(*$C$DW$T$19)
    3128              
    3129              $C$DW$T$20      .dwtag  DW_TAG_volatile_type
    3130                      .dwattr $C$DW$T$20, DW_AT_type(*$C$DW$257)
    3131              
    3132              
    3133              $C$DW$T$21      .dwtag  DW_TAG_array_type
    3134                      .dwattr $C$DW$T$21, DW_AT_type(*$C$DW$T$20)
    3135                      .dwattr $C$DW$T$21, DW_AT_language(DW_LANG_C)
    3136                      .dwattr $C$DW$T$21, DW_AT_byte_size(0x02)
    3137              $C$DW$258       .dwtag  DW_TAG_subrange_type
    3138                      .dwattr $C$DW$258, DW_AT_upper_bound(0x01)
    3139              
    3140                      .dwendtag $C$DW$T$21
    3141              
    3142              $C$DW$T$86      .dwtag  DW_TAG_typedef
    3143                      .dwattr $C$DW$T$86, DW_AT_name("uint_least8_t")
    3144                      .dwattr $C$DW$T$86, DW_AT_type(*$C$DW$T$19)
    3145                      .dwattr $C$DW$T$86, DW_AT_language(DW_LANG_C)
    3146              
    3147              $C$DW$259       .dwtag  DW_TAG_TI_far_type
    3148                      .dwattr $C$DW$259, DW_AT_type(*$C$DW$T$86)
    3149              
    3150              $C$DW$T$87      .dwtag  DW_TAG_const_type
    3151                      .dwattr $C$DW$T$87, DW_AT_type(*$C$DW$259)
    3152              
    3153              $C$DW$T$12      .dwtag  DW_TAG_base_type
TMS320C2000 Assembler PC v15.12.3 Tue Sep 20 20:30:11 2016

Tools Copyright (c) 1996-2015 Texas Instruments Incorporated
C:\Users\MaCHaDo\AppData\Local\Temp\2006010                          PAGE   59

    3154                      .dwattr $C$DW$T$12, DW_AT_encoding(DW_ATE_signed)
    3155                      .dwattr $C$DW$T$12, DW_AT_name("long")
    3156                      .dwattr $C$DW$T$12, DW_AT_byte_size(0x02)
    3157              
    3158              $C$DW$T$13      .dwtag  DW_TAG_base_type
    3159                      .dwattr $C$DW$T$13, DW_AT_encoding(DW_ATE_unsigned)
    3160                      .dwattr $C$DW$T$13, DW_AT_name("unsigned long")
    3161                      .dwattr $C$DW$T$13, DW_AT_byte_size(0x02)
    3162              
    3163              $C$DW$T$69      .dwtag  DW_TAG_typedef
    3164                      .dwattr $C$DW$T$69, DW_AT_name("size_t")
    3165                      .dwattr $C$DW$T$69, DW_AT_type(*$C$DW$T$13)
    3166                      .dwattr $C$DW$T$69, DW_AT_language(DW_LANG_C)
    3167              
    3168              $C$DW$260       .dwtag  DW_TAG_TI_far_type
    3169                      .dwattr $C$DW$260, DW_AT_type(*$C$DW$T$69)
    3170              
    3171              $C$DW$T$70      .dwtag  DW_TAG_const_type
    3172                      .dwattr $C$DW$T$70, DW_AT_type(*$C$DW$260)
    3173              
    3174              $C$DW$T$14      .dwtag  DW_TAG_base_type
    3175                      .dwattr $C$DW$T$14, DW_AT_encoding(DW_ATE_signed)
    3176                      .dwattr $C$DW$T$14, DW_AT_name("long long")
    3177                      .dwattr $C$DW$T$14, DW_AT_byte_size(0x04)
    3178              
    3179              $C$DW$T$15      .dwtag  DW_TAG_base_type
    3180                      .dwattr $C$DW$T$15, DW_AT_encoding(DW_ATE_unsigned)
    3181                      .dwattr $C$DW$T$15, DW_AT_name("unsigned long long")
    3182                      .dwattr $C$DW$T$15, DW_AT_byte_size(0x04)
    3183              
    3184              $C$DW$T$16      .dwtag  DW_TAG_base_type
    3185                      .dwattr $C$DW$T$16, DW_AT_encoding(DW_ATE_float)
    3186                      .dwattr $C$DW$T$16, DW_AT_name("float")
    3187                      .dwattr $C$DW$T$16, DW_AT_byte_size(0x02)
    3188              
    3189              $C$DW$T$17      .dwtag  DW_TAG_base_type
    3190                      .dwattr $C$DW$T$17, DW_AT_encoding(DW_ATE_float)
    3191                      .dwattr $C$DW$T$17, DW_AT_name("double")
    3192                      .dwattr $C$DW$T$17, DW_AT_byte_size(0x02)
    3193              
    3194              $C$DW$T$18      .dwtag  DW_TAG_base_type
    3195                      .dwattr $C$DW$T$18, DW_AT_encoding(DW_ATE_float)
    3196                      .dwattr $C$DW$T$18, DW_AT_name("long double")
    3197                      .dwattr $C$DW$T$18, DW_AT_byte_size(0x04)
    3198              
    3199                      .dwattr $C$DW$CU, DW_AT_language(DW_LANG_C)
    3200              
    3201              ;***************************************************************
    3202              ;* DWARF CIE ENTRIES                                           *
    3203              ;***************************************************************
    3204              
    3205              $C$DW$CIE       .dwcie 26
    3206                      .dwcfi  cfa_register, 20
    3207                      .dwcfi  cfa_offset, 0
    3208                      .dwcfi  undefined, 0
TMS320C2000 Assembler PC v15.12.3 Tue Sep 20 20:30:11 2016

Tools Copyright (c) 1996-2015 Texas Instruments Incorporated
C:\Users\MaCHaDo\AppData\Local\Temp\2006010                          PAGE   60

    3209                      .dwcfi  undefined, 1
    3210                      .dwcfi  undefined, 2
    3211                      .dwcfi  undefined, 3
    3212                      .dwcfi  undefined, 20
    3213                      .dwcfi  undefined, 21
    3214                      .dwcfi  undefined, 22
    3215                      .dwcfi  undefined, 23
    3216                      .dwcfi  undefined, 24
    3217                      .dwcfi  undefined, 25
    3218                      .dwcfi  undefined, 26
    3219                      .dwcfi  same_value, 28
    3220                      .dwcfi  undefined, 29
    3221                      .dwcfi  undefined, 30
    3222                      .dwcfi  undefined, 31
    3223                      .dwcfi  undefined, 32
    3224                      .dwcfi  undefined, 33
    3225                      .dwcfi  undefined, 34
    3226                      .dwcfi  undefined, 35
    3227                      .dwcfi  undefined, 36
    3228                      .dwcfi  undefined, 37
    3229                      .dwcfi  undefined, 38
    3230                      .dwcfi  undefined, 75
    3231                      .dwcfi  undefined, 76
    3232                      .dwcfi  undefined, 77
    3233                      .dwcfi  undefined, 4
    3234                      .dwcfi  undefined, 5
    3235                      .dwcfi  same_value, 6
    3236                      .dwcfi  same_value, 7
    3237                      .dwcfi  same_value, 8
    3238                      .dwcfi  same_value, 9
    3239                      .dwcfi  same_value, 10
    3240                      .dwcfi  same_value, 11
    3241                      .dwcfi  undefined, 12
    3242                      .dwcfi  undefined, 13
    3243                      .dwcfi  undefined, 14
    3244                      .dwcfi  undefined, 15
    3245                      .dwcfi  undefined, 16
    3246                      .dwcfi  undefined, 17
    3247                      .dwcfi  undefined, 18
    3248                      .dwcfi  undefined, 19
    3249                      .dwendentry
    3250              
    3251              ;***************************************************************
    3252              ;* DWARF REGISTER MAP                                          *
    3253              ;***************************************************************
    3254              
    3255              $C$DW$261       .dwtag  DW_TAG_TI_assign_register
    3256                      .dwattr $C$DW$261, DW_AT_name("AL")
    3257                      .dwattr $C$DW$261, DW_AT_location[DW_OP_reg0]
    3258              
    3259              $C$DW$262       .dwtag  DW_TAG_TI_assign_register
    3260                      .dwattr $C$DW$262, DW_AT_name("AH")
    3261                      .dwattr $C$DW$262, DW_AT_location[DW_OP_reg1]
    3262              
    3263              $C$DW$263       .dwtag  DW_TAG_TI_assign_register
TMS320C2000 Assembler PC v15.12.3 Tue Sep 20 20:30:11 2016

Tools Copyright (c) 1996-2015 Texas Instruments Incorporated
C:\Users\MaCHaDo\AppData\Local\Temp\2006010                          PAGE   61

    3264                      .dwattr $C$DW$263, DW_AT_name("PL")
    3265                      .dwattr $C$DW$263, DW_AT_location[DW_OP_reg2]
    3266              
    3267              $C$DW$264       .dwtag  DW_TAG_TI_assign_register
    3268                      .dwattr $C$DW$264, DW_AT_name("PH")
    3269                      .dwattr $C$DW$264, DW_AT_location[DW_OP_reg3]
    3270              
    3271              $C$DW$265       .dwtag  DW_TAG_TI_assign_register
    3272                      .dwattr $C$DW$265, DW_AT_name("SP")
    3273                      .dwattr $C$DW$265, DW_AT_location[DW_OP_reg20]
    3274              
    3275              $C$DW$266       .dwtag  DW_TAG_TI_assign_register
    3276                      .dwattr $C$DW$266, DW_AT_name("XT")
    3277                      .dwattr $C$DW$266, DW_AT_location[DW_OP_reg21]
    3278              
    3279              $C$DW$267       .dwtag  DW_TAG_TI_assign_register
    3280                      .dwattr $C$DW$267, DW_AT_name("T")
    3281                      .dwattr $C$DW$267, DW_AT_location[DW_OP_reg22]
    3282              
    3283              $C$DW$268       .dwtag  DW_TAG_TI_assign_register
    3284                      .dwattr $C$DW$268, DW_AT_name("ST0")
    3285                      .dwattr $C$DW$268, DW_AT_location[DW_OP_reg23]
    3286              
    3287              $C$DW$269       .dwtag  DW_TAG_TI_assign_register
    3288                      .dwattr $C$DW$269, DW_AT_name("ST1")
    3289                      .dwattr $C$DW$269, DW_AT_location[DW_OP_reg24]
    3290              
    3291              $C$DW$270       .dwtag  DW_TAG_TI_assign_register
    3292                      .dwattr $C$DW$270, DW_AT_name("PC")
    3293                      .dwattr $C$DW$270, DW_AT_location[DW_OP_reg25]
    3294              
    3295              $C$DW$271       .dwtag  DW_TAG_TI_assign_register
    3296                      .dwattr $C$DW$271, DW_AT_name("RPC")
    3297                      .dwattr $C$DW$271, DW_AT_location[DW_OP_reg26]
    3298              
    3299              $C$DW$272       .dwtag  DW_TAG_TI_assign_register
    3300                      .dwattr $C$DW$272, DW_AT_name("FP")
    3301                      .dwattr $C$DW$272, DW_AT_location[DW_OP_reg28]
    3302              
    3303              $C$DW$273       .dwtag  DW_TAG_TI_assign_register
    3304                      .dwattr $C$DW$273, DW_AT_name("DP")
    3305                      .dwattr $C$DW$273, DW_AT_location[DW_OP_reg29]
    3306              
    3307              $C$DW$274       .dwtag  DW_TAG_TI_assign_register
    3308                      .dwattr $C$DW$274, DW_AT_name("SXM")
    3309                      .dwattr $C$DW$274, DW_AT_location[DW_OP_reg30]
    3310              
    3311              $C$DW$275       .dwtag  DW_TAG_TI_assign_register
    3312                      .dwattr $C$DW$275, DW_AT_name("PM")
    3313                      .dwattr $C$DW$275, DW_AT_location[DW_OP_reg31]
    3314              
    3315              $C$DW$276       .dwtag  DW_TAG_TI_assign_register
    3316                      .dwattr $C$DW$276, DW_AT_name("OVM")
    3317                      .dwattr $C$DW$276, DW_AT_location[DW_OP_regx 0x20]
    3318              
TMS320C2000 Assembler PC v15.12.3 Tue Sep 20 20:30:11 2016

Tools Copyright (c) 1996-2015 Texas Instruments Incorporated
C:\Users\MaCHaDo\AppData\Local\Temp\2006010                          PAGE   62

    3319              $C$DW$277       .dwtag  DW_TAG_TI_assign_register
    3320                      .dwattr $C$DW$277, DW_AT_name("PAGE0")
    3321                      .dwattr $C$DW$277, DW_AT_location[DW_OP_regx 0x21]
    3322              
    3323              $C$DW$278       .dwtag  DW_TAG_TI_assign_register
    3324                      .dwattr $C$DW$278, DW_AT_name("AMODE")
    3325                      .dwattr $C$DW$278, DW_AT_location[DW_OP_regx 0x22]
    3326              
    3327              $C$DW$279       .dwtag  DW_TAG_TI_assign_register
    3328                      .dwattr $C$DW$279, DW_AT_name("INTM")
    3329                      .dwattr $C$DW$279, DW_AT_location[DW_OP_regx 0x23]
    3330              
    3331              $C$DW$280       .dwtag  DW_TAG_TI_assign_register
    3332                      .dwattr $C$DW$280, DW_AT_name("IFR")
    3333                      .dwattr $C$DW$280, DW_AT_location[DW_OP_regx 0x24]
    3334              
    3335              $C$DW$281       .dwtag  DW_TAG_TI_assign_register
    3336                      .dwattr $C$DW$281, DW_AT_name("IER")
    3337                      .dwattr $C$DW$281, DW_AT_location[DW_OP_regx 0x25]
    3338              
    3339              $C$DW$282       .dwtag  DW_TAG_TI_assign_register
    3340                      .dwattr $C$DW$282, DW_AT_name("V")
    3341                      .dwattr $C$DW$282, DW_AT_location[DW_OP_regx 0x26]
    3342              
    3343              $C$DW$283       .dwtag  DW_TAG_TI_assign_register
    3344                      .dwattr $C$DW$283, DW_AT_name("PSEUDOH")
    3345                      .dwattr $C$DW$283, DW_AT_location[DW_OP_regx 0x4c]
    3346              
    3347              $C$DW$284       .dwtag  DW_TAG_TI_assign_register
    3348                      .dwattr $C$DW$284, DW_AT_name("VOL")
    3349                      .dwattr $C$DW$284, DW_AT_location[DW_OP_regx 0x4d]
    3350              
    3351              $C$DW$285       .dwtag  DW_TAG_TI_assign_register
    3352                      .dwattr $C$DW$285, DW_AT_name("AR0")
    3353                      .dwattr $C$DW$285, DW_AT_location[DW_OP_reg4]
    3354              
    3355              $C$DW$286       .dwtag  DW_TAG_TI_assign_register
    3356                      .dwattr $C$DW$286, DW_AT_name("XAR0")
    3357                      .dwattr $C$DW$286, DW_AT_location[DW_OP_reg5]
    3358              
    3359              $C$DW$287       .dwtag  DW_TAG_TI_assign_register
    3360                      .dwattr $C$DW$287, DW_AT_name("AR1")
    3361                      .dwattr $C$DW$287, DW_AT_location[DW_OP_reg6]
    3362              
    3363              $C$DW$288       .dwtag  DW_TAG_TI_assign_register
    3364                      .dwattr $C$DW$288, DW_AT_name("XAR1")
    3365                      .dwattr $C$DW$288, DW_AT_location[DW_OP_reg7]
    3366              
    3367              $C$DW$289       .dwtag  DW_TAG_TI_assign_register
    3368                      .dwattr $C$DW$289, DW_AT_name("AR2")
    3369                      .dwattr $C$DW$289, DW_AT_location[DW_OP_reg8]
    3370              
    3371              $C$DW$290       .dwtag  DW_TAG_TI_assign_register
    3372                      .dwattr $C$DW$290, DW_AT_name("XAR2")
    3373                      .dwattr $C$DW$290, DW_AT_location[DW_OP_reg9]
TMS320C2000 Assembler PC v15.12.3 Tue Sep 20 20:30:11 2016

Tools Copyright (c) 1996-2015 Texas Instruments Incorporated
C:\Users\MaCHaDo\AppData\Local\Temp\2006010                          PAGE   63

    3374              
    3375              $C$DW$291       .dwtag  DW_TAG_TI_assign_register
    3376                      .dwattr $C$DW$291, DW_AT_name("AR3")
    3377                      .dwattr $C$DW$291, DW_AT_location[DW_OP_reg10]
    3378              
    3379              $C$DW$292       .dwtag  DW_TAG_TI_assign_register
    3380                      .dwattr $C$DW$292, DW_AT_name("XAR3")
    3381                      .dwattr $C$DW$292, DW_AT_location[DW_OP_reg11]
    3382              
    3383              $C$DW$293       .dwtag  DW_TAG_TI_assign_register
    3384                      .dwattr $C$DW$293, DW_AT_name("AR4")
    3385                      .dwattr $C$DW$293, DW_AT_location[DW_OP_reg12]
    3386              
    3387              $C$DW$294       .dwtag  DW_TAG_TI_assign_register
    3388                      .dwattr $C$DW$294, DW_AT_name("XAR4")
    3389                      .dwattr $C$DW$294, DW_AT_location[DW_OP_reg13]
    3390              
    3391              $C$DW$295       .dwtag  DW_TAG_TI_assign_register
    3392                      .dwattr $C$DW$295, DW_AT_name("AR5")
    3393                      .dwattr $C$DW$295, DW_AT_location[DW_OP_reg14]
    3394              
    3395              $C$DW$296       .dwtag  DW_TAG_TI_assign_register
    3396                      .dwattr $C$DW$296, DW_AT_name("XAR5")
    3397                      .dwattr $C$DW$296, DW_AT_location[DW_OP_reg15]
    3398              
    3399              $C$DW$297       .dwtag  DW_TAG_TI_assign_register
    3400                      .dwattr $C$DW$297, DW_AT_name("AR6")
    3401                      .dwattr $C$DW$297, DW_AT_location[DW_OP_reg16]
    3402              
    3403              $C$DW$298       .dwtag  DW_TAG_TI_assign_register
    3404                      .dwattr $C$DW$298, DW_AT_name("XAR6")
    3405                      .dwattr $C$DW$298, DW_AT_location[DW_OP_reg17]
    3406              
    3407              $C$DW$299       .dwtag  DW_TAG_TI_assign_register
    3408                      .dwattr $C$DW$299, DW_AT_name("AR7")
    3409                      .dwattr $C$DW$299, DW_AT_location[DW_OP_reg18]
    3410              
    3411              $C$DW$300       .dwtag  DW_TAG_TI_assign_register
    3412                      .dwattr $C$DW$300, DW_AT_name("XAR7")
    3413                      .dwattr $C$DW$300, DW_AT_location[DW_OP_reg19]
    3414              
    3415                      .dwendtag $C$DW$CU
    3416              

No Assembly Errors, No Assembly Warnings
