TMS320C2000 Assembler PC v15.12.3 Tue Sep 20 20:30:12 2016

Tools Copyright (c) 1996-2015 Texas Instruments Incorporated
C:\Users\MaCHaDo\AppData\Local\Temp\2345210                          PAGE    1

       1              ;***************************************************************
       2              ;* TMS320C2000 C/C++ Codegen                   PC v15.12.3.LTS *
       3              ;* Date/Time created: Tue Sep 20 20:30:12 2016                 *
       4              ;***************************************************************
       5                      .compiler_opts --abi=coffabi --float_support=softlib --hll_source=on --mem_model:code=flat --mem_mode
       6        0002  FP      .set    XAR2
       7              
       8              $C$DW$CU        .dwtag  DW_TAG_compile_unit
       9                      .dwattr $C$DW$CU, DW_AT_name("../drivers/source/timer.c")
      10                      .dwattr $C$DW$CU, DW_AT_producer("TI TMS320C2000 C/C++ Codegen PC v15.12.3.LTS Copyright (c) 1996-201
      11                      .dwattr $C$DW$CU, DW_AT_TI_version(0x01)
      12                      .dwattr $C$DW$CU, DW_AT_comp_dir("D:\Users\MaCHaDo\Dropbox\Legstrong\drv8301\legstrong\LegStrong\Debu
      13              ;       C:\ti\ccsv6\tools\compiler\c2000_15.12.3.LTS\bin\opt2000.exe C:\\Users\\MaCHaDo\\AppData\\Local\\Temp
      14              ;       C:\ti\ccsv6\tools\compiler\c2000_15.12.3.LTS\bin\ac2000.exe -@C:\\Users\\MaCHaDo\\AppData\\Local\\Tem
      15 00000000               .sect   ".text"
      16                      .clink
      17                      .global _TIMER_setPreScaler
      18              
      19              $C$DW$1 .dwtag  DW_TAG_subprogram
      20                      .dwattr $C$DW$1, DW_AT_name("TIMER_setPreScaler")
      21                      .dwattr $C$DW$1, DW_AT_low_pc(_TIMER_setPreScaler)
      22                      .dwattr $C$DW$1, DW_AT_high_pc(0x00)
      23                      .dwattr $C$DW$1, DW_AT_TI_symbol_name("_TIMER_setPreScaler")
      24                      .dwattr $C$DW$1, DW_AT_external
      25                      .dwattr $C$DW$1, DW_AT_TI_begin_file("../drivers/source/timer.c")
      26                      .dwattr $C$DW$1, DW_AT_TI_begin_line(0x94)
      27                      .dwattr $C$DW$1, DW_AT_TI_begin_column(0x06)
      28                      .dwattr $C$DW$1, DW_AT_TI_max_frame_size(-2)
      29                      .dwpsn  file "../drivers/source/timer.c",line 150,column 1,is_stmt,address _TIMER_setPreScaler,isa 0
      30              
      31                      .dwfde $C$DW$CIE, _TIMER_setPreScaler
      32              $C$DW$2 .dwtag  DW_TAG_formal_parameter
      33                      .dwattr $C$DW$2, DW_AT_name("timerHandle")
      34                      .dwattr $C$DW$2, DW_AT_TI_symbol_name("_timerHandle")
      35                      .dwattr $C$DW$2, DW_AT_type(*$C$DW$T$27)
      36                      .dwattr $C$DW$2, DW_AT_location[DW_OP_reg12]
      37              
      38              $C$DW$3 .dwtag  DW_TAG_formal_parameter
      39                      .dwattr $C$DW$3, DW_AT_name("preScaler")
      40                      .dwattr $C$DW$3, DW_AT_TI_symbol_name("_preScaler")
      41                      .dwattr $C$DW$3, DW_AT_type(*$C$DW$T$42)
      42                      .dwattr $C$DW$3, DW_AT_location[DW_OP_reg0]
      43              
      44              
      45              ;***************************************************************
      46              ;* FNAME: _TIMER_setPreScaler           FR SIZE:   0           *
      47              ;*                                                             *
      48              ;* FUNCTION ENVIRONMENT                                        *
      49              ;*                                                             *
      50              ;* FUNCTION PROPERTIES                                         *
      51              ;*                            0 Parameter,  0 Auto,  0 SOE     *
      52              ;***************************************************************
      53              
      54              _TIMER_setPreScaler:
      55              ;* AR4   assigned to _timerHandle
TMS320C2000 Assembler PC v15.12.3 Tue Sep 20 20:30:12 2016

Tools Copyright (c) 1996-2015 Texas Instruments Incorporated
C:\Users\MaCHaDo\AppData\Local\Temp\2345210                          PAGE    2

      56              $C$DW$4 .dwtag  DW_TAG_variable
      57                      .dwattr $C$DW$4, DW_AT_name("timerHandle")
      58                      .dwattr $C$DW$4, DW_AT_TI_symbol_name("_timerHandle")
      59                      .dwattr $C$DW$4, DW_AT_type(*$C$DW$T$34)
      60                      .dwattr $C$DW$4, DW_AT_location[DW_OP_reg12]
      61              
      62              ;* AR6   assigned to _preScaler
      63              $C$DW$5 .dwtag  DW_TAG_variable
      64                      .dwattr $C$DW$5, DW_AT_name("preScaler")
      65                      .dwattr $C$DW$5, DW_AT_TI_symbol_name("_preScaler")
      66                      .dwattr $C$DW$5, DW_AT_type(*$C$DW$T$42)
      67                      .dwattr $C$DW$5, DW_AT_location[DW_OP_reg16]
      68              
      69                      .dwcfi  cfa_offset, -2
      70                      .dwcfi  save_reg_to_mem, 26, 0
      71 00000000 88A9          MOVZ      AR6,AL                ; [CPU_] |150| 
      72 00000001 2901          CLRC      SXM                   ; [CPU_] 
      73                      .dwpsn  file "../drivers/source/timer.c",line 155,column 5,is_stmt,isa 0
      74 00000002 CDA6          AND       AH,AR6,#0xff00        ; [CPU_] |155| 
         00000003 FF00 
      75 00000004 5603          MOV       ACC,AH << 8           ; [CPU_] |155| 
         00000005 08A8 
      76 00000006 1EA7          MOVL      XAR7,ACC              ; [CPU_] |155| 
      77 00000007 CCA6          AND       AL,AR6,#0x00ff        ; [CPU_] |155| 
         00000008 00FF 
      78 00000009 88A9          MOVZ      AR6,AL                ; [CPU_] |155| 
      79 0000000a 06A7          MOVL      ACC,XAR7              ; [CPU_] |155| 
      80 0000000b AFA6          OR        ACC,AR6               ; [CPU_] |155| 
      81 0000000c 1EF4          MOVL      *+XAR4[6],ACC         ; [CPU_] |155| 
      82              $C$DW$6 .dwtag  DW_TAG_TI_branch
      83                      .dwattr $C$DW$6, DW_AT_low_pc(0x00)
      84                      .dwattr $C$DW$6, DW_AT_TI_return
      85              
      86 0000000d 0006          LRETR     ; [CPU_] 
      87                      ; return occurs ; [] 
      88                      .dwattr $C$DW$1, DW_AT_TI_end_file("../drivers/source/timer.c")
      89                      .dwattr $C$DW$1, DW_AT_TI_end_line(0x9f)
      90                      .dwattr $C$DW$1, DW_AT_TI_end_column(0x01)
      91                      .dwendentry
      92                      .dwendtag $C$DW$1
      93              
      94 0000000e               .sect   ".text"
      95                      .clink
      96                      .global _TIMER_setEmulationMode
      97              
      98              $C$DW$7 .dwtag  DW_TAG_subprogram
      99                      .dwattr $C$DW$7, DW_AT_name("TIMER_setEmulationMode")
     100                      .dwattr $C$DW$7, DW_AT_low_pc(_TIMER_setEmulationMode)
     101                      .dwattr $C$DW$7, DW_AT_high_pc(0x00)
     102                      .dwattr $C$DW$7, DW_AT_TI_symbol_name("_TIMER_setEmulationMode")
     103                      .dwattr $C$DW$7, DW_AT_external
     104                      .dwattr $C$DW$7, DW_AT_TI_begin_file("../drivers/source/timer.c")
     105                      .dwattr $C$DW$7, DW_AT_TI_begin_line(0x84)
     106                      .dwattr $C$DW$7, DW_AT_TI_begin_column(0x06)
     107                      .dwattr $C$DW$7, DW_AT_TI_max_frame_size(-2)
TMS320C2000 Assembler PC v15.12.3 Tue Sep 20 20:30:12 2016

Tools Copyright (c) 1996-2015 Texas Instruments Incorporated
C:\Users\MaCHaDo\AppData\Local\Temp\2345210                          PAGE    3

     108                      .dwpsn  file "../drivers/source/timer.c",line 134,column 1,is_stmt,address _TIMER_setEmulationMode,is
     109              
     110                      .dwfde $C$DW$CIE, _TIMER_setEmulationMode
     111              $C$DW$8 .dwtag  DW_TAG_formal_parameter
     112                      .dwattr $C$DW$8, DW_AT_name("timerHandle")
     113                      .dwattr $C$DW$8, DW_AT_TI_symbol_name("_timerHandle")
     114                      .dwattr $C$DW$8, DW_AT_type(*$C$DW$T$27)
     115                      .dwattr $C$DW$8, DW_AT_location[DW_OP_reg12]
     116              
     117              $C$DW$9 .dwtag  DW_TAG_formal_parameter
     118                      .dwattr $C$DW$9, DW_AT_name("mode")
     119                      .dwattr $C$DW$9, DW_AT_TI_symbol_name("_mode")
     120                      .dwattr $C$DW$9, DW_AT_type(*$C$DW$T$32)
     121                      .dwattr $C$DW$9, DW_AT_location[DW_OP_reg0]
     122              
     123              
     124              ;***************************************************************
     125              ;* FNAME: _TIMER_setEmulationMode       FR SIZE:   0           *
     126              ;*                                                             *
     127              ;* FUNCTION ENVIRONMENT                                        *
     128              ;*                                                             *
     129              ;* FUNCTION PROPERTIES                                         *
     130              ;*                            0 Parameter,  0 Auto,  0 SOE     *
     131              ;***************************************************************
     132              
     133              _TIMER_setEmulationMode:
     134              ;* AR4   assigned to _timerHandle
     135              $C$DW$10        .dwtag  DW_TAG_variable
     136                      .dwattr $C$DW$10, DW_AT_name("timerHandle")
     137                      .dwattr $C$DW$10, DW_AT_TI_symbol_name("_timerHandle")
     138                      .dwattr $C$DW$10, DW_AT_type(*$C$DW$T$34)
     139                      .dwattr $C$DW$10, DW_AT_location[DW_OP_reg12]
     140              
     141              ;* AL    assigned to _mode
     142              $C$DW$11        .dwtag  DW_TAG_variable
     143                      .dwattr $C$DW$11, DW_AT_name("mode")
     144                      .dwattr $C$DW$11, DW_AT_TI_symbol_name("_mode")
     145                      .dwattr $C$DW$11, DW_AT_type(*$C$DW$T$32)
     146                      .dwattr $C$DW$11, DW_AT_location[DW_OP_reg0]
     147              
     148                      .dwcfi  cfa_offset, -2
     149                      .dwcfi  save_reg_to_mem, 26, 0
     150                      .dwpsn  file "../drivers/source/timer.c",line 139,column 5,is_stmt,isa 0
     151 0000000e 18E4          AND       *+XAR4[4],#0xf3ff     ; [CPU_] |139| 
         0000000f F3FF 
     152                      .dwpsn  file "../drivers/source/timer.c",line 142,column 5,is_stmt,isa 0
     153 00000010 98E4          OR        *+XAR4[4],AL          ; [CPU_] |142| 
     154              $C$DW$12        .dwtag  DW_TAG_TI_branch
     155                      .dwattr $C$DW$12, DW_AT_low_pc(0x00)
     156                      .dwattr $C$DW$12, DW_AT_TI_return
     157              
     158 00000011 0006          LRETR     ; [CPU_] 
     159                      ; return occurs ; [] 
     160                      .dwattr $C$DW$7, DW_AT_TI_end_file("../drivers/source/timer.c")
     161                      .dwattr $C$DW$7, DW_AT_TI_end_line(0x91)
TMS320C2000 Assembler PC v15.12.3 Tue Sep 20 20:30:12 2016

Tools Copyright (c) 1996-2015 Texas Instruments Incorporated
C:\Users\MaCHaDo\AppData\Local\Temp\2345210                          PAGE    4

     162                      .dwattr $C$DW$7, DW_AT_TI_end_column(0x01)
     163                      .dwendentry
     164                      .dwendtag $C$DW$7
     165              
     166 00000012               .sect   ".text"
     167                      .clink
     168                      .global _TIMER_setDecimationFactor
     169              
     170              $C$DW$13        .dwtag  DW_TAG_subprogram
     171                      .dwattr $C$DW$13, DW_AT_name("TIMER_setDecimationFactor")
     172                      .dwattr $C$DW$13, DW_AT_low_pc(_TIMER_setDecimationFactor)
     173                      .dwattr $C$DW$13, DW_AT_high_pc(0x00)
     174                      .dwattr $C$DW$13, DW_AT_TI_symbol_name("_TIMER_setDecimationFactor")
     175                      .dwattr $C$DW$13, DW_AT_external
     176                      .dwattr $C$DW$13, DW_AT_TI_begin_file("../drivers/source/timer.c")
     177                      .dwattr $C$DW$13, DW_AT_TI_begin_line(0x76)
     178                      .dwattr $C$DW$13, DW_AT_TI_begin_column(0x06)
     179                      .dwattr $C$DW$13, DW_AT_TI_max_frame_size(-2)
     180                      .dwpsn  file "../drivers/source/timer.c",line 120,column 1,is_stmt,address _TIMER_setDecimationFactor
     181              
     182                      .dwfde $C$DW$CIE, _TIMER_setDecimationFactor
     183              $C$DW$14        .dwtag  DW_TAG_formal_parameter
     184                      .dwattr $C$DW$14, DW_AT_name("timerHandle")
     185                      .dwattr $C$DW$14, DW_AT_TI_symbol_name("_timerHandle")
     186                      .dwattr $C$DW$14, DW_AT_type(*$C$DW$T$27)
     187                      .dwattr $C$DW$14, DW_AT_location[DW_OP_reg12]
     188              
     189              $C$DW$15        .dwtag  DW_TAG_formal_parameter
     190                      .dwattr $C$DW$15, DW_AT_name("decFactor")
     191                      .dwattr $C$DW$15, DW_AT_TI_symbol_name("_decFactor")
     192                      .dwattr $C$DW$15, DW_AT_type(*$C$DW$T$42)
     193                      .dwattr $C$DW$15, DW_AT_location[DW_OP_reg0]
     194              
     195              
     196              ;***************************************************************
     197              ;* FNAME: _TIMER_setDecimationFactor    FR SIZE:   0           *
     198              ;*                                                             *
     199              ;* FUNCTION ENVIRONMENT                                        *
     200              ;*                                                             *
     201              ;* FUNCTION PROPERTIES                                         *
     202              ;*                            0 Parameter,  0 Auto,  0 SOE     *
     203              ;***************************************************************
     204              
     205              _TIMER_setDecimationFactor:
     206              ;* AR4   assigned to _timerHandle
     207              $C$DW$16        .dwtag  DW_TAG_variable
     208                      .dwattr $C$DW$16, DW_AT_name("timerHandle")
     209                      .dwattr $C$DW$16, DW_AT_TI_symbol_name("_timerHandle")
     210                      .dwattr $C$DW$16, DW_AT_type(*$C$DW$T$34)
     211                      .dwattr $C$DW$16, DW_AT_location[DW_OP_reg12]
     212              
     213              ;* AR6   assigned to _decFactor
     214              $C$DW$17        .dwtag  DW_TAG_variable
     215                      .dwattr $C$DW$17, DW_AT_name("decFactor")
     216                      .dwattr $C$DW$17, DW_AT_TI_symbol_name("_decFactor")
TMS320C2000 Assembler PC v15.12.3 Tue Sep 20 20:30:12 2016

Tools Copyright (c) 1996-2015 Texas Instruments Incorporated
C:\Users\MaCHaDo\AppData\Local\Temp\2345210                          PAGE    5

     217                      .dwattr $C$DW$17, DW_AT_type(*$C$DW$T$42)
     218                      .dwattr $C$DW$17, DW_AT_location[DW_OP_reg16]
     219              
     220                      .dwcfi  cfa_offset, -2
     221                      .dwcfi  save_reg_to_mem, 26, 0
     222 00000012 88A9          MOVZ      AR6,AL                ; [CPU_] |120| 
     223 00000013 2901          CLRC      SXM                   ; [CPU_] 
     224                      .dwpsn  file "../drivers/source/timer.c",line 125,column 5,is_stmt,isa 0
     225 00000014 CDA6          AND       AH,AR6,#0xff00        ; [CPU_] |125| 
         00000015 FF00 
     226 00000016 5603          MOV       ACC,AH << 8           ; [CPU_] |125| 
         00000017 08A8 
     227 00000018 1EA7          MOVL      XAR7,ACC              ; [CPU_] |125| 
     228 00000019 CCA6          AND       AL,AR6,#0x00ff        ; [CPU_] |125| 
         0000001a 00FF 
     229 0000001b 88A9          MOVZ      AR6,AL                ; [CPU_] |125| 
     230 0000001c 06A7          MOVL      ACC,XAR7              ; [CPU_] |125| 
     231 0000001d AFA6          OR        ACC,AR6               ; [CPU_] |125| 
     232 0000001e 1EF4          MOVL      *+XAR4[6],ACC         ; [CPU_] |125| 
     233              $C$DW$18        .dwtag  DW_TAG_TI_branch
     234                      .dwattr $C$DW$18, DW_AT_low_pc(0x00)
     235                      .dwattr $C$DW$18, DW_AT_TI_return
     236              
     237 0000001f 0006          LRETR     ; [CPU_] 
     238                      ; return occurs ; [] 
     239                      .dwattr $C$DW$13, DW_AT_TI_end_file("../drivers/source/timer.c")
     240                      .dwattr $C$DW$13, DW_AT_TI_end_line(0x81)
     241                      .dwattr $C$DW$13, DW_AT_TI_end_column(0x01)
     242                      .dwendentry
     243                      .dwendtag $C$DW$13
     244              
     245 00000020               .sect   ".text"
     246                      .clink
     247                      .global _TIMER_init
     248              
     249              $C$DW$19        .dwtag  DW_TAG_subprogram
     250                      .dwattr $C$DW$19, DW_AT_name("TIMER_init")
     251                      .dwattr $C$DW$19, DW_AT_low_pc(_TIMER_init)
     252                      .dwattr $C$DW$19, DW_AT_high_pc(0x00)
     253                      .dwattr $C$DW$19, DW_AT_TI_symbol_name("_TIMER_init")
     254                      .dwattr $C$DW$19, DW_AT_external
     255                      .dwattr $C$DW$19, DW_AT_type(*$C$DW$T$27)
     256                      .dwattr $C$DW$19, DW_AT_TI_begin_file("../drivers/source/timer.c")
     257                      .dwattr $C$DW$19, DW_AT_TI_begin_line(0x67)
     258                      .dwattr $C$DW$19, DW_AT_TI_begin_column(0x0e)
     259                      .dwattr $C$DW$19, DW_AT_TI_max_frame_size(-2)
     260                      .dwpsn  file "../drivers/source/timer.c",line 104,column 1,is_stmt,address _TIMER_init,isa 0
     261              
     262                      .dwfde $C$DW$CIE, _TIMER_init
     263              $C$DW$20        .dwtag  DW_TAG_formal_parameter
     264                      .dwattr $C$DW$20, DW_AT_name("pMemory")
     265                      .dwattr $C$DW$20, DW_AT_TI_symbol_name("_pMemory")
     266                      .dwattr $C$DW$20, DW_AT_type(*$C$DW$T$3)
     267                      .dwattr $C$DW$20, DW_AT_location[DW_OP_reg12]
     268              
TMS320C2000 Assembler PC v15.12.3 Tue Sep 20 20:30:12 2016

Tools Copyright (c) 1996-2015 Texas Instruments Incorporated
C:\Users\MaCHaDo\AppData\Local\Temp\2345210                          PAGE    6

     269              $C$DW$21        .dwtag  DW_TAG_formal_parameter
     270                      .dwattr $C$DW$21, DW_AT_name("numBytes")
     271                      .dwattr $C$DW$21, DW_AT_TI_symbol_name("_numBytes")
     272                      .dwattr $C$DW$21, DW_AT_type(*$C$DW$T$36)
     273                      .dwattr $C$DW$21, DW_AT_location[DW_OP_reg0]
     274              
     275              
     276              ;***************************************************************
     277              ;* FNAME: _TIMER_init                   FR SIZE:   0           *
     278              ;*                                                             *
     279              ;* FUNCTION ENVIRONMENT                                        *
     280              ;*                                                             *
     281              ;* FUNCTION PROPERTIES                                         *
     282              ;*                            0 Parameter,  0 Auto,  0 SOE     *
     283              ;***************************************************************
     284              
     285              _TIMER_init:
     286              ;* AR6   assigned to _numBytes
     287              $C$DW$22        .dwtag  DW_TAG_variable
     288                      .dwattr $C$DW$22, DW_AT_name("numBytes")
     289                      .dwattr $C$DW$22, DW_AT_TI_symbol_name("_numBytes")
     290                      .dwattr $C$DW$22, DW_AT_type(*$C$DW$T$36)
     291                      .dwattr $C$DW$22, DW_AT_location[DW_OP_reg16]
     292              
     293                      .dwcfi  cfa_offset, -2
     294                      .dwcfi  save_reg_to_mem, 26, 0
     295 00000020 1EA6          MOVL      XAR6,ACC              ; [CPU_] |104| 
     296                      .dwpsn  file "../drivers/source/timer.c",line 109,column 5,is_stmt,isa 0
     297 00000021 0208          MOVB      ACC,#8                ; [CPU_] |109| 
     298 00000022 0FA6          CMPL      ACC,XAR6              ; [CPU_] |109| 
     299 00000023 6902          B         $C$L1,LOS             ; [CPU_] |109| 
     300                      ; branchcc occurs ; [] |109| 
     301 00000024 D400          MOVB      XAR4,#0               ; [CPU_] |109| 
     302              $C$L1:    
     303              $C$DW$23        .dwtag  DW_TAG_TI_branch
     304                      .dwattr $C$DW$23, DW_AT_low_pc(0x00)
     305                      .dwattr $C$DW$23, DW_AT_TI_return
     306              
     307 00000025 0006          LRETR     ; [CPU_] 
     308                      ; return occurs ; [] 
     309                      .dwattr $C$DW$19, DW_AT_TI_end_file("../drivers/source/timer.c")
     310                      .dwattr $C$DW$19, DW_AT_TI_end_line(0x73)
     311                      .dwattr $C$DW$19, DW_AT_TI_end_column(0x01)
     312                      .dwendentry
     313                      .dwendtag $C$DW$19
     314              
     315 00000026               .sect   ".text"
     316                      .clink
     317                      .global _TIMER_getStatus
     318              
     319              $C$DW$24        .dwtag  DW_TAG_subprogram
     320                      .dwattr $C$DW$24, DW_AT_name("TIMER_getStatus")
     321                      .dwattr $C$DW$24, DW_AT_low_pc(_TIMER_getStatus)
     322                      .dwattr $C$DW$24, DW_AT_high_pc(0x00)
     323                      .dwattr $C$DW$24, DW_AT_TI_symbol_name("_TIMER_getStatus")
TMS320C2000 Assembler PC v15.12.3 Tue Sep 20 20:30:12 2016

Tools Copyright (c) 1996-2015 Texas Instruments Incorporated
C:\Users\MaCHaDo\AppData\Local\Temp\2345210                          PAGE    7

     324                      .dwattr $C$DW$24, DW_AT_external
     325                      .dwattr $C$DW$24, DW_AT_type(*$C$DW$T$25)
     326                      .dwattr $C$DW$24, DW_AT_TI_begin_file("../drivers/source/timer.c")
     327                      .dwattr $C$DW$24, DW_AT_TI_begin_line(0x5b)
     328                      .dwattr $C$DW$24, DW_AT_TI_begin_column(0x10)
     329                      .dwattr $C$DW$24, DW_AT_TI_max_frame_size(-2)
     330                      .dwpsn  file "../drivers/source/timer.c",line 92,column 1,is_stmt,address _TIMER_getStatus,isa 0
     331              
     332                      .dwfde $C$DW$CIE, _TIMER_getStatus
     333              $C$DW$25        .dwtag  DW_TAG_formal_parameter
     334                      .dwattr $C$DW$25, DW_AT_name("timerHandle")
     335                      .dwattr $C$DW$25, DW_AT_TI_symbol_name("_timerHandle")
     336                      .dwattr $C$DW$25, DW_AT_type(*$C$DW$T$27)
     337                      .dwattr $C$DW$25, DW_AT_location[DW_OP_reg12]
     338              
     339              
     340              ;***************************************************************
     341              ;* FNAME: _TIMER_getStatus              FR SIZE:   0           *
     342              ;*                                                             *
     343              ;* FUNCTION ENVIRONMENT                                        *
     344              ;*                                                             *
     345              ;* FUNCTION PROPERTIES                                         *
     346              ;*                            0 Parameter,  0 Auto,  0 SOE     *
     347              ;***************************************************************
     348              
     349              _TIMER_getStatus:
     350              ;* AR4   assigned to _timerHandle
     351              $C$DW$26        .dwtag  DW_TAG_variable
     352                      .dwattr $C$DW$26, DW_AT_name("timerHandle")
     353                      .dwattr $C$DW$26, DW_AT_TI_symbol_name("_timerHandle")
     354                      .dwattr $C$DW$26, DW_AT_type(*$C$DW$T$34)
     355                      .dwattr $C$DW$26, DW_AT_location[DW_OP_reg12]
     356              
     357              ;* AL    assigned to _status
     358              $C$DW$27        .dwtag  DW_TAG_variable
     359                      .dwattr $C$DW$27, DW_AT_name("status")
     360                      .dwattr $C$DW$27, DW_AT_TI_symbol_name("_status")
     361                      .dwattr $C$DW$27, DW_AT_type(*$C$DW$T$25)
     362                      .dwattr $C$DW$27, DW_AT_location[DW_OP_reg0]
     363              
     364                      .dwcfi  cfa_offset, -2
     365                      .dwcfi  save_reg_to_mem, 26, 0
     366                      .dwpsn  file "../drivers/source/timer.c",line 97,column 27,is_stmt,isa 0
     367 00000026 CCE4          AND       AL,*+XAR4[4],#0x8000  ; [CPU_] |97| 
         00000027 8000 
     368              $C$DW$28        .dwtag  DW_TAG_TI_branch
     369                      .dwattr $C$DW$28, DW_AT_low_pc(0x00)
     370                      .dwattr $C$DW$28, DW_AT_TI_return
     371              
     372 00000028 0006          LRETR     ; [CPU_] 
     373                      ; return occurs ; [] 
     374                      .dwattr $C$DW$24, DW_AT_TI_end_file("../drivers/source/timer.c")
     375                      .dwattr $C$DW$24, DW_AT_TI_end_line(0x64)
     376                      .dwattr $C$DW$24, DW_AT_TI_end_column(0x01)
     377                      .dwendentry
TMS320C2000 Assembler PC v15.12.3 Tue Sep 20 20:30:12 2016

Tools Copyright (c) 1996-2015 Texas Instruments Incorporated
C:\Users\MaCHaDo\AppData\Local\Temp\2345210                          PAGE    8

     378                      .dwendtag $C$DW$24
     379              
     380 00000029               .sect   ".text"
     381                      .clink
     382                      .global _TIMER_enableInt
     383              
     384              $C$DW$29        .dwtag  DW_TAG_subprogram
     385                      .dwattr $C$DW$29, DW_AT_name("TIMER_enableInt")
     386                      .dwattr $C$DW$29, DW_AT_low_pc(_TIMER_enableInt)
     387                      .dwattr $C$DW$29, DW_AT_high_pc(0x00)
     388                      .dwattr $C$DW$29, DW_AT_TI_symbol_name("_TIMER_enableInt")
     389                      .dwattr $C$DW$29, DW_AT_external
     390                      .dwattr $C$DW$29, DW_AT_TI_begin_file("../drivers/source/timer.c")
     391                      .dwattr $C$DW$29, DW_AT_TI_begin_line(0x4f)
     392                      .dwattr $C$DW$29, DW_AT_TI_begin_column(0x06)
     393                      .dwattr $C$DW$29, DW_AT_TI_max_frame_size(-2)
     394                      .dwpsn  file "../drivers/source/timer.c",line 80,column 1,is_stmt,address _TIMER_enableInt,isa 0
     395              
     396                      .dwfde $C$DW$CIE, _TIMER_enableInt
     397              $C$DW$30        .dwtag  DW_TAG_formal_parameter
     398                      .dwattr $C$DW$30, DW_AT_name("timerHandle")
     399                      .dwattr $C$DW$30, DW_AT_TI_symbol_name("_timerHandle")
     400                      .dwattr $C$DW$30, DW_AT_type(*$C$DW$T$27)
     401                      .dwattr $C$DW$30, DW_AT_location[DW_OP_reg12]
     402              
     403              
     404              ;***************************************************************
     405              ;* FNAME: _TIMER_enableInt              FR SIZE:   0           *
     406              ;*                                                             *
     407              ;* FUNCTION ENVIRONMENT                                        *
     408              ;*                                                             *
     409              ;* FUNCTION PROPERTIES                                         *
     410              ;*                            0 Parameter,  0 Auto,  0 SOE     *
     411              ;***************************************************************
     412              
     413              _TIMER_enableInt:
     414              ;* AR4   assigned to _timerHandle
     415              $C$DW$31        .dwtag  DW_TAG_variable
     416                      .dwattr $C$DW$31, DW_AT_name("timerHandle")
     417                      .dwattr $C$DW$31, DW_AT_TI_symbol_name("_timerHandle")
     418                      .dwattr $C$DW$31, DW_AT_type(*$C$DW$T$34)
     419                      .dwattr $C$DW$31, DW_AT_location[DW_OP_reg12]
     420              
     421                      .dwcfi  cfa_offset, -2
     422                      .dwcfi  save_reg_to_mem, 26, 0
     423                      .dwpsn  file "../drivers/source/timer.c",line 85,column 5,is_stmt,isa 0
     424 00000029 1AE4          OR        *+XAR4[4],#0x4000     ; [CPU_] |85| 
         0000002a 4000 
     425              $C$DW$32        .dwtag  DW_TAG_TI_branch
     426                      .dwattr $C$DW$32, DW_AT_low_pc(0x00)
     427                      .dwattr $C$DW$32, DW_AT_TI_return
     428              
     429 0000002b 0006          LRETR     ; [CPU_] 
     430                      ; return occurs ; [] 
     431                      .dwattr $C$DW$29, DW_AT_TI_end_file("../drivers/source/timer.c")
TMS320C2000 Assembler PC v15.12.3 Tue Sep 20 20:30:12 2016

Tools Copyright (c) 1996-2015 Texas Instruments Incorporated
C:\Users\MaCHaDo\AppData\Local\Temp\2345210                          PAGE    9

     432                      .dwattr $C$DW$29, DW_AT_TI_end_line(0x58)
     433                      .dwattr $C$DW$29, DW_AT_TI_end_column(0x01)
     434                      .dwendentry
     435                      .dwendtag $C$DW$29
     436              
     437 0000002c               .sect   ".text"
     438                      .clink
     439                      .global _TIMER_disableInt
     440              
     441              $C$DW$33        .dwtag  DW_TAG_subprogram
     442                      .dwattr $C$DW$33, DW_AT_name("TIMER_disableInt")
     443                      .dwattr $C$DW$33, DW_AT_low_pc(_TIMER_disableInt)
     444                      .dwattr $C$DW$33, DW_AT_high_pc(0x00)
     445                      .dwattr $C$DW$33, DW_AT_TI_symbol_name("_TIMER_disableInt")
     446                      .dwattr $C$DW$33, DW_AT_external
     447                      .dwattr $C$DW$33, DW_AT_TI_begin_file("../drivers/source/timer.c")
     448                      .dwattr $C$DW$33, DW_AT_TI_begin_line(0x43)
     449                      .dwattr $C$DW$33, DW_AT_TI_begin_column(0x06)
     450                      .dwattr $C$DW$33, DW_AT_TI_max_frame_size(-2)
     451                      .dwpsn  file "../drivers/source/timer.c",line 68,column 1,is_stmt,address _TIMER_disableInt,isa 0
     452              
     453                      .dwfde $C$DW$CIE, _TIMER_disableInt
     454              $C$DW$34        .dwtag  DW_TAG_formal_parameter
     455                      .dwattr $C$DW$34, DW_AT_name("timerHandle")
     456                      .dwattr $C$DW$34, DW_AT_TI_symbol_name("_timerHandle")
     457                      .dwattr $C$DW$34, DW_AT_type(*$C$DW$T$27)
     458                      .dwattr $C$DW$34, DW_AT_location[DW_OP_reg12]
     459              
     460              
     461              ;***************************************************************
     462              ;* FNAME: _TIMER_disableInt             FR SIZE:   0           *
     463              ;*                                                             *
     464              ;* FUNCTION ENVIRONMENT                                        *
     465              ;*                                                             *
     466              ;* FUNCTION PROPERTIES                                         *
     467              ;*                            0 Parameter,  0 Auto,  0 SOE     *
     468              ;***************************************************************
     469              
     470              _TIMER_disableInt:
     471              ;* AR4   assigned to _timerHandle
     472              $C$DW$35        .dwtag  DW_TAG_variable
     473                      .dwattr $C$DW$35, DW_AT_name("timerHandle")
     474                      .dwattr $C$DW$35, DW_AT_TI_symbol_name("_timerHandle")
     475                      .dwattr $C$DW$35, DW_AT_type(*$C$DW$T$34)
     476                      .dwattr $C$DW$35, DW_AT_location[DW_OP_reg12]
     477              
     478                      .dwcfi  cfa_offset, -2
     479                      .dwcfi  save_reg_to_mem, 26, 0
     480                      .dwpsn  file "../drivers/source/timer.c",line 73,column 5,is_stmt,isa 0
     481 0000002c 18E4          AND       *+XAR4[4],#0xbfff     ; [CPU_] |73| 
         0000002d BFFF 
     482              $C$DW$36        .dwtag  DW_TAG_TI_branch
     483                      .dwattr $C$DW$36, DW_AT_low_pc(0x00)
     484                      .dwattr $C$DW$36, DW_AT_TI_return
     485              
TMS320C2000 Assembler PC v15.12.3 Tue Sep 20 20:30:12 2016

Tools Copyright (c) 1996-2015 Texas Instruments Incorporated
C:\Users\MaCHaDo\AppData\Local\Temp\2345210                          PAGE   10

     486 0000002e 0006          LRETR     ; [CPU_] 
     487                      ; return occurs ; [] 
     488                      .dwattr $C$DW$33, DW_AT_TI_end_file("../drivers/source/timer.c")
     489                      .dwattr $C$DW$33, DW_AT_TI_end_line(0x4c)
     490                      .dwattr $C$DW$33, DW_AT_TI_end_column(0x01)
     491                      .dwendentry
     492                      .dwendtag $C$DW$33
     493              
     494 0000002f               .sect   ".text"
     495                      .clink
     496                      .global _TIMER_clearFlag
     497              
     498              $C$DW$37        .dwtag  DW_TAG_subprogram
     499                      .dwattr $C$DW$37, DW_AT_name("TIMER_clearFlag")
     500                      .dwattr $C$DW$37, DW_AT_low_pc(_TIMER_clearFlag)
     501                      .dwattr $C$DW$37, DW_AT_high_pc(0x00)
     502                      .dwattr $C$DW$37, DW_AT_TI_symbol_name("_TIMER_clearFlag")
     503                      .dwattr $C$DW$37, DW_AT_external
     504                      .dwattr $C$DW$37, DW_AT_TI_begin_file("../drivers/source/timer.c")
     505                      .dwattr $C$DW$37, DW_AT_TI_begin_line(0x37)
     506                      .dwattr $C$DW$37, DW_AT_TI_begin_column(0x06)
     507                      .dwattr $C$DW$37, DW_AT_TI_max_frame_size(-2)
     508                      .dwpsn  file "../drivers/source/timer.c",line 56,column 1,is_stmt,address _TIMER_clearFlag,isa 0
     509              
     510                      .dwfde $C$DW$CIE, _TIMER_clearFlag
     511              $C$DW$38        .dwtag  DW_TAG_formal_parameter
     512                      .dwattr $C$DW$38, DW_AT_name("timerHandle")
     513                      .dwattr $C$DW$38, DW_AT_TI_symbol_name("_timerHandle")
     514                      .dwattr $C$DW$38, DW_AT_type(*$C$DW$T$27)
     515                      .dwattr $C$DW$38, DW_AT_location[DW_OP_reg12]
     516              
     517              
     518              ;***************************************************************
     519              ;* FNAME: _TIMER_clearFlag              FR SIZE:   0           *
     520              ;*                                                             *
     521              ;* FUNCTION ENVIRONMENT                                        *
     522              ;*                                                             *
     523              ;* FUNCTION PROPERTIES                                         *
     524              ;*                            0 Parameter,  0 Auto,  0 SOE     *
     525              ;***************************************************************
     526              
     527              _TIMER_clearFlag:
     528              ;* AR4   assigned to _timerHandle
     529              $C$DW$39        .dwtag  DW_TAG_variable
     530                      .dwattr $C$DW$39, DW_AT_name("timerHandle")
     531                      .dwattr $C$DW$39, DW_AT_TI_symbol_name("_timerHandle")
     532                      .dwattr $C$DW$39, DW_AT_type(*$C$DW$T$34)
     533                      .dwattr $C$DW$39, DW_AT_location[DW_OP_reg12]
     534              
     535                      .dwcfi  cfa_offset, -2
     536                      .dwcfi  save_reg_to_mem, 26, 0
     537                      .dwpsn  file "../drivers/source/timer.c",line 61,column 5,is_stmt,isa 0
     538 0000002f 1AE4          OR        *+XAR4[4],#0x8000     ; [CPU_] |61| 
         00000030 8000 
     539              $C$DW$40        .dwtag  DW_TAG_TI_branch
TMS320C2000 Assembler PC v15.12.3 Tue Sep 20 20:30:12 2016

Tools Copyright (c) 1996-2015 Texas Instruments Incorporated
C:\Users\MaCHaDo\AppData\Local\Temp\2345210                          PAGE   11

     540                      .dwattr $C$DW$40, DW_AT_low_pc(0x00)
     541                      .dwattr $C$DW$40, DW_AT_TI_return
     542              
     543 00000031 0006          LRETR     ; [CPU_] 
     544                      ; return occurs ; [] 
     545                      .dwattr $C$DW$37, DW_AT_TI_end_file("../drivers/source/timer.c")
     546                      .dwattr $C$DW$37, DW_AT_TI_end_line(0x40)
     547                      .dwattr $C$DW$37, DW_AT_TI_end_column(0x01)
     548                      .dwendentry
     549                      .dwendtag $C$DW$37
     550              
     551              
     552              ;***************************************************************
     553              ;* TYPE INFORMATION                                            *
     554              ;***************************************************************
     555              
     556              $C$DW$T$24      .dwtag  DW_TAG_enumeration_type
     557                      .dwattr $C$DW$T$24, DW_AT_byte_size(0x01)
     558              $C$DW$41        .dwtag  DW_TAG_enumerator
     559                      .dwattr $C$DW$41, DW_AT_name("TIMER_Status_CntIsNotZero")
     560                      .dwattr $C$DW$41, DW_AT_const_value(0x00)
     561              
     562              $C$DW$42        .dwtag  DW_TAG_enumerator
     563                      .dwattr $C$DW$42, DW_AT_name("TIMER_Status_CntIsZero")
     564                      .dwattr $C$DW$42, DW_AT_const_value(-32768)
     565              
     566                      .dwendtag $C$DW$T$24
     567              
     568              $C$DW$T$25      .dwtag  DW_TAG_typedef
     569                      .dwattr $C$DW$T$25, DW_AT_name("TIMER_Status_e")
     570                      .dwattr $C$DW$T$25, DW_AT_type(*$C$DW$T$24)
     571                      .dwattr $C$DW$T$25, DW_AT_language(DW_LANG_C)
     572              
     573              
     574              $C$DW$T$30      .dwtag  DW_TAG_enumeration_type
     575                      .dwattr $C$DW$T$30, DW_AT_byte_size(0x01)
     576              $C$DW$43        .dwtag  DW_TAG_enumerator
     577                      .dwattr $C$DW$43, DW_AT_name("TIMER_EmulationMode_StopAfterNextDecrement")
     578                      .dwattr $C$DW$43, DW_AT_const_value(0x00)
     579              
     580              $C$DW$44        .dwtag  DW_TAG_enumerator
     581                      .dwattr $C$DW$44, DW_AT_name("TIMER_EmulationMode_StopAtZero")
     582                      .dwattr $C$DW$44, DW_AT_const_value(0x400)
     583              
     584              $C$DW$45        .dwtag  DW_TAG_enumerator
     585                      .dwattr $C$DW$45, DW_AT_name("TIMER_EmulationMode_RunFree")
     586                      .dwattr $C$DW$45, DW_AT_const_value(0x800)
     587              
     588                      .dwendtag $C$DW$T$30
     589              
     590              $C$DW$T$31      .dwtag  DW_TAG_typedef
     591                      .dwattr $C$DW$T$31, DW_AT_name("TIMER_EmulationMode_e")
     592                      .dwattr $C$DW$T$31, DW_AT_type(*$C$DW$T$30)
     593                      .dwattr $C$DW$T$31, DW_AT_language(DW_LANG_C)
     594              
TMS320C2000 Assembler PC v15.12.3 Tue Sep 20 20:30:12 2016

Tools Copyright (c) 1996-2015 Texas Instruments Incorporated
C:\Users\MaCHaDo\AppData\Local\Temp\2345210                          PAGE   12

     595              $C$DW$46        .dwtag  DW_TAG_TI_far_type
     596                      .dwattr $C$DW$46, DW_AT_type(*$C$DW$T$31)
     597              
     598              $C$DW$T$32      .dwtag  DW_TAG_const_type
     599                      .dwattr $C$DW$T$32, DW_AT_type(*$C$DW$46)
     600              
     601              
     602              $C$DW$T$23      .dwtag  DW_TAG_structure_type
     603                      .dwattr $C$DW$T$23, DW_AT_name("_TIMER_Obj_")
     604                      .dwattr $C$DW$T$23, DW_AT_byte_size(0x08)
     605              $C$DW$47        .dwtag  DW_TAG_member
     606                      .dwattr $C$DW$47, DW_AT_type(*$C$DW$T$20)
     607                      .dwattr $C$DW$47, DW_AT_name("TIM")
     608                      .dwattr $C$DW$47, DW_AT_TI_symbol_name("_TIM")
     609                      .dwattr $C$DW$47, DW_AT_data_member_location[DW_OP_plus_uconst 0x0]
     610                      .dwattr $C$DW$47, DW_AT_accessibility(DW_ACCESS_public)
     611              
     612              $C$DW$48        .dwtag  DW_TAG_member
     613                      .dwattr $C$DW$48, DW_AT_type(*$C$DW$T$20)
     614                      .dwattr $C$DW$48, DW_AT_name("PRD")
     615                      .dwattr $C$DW$48, DW_AT_TI_symbol_name("_PRD")
     616                      .dwattr $C$DW$48, DW_AT_data_member_location[DW_OP_plus_uconst 0x2]
     617                      .dwattr $C$DW$48, DW_AT_accessibility(DW_ACCESS_public)
     618              
     619              $C$DW$49        .dwtag  DW_TAG_member
     620                      .dwattr $C$DW$49, DW_AT_type(*$C$DW$T$22)
     621                      .dwattr $C$DW$49, DW_AT_name("TCR")
     622                      .dwattr $C$DW$49, DW_AT_TI_symbol_name("_TCR")
     623                      .dwattr $C$DW$49, DW_AT_data_member_location[DW_OP_plus_uconst 0x4]
     624                      .dwattr $C$DW$49, DW_AT_accessibility(DW_ACCESS_public)
     625              
     626              $C$DW$50        .dwtag  DW_TAG_member
     627                      .dwattr $C$DW$50, DW_AT_type(*$C$DW$T$22)
     628                      .dwattr $C$DW$50, DW_AT_name("resvd_1")
     629                      .dwattr $C$DW$50, DW_AT_TI_symbol_name("_resvd_1")
     630                      .dwattr $C$DW$50, DW_AT_data_member_location[DW_OP_plus_uconst 0x5]
     631                      .dwattr $C$DW$50, DW_AT_accessibility(DW_ACCESS_public)
     632              
     633              $C$DW$51        .dwtag  DW_TAG_member
     634                      .dwattr $C$DW$51, DW_AT_type(*$C$DW$T$20)
     635                      .dwattr $C$DW$51, DW_AT_name("TPR")
     636                      .dwattr $C$DW$51, DW_AT_TI_symbol_name("_TPR")
     637                      .dwattr $C$DW$51, DW_AT_data_member_location[DW_OP_plus_uconst 0x6]
     638                      .dwattr $C$DW$51, DW_AT_accessibility(DW_ACCESS_public)
     639              
     640                      .dwendtag $C$DW$T$23
     641              
     642              $C$DW$T$33      .dwtag  DW_TAG_typedef
     643                      .dwattr $C$DW$T$33, DW_AT_name("TIMER_Obj")
     644                      .dwattr $C$DW$T$33, DW_AT_type(*$C$DW$T$23)
     645                      .dwattr $C$DW$T$33, DW_AT_language(DW_LANG_C)
     646              
     647              $C$DW$T$26      .dwtag  DW_TAG_pointer_type
     648                      .dwattr $C$DW$T$26, DW_AT_type(*$C$DW$T$23)
     649                      .dwattr $C$DW$T$26, DW_AT_address_class(0x20)
TMS320C2000 Assembler PC v15.12.3 Tue Sep 20 20:30:12 2016

Tools Copyright (c) 1996-2015 Texas Instruments Incorporated
C:\Users\MaCHaDo\AppData\Local\Temp\2345210                          PAGE   13

     650              
     651              $C$DW$T$27      .dwtag  DW_TAG_typedef
     652                      .dwattr $C$DW$T$27, DW_AT_name("TIMER_Handle")
     653                      .dwattr $C$DW$T$27, DW_AT_type(*$C$DW$T$26)
     654                      .dwattr $C$DW$T$27, DW_AT_language(DW_LANG_C)
     655              
     656              $C$DW$52        .dwtag  DW_TAG_TI_far_type
     657                      .dwattr $C$DW$52, DW_AT_type(*$C$DW$T$27)
     658              
     659              $C$DW$T$34      .dwtag  DW_TAG_const_type
     660                      .dwattr $C$DW$T$34, DW_AT_type(*$C$DW$52)
     661              
     662              $C$DW$T$2       .dwtag  DW_TAG_unspecified_type
     663                      .dwattr $C$DW$T$2, DW_AT_name("void")
     664              
     665              $C$DW$T$3       .dwtag  DW_TAG_pointer_type
     666                      .dwattr $C$DW$T$3, DW_AT_type(*$C$DW$T$2)
     667                      .dwattr $C$DW$T$3, DW_AT_address_class(0x20)
     668              
     669              $C$DW$T$4       .dwtag  DW_TAG_base_type
     670                      .dwattr $C$DW$T$4, DW_AT_encoding(DW_ATE_boolean)
     671                      .dwattr $C$DW$T$4, DW_AT_name("bool")
     672                      .dwattr $C$DW$T$4, DW_AT_byte_size(0x01)
     673              
     674              $C$DW$T$5       .dwtag  DW_TAG_base_type
     675                      .dwattr $C$DW$T$5, DW_AT_encoding(DW_ATE_signed_char)
     676                      .dwattr $C$DW$T$5, DW_AT_name("signed char")
     677                      .dwattr $C$DW$T$5, DW_AT_byte_size(0x01)
     678              
     679              $C$DW$T$6       .dwtag  DW_TAG_base_type
     680                      .dwattr $C$DW$T$6, DW_AT_encoding(DW_ATE_unsigned_char)
     681                      .dwattr $C$DW$T$6, DW_AT_name("unsigned char")
     682                      .dwattr $C$DW$T$6, DW_AT_byte_size(0x01)
     683              
     684              $C$DW$T$7       .dwtag  DW_TAG_base_type
     685                      .dwattr $C$DW$T$7, DW_AT_encoding(DW_ATE_signed_char)
     686                      .dwattr $C$DW$T$7, DW_AT_name("wchar_t")
     687                      .dwattr $C$DW$T$7, DW_AT_byte_size(0x01)
     688              
     689              $C$DW$T$8       .dwtag  DW_TAG_base_type
     690                      .dwattr $C$DW$T$8, DW_AT_encoding(DW_ATE_signed)
     691                      .dwattr $C$DW$T$8, DW_AT_name("short")
     692                      .dwattr $C$DW$T$8, DW_AT_byte_size(0x01)
     693              
     694              $C$DW$T$9       .dwtag  DW_TAG_base_type
     695                      .dwattr $C$DW$T$9, DW_AT_encoding(DW_ATE_unsigned)
     696                      .dwattr $C$DW$T$9, DW_AT_name("unsigned short")
     697                      .dwattr $C$DW$T$9, DW_AT_byte_size(0x01)
     698              
     699              $C$DW$T$10      .dwtag  DW_TAG_base_type
     700                      .dwattr $C$DW$T$10, DW_AT_encoding(DW_ATE_signed)
     701                      .dwattr $C$DW$T$10, DW_AT_name("int")
     702                      .dwattr $C$DW$T$10, DW_AT_byte_size(0x01)
     703              
     704              $C$DW$T$11      .dwtag  DW_TAG_base_type
TMS320C2000 Assembler PC v15.12.3 Tue Sep 20 20:30:12 2016

Tools Copyright (c) 1996-2015 Texas Instruments Incorporated
C:\Users\MaCHaDo\AppData\Local\Temp\2345210                          PAGE   14

     705                      .dwattr $C$DW$T$11, DW_AT_encoding(DW_ATE_unsigned)
     706                      .dwattr $C$DW$T$11, DW_AT_name("unsigned int")
     707                      .dwattr $C$DW$T$11, DW_AT_byte_size(0x01)
     708              
     709              $C$DW$T$21      .dwtag  DW_TAG_typedef
     710                      .dwattr $C$DW$T$21, DW_AT_name("uint16_t")
     711                      .dwattr $C$DW$T$21, DW_AT_type(*$C$DW$T$11)
     712                      .dwattr $C$DW$T$21, DW_AT_language(DW_LANG_C)
     713              
     714              $C$DW$53        .dwtag  DW_TAG_TI_far_type
     715                      .dwattr $C$DW$53, DW_AT_type(*$C$DW$T$21)
     716              
     717              $C$DW$T$22      .dwtag  DW_TAG_volatile_type
     718                      .dwattr $C$DW$T$22, DW_AT_type(*$C$DW$53)
     719              
     720              $C$DW$54        .dwtag  DW_TAG_TI_far_type
     721                      .dwattr $C$DW$54, DW_AT_type(*$C$DW$T$21)
     722              
     723              $C$DW$T$42      .dwtag  DW_TAG_const_type
     724                      .dwattr $C$DW$T$42, DW_AT_type(*$C$DW$54)
     725              
     726              $C$DW$T$12      .dwtag  DW_TAG_base_type
     727                      .dwattr $C$DW$T$12, DW_AT_encoding(DW_ATE_signed)
     728                      .dwattr $C$DW$T$12, DW_AT_name("long")
     729                      .dwattr $C$DW$T$12, DW_AT_byte_size(0x02)
     730              
     731              $C$DW$T$13      .dwtag  DW_TAG_base_type
     732                      .dwattr $C$DW$T$13, DW_AT_encoding(DW_ATE_unsigned)
     733                      .dwattr $C$DW$T$13, DW_AT_name("unsigned long")
     734                      .dwattr $C$DW$T$13, DW_AT_byte_size(0x02)
     735              
     736              $C$DW$T$35      .dwtag  DW_TAG_typedef
     737                      .dwattr $C$DW$T$35, DW_AT_name("size_t")
     738                      .dwattr $C$DW$T$35, DW_AT_type(*$C$DW$T$13)
     739                      .dwattr $C$DW$T$35, DW_AT_language(DW_LANG_C)
     740              
     741              $C$DW$55        .dwtag  DW_TAG_TI_far_type
     742                      .dwattr $C$DW$55, DW_AT_type(*$C$DW$T$35)
     743              
     744              $C$DW$T$36      .dwtag  DW_TAG_const_type
     745                      .dwattr $C$DW$T$36, DW_AT_type(*$C$DW$55)
     746              
     747              $C$DW$T$19      .dwtag  DW_TAG_typedef
     748                      .dwattr $C$DW$T$19, DW_AT_name("uint32_t")
     749                      .dwattr $C$DW$T$19, DW_AT_type(*$C$DW$T$13)
     750                      .dwattr $C$DW$T$19, DW_AT_language(DW_LANG_C)
     751              
     752              $C$DW$56        .dwtag  DW_TAG_TI_far_type
     753                      .dwattr $C$DW$56, DW_AT_type(*$C$DW$T$19)
     754              
     755              $C$DW$T$20      .dwtag  DW_TAG_volatile_type
     756                      .dwattr $C$DW$T$20, DW_AT_type(*$C$DW$56)
     757              
     758              $C$DW$T$14      .dwtag  DW_TAG_base_type
     759                      .dwattr $C$DW$T$14, DW_AT_encoding(DW_ATE_signed)
TMS320C2000 Assembler PC v15.12.3 Tue Sep 20 20:30:12 2016

Tools Copyright (c) 1996-2015 Texas Instruments Incorporated
C:\Users\MaCHaDo\AppData\Local\Temp\2345210                          PAGE   15

     760                      .dwattr $C$DW$T$14, DW_AT_name("long long")
     761                      .dwattr $C$DW$T$14, DW_AT_byte_size(0x04)
     762              
     763              $C$DW$T$15      .dwtag  DW_TAG_base_type
     764                      .dwattr $C$DW$T$15, DW_AT_encoding(DW_ATE_unsigned)
     765                      .dwattr $C$DW$T$15, DW_AT_name("unsigned long long")
     766                      .dwattr $C$DW$T$15, DW_AT_byte_size(0x04)
     767              
     768              $C$DW$T$16      .dwtag  DW_TAG_base_type
     769                      .dwattr $C$DW$T$16, DW_AT_encoding(DW_ATE_float)
     770                      .dwattr $C$DW$T$16, DW_AT_name("float")
     771                      .dwattr $C$DW$T$16, DW_AT_byte_size(0x02)
     772              
     773              $C$DW$T$17      .dwtag  DW_TAG_base_type
     774                      .dwattr $C$DW$T$17, DW_AT_encoding(DW_ATE_float)
     775                      .dwattr $C$DW$T$17, DW_AT_name("double")
     776                      .dwattr $C$DW$T$17, DW_AT_byte_size(0x02)
     777              
     778              $C$DW$T$18      .dwtag  DW_TAG_base_type
     779                      .dwattr $C$DW$T$18, DW_AT_encoding(DW_ATE_float)
     780                      .dwattr $C$DW$T$18, DW_AT_name("long double")
     781                      .dwattr $C$DW$T$18, DW_AT_byte_size(0x04)
     782              
     783                      .dwattr $C$DW$CU, DW_AT_language(DW_LANG_C)
     784              
     785              ;***************************************************************
     786              ;* DWARF CIE ENTRIES                                           *
     787              ;***************************************************************
     788              
     789              $C$DW$CIE       .dwcie 26
     790                      .dwcfi  cfa_register, 20
     791                      .dwcfi  cfa_offset, 0
     792                      .dwcfi  undefined, 0
     793                      .dwcfi  undefined, 1
     794                      .dwcfi  undefined, 2
     795                      .dwcfi  undefined, 3
     796                      .dwcfi  undefined, 20
     797                      .dwcfi  undefined, 21
     798                      .dwcfi  undefined, 22
     799                      .dwcfi  undefined, 23
     800                      .dwcfi  undefined, 24
     801                      .dwcfi  undefined, 25
     802                      .dwcfi  undefined, 26
     803                      .dwcfi  same_value, 28
     804                      .dwcfi  undefined, 29
     805                      .dwcfi  undefined, 30
     806                      .dwcfi  undefined, 31
     807                      .dwcfi  undefined, 32
     808                      .dwcfi  undefined, 33
     809                      .dwcfi  undefined, 34
     810                      .dwcfi  undefined, 35
     811                      .dwcfi  undefined, 36
     812                      .dwcfi  undefined, 37
     813                      .dwcfi  undefined, 38
     814                      .dwcfi  undefined, 75
TMS320C2000 Assembler PC v15.12.3 Tue Sep 20 20:30:12 2016

Tools Copyright (c) 1996-2015 Texas Instruments Incorporated
C:\Users\MaCHaDo\AppData\Local\Temp\2345210                          PAGE   16

     815                      .dwcfi  undefined, 76
     816                      .dwcfi  undefined, 77
     817                      .dwcfi  undefined, 4
     818                      .dwcfi  undefined, 5
     819                      .dwcfi  same_value, 6
     820                      .dwcfi  same_value, 7
     821                      .dwcfi  same_value, 8
     822                      .dwcfi  same_value, 9
     823                      .dwcfi  same_value, 10
     824                      .dwcfi  same_value, 11
     825                      .dwcfi  undefined, 12
     826                      .dwcfi  undefined, 13
     827                      .dwcfi  undefined, 14
     828                      .dwcfi  undefined, 15
     829                      .dwcfi  undefined, 16
     830                      .dwcfi  undefined, 17
     831                      .dwcfi  undefined, 18
     832                      .dwcfi  undefined, 19
     833                      .dwendentry
     834              
     835              ;***************************************************************
     836              ;* DWARF REGISTER MAP                                          *
     837              ;***************************************************************
     838              
     839              $C$DW$57        .dwtag  DW_TAG_TI_assign_register
     840                      .dwattr $C$DW$57, DW_AT_name("AL")
     841                      .dwattr $C$DW$57, DW_AT_location[DW_OP_reg0]
     842              
     843              $C$DW$58        .dwtag  DW_TAG_TI_assign_register
     844                      .dwattr $C$DW$58, DW_AT_name("AH")
     845                      .dwattr $C$DW$58, DW_AT_location[DW_OP_reg1]
     846              
     847              $C$DW$59        .dwtag  DW_TAG_TI_assign_register
     848                      .dwattr $C$DW$59, DW_AT_name("PL")
     849                      .dwattr $C$DW$59, DW_AT_location[DW_OP_reg2]
     850              
     851              $C$DW$60        .dwtag  DW_TAG_TI_assign_register
     852                      .dwattr $C$DW$60, DW_AT_name("PH")
     853                      .dwattr $C$DW$60, DW_AT_location[DW_OP_reg3]
     854              
     855              $C$DW$61        .dwtag  DW_TAG_TI_assign_register
     856                      .dwattr $C$DW$61, DW_AT_name("SP")
     857                      .dwattr $C$DW$61, DW_AT_location[DW_OP_reg20]
     858              
     859              $C$DW$62        .dwtag  DW_TAG_TI_assign_register
     860                      .dwattr $C$DW$62, DW_AT_name("XT")
     861                      .dwattr $C$DW$62, DW_AT_location[DW_OP_reg21]
     862              
     863              $C$DW$63        .dwtag  DW_TAG_TI_assign_register
     864                      .dwattr $C$DW$63, DW_AT_name("T")
     865                      .dwattr $C$DW$63, DW_AT_location[DW_OP_reg22]
     866              
     867              $C$DW$64        .dwtag  DW_TAG_TI_assign_register
     868                      .dwattr $C$DW$64, DW_AT_name("ST0")
     869                      .dwattr $C$DW$64, DW_AT_location[DW_OP_reg23]
TMS320C2000 Assembler PC v15.12.3 Tue Sep 20 20:30:12 2016

Tools Copyright (c) 1996-2015 Texas Instruments Incorporated
C:\Users\MaCHaDo\AppData\Local\Temp\2345210                          PAGE   17

     870              
     871              $C$DW$65        .dwtag  DW_TAG_TI_assign_register
     872                      .dwattr $C$DW$65, DW_AT_name("ST1")
     873                      .dwattr $C$DW$65, DW_AT_location[DW_OP_reg24]
     874              
     875              $C$DW$66        .dwtag  DW_TAG_TI_assign_register
     876                      .dwattr $C$DW$66, DW_AT_name("PC")
     877                      .dwattr $C$DW$66, DW_AT_location[DW_OP_reg25]
     878              
     879              $C$DW$67        .dwtag  DW_TAG_TI_assign_register
     880                      .dwattr $C$DW$67, DW_AT_name("RPC")
     881                      .dwattr $C$DW$67, DW_AT_location[DW_OP_reg26]
     882              
     883              $C$DW$68        .dwtag  DW_TAG_TI_assign_register
     884                      .dwattr $C$DW$68, DW_AT_name("FP")
     885                      .dwattr $C$DW$68, DW_AT_location[DW_OP_reg28]
     886              
     887              $C$DW$69        .dwtag  DW_TAG_TI_assign_register
     888                      .dwattr $C$DW$69, DW_AT_name("DP")
     889                      .dwattr $C$DW$69, DW_AT_location[DW_OP_reg29]
     890              
     891              $C$DW$70        .dwtag  DW_TAG_TI_assign_register
     892                      .dwattr $C$DW$70, DW_AT_name("SXM")
     893                      .dwattr $C$DW$70, DW_AT_location[DW_OP_reg30]
     894              
     895              $C$DW$71        .dwtag  DW_TAG_TI_assign_register
     896                      .dwattr $C$DW$71, DW_AT_name("PM")
     897                      .dwattr $C$DW$71, DW_AT_location[DW_OP_reg31]
     898              
     899              $C$DW$72        .dwtag  DW_TAG_TI_assign_register
     900                      .dwattr $C$DW$72, DW_AT_name("OVM")
     901                      .dwattr $C$DW$72, DW_AT_location[DW_OP_regx 0x20]
     902              
     903              $C$DW$73        .dwtag  DW_TAG_TI_assign_register
     904                      .dwattr $C$DW$73, DW_AT_name("PAGE0")
     905                      .dwattr $C$DW$73, DW_AT_location[DW_OP_regx 0x21]
     906              
     907              $C$DW$74        .dwtag  DW_TAG_TI_assign_register
     908                      .dwattr $C$DW$74, DW_AT_name("AMODE")
     909                      .dwattr $C$DW$74, DW_AT_location[DW_OP_regx 0x22]
     910              
     911              $C$DW$75        .dwtag  DW_TAG_TI_assign_register
     912                      .dwattr $C$DW$75, DW_AT_name("INTM")
     913                      .dwattr $C$DW$75, DW_AT_location[DW_OP_regx 0x23]
     914              
     915              $C$DW$76        .dwtag  DW_TAG_TI_assign_register
     916                      .dwattr $C$DW$76, DW_AT_name("IFR")
     917                      .dwattr $C$DW$76, DW_AT_location[DW_OP_regx 0x24]
     918              
     919              $C$DW$77        .dwtag  DW_TAG_TI_assign_register
     920                      .dwattr $C$DW$77, DW_AT_name("IER")
     921                      .dwattr $C$DW$77, DW_AT_location[DW_OP_regx 0x25]
     922              
     923              $C$DW$78        .dwtag  DW_TAG_TI_assign_register
     924                      .dwattr $C$DW$78, DW_AT_name("V")
TMS320C2000 Assembler PC v15.12.3 Tue Sep 20 20:30:12 2016

Tools Copyright (c) 1996-2015 Texas Instruments Incorporated
C:\Users\MaCHaDo\AppData\Local\Temp\2345210                          PAGE   18

     925                      .dwattr $C$DW$78, DW_AT_location[DW_OP_regx 0x26]
     926              
     927              $C$DW$79        .dwtag  DW_TAG_TI_assign_register
     928                      .dwattr $C$DW$79, DW_AT_name("PSEUDOH")
     929                      .dwattr $C$DW$79, DW_AT_location[DW_OP_regx 0x4c]
     930              
     931              $C$DW$80        .dwtag  DW_TAG_TI_assign_register
     932                      .dwattr $C$DW$80, DW_AT_name("VOL")
     933                      .dwattr $C$DW$80, DW_AT_location[DW_OP_regx 0x4d]
     934              
     935              $C$DW$81        .dwtag  DW_TAG_TI_assign_register
     936                      .dwattr $C$DW$81, DW_AT_name("AR0")
     937                      .dwattr $C$DW$81, DW_AT_location[DW_OP_reg4]
     938              
     939              $C$DW$82        .dwtag  DW_TAG_TI_assign_register
     940                      .dwattr $C$DW$82, DW_AT_name("XAR0")
     941                      .dwattr $C$DW$82, DW_AT_location[DW_OP_reg5]
     942              
     943              $C$DW$83        .dwtag  DW_TAG_TI_assign_register
     944                      .dwattr $C$DW$83, DW_AT_name("AR1")
     945                      .dwattr $C$DW$83, DW_AT_location[DW_OP_reg6]
     946              
     947              $C$DW$84        .dwtag  DW_TAG_TI_assign_register
     948                      .dwattr $C$DW$84, DW_AT_name("XAR1")
     949                      .dwattr $C$DW$84, DW_AT_location[DW_OP_reg7]
     950              
     951              $C$DW$85        .dwtag  DW_TAG_TI_assign_register
     952                      .dwattr $C$DW$85, DW_AT_name("AR2")
     953                      .dwattr $C$DW$85, DW_AT_location[DW_OP_reg8]
     954              
     955              $C$DW$86        .dwtag  DW_TAG_TI_assign_register
     956                      .dwattr $C$DW$86, DW_AT_name("XAR2")
     957                      .dwattr $C$DW$86, DW_AT_location[DW_OP_reg9]
     958              
     959              $C$DW$87        .dwtag  DW_TAG_TI_assign_register
     960                      .dwattr $C$DW$87, DW_AT_name("AR3")
     961                      .dwattr $C$DW$87, DW_AT_location[DW_OP_reg10]
     962              
     963              $C$DW$88        .dwtag  DW_TAG_TI_assign_register
     964                      .dwattr $C$DW$88, DW_AT_name("XAR3")
     965                      .dwattr $C$DW$88, DW_AT_location[DW_OP_reg11]
     966              
     967              $C$DW$89        .dwtag  DW_TAG_TI_assign_register
     968                      .dwattr $C$DW$89, DW_AT_name("AR4")
     969                      .dwattr $C$DW$89, DW_AT_location[DW_OP_reg12]
     970              
     971              $C$DW$90        .dwtag  DW_TAG_TI_assign_register
     972                      .dwattr $C$DW$90, DW_AT_name("XAR4")
     973                      .dwattr $C$DW$90, DW_AT_location[DW_OP_reg13]
     974              
     975              $C$DW$91        .dwtag  DW_TAG_TI_assign_register
     976                      .dwattr $C$DW$91, DW_AT_name("AR5")
     977                      .dwattr $C$DW$91, DW_AT_location[DW_OP_reg14]
     978              
     979              $C$DW$92        .dwtag  DW_TAG_TI_assign_register
TMS320C2000 Assembler PC v15.12.3 Tue Sep 20 20:30:12 2016

Tools Copyright (c) 1996-2015 Texas Instruments Incorporated
C:\Users\MaCHaDo\AppData\Local\Temp\2345210                          PAGE   19

     980                      .dwattr $C$DW$92, DW_AT_name("XAR5")
     981                      .dwattr $C$DW$92, DW_AT_location[DW_OP_reg15]
     982              
     983              $C$DW$93        .dwtag  DW_TAG_TI_assign_register
     984                      .dwattr $C$DW$93, DW_AT_name("AR6")
     985                      .dwattr $C$DW$93, DW_AT_location[DW_OP_reg16]
     986              
     987              $C$DW$94        .dwtag  DW_TAG_TI_assign_register
     988                      .dwattr $C$DW$94, DW_AT_name("XAR6")
     989                      .dwattr $C$DW$94, DW_AT_location[DW_OP_reg17]
     990              
     991              $C$DW$95        .dwtag  DW_TAG_TI_assign_register
     992                      .dwattr $C$DW$95, DW_AT_name("AR7")
     993                      .dwattr $C$DW$95, DW_AT_location[DW_OP_reg18]
     994              
     995              $C$DW$96        .dwtag  DW_TAG_TI_assign_register
     996                      .dwattr $C$DW$96, DW_AT_name("XAR7")
     997                      .dwattr $C$DW$96, DW_AT_location[DW_OP_reg19]
     998              
     999                      .dwendtag $C$DW$CU
    1000              

No Assembly Errors, No Assembly Warnings
